
test.elf:     file format elf64-littleriscv


Disassembly of section .text.init:

0000000080000000 <_start>:
    80000000:	0580006f          	j	80000058 <reset_vector>

0000000080000004 <trap_vector>:
    80000004:	34202f73          	csrr	t5,mcause
    80000008:	00800f93          	li	t6,8
    8000000c:	05ff0063          	beq	t5,t6,8000004c <write_tohost>
    80000010:	00900f93          	li	t6,9
    80000014:	03ff0c63          	beq	t5,t6,8000004c <write_tohost>
    80000018:	00b00f93          	li	t6,11
    8000001c:	03ff0863          	beq	t5,t6,8000004c <write_tohost>
    80000020:	00000f13          	li	t5,0
    80000024:	000f0463          	beqz	t5,8000002c <trap_vector+0x28>
    80000028:	000f0067          	jr	t5
    8000002c:	34202f73          	csrr	t5,mcause
    80000030:	000f5463          	bgez	t5,80000038 <handle_exception>
    80000034:	0140006f          	j	80000048 <other_exception>

0000000080000038 <handle_exception>:
    80000038:	34102e73          	csrr	t3,mepc
    8000003c:	004e0e13          	addi	t3,t3,4
    80000040:	341e1073          	csrw	mepc,t3
    80000044:	30200073          	mret

0000000080000048 <other_exception>:
    80000048:	5391e193          	ori	gp,gp,1337

000000008000004c <write_tohost>:
    8000004c:	00001f17          	auipc	t5,0x1
    80000050:	fa3f2a23          	sw	gp,-76(t5) # 80001000 <tohost>
    80000054:	ff9ff06f          	j	8000004c <write_tohost>

0000000080000058 <reset_vector>:
    80000058:	f1402573          	csrr	a0,mhartid
    8000005c:	00051063          	bnez	a0,8000005c <reset_vector+0x4>
    80000060:	00000297          	auipc	t0,0x0
    80000064:	01028293          	addi	t0,t0,16 # 80000070 <reset_vector+0x18>
    80000068:	30529073          	csrw	mtvec,t0
    8000006c:	18005073          	csrwi	satp,0
    80000070:	00000297          	auipc	t0,0x0
    80000074:	01c28293          	addi	t0,t0,28 # 8000008c <reset_vector+0x34>
    80000078:	30529073          	csrw	mtvec,t0
    8000007c:	fff00293          	li	t0,-1
    80000080:	3b029073          	csrw	pmpaddr0,t0
    80000084:	01f00293          	li	t0,31
    80000088:	3a029073          	csrw	pmpcfg0,t0
    8000008c:	00000297          	auipc	t0,0x0
    80000090:	01828293          	addi	t0,t0,24 # 800000a4 <reset_vector+0x4c>
    80000094:	30529073          	csrw	mtvec,t0
    80000098:	30205073          	csrwi	medeleg,0
    8000009c:	30305073          	csrwi	mideleg,0
    800000a0:	30405073          	csrwi	mie,0
    800000a4:	00000193          	li	gp,0
    800000a8:	00000297          	auipc	t0,0x0
    800000ac:	f5c28293          	addi	t0,t0,-164 # 80000004 <trap_vector>
    800000b0:	30529073          	csrw	mtvec,t0
    800000b4:	00100513          	li	a0,1
    800000b8:	01f51513          	slli	a0,a0,0x1f
    800000bc:	00055863          	bgez	a0,800000cc <reset_vector+0x74>
    800000c0:	0ff0000f          	fence
    800000c4:	00100193          	li	gp,1
    800000c8:	00000073          	ecall
    800000cc:	00000293          	li	t0,0
    800000d0:	00028e63          	beqz	t0,800000ec <reset_vector+0x94>
    800000d4:	10529073          	csrw	stvec,t0
    800000d8:	0000b2b7          	lui	t0,0xb
    800000dc:	1092829b          	addiw	t0,t0,265
    800000e0:	30229073          	csrw	medeleg,t0
    800000e4:	30202373          	csrr	t1,medeleg
    800000e8:	f66290e3          	bne	t0,t1,80000048 <other_exception>
    800000ec:	30005073          	csrwi	mstatus,0
    800000f0:	00000297          	auipc	t0,0x0
    800000f4:	01428293          	addi	t0,t0,20 # 80000104 <reset_vector+0xac>
    800000f8:	34129073          	csrw	mepc,t0
    800000fc:	f1402573          	csrr	a0,mhartid
    80000100:	30200073          	mret
    80000104:	0180006f          	j	8000011c <test_start>

0000000080000108 <crash_backward>:
    80000108:	0ff0000f          	fence
    8000010c:	00018063          	beqz	gp,8000010c <crash_backward+0x4>
    80000110:	00119193          	slli	gp,gp,0x1
    80000114:	0011e193          	ori	gp,gp,1
    80000118:	00000073          	ecall

000000008000011c <test_start>:
    8000011c:	00001f97          	auipc	t6,0x1
    80000120:	fe4f8f93          	addi	t6,t6,-28 # 80001100 <hidden_data>
    80000124:	000fb003          	ld	zero,0(t6)
    80000128:	008fb083          	ld	ra,8(t6)
    8000012c:	010fb103          	ld	sp,16(t6)
    80000130:	018fb183          	ld	gp,24(t6)
    80000134:	020fb203          	ld	tp,32(t6)
    80000138:	028fb283          	ld	t0,40(t6)
    8000013c:	030fb303          	ld	t1,48(t6)
    80000140:	038fb383          	ld	t2,56(t6)
    80000144:	040fb403          	ld	s0,64(t6)
    80000148:	048fb483          	ld	s1,72(t6)
    8000014c:	050fb503          	ld	a0,80(t6)
    80000150:	058fb583          	ld	a1,88(t6)
    80000154:	060fb603          	ld	a2,96(t6)
    80000158:	068fb683          	ld	a3,104(t6)
    8000015c:	070fb703          	ld	a4,112(t6)
    80000160:	078fb783          	ld	a5,120(t6)
    80000164:	080fb803          	ld	a6,128(t6)
    80000168:	088fb883          	ld	a7,136(t6)
    8000016c:	090fb903          	ld	s2,144(t6)
    80000170:	098fb983          	ld	s3,152(t6)
    80000174:	0a0fba03          	ld	s4,160(t6)
    80000178:	0a8fba83          	ld	s5,168(t6)
    8000017c:	0b0fbb03          	ld	s6,176(t6)
    80000180:	0b8fbb83          	ld	s7,184(t6)
    80000184:	0c0fbc03          	ld	s8,192(t6)
    80000188:	0c8fbc83          	ld	s9,200(t6)
    8000018c:	0d0fbd03          	ld	s10,208(t6)
    80000190:	0d8fbd83          	ld	s11,216(t6)
    80000194:	0e0fbe03          	ld	t3,224(t6)
    80000198:	0e8fbe83          	ld	t4,232(t6)
    8000019c:	0f0fbf03          	ld	t5,240(t6)
    800001a0:	0f8fbf83          	ld	t6,248(t6)
    800001a4:	0040006f          	j	800001a8 <pseg_0>

00000000800001a8 <pseg_0>:
    800001a8:	f60010e3          	bnez	zero,80000108 <crash_backward>
    800001ac:	40e702bb          	subw	t0,a4,a4
    800001b0:	7ff00713          	li	a4,2047
    800001b4:	c4900793          	li	a5,-951
    800001b8:	47470f13          	addi	t5,a4,1140
    800001bc:	ab018f93          	addi	t6,gp,-1360 # 800019c0 <_end+0x2b0>
    800001c0:	025298b3          	mulh	a7,t0,t0
    800001c4:	9f518a13          	addi	s4,gp,-1547 # 80001905 <_end+0x1f5>
    800001c8:	cf518d93          	addi	s11,gp,-779 # 80001c05 <_end+0x4f5>
    800001cc:	3b000193          	li	gp,944
    800001d0:	00001217          	auipc	tp,0x1
    800001d4:	58c20213          	addi	tp,tp,1420 # 8000175c <_end+0x4c>
    800001d8:	00000c13          	li	s8,0
    800001dc:	c53a2603          	lw	a2,-941(s4)
    800001e0:	9a4fa983          	lw	s3,-1628(t6)
    800001e4:	9ab00513          	li	a0,-1621
    800001e8:	02b565b3          	rem	a1,a0,a1
    800001ec:	02a55e3b          	divuw	t3,a0,a0
    800001f0:	40f7d4b3          	sra	s1,a5,a5
    800001f4:	9e900d13          	li	s10,-1559
    800001f8:	3e280b1b          	addiw	s6,a6,994
    800001fc:	d6f22823          	sw	a5,-656(tp) # fffffffffffffd70 <__global_pointer$+0xffffffff7fffde60>
    80000200:	00000293          	li	t0,0
    80000204:	1d000093          	li	ra,464
    80000208:	16f00b93          	li	s7,367
    8000020c:	4017d433          	sra	s0,a5,ra
    80000210:	00001c97          	auipc	s9,0x1
    80000214:	5c0c8c93          	addi	s9,s9,1472 # 800017d0 <_end+0xc0>
    80000218:	0171aab3          	slt	s5,gp,s7
    8000021c:	c0acd803          	lhu	a6,-1014(s9)
    80000220:	03ad033b          	mulw	t1,s10,s10
    80000224:	00001117          	auipc	sp,0x1
    80000228:	28610113          	addi	sp,sp,646 # 800014aa <test_memory+0x1aa>
    8000022c:	028407bb          	mulw	a5,s0,s0
    80000230:	03ce0733          	mul	a4,t3,t3
    80000234:	00001897          	auipc	a7,0x1
    80000238:	f9b88893          	addi	a7,a7,-101 # 800011cf <reg_x25_init+0x7>
    8000023c:	45c00213          	li	tp,1116
    80000240:	2518bf03          	ld	t5,593(a7)
    80000244:	ed613683          	ld	a3,-298(sp)
    80000248:	b1918613          	addi	a2,gp,-1255 # 80001a29 <_end+0x319>
    8000024c:	54720993          	addi	s3,tp,1351 # 547 <_start-0x7ffffab9>
    80000250:	00001397          	auipc	t2,0x1
    80000254:	4c538393          	addi	t2,t2,1221 # 80001715 <_end+0x5>
    80000258:	00100593          	li	a1,1
    8000025c:	00001f97          	auipc	t6,0x1
    80000260:	e8ff8f93          	addi	t6,t6,-369 # 800010eb <fromhost+0xab>
    80000264:	00001097          	auipc	ra,0x1
    80000268:	4f308093          	addi	ra,ra,1267 # 80001757 <_end+0x47>
    8000026c:	002bdebb          	srlw	t4,s7,sp
    80000270:	40000133          	neg	sp,zero
    80000274:	34800293          	li	t0,840
    80000278:	00001f17          	auipc	t5,0x1
    8000027c:	3f6f0f13          	addi	t5,t5,1014 # 8000166e <test_memory+0x36e>
    80000280:	03f59593          	slli	a1,a1,0x3f
    80000284:	f093ada3          	sw	s1,-229(t2)
    80000288:	71327263          	bgeu	tp,s3,8000098c <crash_forward>
    8000028c:	00fa8533          	add	a0,s5,a5
    80000290:	e5500693          	li	a3,-427
    80000294:	bcd09b83          	lh	s7,-1075(ra)
    80000298:	a31d9903          	lh	s2,-1487(s11)
    8000029c:	c0b633a3          	sd	a1,-1017(a2)
    800002a0:	00100e13          	li	t3,1
    800002a4:	03fe1e13          	slli	t3,t3,0x3f
    800002a8:	0252873b          	mulw	a4,t0,t0
    800002ac:	9d300d93          	li	s11,-1581
    800002b0:	36df9183          	lh	gp,877(t6)
    800002b4:	38900e93          	li	t4,905
    800002b8:	fff00413          	li	s0,-1
    800002bc:	00100b93          	li	s7,1
    800002c0:	03fb9b93          	slli	s7,s7,0x3f
    800002c4:	03b00c93          	li	s9,59
    800002c8:	0339823b          	mulw	tp,s3,s3
    800002cc:	01c44433          	xor	s0,s0,t3
    800002d0:	039cd833          	divu	a6,s9,s9
    800002d4:	fff00393          	li	t2,-1
    800002d8:	0173c3b3          	xor	t2,t2,s7
    800002dc:	550e8293          	addi	t0,t4,1360
    800002e0:	00001f97          	auipc	t6,0x1
    800002e4:	33ef8f93          	addi	t6,t6,830 # 8000161e <test_memory+0x31e>
    800002e8:	00001797          	auipc	a5,0x1
    800002ec:	fb878793          	addi	a5,a5,-72 # 800012a0 <reg_x20_output>
    800002f0:	89200213          	li	tp,-1902
    800002f4:	40d6d8bb          	sraw	a7,a3,a3
    800002f8:	b1a00713          	li	a4,-1254
    800002fc:	ec800913          	li	s2,-312
    80000300:	02edd633          	divu	a2,s11,a4
    80000304:	4e200193          	li	gp,1250
    80000308:	02321cb3          	mulh	s9,tp,gp
    8000030c:	d72f3303          	ld	t1,-654(t5)
    80000310:	fff00b13          	li	s6,-1
    80000314:	007a7133          	and	sp,s4,t2
    80000318:	008bfa33          	and	s4,s7,s0
    8000031c:	e8efac03          	lw	s8,-370(t6)
    80000320:	ac518893          	addi	a7,gp,-1339 # 800019d5 <_end+0x2c5>
    80000324:	017c60b3          	or	ra,s8,s7
    80000328:	00bb4b33          	xor	s6,s6,a1
    8000032c:	a9f8a703          	lw	a4,-1377(a7)
    80000330:	00100813          	li	a6,1
    80000334:	01cfe4b3          	or	s1,t6,t3
    80000338:	c7b00993          	li	s3,-901
    8000033c:	01390533          	add	a0,s2,s3
    80000340:	14a79223          	sh	a0,324(a5)
    80000344:	03f81813          	slli	a6,a6,0x3f
    80000348:	fff00213          	li	tp,-1
    8000034c:	01677ab3          	and	s5,a4,s6
    80000350:	01024233          	xor	tp,tp,a6
    80000354:	00b26d33          	or	s10,tp,a1
    80000358:	0045f633          	and	a2,a1,tp
    8000035c:	010766b3          	or	a3,a4,a6
    80000360:	00001d97          	auipc	s11,0x1
    80000364:	da9d8d93          	addi	s11,s11,-599 # 80001109 <reg_x1_init+0x1>
    80000368:	347dc183          	lbu	gp,839(s11)
    8000036c:	00001997          	auipc	s3,0x1
    80000370:	9c698993          	addi	s3,s3,-1594 # 80000d32 <test_end+0x392>
    80000374:	00001317          	auipc	t1,0x1
    80000378:	e8630313          	addi	t1,t1,-378 # 800011fa <reg_x31_init+0x2>
    8000037c:	00001217          	auipc	tp,0x1
    80000380:	ca620213          	addi	tp,tp,-858 # 80001022 <tohost+0x22>
    80000384:	64d99d23          	sh	a3,1626(s3)
    80000388:	60500913          	li	s2,1541
    8000038c:	001950b3          	srl	ra,s2,ra
    80000390:	00001a97          	auipc	s5,0x1
    80000394:	191a8a93          	addi	s5,s5,401 # 80001521 <test_memory+0x221>
    80000398:	bb918d93          	addi	s11,gp,-1095 # 80001ac9 <_end+0x3b9>
    8000039c:	010f54bb          	srlw	s1,t5,a6
    800003a0:	00090b13          	mv	s6,s2
    800003a4:	00001597          	auipc	a1,0x1
    800003a8:	05a58593          	addi	a1,a1,90 # 800013fe <test_memory+0xfe>
    800003ac:	2ea31b23          	sh	a0,758(t1)
    800003b0:	068a8703          	lb	a4,104(s5)
    800003b4:	44226e83          	lwu	t4,1090(tp) # 442 <_start-0x7ffffbbe>
    800003b8:	02fee8bb          	remw	a7,t4,a5
    800003bc:	00001f17          	auipc	t5,0x1
    800003c0:	e84f0f13          	addi	t5,t5,-380 # 80001240 <reg_x8_output>
    800003c4:	00100c13          	li	s8,1
    800003c8:	000b0813          	mv	a6,s6
    800003cc:	03fc1c13          	slli	s8,s8,0x3f
    800003d0:	1dcf1103          	lh	sp,476(t5)
    800003d4:	5b0b6c63          	bltu	s6,a6,8000098c <crash_forward>
    800003d8:	d2e718e3          	bne	a4,a4,80000108 <crash_backward>
    800003dc:	bbc00793          	li	a5,-1092
    800003e0:	0034d6b3          	srl	a3,s1,gp
    800003e4:	a2fdec83          	lwu	s9,-1489(s11)
    800003e8:	034a7dbb          	remuw	s11,s4,s4
    800003ec:	00001a97          	auipc	s5,0x1
    800003f0:	9bea8a93          	addi	s5,s5,-1602 # 80000daa <test_end+0x40a>
    800003f4:	c7918313          	addi	t1,gp,-903 # 80001b89 <_end+0x479>
    800003f8:	00001a17          	auipc	s4,0x1
    800003fc:	ce2a0a13          	addi	s4,s4,-798 # 800010da <fromhost+0x9a>
    80000400:	03ef6433          	rem	s0,t5,t5
    80000404:	fff00393          	li	t2,-1
    80000408:	96300e13          	li	t3,-1693
    8000040c:	a6900213          	li	tp,-1431
    80000410:	41ce02bb          	subw	t0,t3,t3
    80000414:	aeb32803          	lw	a6,-1301(t1)
    80000418:	03ce5d33          	divu	s10,t3,t3
    8000041c:	59ca1923          	sh	t3,1426(s4)
    80000420:	00001f97          	auipc	t6,0x1
    80000424:	1c9f8f93          	addi	t6,t6,457 # 800015e9 <test_memory+0x2e9>
    80000428:	f525b183          	ld	gp,-174(a1)
    8000042c:	40d688bb          	subw	a7,a3,a3
    80000430:	02421eb3          	mulh	t4,tp,tp
    80000434:	406cd093          	srai	ra,s9,0x6
    80000438:	00f91bbb          	sllw	s7,s2,a5
    8000043c:	40980f33          	sub	t5,a6,s1
    80000440:	95500713          	li	a4,-1707
    80000444:	02e8543b          	divuw	s0,a6,a4
    80000448:	bd518e13          	addi	t3,gp,-1067 # 80001ae5 <_end+0x3d5>
    8000044c:	0183c3b3          	xor	t2,t2,s8
    80000450:	00100693          	li	a3,1
    80000454:	021088bb          	mulw	a7,ra,ra
    80000458:	00000d93          	li	s11,0
    8000045c:	6b2ad103          	lhu	sp,1714(s5)
    80000460:	d60fa5a3          	sw	zero,-661(t6)
    80000464:	0070f533          	and	a0,ra,t2
    80000468:	000d8293          	mv	t0,s11
    8000046c:	9d300993          	li	s3,-1581
    80000470:	03ffa4b3          	mulhsu	s1,t6,t6
    80000474:	03f69693          	slli	a3,a3,0x3f
    80000478:	fff00b13          	li	s6,-1
    8000047c:	00db4b33          	xor	s6,s6,a3
    80000480:	01806633          	or	a2,zero,s8
    80000484:	50c57463          	bgeu	a0,a2,8000098c <crash_forward>
    80000488:	01376cb3          	or	s9,a4,s3
    8000048c:	00001d17          	auipc	s10,0x1
    80000490:	ae7d0d13          	addi	s10,s10,-1305 # 80000f73 <test_end+0x5d3>
    80000494:	016f7833          	and	a6,t5,s6
    80000498:	612d0f23          	sb	s2,1566(s10)
    8000049c:	00d7ea33          	or	s4,a5,a3
    800004a0:	c70a64e3          	bltu	s4,a6,80000108 <crash_backward>
    800004a4:	aafe2303          	lw	t1,-1361(t3)
    800004a8:	83700e93          	li	t4,-1993
    800004ac:	00001197          	auipc	gp,0x1
    800004b0:	ff618193          	addi	gp,gp,-10 # 800014a2 <test_memory+0x1a2>
    800004b4:	12500a93          	li	s5,293
    800004b8:	e821a103          	lw	sp,-382(gp) # 80001d92 <_end+0x682>
    800004bc:	00000d17          	auipc	s10,0x0
    800004c0:	785d0d13          	addi	s10,s10,1925 # 80000c41 <test_end+0x2a1>
    800004c4:	81800f13          	li	t5,-2024
    800004c8:	03eed0bb          	divuw	ra,t4,t5
    800004cc:	40bbd633          	sra	a2,s7,a1
    800004d0:	aa900293          	li	t0,-1367
    800004d4:	02b5bbb3          	mulhu	s7,a1,a1
    800004d8:	153a8513          	addi	a0,s5,339
    800004dc:	00c677b3          	and	a5,a2,a2
    800004e0:	24d00593          	li	a1,589
    800004e4:	6fed0e23          	sb	t5,1788(s10)
    800004e8:	00001f97          	auipc	t6,0x1
    800004ec:	9a6f8f93          	addi	t6,t6,-1626 # 80000e8e <test_end+0x4ee>
    800004f0:	03def93b          	remuw	s2,t4,t4
    800004f4:	00001417          	auipc	s0,0x1
    800004f8:	10e40413          	addi	s0,s0,270 # 80001602 <test_memory+0x302>
    800004fc:	00001397          	auipc	t2,0x1
    80000500:	1f338393          	addi	t2,t2,499 # 800016ef <test_memory+0x3ef>
    80000504:	38cecc13          	xori	s8,t4,908
    80000508:	00001d97          	auipc	s11,0x1
    8000050c:	2c9d8d93          	addi	s11,s11,713 # 800017d1 <_end+0xc1>
    80000510:	02a50f3b          	mulw	t5,a0,a0
    80000514:	cc000193          	li	gp,-832
    80000518:	00001817          	auipc	a6,0x1
    8000051c:	24080813          	addi	a6,a6,576 # 80001758 <_end+0x48>
    80000520:	42500f13          	li	t5,1061
    80000524:	e11c7093          	andi	ra,s8,-495
    80000528:	ff800b93          	li	s7,-8
    8000052c:	46004063          	bltz	zero,8000098c <crash_forward>
    80000530:	de93a0a3          	sw	s1,-543(t2)
    80000534:	f2285e83          	lhu	t4,-222(a6)
    80000538:	02b58c93          	addi	s9,a1,43
    8000053c:	de100913          	li	s2,-543
    80000540:	00001317          	auipc	t1,0x1
    80000544:	a9330313          	addi	t1,t1,-1389 # 80000fd3 <test_end+0x633>
    80000548:	4052db3b          	sraw	s6,t0,t0
    8000054c:	00000c17          	auipc	s8,0x0
    80000550:	7c0c0c13          	addi	s8,s8,1984 # 80000d0c <test_end+0x36c>
    80000554:	b4318713          	addi	a4,gp,-1213 # 80001a53 <_end+0x343>
    80000558:	58930423          	sb	s1,1416(t1)
    8000055c:	9e174883          	lbu	a7,-1567(a4)
    80000560:	e13d95a3          	sh	s3,-501(s11)
    80000564:	5fd026b7          	lui	a3,0x5fd02
    80000568:	df941c23          	sh	s9,-520(s0)
    8000056c:	33500213          	li	tp,821
    80000570:	56efa483          	lw	s1,1390(t6)
    80000574:	62b00b13          	li	s6,1579
    80000578:	6abc4d03          	lbu	s10,1707(s8)
    8000057c:	00001e17          	auipc	t3,0x1
    80000580:	96de0e13          	addi	t3,t3,-1683 # 80000ee9 <test_end+0x549>
    80000584:	29f00993          	li	s3,671
    80000588:	02f37733          	remu	a4,t1,a5
    8000058c:	00001097          	auipc	ra,0x1
    80000590:	c5108093          	addi	ra,ra,-943 # 800011dd <reg_x27_init+0x5>
    80000594:	ba018c13          	addi	s8,gp,-1120 # 80001ab0 <_end+0x3a0>
    80000598:	68de00a3          	sb	a3,1665(t3)
    8000059c:	adf18e93          	addi	t4,gp,-1313 # 800019ef <_end+0x2df>
    800005a0:	70e00293          	li	t0,1806
    800005a4:	ff700d93          	li	s11,-9
    800005a8:	00001397          	auipc	t2,0x1
    800005ac:	f7a38393          	addi	t2,t2,-134 # 80001522 <test_memory+0x222>
    800005b0:	0139b533          	sltu	a0,s3,s3
    800005b4:	037b8abb          	mulw	s5,s7,s7
    800005b8:	db718a13          	addi	s4,gp,-585 # 80001cc7 <_end+0x5b7>
    800005bc:	012f6633          	or	a2,t5,s2
    800005c0:	03bd88bb          	mulw	a7,s11,s11
    800005c4:	22f0e683          	lwu	a3,559(ra)
    800005c8:	016b583b          	srlw	a6,s6,s6
    800005cc:	00001c97          	auipc	s9,0x1
    800005d0:	f79c8c93          	addi	s9,s9,-135 # 80001545 <test_memory+0x245>
    800005d4:	03323133          	mulhu	sp,tp,s3
    800005d8:	b341c8e3          	blt	gp,s4,80000108 <crash_backward>
    800005dc:	8e677793          	andi	a5,a4,-1818
    800005e0:	00001d17          	auipc	s10,0x1
    800005e4:	982d0d13          	addi	s10,s10,-1662 # 80000f62 <test_end+0x5c2>
    800005e8:	ff138aa3          	sb	a7,-11(t2)
    800005ec:	ac900493          	li	s1,-1335
    800005f0:	00001417          	auipc	s0,0x1
    800005f4:	98840413          	addi	s0,s0,-1656 # 80000f78 <test_end+0x5d8>
    800005f8:	b24ec303          	lbu	t1,-1244(t4)
    800005fc:	409285b3          	sub	a1,t0,s1
    80000600:	508d1703          	lh	a4,1288(s10)
    80000604:	885c2c23          	sw	t0,-1896(s8)
    80000608:	118ccf83          	lbu	t6,280(s9)
    8000060c:	6e942223          	sw	s1,1764(s0)
    80000610:	00001a17          	auipc	s4,0x1
    80000614:	06da0a13          	addi	s4,s4,109 # 8000167d <test_memory+0x37d>
    80000618:	36700593          	li	a1,871
    8000061c:	00000a93          	li	s5,0
    80000620:	0031d23b          	srlw	tp,gp,gp
    80000624:	bda18b13          	addi	s6,gp,-1062 # 80001aea <_end+0x3da>
    80000628:	00001197          	auipc	gp,0x1
    8000062c:	18418193          	addi	gp,gp,388 # 800017ac <_end+0x9c>
    80000630:	00da1b83          	lh	s7,13(s4)
    80000634:	034a2fb3          	mulhsu	t6,s4,s4
    80000638:	8c2b0fa3          	sb	sp,-1825(s6)
    8000063c:	a8518413          	addi	s0,gp,-1403 # 80001995 <_end+0x285>
    80000640:	00001d97          	auipc	s11,0x1
    80000644:	18bd8d93          	addi	s11,s11,395 # 800017cb <_end+0xbb>
    80000648:	d961dc83          	lhu	s9,-618(gp) # 80001ca6 <_end+0x596>
    8000064c:	23800513          	li	a0,568
    80000650:	d7918313          	addi	t1,gp,-647 # 80001c89 <_end+0x579>
    80000654:	cfbdd903          	lhu	s2,-773(s11)
    80000658:	4107d133          	sra	sp,a5,a6
    8000065c:	a73415a3          	sh	s3,-1429(s0)
    80000660:	a4f30e9b          	addiw	t4,t1,-1457
    80000664:	08100d13          	li	s10,129
    80000668:	cc100393          	li	t2,-831
    8000066c:	40ee8b33          	sub	s6,t4,a4
    80000670:	0273fe33          	remu	t3,t2,t2
    80000674:	03ad0f33          	mul	t5,s10,s10
    80000678:	ff800613          	li	a2,-8
    8000067c:	5dc00293          	li	t0,1500
    80000680:	a5218e93          	addi	t4,gp,-1454 # 80001962 <_end+0x252>
    80000684:	00100413          	li	s0,1
    80000688:	00558733          	add	a4,a1,t0
    8000068c:	00001d97          	auipc	s11,0x1
    80000690:	98dd8d93          	addi	s11,s11,-1651 # 80001019 <tohost+0x19>
    80000694:	03f41413          	slli	s0,s0,0x3f
    80000698:	00001917          	auipc	s2,0x1
    8000069c:	f4b90913          	addi	s2,s2,-181 # 800015e3 <test_memory+0x2e3>
    800006a0:	a2b38493          	addi	s1,t2,-1493
    800006a4:	00000893          	li	a7,0
    800006a8:	00000813          	li	a6,0
    800006ac:	abd44d13          	xori	s10,s0,-1347
    800006b0:	d4d00a13          	li	s4,-691
    800006b4:	00001f17          	auipc	t5,0x1
    800006b8:	b1cf0f13          	addi	t5,t5,-1252 # 800011d0 <reg_x26_init>
    800006bc:	00001697          	auipc	a3,0x1
    800006c0:	af168693          	addi	a3,a3,-1295 # 800011ad <reg_x21_init+0x5>
    800006c4:	c7b00213          	li	tp,-901
    800006c8:	d5ce9c83          	lh	s9,-676(t4)
    800006cc:	fff00b93          	li	s7,-1
    800006d0:	039cde3b          	divuw	t3,s9,s9
    800006d4:	034a7b3b          	remuw	s6,s4,s4
    800006d8:	004249b3          	xor	s3,tp,tp
    800006dc:	9c535083          	lhu	ra,-1595(t1)
    800006e0:	008bcbb3          	xor	s7,s7,s0
    800006e4:	017171b3          	and	gp,sp,s7
    800006e8:	00001297          	auipc	t0,0x1
    800006ec:	ee528293          	addi	t0,t0,-283 # 800015cd <test_memory+0x2cd>
    800006f0:	00000793          	li	a5,0
    800006f4:	44bf3c23          	sd	a1,1112(t5)
    800006f8:	00001e17          	auipc	t3,0x1
    800006fc:	b2ae0e13          	addi	t3,t3,-1238 # 80001222 <reg_x4_output+0x2>
    80000700:	40c55c33          	sra	s8,a0,a2
    80000704:	181e3323          	sd	ra,390(t3)
    80000708:	3b1dd103          	lhu	sp,945(s11)
    8000070c:	d4418a13          	addi	s4,gp,-700 # 80001c54 <_end+0x544>
    80000710:	41828b3b          	subw	s6,t0,s8
    80000714:	d3018593          	addi	a1,gp,-720 # 80001c40 <_end+0x530>
    80000718:	00000217          	auipc	tp,0x0
    8000071c:	64120213          	addi	tp,tp,1601 # 80000d59 <test_end+0x3b9>
    80000720:	85358f03          	lb	t5,-1965(a1)
    80000724:	3ee6b9a3          	sd	a4,1011(a3)
    80000728:	00000317          	auipc	t1,0x0
    8000072c:	76730313          	addi	t1,t1,1895 # 80000e8f <test_end+0x4ef>
    80000730:	00001997          	auipc	s3,0x1
    80000734:	b2498993          	addi	s3,s3,-1244 # 80001254 <reg_x10_output+0x4>
    80000738:	df0922a3          	sw	a6,-539(s2)
    8000073c:	0364c6b3          	div	a3,s1,s6
    80000740:	e592d703          	lhu	a4,-423(t0)
    80000744:	8ff00e93          	li	t4,-1793
    80000748:	0139ae33          	slt	t3,s3,s3
    8000074c:	a2500c13          	li	s8,-1499
    80000750:	47033ca3          	sd	a6,1145(t1)
    80000754:	036b75b3          	remu	a1,s6,s6
    80000758:	20600593          	li	a1,518
    8000075c:	01ded0b3          	srl	ra,t4,t4
    80000760:	f0c00113          	li	sp,-244
    80000764:	1ef88f1b          	addiw	t5,a7,495
    80000768:	45058a93          	addi	s5,a1,1104
    8000076c:	0081efb3          	or	t6,gp,s0
    80000770:	20426e63          	bltu	tp,tp,8000098c <crash_forward>
    80000774:	21500813          	li	a6,533
    80000778:	5b321c83          	lh	s9,1459(tp) # 5b3 <_start-0x7ffffa4d>
    8000077c:	9fa00613          	li	a2,-1542
    80000780:	00adb933          	sltu	s2,s11,a0
    80000784:	b8c00e13          	li	t3,-1140
    80000788:	0139c533          	xor	a0,s3,s3
    8000078c:	f0fe0713          	addi	a4,t3,-241
    80000790:	00001f97          	auipc	t6,0x1
    80000794:	e81f8f93          	addi	t6,t6,-383 # 80001611 <test_memory+0x311>
    80000798:	52410793          	addi	a5,sp,1316
    8000079c:	d5c00293          	li	t0,-676
    800007a0:	00001317          	auipc	t1,0x1
    800007a4:	05130313          	addi	t1,t1,81 # 800017f1 <_end+0xe1>
    800007a8:	40cc0b33          	sub	s6,s8,a2
    800007ac:	00100a93          	li	s5,1
    800007b0:	e2100c93          	li	s9,-479
    800007b4:	0392853b          	mulw	a0,t0,s9
    800007b8:	00001197          	auipc	gp,0x1
    800007bc:	cfc18193          	addi	gp,gp,-772 # 800014b4 <test_memory+0x1b4>
    800007c0:	03fa9a93          	slli	s5,s5,0x3f
    800007c4:	f89fc403          	lbu	s0,-119(t6)
    800007c8:	a48a4d03          	lbu	s10,-1464(s4)
    800007cc:	f0335203          	lhu	tp,-253(t1)
    800007d0:	00001b17          	auipc	s6,0x1
    800007d4:	ec4b0b13          	addi	s6,s6,-316 # 80001694 <test_memory+0x394>
    800007d8:	00100b93          	li	s7,1
    800007dc:	415a8eb3          	sub	t4,s5,s5
    800007e0:	00b5973b          	sllw	a4,a1,a1
    800007e4:	00001097          	auipc	ra,0x1
    800007e8:	f0408093          	addi	ra,ra,-252 # 800016e8 <test_memory+0x3e8>
    800007ec:	ba818413          	addi	s0,gp,-1112 # 80001ab8 <_end+0x3a8>
    800007f0:	030148bb          	divw	a7,sp,a6
    800007f4:	fff00493          	li	s1,-1
    800007f8:	00000313          	li	t1,0
    800007fc:	f49b01a3          	sb	s1,-189(s6)
    80000800:	00000c93          	li	s9,0
    80000804:	b0f00a13          	li	s4,-1265
    80000808:	1ec9a223          	sw	a2,484(s3)
    8000080c:	11c1e603          	lwu	a2,284(gp) # 8000202c <__global_pointer$+0x11c>
    80000810:	a1b18d13          	addi	s10,gp,-1509 # 8000192b <_end+0x21b>
    80000814:	03300893          	li	a7,51
    80000818:	0154c4b3          	xor	s1,s1,s5
    8000081c:	00001297          	auipc	t0,0x1
    80000820:	f6628293          	addi	t0,t0,-154 # 80001782 <_end+0x72>
    80000824:	46f00e93          	li	t4,1135
    80000828:	ae4d36a3          	sd	tp,-1299(s10)
    8000082c:	03d49d93          	slli	s11,s1,0x3d
    80000830:	009577b3          	and	a5,a0,s1
    80000834:	c262af83          	lw	t6,-986(t0)
    80000838:	03fb9b93          	slli	s7,s7,0x3f
    8000083c:	d8b0a023          	sw	a1,-640(ra)
    80000840:	00001697          	auipc	a3,0x1
    80000844:	a8368693          	addi	a3,a3,-1405 # 800012c3 <reg_x24_output+0x3>
    80000848:	034a7c3b          	remuw	s8,s4,s4
    8000084c:	3f868b23          	sb	s8,1014(a3)
    80000850:	96b40503          	lb	a0,-1685(s0)
    80000854:	017b9c3b          	sllw	s8,s7,s7
    80000858:	81200213          	li	tp,-2030
    8000085c:	01ad7a33          	and	s4,s10,s10
    80000860:	03de8e33          	mul	t3,t4,t4
    80000864:	03189833          	mulh	a6,a7,a7
    80000868:	7f300093          	li	ra,2035
    8000086c:	0156e3b3          	or	t2,a3,s5
    80000870:	fff00913          	li	s2,-1
    80000874:	afb00113          	li	sp,-1285
    80000878:	0003199b          	slliw	s3,t1,0x0
    8000087c:	03399d33          	mulh	s10,s3,s3
    80000880:	03cb06bb          	mulw	a3,s6,t3
    80000884:	0010ce33          	xor	t3,ra,ra
    80000888:	44300193          	li	gp,1091
    8000088c:	9d118413          	addi	s0,gp,-1583 # 800018e1 <_end+0x1d1>
    80000890:	00001617          	auipc	a2,0x1
    80000894:	e1460613          	addi	a2,a2,-492 # 800016a4 <test_memory+0x3a4>
    80000898:	02309db3          	mulh	s11,ra,gp
    8000089c:	03c18b3b          	mulw	s6,gp,t3
    800008a0:	00001c97          	auipc	s9,0x1
    800008a4:	cfec8c93          	addi	s9,s9,-770 # 8000159e <test_memory+0x29e>
    800008a8:	00001e97          	auipc	t4,0x1
    800008ac:	e32e8e93          	addi	t4,t4,-462 # 800016da <test_memory+0x3da>
    800008b0:	0a2caf83          	lw	t6,162(s9)
    800008b4:	0d400793          	li	a5,212
    800008b8:	93818a13          	addi	s4,gp,-1736 # 80001848 <_end+0x138>
    800008bc:	01794933          	xor	s2,s2,s7
    800008c0:	3cc00993          	li	s3,972
    800008c4:	00001897          	auipc	a7,0x1
    800008c8:	daf88893          	addi	a7,a7,-593 # 80001673 <test_memory+0x373>
    800008cc:	01217f33          	and	t5,sp,s2
    800008d0:	ed265283          	lhu	t0,-302(a2)
    800008d4:	e5389c03          	lh	s8,-429(a7)
    800008d8:	40225733          	sra	a4,tp,sp
    800008dc:	017c65b3          	or	a1,s8,s7
    800008e0:	c8be87a3          	sb	a1,-881(t4)
    800008e4:	00000a97          	auipc	s5,0x0
    800008e8:	440a8a93          	addi	s5,s5,1088 # 80000d24 <test_end+0x384>
    800008ec:	0337a4b3          	mulhsu	s1,a5,s3
    800008f0:	00001817          	auipc	a6,0x1
    800008f4:	85980813          	addi	a6,a6,-1959 # 80001149 <reg_x9_init+0x1>
    800008f8:	d60a1503          	lh	a0,-672(s4)
    800008fc:	650a8d03          	lb	s10,1616(s5)
    80000900:	224833a3          	sd	tp,551(a6)
    80000904:	daf45303          	lhu	t1,-593(s0)
    80000908:	0040006f          	j	8000090c <reg_dump>

000000008000090c <reg_dump>:
    8000090c:	00001097          	auipc	ra,0x1
    80000910:	df408093          	addi	ra,ra,-524 # 80001700 <loop_count>
    80000914:	0000a103          	lw	sp,0(ra)
    80000918:	fff10193          	addi	gp,sp,-1
    8000091c:	0030a023          	sw	gp,0(ra)
    80000920:	880114e3          	bnez	sp,800001a8 <pseg_0>
    80000924:	00001097          	auipc	ra,0x1
    80000928:	8dc08093          	addi	ra,ra,-1828 # 80001200 <begin_signature>
    8000092c:	0000b023          	sd	zero,0(ra)
    80000930:	0020b823          	sd	sp,16(ra)
    80000934:	0030bc23          	sd	gp,24(ra)
    80000938:	0240b023          	sd	tp,32(ra)
    8000093c:	0250b423          	sd	t0,40(ra)
    80000940:	0260b823          	sd	t1,48(ra)
    80000944:	0270bc23          	sd	t2,56(ra)
    80000948:	0490b423          	sd	s1,72(ra)
    8000094c:	04a0b823          	sd	a0,80(ra)
    80000950:	04b0bc23          	sd	a1,88(ra)
    80000954:	06d0b423          	sd	a3,104(ra)
    80000958:	06e0b823          	sd	a4,112(ra)
    8000095c:	06f0bc23          	sd	a5,120(ra)
    80000960:	0920b823          	sd	s2,144(ra)
    80000964:	0930bc23          	sd	s3,152(ra)
    80000968:	0b60b823          	sd	s6,176(ra)
    8000096c:	0b70bc23          	sd	s7,184(ra)
    80000970:	0d80b023          	sd	s8,192(ra)
    80000974:	0da0b823          	sd	s10,208(ra)
    80000978:	0db0bc23          	sd	s11,216(ra)
    8000097c:	0fc0b023          	sd	t3,224(ra)
    80000980:	0fe0b823          	sd	t5,240(ra)
    80000984:	0ff0bc23          	sd	t6,248(ra)
    80000988:	0180006f          	j	800009a0 <test_end>

000000008000098c <crash_forward>:
    8000098c:	0ff0000f          	fence
    80000990:	00018063          	beqz	gp,80000990 <crash_forward+0x4>
    80000994:	00119193          	slli	gp,gp,0x1
    80000998:	0011e193          	ori	gp,gp,1
    8000099c:	00000073          	ecall

00000000800009a0 <test_end>:
    800009a0:	0ff0000f          	fence
    800009a4:	00100193          	li	gp,1
    800009a8:	00000073          	ecall
    800009ac:	c0001073          	unimp
	...

Disassembly of section .tohost:

0000000080001000 <tohost>:
	...

0000000080001040 <fromhost>:
	...
