
test.elf:     file format elf64-littleriscv


Disassembly of section .text.init:

0000000080000000 <_start>:
    80000000:	0580006f          	j	80000058 <reset_vector>

0000000080000004 <trap_vector>:
    80000004:	34202f73          	csrr	t5,mcause
    80000008:	00800f93          	li	t6,8
    8000000c:	05ff0063          	beq	t5,t6,8000004c <write_tohost>
    80000010:	00900f93          	li	t6,9
    80000014:	03ff0c63          	beq	t5,t6,8000004c <write_tohost>
    80000018:	00b00f93          	li	t6,11
    8000001c:	03ff0863          	beq	t5,t6,8000004c <write_tohost>
    80000020:	00000f13          	li	t5,0
    80000024:	000f0463          	beqz	t5,8000002c <trap_vector+0x28>
    80000028:	000f0067          	jr	t5
    8000002c:	34202f73          	csrr	t5,mcause
    80000030:	000f5463          	bgez	t5,80000038 <handle_exception>
    80000034:	0140006f          	j	80000048 <other_exception>

0000000080000038 <handle_exception>:
    80000038:	34102e73          	csrr	t3,mepc
    8000003c:	004e0e13          	addi	t3,t3,4
    80000040:	341e1073          	csrw	mepc,t3
    80000044:	30200073          	mret

0000000080000048 <other_exception>:
    80000048:	5391e193          	ori	gp,gp,1337

000000008000004c <write_tohost>:
    8000004c:	00001f17          	auipc	t5,0x1
    80000050:	fa3f2a23          	sw	gp,-76(t5) # 80001000 <tohost>
    80000054:	ff9ff06f          	j	8000004c <write_tohost>

0000000080000058 <reset_vector>:
    80000058:	f1402573          	csrr	a0,mhartid
    8000005c:	00051063          	bnez	a0,8000005c <reset_vector+0x4>
    80000060:	00000297          	auipc	t0,0x0
    80000064:	01028293          	addi	t0,t0,16 # 80000070 <reset_vector+0x18>
    80000068:	30529073          	csrw	mtvec,t0
    8000006c:	18005073          	csrwi	satp,0
    80000070:	00000297          	auipc	t0,0x0
    80000074:	01c28293          	addi	t0,t0,28 # 8000008c <reset_vector+0x34>
    80000078:	30529073          	csrw	mtvec,t0
    8000007c:	fff00293          	li	t0,-1
    80000080:	3b029073          	csrw	pmpaddr0,t0
    80000084:	01f00293          	li	t0,31
    80000088:	3a029073          	csrw	pmpcfg0,t0
    8000008c:	00000297          	auipc	t0,0x0
    80000090:	01828293          	addi	t0,t0,24 # 800000a4 <reset_vector+0x4c>
    80000094:	30529073          	csrw	mtvec,t0
    80000098:	30205073          	csrwi	medeleg,0
    8000009c:	30305073          	csrwi	mideleg,0
    800000a0:	30405073          	csrwi	mie,0
    800000a4:	00000193          	li	gp,0
    800000a8:	00000297          	auipc	t0,0x0
    800000ac:	f5c28293          	addi	t0,t0,-164 # 80000004 <trap_vector>
    800000b0:	30529073          	csrw	mtvec,t0
    800000b4:	00100513          	li	a0,1
    800000b8:	01f51513          	slli	a0,a0,0x1f
    800000bc:	00055863          	bgez	a0,800000cc <reset_vector+0x74>
    800000c0:	0ff0000f          	fence
    800000c4:	00100193          	li	gp,1
    800000c8:	00000073          	ecall
    800000cc:	00000293          	li	t0,0
    800000d0:	00028e63          	beqz	t0,800000ec <reset_vector+0x94>
    800000d4:	10529073          	csrw	stvec,t0
    800000d8:	0000b2b7          	lui	t0,0xb
    800000dc:	1092829b          	addiw	t0,t0,265
    800000e0:	30229073          	csrw	medeleg,t0
    800000e4:	30202373          	csrr	t1,medeleg
    800000e8:	f66290e3          	bne	t0,t1,80000048 <other_exception>
    800000ec:	30005073          	csrwi	mstatus,0
    800000f0:	00000297          	auipc	t0,0x0
    800000f4:	01428293          	addi	t0,t0,20 # 80000104 <reset_vector+0xac>
    800000f8:	34129073          	csrw	mepc,t0
    800000fc:	f1402573          	csrr	a0,mhartid
    80000100:	30200073          	mret
    80000104:	0180006f          	j	8000011c <test_start>

0000000080000108 <crash_backward>:
    80000108:	0ff0000f          	fence
    8000010c:	00018063          	beqz	gp,8000010c <crash_backward+0x4>
    80000110:	00119193          	slli	gp,gp,0x1
    80000114:	0011e193          	ori	gp,gp,1
    80000118:	00000073          	ecall

000000008000011c <test_start>:
    8000011c:	00001f97          	auipc	t6,0x1
    80000120:	fe4f8f93          	addi	t6,t6,-28 # 80001100 <hidden_data>
    80000124:	000fb003          	ld	zero,0(t6)
    80000128:	008fb083          	ld	ra,8(t6)
    8000012c:	010fb103          	ld	sp,16(t6)
    80000130:	018fb183          	ld	gp,24(t6)
    80000134:	020fb203          	ld	tp,32(t6)
    80000138:	028fb283          	ld	t0,40(t6)
    8000013c:	030fb303          	ld	t1,48(t6)
    80000140:	038fb383          	ld	t2,56(t6)
    80000144:	040fb403          	ld	s0,64(t6)
    80000148:	048fb483          	ld	s1,72(t6)
    8000014c:	050fb503          	ld	a0,80(t6)
    80000150:	058fb583          	ld	a1,88(t6)
    80000154:	060fb603          	ld	a2,96(t6)
    80000158:	068fb683          	ld	a3,104(t6)
    8000015c:	070fb703          	ld	a4,112(t6)
    80000160:	078fb783          	ld	a5,120(t6)
    80000164:	080fb803          	ld	a6,128(t6)
    80000168:	088fb883          	ld	a7,136(t6)
    8000016c:	090fb903          	ld	s2,144(t6)
    80000170:	098fb983          	ld	s3,152(t6)
    80000174:	0a0fba03          	ld	s4,160(t6)
    80000178:	0a8fba83          	ld	s5,168(t6)
    8000017c:	0b0fbb03          	ld	s6,176(t6)
    80000180:	0b8fbb83          	ld	s7,184(t6)
    80000184:	0c0fbc03          	ld	s8,192(t6)
    80000188:	0c8fbc83          	ld	s9,200(t6)
    8000018c:	0d0fbd03          	ld	s10,208(t6)
    80000190:	0d8fbd83          	ld	s11,216(t6)
    80000194:	0e0fbe03          	ld	t3,224(t6)
    80000198:	0e8fbe83          	ld	t4,232(t6)
    8000019c:	0f0fbf03          	ld	t5,240(t6)
    800001a0:	0f8fbf83          	ld	t6,248(t6)
    800001a4:	0040006f          	j	800001a8 <pseg_0>

00000000800001a8 <pseg_0>:
    800001a8:	02de1b93          	slli	s7,t3,0x2d
    800001ac:	01ce0cb3          	add	s9,t3,t3
    800001b0:	a9f18693          	addi	a3,gp,-1377 # 800019af <_end+0x29f>
    800001b4:	00001897          	auipc	a7,0x1
    800001b8:	f5f88893          	addi	a7,a7,-161 # 80001113 <reg_x2_init+0x3>
    800001bc:	00100713          	li	a4,1
    800001c0:	00001217          	auipc	tp,0x1
    800001c4:	dc320213          	addi	tp,tp,-573 # 80000f83 <test_end+0x5db>
    800001c8:	91a00b13          	li	s6,-1766
    800001cc:	48b8aaa3          	sw	a1,1173(a7)
    800001d0:	00001b97          	auipc	s7,0x1
    800001d4:	41cb8b93          	addi	s7,s7,1052 # 800015ec <test_memory+0x2ec>
    800001d8:	ddfb0913          	addi	s2,s6,-545
    800001dc:	b4000413          	li	s0,-1216
    800001e0:	3ef00e13          	li	t3,1007
    800001e4:	87200993          	li	s3,-1934
    800001e8:	b6d68183          	lb	gp,-1171(a3)
    800001ec:	4db21f03          	lh	t5,1243(tp) # 4db <_start-0x7ffffb25>
    800001f0:	943cfa37          	lui	s4,0x943cf
    800001f4:	4cc00293          	li	t0,1228
    800001f8:	03ce7ab3          	remu	s5,t3,t3
    800001fc:	00001c97          	auipc	s9,0x1
    80000200:	099c8c93          	addi	s9,s9,153 # 80001295 <reg_x18_output+0x5>
    80000204:	d1018b13          	addi	s6,gp,-752 # 80001c20 <_end+0x510>
    80000208:	11400093          	li	ra,276
    8000020c:	868b0a03          	lb	s4,-1944(s6)
    80000210:	0259e533          	rem	a0,s3,t0
    80000214:	efad6ae3          	bltu	s10,s10,80000108 <crash_backward>
    80000218:	dacba883          	lw	a7,-596(s7)
    8000021c:	00001797          	auipc	a5,0x1
    80000220:	06f78793          	addi	a5,a5,111 # 8000128b <reg_x17_output+0x3>
    80000224:	fbf00c13          	li	s8,-65
    80000228:	00001d97          	auipc	s11,0x1
    8000022c:	de2d8d93          	addi	s11,s11,-542 # 8000100a <tohost+0xa>
    80000230:	0139f9b3          	and	s3,s3,s3
    80000234:	03f71713          	slli	a4,a4,0x3f
    80000238:	0837bea3          	sd	gp,157(a5)
    8000023c:	00001697          	auipc	a3,0x1
    80000240:	edd68693          	addi	a3,a3,-291 # 80001119 <reg_x3_init+0x1>
    80000244:	00001517          	auipc	a0,0x1
    80000248:	00950513          	addi	a0,a0,9 # 8000124d <reg_x9_output+0x5>
    8000024c:	038405b3          	mul	a1,s0,s8
    80000250:	3ea00a13          	li	s4,1002
    80000254:	388d9b23          	sh	s0,918(s11)
    80000258:	108ca1a3          	sw	s0,259(s9)
    8000025c:	a2d18913          	addi	s2,gp,-1491 # 8000193d <_end+0x22d>
    80000260:	0210cd33          	div	s10,ra,ra
    80000264:	00001497          	auipc	s1,0x1
    80000268:	20748493          	addi	s1,s1,519 # 8000146b <test_memory+0x16b>
    8000026c:	73ba0293          	addi	t0,s4,1851 # ffffffff943cf73b <__global_pointer$+0xffffffff143cd82b>
    80000270:	5c500a93          	li	s5,1477
    80000274:	f664c303          	lbu	t1,-154(s1)
    80000278:	02e75b33          	divu	s6,a4,a4
    8000027c:	00001117          	auipc	sp,0x1
    80000280:	1d210113          	addi	sp,sp,466 # 8000144e <test_memory+0x14e>
    80000284:	b5318393          	addi	t2,gp,-1197 # 80001a63 <_end+0x353>
    80000288:	fd400313          	li	t1,-44
    8000028c:	6c700f13          	li	t5,1735
    80000290:	fff00f93          	li	t6,-1
    80000294:	00001b17          	auipc	s6,0x1
    80000298:	d51b0b13          	addi	s6,s6,-687 # 80000fe5 <test_end+0x63d>
    8000029c:	035adc3b          	divuw	s8,s5,s5
    800002a0:	c0d00c93          	li	s9,-1011
    800002a4:	018c7433          	and	s0,s8,s8
    800002a8:	00001417          	auipc	s0,0x1
    800002ac:	c5a40413          	addi	s0,s0,-934 # 80000f02 <test_end+0x55a>
    800002b0:	00efcfb3          	xor	t6,t6,a4
    800002b4:	bda386a3          	sb	s10,-1075(t2)
    800002b8:	1cb00213          	li	tp,459
    800002bc:	0fa50723          	sb	s10,238(a0)
    800002c0:	030b89bb          	mulw	s3,s7,a6
    800002c4:	01fafeb3          	and	t4,s5,t6
    800002c8:	1e815803          	lhu	a6,488(sp)
    800002cc:	62bb2da3          	sw	a1,1595(s6)
    800002d0:	00001797          	auipc	a5,0x1
    800002d4:	d2678793          	addi	a5,a5,-730 # 80000ff6 <test_end+0x64e>
    800002d8:	69b40c03          	lb	s8,1691(s0)
    800002dc:	024a8e33          	mul	t3,s5,tp
    800002e0:	e25a04e3          	beq	s4,t0,80000108 <crash_backward>
    800002e4:	4ea7bd83          	ld	s11,1258(a5)
    800002e8:	9aa18893          	addi	a7,gp,-1622 # 800018ba <_end+0x1aa>
    800002ec:	00e0e633          	or	a2,ra,a4
    800002f0:	a3890223          	sb	s8,-1500(s2)
    800002f4:	03e36d33          	rem	s10,t1,t5
    800002f8:	e22f6093          	ori	ra,t5,-478
    800002fc:	0285553b          	divuw	a0,a0,s0
    80000300:	02884f3b          	divw	t5,a6,s0
    80000304:	00100f13          	li	t5,1
    80000308:	00100413          	li	s0,1
    8000030c:	02636d33          	rem	s10,t1,t1
    80000310:	03f41413          	slli	s0,s0,0x3f
    80000314:	fff00293          	li	t0,-1
    80000318:	c5800993          	li	s3,-936
    8000031c:	0082c2b3          	xor	t0,t0,s0
    80000320:	5a200a13          	li	s4,1442
    80000324:	a5e89b83          	lh	s7,-1442(a7)
    80000328:	b2518793          	addi	a5,gp,-1243 # 80001a35 <_end+0x325>
    8000032c:	014a1dbb          	sllw	s11,s4,s4
    80000330:	6673c263          	blt	t2,t2,80000994 <crash_forward>
    80000334:	0031f8b3          	and	a7,gp,gp
    80000338:	baf7a303          	lw	t1,-1105(a5)
    8000033c:	2476a183          	lw	gp,583(a3)
    80000340:	8e2c8593          	addi	a1,s9,-1822
    80000344:	00001f97          	auipc	t6,0x1
    80000348:	182f8f93          	addi	t6,t6,386 # 800014c6 <test_memory+0x1c6>
    8000034c:	00001d97          	auipc	s11,0x1
    80000350:	0dbd8d93          	addi	s11,s11,219 # 80001427 <test_memory+0x127>
    80000354:	00001e97          	auipc	t4,0x1
    80000358:	2eee8e93          	addi	t4,t4,750 # 80001642 <test_memory+0x342>
    8000035c:	005cf133          	and	sp,s9,t0
    80000360:	3a200813          	li	a6,930
    80000364:	00001917          	auipc	s2,0x1
    80000368:	1bf90913          	addi	s2,s2,447 # 80001523 <test_memory+0x223>
    8000036c:	0273c4bb          	divw	s1,t2,t2
    80000370:	c45f6b37          	lui	s6,0xc45f6
    80000374:	03ff1f13          	slli	t5,t5,0x3f
    80000378:	85400213          	li	tp,-1964
    8000037c:	38400c93          	li	s9,900
    80000380:	00816c33          	or	s8,sp,s0
    80000384:	ad118d13          	addi	s10,gp,-1327 # 800019e1 <_end+0x2d1>
    80000388:	02427333          	remu	t1,tp,tp
    8000038c:	7fe00593          	li	a1,2046
    80000390:	11ffcb83          	lbu	s7,287(t6)
    80000394:	fff00e13          	li	t3,-1
    80000398:	3d700f93          	li	t6,983
    8000039c:	b3200893          	li	a7,-1230
    800003a0:	03ffcbb3          	div	s7,t6,t6
    800003a4:	01ee4e33          	xor	t3,t3,t5
    800003a8:	033f633b          	remw	t1,t5,s3
    800003ac:	00bca7b3          	slt	a5,s9,a1
    800003b0:	c6cd2fa3          	sw	a2,-897(s10)
    800003b4:	23bd8683          	lb	a3,571(s11)
    800003b8:	12593ea3          	sd	t0,317(s2)
    800003bc:	cae00193          	li	gp,-850
    800003c0:	d9588a13          	addi	s4,a7,-619
    800003c4:	75200493          	li	s1,1874
    800003c8:	41ef07bb          	subw	a5,t5,t5
    800003cc:	01eea703          	lw	a4,30(t4)
    800003d0:	00001117          	auipc	sp,0x1
    800003d4:	2da10113          	addi	sp,sp,730 # 800016aa <test_memory+0x3aa>
    800003d8:	0339e3bb          	remw	t2,s3,s3
    800003dc:	77b48b13          	addi	s6,s1,1915
    800003e0:	ef114d83          	lbu	s11,-271(sp)
    800003e4:	01c57533          	and	a0,a0,t3
    800003e8:	93e00d13          	li	s10,-1730
    800003ec:	c5e18613          	addi	a2,gp,-930 # 80001b6e <_end+0x45e>
    800003f0:	01e66ab3          	or	s5,a2,t5
    800003f4:	026e47b3          	div	a5,t3,t1
    800003f8:	002e159b          	slliw	a1,t3,0x2
    800003fc:	00001297          	auipc	t0,0x1
    80000400:	e8d28293          	addi	t0,t0,-371 # 80001289 <reg_x17_output+0x1>
    80000404:	006f59bb          	srlw	s3,t5,t1
    80000408:	c6000713          	li	a4,-928
    8000040c:	87e00913          	li	s2,-1922
    80000410:	41ad56bb          	sraw	a3,s10,s10
    80000414:	c2600e93          	li	t4,-986
    80000418:	4073ddbb          	sraw	s11,t2,t2
    8000041c:	01ded3b3          	srl	t2,t4,t4
    80000420:	404850bb          	sraw	ra,a6,tp
    80000424:	01a86c33          	or	s8,a6,s10
    80000428:	026b4fb3          	div	t6,s6,t1
    8000042c:	00ed113b          	sllw	sp,s10,a4
    80000430:	cd557ce3          	bgeu	a0,s5,80000108 <crash_backward>
    80000434:	34800c93          	li	s9,840
    80000438:	b9000793          	li	a5,-1136
    8000043c:	36a2b7a3          	sd	a0,879(t0)
    80000440:	0031bdb3          	sltu	s11,gp,gp
    80000444:	bd818393          	addi	t2,gp,-1064 # 80001ae8 <_end+0x3d8>
    80000448:	039cf433          	remu	s0,s9,s9
    8000044c:	00000613          	li	a2,0
    80000450:	33d00893          	li	a7,829
    80000454:	00000213          	li	tp,0
    80000458:	9db18993          	addi	s3,gp,-1573 # 800018eb <_end+0x1db>
    8000045c:	08300493          	li	s1,131
    80000460:	00000593          	li	a1,0
    80000464:	00000e93          	li	t4,0
    80000468:	d3d9bd03          	ld	s10,-707(s3)
    8000046c:	fa800093          	li	ra,-88
    80000470:	a243e803          	lwu	a6,-1500(t2)
    80000474:	011796bb          	sllw	a3,a5,a7
    80000478:	51d5ee63          	bltu	a1,t4,80000994 <crash_forward>
    8000047c:	0294fa3b          	remuw	s4,s1,s1
    80000480:	00001f97          	auipc	t6,0x1
    80000484:	aeaf8f93          	addi	t6,t6,-1302 # 80000f6a <test_end+0x5c2>
    80000488:	7b700313          	li	t1,1975
    8000048c:	a0818793          	addi	a5,gp,-1528 # 80001918 <_end+0x208>
    80000490:	00000c93          	li	s9,0
    80000494:	00c719bb          	sllw	s3,a4,a2
    80000498:	00000493          	li	s1,0
    8000049c:	32200f13          	li	t5,802
    800004a0:	0113d693          	srli	a3,t2,0x11
    800004a4:	00690bbb          	addw	s7,s2,t1
    800004a8:	0010d13b          	srlw	sp,ra,ra
    800004ac:	013b8b3b          	addw	s6,s7,s3
    800004b0:	00001a97          	auipc	s5,0x1
    800004b4:	e0ca8a93          	addi	s5,s5,-500 # 800012bc <reg_x23_output+0x4>
    800004b8:	7d200a13          	li	s4,2002
    800004bc:	3daa0593          	addi	a1,s4,986
    800004c0:	d707ad03          	lw	s10,-656(a5)
    800004c4:	03ef62b3          	rem	t0,t5,t5
    800004c8:	0ccae403          	lwu	s0,204(s5)
    800004cc:	ad100d93          	li	s11,-1327
    800004d0:	00100e13          	li	t3,1
    800004d4:	5bcfdc03          	lhu	s8,1468(t6)
    800004d8:	03fe1e13          	slli	t3,t3,0x3f
    800004dc:	01bdd833          	srl	a6,s11,s11
    800004e0:	00001197          	auipc	gp,0x1
    800004e4:	16a18193          	addi	gp,gp,362 # 8000164a <test_memory+0x34a>
    800004e8:	fff00893          	li	a7,-1
    800004ec:	f2a1e703          	lwu	a4,-214(gp) # 80001e3a <_end+0x72a>
    800004f0:	01c8c8b3          	xor	a7,a7,t3
    800004f4:	011a7eb3          	and	t4,s4,a7
    800004f8:	25800693          	li	a3,600
    800004fc:	02d6f83b          	remuw	a6,a3,a3
    80000500:	01cee533          	or	a0,t4,t3
    80000504:	0bf00193          	li	gp,191
    80000508:	02f7fd33          	remu	s10,a5,a5
    8000050c:	0a400c93          	li	s9,164
    80000510:	03ff80b3          	mul	ra,t6,t6
    80000514:	039cfa3b          	remuw	s4,s9,s9
    80000518:	4031893b          	subw	s2,gp,gp
    8000051c:	00001a97          	auipc	s5,0x1
    80000520:	cfaa8a93          	addi	s5,s5,-774 # 80001216 <reg_x2_output+0x6>
    80000524:	41ad07b3          	sub	a5,s10,s10
    80000528:	00001497          	auipc	s1,0x1
    8000052c:	22d48493          	addi	s1,s1,557 # 80001755 <_end+0x45>
    80000530:	1caa8403          	lb	s0,458(s5)
    80000534:	00001697          	auipc	a3,0x1
    80000538:	c4c68693          	addi	a3,a3,-948 # 80001180 <reg_x16_init>
    8000053c:	13b2b313          	sltiu	t1,t0,315
    80000540:	bab4d983          	lhu	s3,-1109(s1)
    80000544:	00000d93          	li	s11,0
    80000548:	02842b33          	mulhsu	s6,s0,s0
    8000054c:	00100a93          	li	s5,1
    80000550:	baaefce3          	bgeu	t4,a0,80000108 <crash_backward>
    80000554:	03fa9a93          	slli	s5,s5,0x3f
    80000558:	01815c33          	srl	s8,sp,s8
    8000055c:	91e00593          	li	a1,-1762
    80000560:	00000293          	li	t0,0
    80000564:	3c86af03          	lw	t5,968(a3)
    80000568:	00001617          	auipc	a2,0x1
    8000056c:	05860613          	addi	a2,a2,88 # 800015c0 <test_memory+0x2c0>
    80000570:	4252c263          	blt	t0,t0,80000994 <crash_forward>
    80000574:	00001717          	auipc	a4,0x1
    80000578:	82670713          	addi	a4,a4,-2010 # 80000d9a <test_end+0x3f2>
    8000057c:	04a00213          	li	tp,74
    80000580:	02109bb3          	mulh	s7,ra,ra
    80000584:	64600393          	li	t2,1606
    80000588:	dd362e23          	sw	s3,-548(a2)
    8000058c:	00425133          	srl	sp,tp,tp
    80000590:	00001097          	auipc	ra,0x1
    80000594:	c9d08093          	addi	ra,ra,-867 # 8000122d <reg_x5_output+0x5>
    80000598:	00100793          	li	a5,1
    8000059c:	58870aa3          	sb	s0,1429(a4)
    800005a0:	00100313          	li	t1,1
    800005a4:	0075dfb3          	srl	t6,a1,t2
    800005a8:	7a200693          	li	a3,1954
    800005ac:	24500b93          	li	s7,581
    800005b0:	02953eb3          	mulhu	t4,a0,s1
    800005b4:	13bb8513          	addi	a0,s7,315
    800005b8:	1ec00a13          	li	s4,492
    800005bc:	03f31313          	slli	t1,t1,0x3f
    800005c0:	4730b1a3          	sd	s3,1123(ra)
    800005c4:	00100d93          	li	s11,1
    800005c8:	0346c4bb          	divw	s1,a3,s4
    800005cc:	00001097          	auipc	ra,0x1
    800005d0:	90008093          	addi	ra,ra,-1792 # 80000ecc <test_end+0x524>
    800005d4:	03f79793          	slli	a5,a5,0x3f
    800005d8:	fff00893          	li	a7,-1
    800005dc:	436fd693          	srai	a3,t6,0x36
    800005e0:	37500393          	li	t2,885
    800005e4:	fff00193          	li	gp,-1
    800005e8:	e4d00213          	li	tp,-435
    800005ec:	60208f83          	lb	t6,1538(ra)
    800005f0:	03fd9d93          	slli	s11,s11,0x3f
    800005f4:	01a66f33          	or	t5,a2,s10
    800005f8:	0151c1b3          	xor	gp,gp,s5
    800005fc:	fff00113          	li	sp,-1
    80000600:	03500e13          	li	t3,53
    80000604:	16538493          	addi	s1,t2,357
    80000608:	01b14133          	xor	sp,sp,s11
    8000060c:	fff00413          	li	s0,-1
    80000610:	00028f13          	mv	t5,t0
    80000614:	00100393          	li	t2,1
    80000618:	03f39393          	slli	t2,t2,0x3f
    8000061c:	fff00513          	li	a0,-1
    80000620:	f51c7093          	andi	ra,s8,-175
    80000624:	05e00e93          	li	t4,94
    80000628:	00f44433          	xor	s0,s0,a5
    8000062c:	01d205bb          	addw	a1,tp,t4
    80000630:	000f0a13          	mv	s4,t5
    80000634:	00001b97          	auipc	s7,0x1
    80000638:	b77b8b93          	addi	s7,s7,-1161 # 800011ab <reg_x21_init+0x3>
    8000063c:	003afcb3          	and	s9,s5,gp
    80000640:	59d00c13          	li	s8,1437
    80000644:	39fbd483          	lhu	s1,927(s7)
    80000648:	002df733          	and	a4,s11,sp
    8000064c:	015ce833          	or	a6,s9,s5
    80000650:	0068c8b3          	xor	a7,a7,t1
    80000654:	00847933          	and	s2,s0,s0
    80000658:	00f06d33          	or	s10,zero,a5
    8000065c:	00001217          	auipc	tp,0x1
    80000660:	f9620213          	addi	tp,tp,-106 # 800015f2 <test_memory+0x2f2>
    80000664:	334f4863          	blt	t5,s4,80000994 <crash_forward>
    80000668:	01f9d09b          	srliw	ra,s3,0x1f
    8000066c:	33a94463          	blt	s2,s10,80000994 <crash_forward>
    80000670:	95600493          	li	s1,-1706
    80000674:	0094d5bb          	srlw	a1,s1,s1
    80000678:	e6e25b83          	lhu	s7,-402(tp) # fffffffffffffe6e <__global_pointer$+0xffffffff7fffdf5e>
    8000067c:	00000493          	li	s1,0
    80000680:	011c79b3          	and	s3,s8,a7
    80000684:	418e0633          	sub	a2,t3,s8
    80000688:	00000593          	li	a1,0
    8000068c:	01b762b3          	or	t0,a4,s11
    80000690:	a6b49ce3          	bne	s1,a1,80000108 <crash_backward>
    80000694:	00100f13          	li	t5,1
    80000698:	01369d13          	slli	s10,a3,0x13
    8000069c:	0069eb33          	or	s6,s3,t1
    800006a0:	60700913          	li	s2,1543
    800006a4:	2f3b6863          	bltu	s6,s3,80000994 <crash_forward>
    800006a8:	3df00793          	li	a5,991
    800006ac:	00001617          	auipc	a2,0x1
    800006b0:	09860613          	addi	a2,a2,152 # 80001744 <_end+0x34>
    800006b4:	00754533          	xor	a0,a0,t2
    800006b8:	2d985e63          	bge	a6,s9,80000994 <crash_forward>
    800006bc:	02f7cbb3          	div	s7,a5,a5
    800006c0:	00a876b3          	and	a3,a6,a0
    800006c4:	03ff1f13          	slli	t5,t5,0x3f
    800006c8:	db764483          	lbu	s1,-585(a2)
    800006cc:	0076efb3          	or	t6,a3,t2
    800006d0:	0140aeb3          	slt	t4,ra,s4
    800006d4:	fff00093          	li	ra,-1
    800006d8:	2a574e63          	blt	a4,t0,80000994 <crash_forward>
    800006dc:	01293233          	sltu	tp,s2,s2
    800006e0:	e3d00e13          	li	t3,-451
    800006e4:	73f8be93          	sltiu	t4,a7,1855
    800006e8:	411edd9b          	sraiw	s11,t4,0x11
    800006ec:	003979b3          	and	s3,s2,gp
    800006f0:	c5400713          	li	a4,-940
    800006f4:	035efebb          	remuw	t4,t4,s5
    800006f8:	00100c93          	li	s9,1
    800006fc:	406087b3          	sub	a5,ra,t1
    80000700:	03ce57b3          	divu	a5,t3,t3
    80000704:	a00012e3          	bnez	zero,80000108 <crash_backward>
    80000708:	29dee663          	bltu	t4,t4,80000994 <crash_forward>
    8000070c:	01e0c0b3          	xor	ra,ra,t5
    80000710:	43100d13          	li	s10,1073
    80000714:	0019f433          	and	s0,s3,ra
    80000718:	74900813          	li	a6,1865
    8000071c:	00001497          	auipc	s1,0x1
    80000720:	87b48493          	addi	s1,s1,-1925 # 80000f97 <test_end+0x5ef>
    80000724:	03075b3b          	divuw	s6,a4,a6
    80000728:	ebd18213          	addi	tp,gp,-323 # 80001dcd <_end+0x6bd>
    8000072c:	01e46a33          	or	s4,s0,t5
    80000730:	00000293          	li	t0,0
    80000734:	03fc9c93          	slli	s9,s9,0x3f
    80000738:	00001617          	auipc	a2,0x1
    8000073c:	84460613          	addi	a2,a2,-1980 # 80000f7c <test_end+0x5d4>
    80000740:	01ae0c33          	add	s8,t3,s10
    80000744:	00000b93          	li	s7,0
    80000748:	9d72e0e3          	bltu	t0,s7,80000108 <crash_backward>
    8000074c:	00100393          	li	t2,1
    80000750:	fff00113          	li	sp,-1
    80000754:	25444063          	blt	s0,s4,80000994 <crash_forward>
    80000758:	83300893          	li	a7,-1997
    8000075c:	4d600993          	li	s3,1238
    80000760:	36c00e93          	li	t4,876
    80000764:	3bd48a83          	lb	s5,957(s1)
    80000768:	0118b333          	sltu	t1,a7,a7
    8000076c:	03d98fbb          	mulw	t6,s3,t4
    80000770:	22004263          	bltz	zero,80000994 <crash_forward>
    80000774:	01914133          	xor	sp,sp,s9
    80000778:	7c200c13          	li	s8,1986
    8000077c:	76261323          	sh	sp,1894(a2)
    80000780:	00001f17          	auipc	t5,0x1
    80000784:	014f0f13          	addi	t5,t5,20 # 80001794 <_end+0x84>
    80000788:	a4218b13          	addi	s6,gp,-1470 # 80001952 <_end+0x242>
    8000078c:	3db00a13          	li	s4,987
    80000790:	91925583          	lhu	a1,-1767(tp) # fffffffffffff919 <__global_pointer$+0xffffffff7fffda09>
    80000794:	418c02b3          	sub	t0,s8,s8
    80000798:	49c00b93          	li	s7,1180
    8000079c:	03f39393          	slli	t2,t2,0x3f
    800007a0:	0029f1b3          	and	gp,s3,sp
    800007a4:	a4618413          	addi	s0,gp,-1466 # 80001956 <_end+0x246>
    800007a8:	b3144e03          	lbu	t3,-1231(s0)
    800007ac:	fff00693          	li	a3,-1
    800007b0:	017bb7b3          	sltu	a5,s7,s7
    800007b4:	dfef5083          	lhu	ra,-514(t5)
    800007b8:	0076c6b3          	xor	a3,a3,t2
    800007bc:	c53b00a3          	sb	s3,-959(s6) # ffffffffc45f5c41 <__global_pointer$+0xffffffff445f3d31>
    800007c0:	00d6fdb3          	and	s11,a3,a3
    800007c4:	0071e533          	or	a0,gp,t2
    800007c8:	1db55663          	bge	a0,s11,80000994 <crash_forward>
    800007cc:	7f0a0813          	addi	a6,s4,2032
    800007d0:	0191e933          	or	s2,gp,s9
    800007d4:	92395ae3          	bge	s2,gp,80000108 <crash_backward>
    800007d8:	00001d17          	auipc	s10,0x1
    800007dc:	de4d0d13          	addi	s10,s10,-540 # 800015bc <test_memory+0x2bc>
    800007e0:	00001397          	auipc	t2,0x1
    800007e4:	c0b38393          	addi	t2,t2,-1013 # 800013eb <test_memory+0xeb>
    800007e8:	00000697          	auipc	a3,0x0
    800007ec:	5db68693          	addi	a3,a3,1499 # 80000dc3 <test_end+0x41b>
    800007f0:	d5000a93          	li	s5,-688
    800007f4:	413edbbb          	sraw	s7,t4,s3
    800007f8:	44300d93          	li	s11,1091
    800007fc:	0139893b          	addw	s2,s3,s3
    80000800:	00001297          	auipc	t0,0x1
    80000804:	bb828293          	addi	t0,t0,-1096 # 800013b8 <test_memory+0xb8>
    80000808:	9da00213          	li	tp,-1574
    8000080c:	415ade3b          	sraw	t3,s5,s5
    80000810:	bd99c493          	xori	s1,s3,-1063
    80000814:	00000f17          	auipc	t5,0x0
    80000818:	6fcf0f13          	addi	t5,t5,1788 # 80000f10 <test_end+0x568>
    8000081c:	f7b39ba3          	sh	s11,-137(t2)
    80000820:	85f00e13          	li	t3,-1953
    80000824:	00001897          	auipc	a7,0x1
    80000828:	a2788893          	addi	a7,a7,-1497 # 8000124b <reg_x9_output+0x3>
    8000082c:	a4c18593          	addi	a1,gp,-1460 # 8000195c <_end+0x24c>
    80000830:	fc629923          	sh	t1,-46(t0)
    80000834:	004ddfb3          	srl	t6,s11,tp
    80000838:	7b76c703          	lbu	a4,1975(a3)
    8000083c:	f6f00913          	li	s2,-145
    80000840:	00030b3b          	addw	s6,t1,zero
    80000844:	012e43b3          	xor	t2,t3,s2
    80000848:	0091ba33          	sltu	s4,gp,s1
    8000084c:	63800e93          	li	t4,1592
    80000850:	e4d00613          	li	a2,-435
    80000854:	f9fd1b23          	sh	t6,-106(s10)
    80000858:	00001117          	auipc	sp,0x1
    8000085c:	ad210113          	addi	sp,sp,-1326 # 8000132a <test_memory+0x2a>
    80000860:	92960513          	addi	a0,a2,-1751
    80000864:	02cbdbb3          	divu	s7,s7,a2
    80000868:	3b98ec83          	lwu	s9,953(a7)
    8000086c:	01ce69b3          	or	s3,t3,t3
    80000870:	0fe15803          	lhu	a6,254(sp)
    80000874:	d0400d93          	li	s11,-764
    80000878:	00100f93          	li	t6,1
    8000087c:	10c66c63          	bltu	a2,a2,80000994 <crash_forward>
    80000880:	85d00a93          	li	s5,-1955
    80000884:	4069529b          	sraiw	t0,s2,0x6
    80000888:	efd00c13          	li	s8,-259
    8000088c:	0139e8b3          	or	a7,s3,s3
    80000890:	d40a8493          	addi	s1,s5,-704
    80000894:	03ff9f93          	slli	t6,t6,0x3f
    80000898:	00001097          	auipc	ra,0x1
    8000089c:	f6708093          	addi	ra,ra,-153 # 800017ff <_end+0xef>
    800008a0:	37b00b93          	li	s7,891
    800008a4:	e2c08903          	lb	s2,-468(ra)
    800008a8:	863d8393          	addi	t2,s11,-1949
    800008ac:	00000e17          	auipc	t3,0x0
    800008b0:	409e0e13          	addi	t3,t3,1033 # 80000cb5 <test_end+0x30d>
    800008b4:	717f1923          	sh	s7,1810(t5)
    800008b8:	a405e303          	lwu	t1,-1472(a1)
    800008bc:	00000697          	auipc	a3,0x0
    800008c0:	31868693          	addi	a3,a3,792 # 80000bd4 <test_end+0x22c>
    800008c4:	77469d23          	sh	s4,1914(a3)
    800008c8:	0db3f663          	bgeu	t2,s11,80000994 <crash_forward>
    800008cc:	697e2c83          	lw	s9,1687(t3)
    800008d0:	018ea433          	slt	s0,t4,s8
    800008d4:	19900b13          	li	s6,409
    800008d8:	00001d17          	auipc	s10,0x1
    800008dc:	b8ed0d13          	addi	s10,s10,-1138 # 80001466 <test_memory+0x166>
    800008e0:	fff00993          	li	s3,-1
    800008e4:	08bd4103          	lbu	sp,139(s10)
    800008e8:	01f9c9b3          	xor	s3,s3,t6
    800008ec:	7a6b8213          	addi	tp,s7,1958
    800008f0:	0a4b8263          	beq	s7,tp,80000994 <crash_forward>
    800008f4:	013e71b3          	and	gp,t3,s3
    800008f8:	29100813          	li	a6,657
    800008fc:	01f167b3          	or	a5,sp,t6
    80000900:	030b5a3b          	divuw	s4,s6,a6
    80000904:	0040006f          	j	80000908 <reg_dump>

0000000080000908 <reg_dump>:
    80000908:	00001097          	auipc	ra,0x1
    8000090c:	df808093          	addi	ra,ra,-520 # 80001700 <loop_count>
    80000910:	0000a103          	lw	sp,0(ra)
    80000914:	fff10193          	addi	gp,sp,-1
    80000918:	0030a023          	sw	gp,0(ra)
    8000091c:	880116e3          	bnez	sp,800001a8 <pseg_0>
    80000920:	00001097          	auipc	ra,0x1
    80000924:	8e008093          	addi	ra,ra,-1824 # 80001200 <begin_signature>
    80000928:	0000b023          	sd	zero,0(ra)
    8000092c:	0020b823          	sd	sp,16(ra)
    80000930:	0030bc23          	sd	gp,24(ra)
    80000934:	0240b023          	sd	tp,32(ra)
    80000938:	0250b423          	sd	t0,40(ra)
    8000093c:	0260b823          	sd	t1,48(ra)
    80000940:	0270bc23          	sd	t2,56(ra)
    80000944:	0480b023          	sd	s0,64(ra)
    80000948:	0490b423          	sd	s1,72(ra)
    8000094c:	04a0b823          	sd	a0,80(ra)
    80000950:	06c0b023          	sd	a2,96(ra)
    80000954:	06e0b823          	sd	a4,112(ra)
    80000958:	06f0bc23          	sd	a5,120(ra)
    8000095c:	0900b023          	sd	a6,128(ra)
    80000960:	0910b423          	sd	a7,136(ra)
    80000964:	0920b823          	sd	s2,144(ra)
    80000968:	0930bc23          	sd	s3,152(ra)
    8000096c:	0b40b023          	sd	s4,160(ra)
    80000970:	0b50b423          	sd	s5,168(ra)
    80000974:	0b60b823          	sd	s6,176(ra)
    80000978:	0b70bc23          	sd	s7,184(ra)
    8000097c:	0d80b023          	sd	s8,192(ra)
    80000980:	0d90b423          	sd	s9,200(ra)
    80000984:	0db0bc23          	sd	s11,216(ra)
    80000988:	0fd0b423          	sd	t4,232(ra)
    8000098c:	0ff0bc23          	sd	t6,248(ra)
    80000990:	0180006f          	j	800009a8 <test_end>

0000000080000994 <crash_forward>:
    80000994:	0ff0000f          	fence
    80000998:	00018063          	beqz	gp,80000998 <crash_forward+0x4>
    8000099c:	00119193          	slli	gp,gp,0x1
    800009a0:	0011e193          	ori	gp,gp,1
    800009a4:	00000073          	ecall

00000000800009a8 <test_end>:
    800009a8:	0ff0000f          	fence
    800009ac:	00100193          	li	gp,1
    800009b0:	00000073          	ecall
    800009b4:	c0001073          	unimp
	...

Disassembly of section .tohost:

0000000080001000 <tohost>:
	...

0000000080001040 <fromhost>:
	...
