
test.elf:     file format elf64-littleriscv


Disassembly of section .text.init:

0000000080000000 <_start>:
    80000000:	0580006f          	j	80000058 <reset_vector>

0000000080000004 <trap_vector>:
    80000004:	34202f73          	csrr	t5,mcause
    80000008:	00800f93          	li	t6,8
    8000000c:	05ff0063          	beq	t5,t6,8000004c <write_tohost>
    80000010:	00900f93          	li	t6,9
    80000014:	03ff0c63          	beq	t5,t6,8000004c <write_tohost>
    80000018:	00b00f93          	li	t6,11
    8000001c:	03ff0863          	beq	t5,t6,8000004c <write_tohost>
    80000020:	00000f13          	li	t5,0
    80000024:	000f0463          	beqz	t5,8000002c <trap_vector+0x28>
    80000028:	000f0067          	jr	t5
    8000002c:	34202f73          	csrr	t5,mcause
    80000030:	000f5463          	bgez	t5,80000038 <handle_exception>
    80000034:	0140006f          	j	80000048 <other_exception>

0000000080000038 <handle_exception>:
    80000038:	34102e73          	csrr	t3,mepc
    8000003c:	004e0e13          	addi	t3,t3,4
    80000040:	341e1073          	csrw	mepc,t3
    80000044:	30200073          	mret

0000000080000048 <other_exception>:
    80000048:	5391e193          	ori	gp,gp,1337

000000008000004c <write_tohost>:
    8000004c:	00001f17          	auipc	t5,0x1
    80000050:	fa3f2a23          	sw	gp,-76(t5) # 80001000 <tohost>
    80000054:	ff9ff06f          	j	8000004c <write_tohost>

0000000080000058 <reset_vector>:
    80000058:	f1402573          	csrr	a0,mhartid
    8000005c:	00051063          	bnez	a0,8000005c <reset_vector+0x4>
    80000060:	00000297          	auipc	t0,0x0
    80000064:	01028293          	addi	t0,t0,16 # 80000070 <reset_vector+0x18>
    80000068:	30529073          	csrw	mtvec,t0
    8000006c:	18005073          	csrwi	satp,0
    80000070:	00000297          	auipc	t0,0x0
    80000074:	01c28293          	addi	t0,t0,28 # 8000008c <reset_vector+0x34>
    80000078:	30529073          	csrw	mtvec,t0
    8000007c:	fff00293          	li	t0,-1
    80000080:	3b029073          	csrw	pmpaddr0,t0
    80000084:	01f00293          	li	t0,31
    80000088:	3a029073          	csrw	pmpcfg0,t0
    8000008c:	00000297          	auipc	t0,0x0
    80000090:	01828293          	addi	t0,t0,24 # 800000a4 <reset_vector+0x4c>
    80000094:	30529073          	csrw	mtvec,t0
    80000098:	30205073          	csrwi	medeleg,0
    8000009c:	30305073          	csrwi	mideleg,0
    800000a0:	30405073          	csrwi	mie,0
    800000a4:	00000193          	li	gp,0
    800000a8:	00000297          	auipc	t0,0x0
    800000ac:	f5c28293          	addi	t0,t0,-164 # 80000004 <trap_vector>
    800000b0:	30529073          	csrw	mtvec,t0
    800000b4:	00100513          	li	a0,1
    800000b8:	01f51513          	slli	a0,a0,0x1f
    800000bc:	00055863          	bgez	a0,800000cc <reset_vector+0x74>
    800000c0:	0ff0000f          	fence
    800000c4:	00100193          	li	gp,1
    800000c8:	00000073          	ecall
    800000cc:	00000293          	li	t0,0
    800000d0:	00028e63          	beqz	t0,800000ec <reset_vector+0x94>
    800000d4:	10529073          	csrw	stvec,t0
    800000d8:	0000b2b7          	lui	t0,0xb
    800000dc:	1092829b          	addiw	t0,t0,265
    800000e0:	30229073          	csrw	medeleg,t0
    800000e4:	30202373          	csrr	t1,medeleg
    800000e8:	f66290e3          	bne	t0,t1,80000048 <other_exception>
    800000ec:	30005073          	csrwi	mstatus,0
    800000f0:	00000297          	auipc	t0,0x0
    800000f4:	01428293          	addi	t0,t0,20 # 80000104 <reset_vector+0xac>
    800000f8:	34129073          	csrw	mepc,t0
    800000fc:	f1402573          	csrr	a0,mhartid
    80000100:	30200073          	mret
    80000104:	0180006f          	j	8000011c <test_start>

0000000080000108 <crash_backward>:
    80000108:	0ff0000f          	fence
    8000010c:	00018063          	beqz	gp,8000010c <crash_backward+0x4>
    80000110:	00119193          	slli	gp,gp,0x1
    80000114:	0011e193          	ori	gp,gp,1
    80000118:	00000073          	ecall

000000008000011c <test_start>:
    8000011c:	00001f97          	auipc	t6,0x1
    80000120:	fe4f8f93          	addi	t6,t6,-28 # 80001100 <hidden_data>
    80000124:	000fb003          	ld	zero,0(t6)
    80000128:	008fb083          	ld	ra,8(t6)
    8000012c:	010fb103          	ld	sp,16(t6)
    80000130:	018fb183          	ld	gp,24(t6)
    80000134:	020fb203          	ld	tp,32(t6)
    80000138:	028fb283          	ld	t0,40(t6)
    8000013c:	030fb303          	ld	t1,48(t6)
    80000140:	038fb383          	ld	t2,56(t6)
    80000144:	040fb403          	ld	s0,64(t6)
    80000148:	048fb483          	ld	s1,72(t6)
    8000014c:	050fb503          	ld	a0,80(t6)
    80000150:	058fb583          	ld	a1,88(t6)
    80000154:	060fb603          	ld	a2,96(t6)
    80000158:	068fb683          	ld	a3,104(t6)
    8000015c:	070fb703          	ld	a4,112(t6)
    80000160:	078fb783          	ld	a5,120(t6)
    80000164:	080fb803          	ld	a6,128(t6)
    80000168:	088fb883          	ld	a7,136(t6)
    8000016c:	090fb903          	ld	s2,144(t6)
    80000170:	098fb983          	ld	s3,152(t6)
    80000174:	0a0fba03          	ld	s4,160(t6)
    80000178:	0a8fba83          	ld	s5,168(t6)
    8000017c:	0b0fbb03          	ld	s6,176(t6)
    80000180:	0b8fbb83          	ld	s7,184(t6)
    80000184:	0c0fbc03          	ld	s8,192(t6)
    80000188:	0c8fbc83          	ld	s9,200(t6)
    8000018c:	0d0fbd03          	ld	s10,208(t6)
    80000190:	0d8fbd83          	ld	s11,216(t6)
    80000194:	0e0fbe03          	ld	t3,224(t6)
    80000198:	0e8fbe83          	ld	t4,232(t6)
    8000019c:	0f0fbf03          	ld	t5,240(t6)
    800001a0:	0f8fbf83          	ld	t6,248(t6)
    800001a4:	0040006f          	j	800001a8 <pseg_0>

00000000800001a8 <pseg_0>:
    800001a8:	a1c18c13          	addi	s8,gp,-1508 # 8000192c <_end+0x21c>
    800001ac:	51600b13          	li	s6,1302
    800001b0:	0339e13b          	remw	sp,s3,s3
    800001b4:	00001097          	auipc	ra,0x1
    800001b8:	33508093          	addi	ra,ra,821 # 800014e9 <test_memory+0x1e9>
    800001bc:	000e0d93          	mv	s11,t3
    800001c0:	40c60533          	sub	a0,a2,a2
    800001c4:	00001597          	auipc	a1,0x1
    800001c8:	47658593          	addi	a1,a1,1142 # 8000163a <test_memory+0x33a>
    800001cc:	00001e17          	auipc	t3,0x1
    800001d0:	c01e0e13          	addi	t3,t3,-1023 # 80000dcd <test_end+0x485>
    800001d4:	00001f17          	auipc	t5,0x1
    800001d8:	3baf0f13          	addi	t5,t5,954 # 8000158e <test_memory+0x28e>
    800001dc:	000d8393          	mv	t2,s11
    800001e0:	72be2d03          	lw	s10,1835(t3)
    800001e4:	e2a5ae83          	lw	t4,-470(a1)
    800001e8:	00001297          	auipc	t0,0x1
    800001ec:	bd828293          	addi	t0,t0,-1064 # 80000dc0 <test_end+0x478>
    800001f0:	7142ab83          	lw	s7,1812(t0)
    800001f4:	54000813          	li	a6,1344
    800001f8:	2dd00993          	li	s3,733
    800001fc:	00001797          	auipc	a5,0x1
    80000200:	03178793          	addi	a5,a5,49 # 8000122d <reg_x5_output+0x5>
    80000204:	f07de2e3          	bltu	s11,t2,80000108 <crash_backward>
    80000208:	03386abb          	remw	s5,a6,s3
    8000020c:	99400a13          	li	s4,-1644
    80000210:	dc000913          	li	s2,-576
    80000214:	10d7cf83          	lbu	t6,269(a5)
    80000218:	a8cc3883          	ld	a7,-1396(s8)
    8000021c:	00001217          	auipc	tp,0x1
    80000220:	53620213          	addi	tp,tp,1334 # 80001752 <_end+0x42>
    80000224:	02e6a333          	mulhsu	t1,a3,a4
    80000228:	cc021603          	lh	a2,-832(tp) # fffffffffffffcc0 <__global_pointer$+0xffffffff7fffddb0>
    8000022c:	b0018c93          	addi	s9,gp,-1280 # 80001a10 <_end+0x300>
    80000230:	1cb0a703          	lw	a4,459(ra)
    80000234:	eecf1523          	sh	a2,-278(t5)
    80000238:	a26a0493          	addi	s1,s4,-1498
    8000023c:	6e9a4c63          	blt	s4,s1,80000934 <crash_forward>
    80000240:	cb5c9023          	sh	s5,-864(s9)
    80000244:	032b56b3          	divu	a3,s6,s2
    80000248:	99100a13          	li	s4,-1647
    8000024c:	c8c00d93          	li	s11,-884
    80000250:	41dfde9b          	sraiw	t4,t6,0x1d
    80000254:	4f700513          	li	a0,1271
    80000258:	0118f0b3          	and	ra,a7,a7
    8000025c:	e5900113          	li	sp,-423
    80000260:	b0800493          	li	s1,-1272
    80000264:	01dea9b3          	slt	s3,t4,t4
    80000268:	bde18c93          	addi	s9,gp,-1058 # 80001aee <_end+0x3de>
    8000026c:	00001197          	auipc	gp,0x1
    80000270:	22418193          	addi	gp,gp,548 # 80001490 <test_memory+0x190>
    80000274:	00211d33          	sll	s10,sp,sp
    80000278:	41bd8e3b          	subw	t3,s11,s11
    8000027c:	8bec9883          	lh	a7,-1858(s9)
    80000280:	01f9dc33          	srl	s8,s3,t6
    80000284:	9d900a93          	li	s5,-1575
    80000288:	c5a18393          	addi	t2,gp,-934 # 80001b6a <_end+0x45a>
    8000028c:	00001d97          	auipc	s11,0x1
    80000290:	104d8d93          	addi	s11,s11,260 # 80001390 <test_memory+0x90>
    80000294:	00001797          	auipc	a5,0x1
    80000298:	e5978793          	addi	a5,a5,-423 # 800010ed <fromhost+0xad>
    8000029c:	3c900e13          	li	t3,969
    800002a0:	14a00713          	li	a4,330
    800002a4:	db118093          	addi	ra,gp,-591 # 80001cc1 <_end+0x5b1>
    800002a8:	b1ba0293          	addi	t0,s4,-1253
    800002ac:	5df7e683          	lwu	a3,1503(a5)
    800002b0:	273e0d13          	addi	s10,t3,627
    800002b4:	f781b903          	ld	s2,-136(gp) # 80001e88 <_end+0x778>
    800002b8:	a0b00f93          	li	t6,-1525
    800002bc:	fe6dc103          	lbu	sp,-26(s11)
    800002c0:	64600313          	li	t1,1606
    800002c4:	665a6863          	bltu	s4,t0,80000934 <crash_forward>
    800002c8:	71300a13          	li	s4,1811
    800002cc:	69800593          	li	a1,1688
    800002d0:	2d550e93          	addi	t4,a0,725
    800002d4:	00634b33          	xor	s6,t1,t1
    800002d8:	fdc00c13          	li	s8,-36
    800002dc:	9223d203          	lhu	tp,-1758(t2)
    800002e0:	417a59b3          	sra	s3,s4,s7
    800002e4:	a6718913          	addi	s2,gp,-1433 # 80001977 <_end+0x267>
    800002e8:	8b200893          	li	a7,-1870
    800002ec:	cf200413          	li	s0,-782
    800002f0:	92e09ea3          	sh	a4,-1731(ra)
    800002f4:	b1940b93          	addi	s7,s0,-1255
    800002f8:	c3018793          	addi	a5,gp,-976 # 80001b40 <_end+0x430>
    800002fc:	40ea8633          	sub	a2,s5,a4
    80000300:	80778183          	lb	gp,-2041(a5)
    80000304:	47600693          	li	a3,1142
    80000308:	63746663          	bltu	s0,s7,80000934 <crash_forward>
    8000030c:	00da6133          	or	sp,s4,a3
    80000310:	00001b17          	auipc	s6,0x1
    80000314:	095b0b13          	addi	s6,s6,149 # 800013a5 <test_memory+0xa5>
    80000318:	61d50e63          	beq	a0,t4,80000934 <crash_forward>
    8000031c:	0294883b          	mulw	a6,s1,s1
    80000320:	c3718313          	addi	t1,gp,-969 # 80001b47 <_end+0x437>
    80000324:	b3600213          	li	tp,-1226
    80000328:	02f9e2bb          	remw	t0,s3,a5
    8000032c:	14b00813          	li	a6,331
    80000330:	02bfef3b          	remw	t5,t6,a1
    80000334:	00d01f13          	slli	t5,zero,0xd
    80000338:	024213b3          	mulh	t2,tp,tp
    8000033c:	00000493          	li	s1,0
    80000340:	00000b93          	li	s7,0
    80000344:	a0f18a93          	addi	s5,gp,-1521 # 8000191f <_end+0x20f>
    80000348:	00001e17          	auipc	t3,0x1
    8000034c:	177e0e13          	addi	t3,t3,375 # 800014bf <test_memory+0x1bf>
    80000350:	011c5cbb          	srlw	s9,s8,a7
    80000354:	357b1983          	lh	s3,855(s6)
    80000358:	14300213          	li	tp,323
    8000035c:	00424fb3          	xor	t6,tp,tp
    80000360:	00000693          	li	a3,0
    80000364:	045e6e83          	lwu	t4,69(t3)
    80000368:	77b20393          	addi	t2,tp,1915 # 77b <_start-0x7ffff885>
    8000036c:	00001597          	auipc	a1,0x1
    80000370:	04458593          	addi	a1,a1,68 # 800013b0 <test_memory+0xb0>
    80000374:	c72ac403          	lbu	s0,-910(s5)
    80000378:	00001e17          	auipc	t3,0x1
    8000037c:	13fe0e13          	addi	t3,t3,319 # 800014b7 <test_memory+0x1b7>
    80000380:	00001d17          	auipc	s10,0x1
    80000384:	2f0d0d13          	addi	s10,s10,752 # 80001670 <test_memory+0x370>
    80000388:	5a94c663          	blt	s1,s1,80000934 <crash_forward>
    8000038c:	45000f93          	li	t6,1104
    80000390:	03ff8eb3          	mul	t4,t6,t6
    80000394:	b1531083          	lh	ra,-1259(t1)
    80000398:	30c5ac23          	sw	a2,792(a1)
    8000039c:	229e0983          	lb	s3,553(t3)
    800003a0:	d67204e3          	beq	tp,t2,80000108 <crash_backward>
    800003a4:	00001c97          	auipc	s9,0x1
    800003a8:	a54c8c93          	addi	s9,s9,-1452 # 80000df8 <test_end+0x4b0>
    800003ac:	b2d00c13          	li	s8,-1235
    800003b0:	418c0f33          	sub	t5,s8,s8
    800003b4:	e4700513          	li	a0,-441
    800003b8:	67cceb03          	lwu	s6,1660(s9)
    800003bc:	bc118b93          	addi	s7,gp,-1087 # 80001ad1 <_end+0x3c1>
    800003c0:	01e8c6b3          	xor	a3,a7,t5
    800003c4:	bad96d83          	lwu	s11,-1107(s2)
    800003c8:	00000113          	li	sp,0
    800003cc:	b1e18793          	addi	a5,gp,-1250 # 80001a2e <_end+0x31e>
    800003d0:	42800293          	li	t0,1064
    800003d4:	00551633          	sll	a2,a0,t0
    800003d8:	67900a13          	li	s4,1657
    800003dc:	034811b3          	mulh	gp,a6,s4
    800003e0:	99dbc883          	lbu	a7,-1635(s7)
    800003e4:	f88d6703          	lwu	a4,-120(s10)
    800003e8:	bd078823          	sb	a6,-1072(a5)
    800003ec:	00100593          	li	a1,1
    800003f0:	00720abb          	addw	s5,tp,t2
    800003f4:	f6100613          	li	a2,-159
    800003f8:	97218193          	addi	gp,gp,-1678 # 80001882 <_end+0x172>
    800003fc:	00001c97          	auipc	s9,0x1
    80000400:	c4fc8c93          	addi	s9,s9,-945 # 8000104b <fromhost+0xb>
    80000404:	e621df03          	lhu	t5,-414(gp) # 80001d72 <_end+0x662>
    80000408:	0047cb33          	xor	s6,a5,tp
    8000040c:	00f75993          	srli	s3,a4,0xf
    80000410:	99500093          	li	ra,-1643
    80000414:	55dcdc03          	lhu	s8,1373(s9)
    80000418:	ca218b93          	addi	s7,gp,-862 # 80001bb2 <_end+0x4a2>
    8000041c:	d0200f13          	li	t5,-766
    80000420:	00c60a33          	add	s4,a2,a2
    80000424:	aa200393          	li	t2,-1374
    80000428:	00100b13          	li	s6,1
    8000042c:	00001297          	auipc	t0,0x1
    80000430:	f9828293          	addi	t0,t0,-104 # 800013c4 <test_memory+0xc4>
    80000434:	03f59593          	slli	a1,a1,0x3f
    80000438:	9b318e13          	addi	t3,gp,-1613 # 800018c3 <_end+0x1b3>
    8000043c:	8caf0c93          	addi	s9,t5,-1846
    80000440:	1d42a703          	lw	a4,468(t0)
    80000444:	00f7d1bb          	srlw	gp,a5,a5
    80000448:	02630333          	mul	t1,t1,t1
    8000044c:	0273f13b          	remuw	sp,t2,t2
    80000450:	c2b08f93          	addi	t6,ra,-981
    80000454:	fff00693          	li	a3,-1
    80000458:	40630c33          	sub	s8,t1,t1
    8000045c:	01084ab3          	xor	s5,a6,a6
    80000460:	00001e97          	auipc	t4,0x1
    80000464:	f24e8e93          	addi	t4,t4,-220 # 80001384 <test_memory+0x84>
    80000468:	0355fdbb          	remuw	s11,a1,s5
    8000046c:	00b6c6b3          	xor	a3,a3,a1
    80000470:	03fb1b13          	slli	s6,s6,0x3f
    80000474:	00ce8ea3          	sb	a2,29(t4)
    80000478:	00001497          	auipc	s1,0x1
    8000047c:	96c48493          	addi	s1,s1,-1684 # 80000de4 <test_end+0x49c>
    80000480:	f2500193          	li	gp,-219
    80000484:	54c00893          	li	a7,1356
    80000488:	6fe49823          	sh	t5,1776(s1)
    8000048c:	28e00313          	li	t1,654
    80000490:	01188533          	add	a0,a7,a7
    80000494:	ae700113          	li	sp,-1305
    80000498:	c65e2903          	lw	s2,-923(t3)
    8000049c:	922bd783          	lhu	a5,-1758(s7)
    800004a0:	fe218713          	addi	a4,gp,-30 # 80001ef2 <_end+0x7e2>
    800004a4:	76030293          	addi	t0,t1,1888
    800004a8:	95200d13          	li	s10,-1710
    800004ac:	48e18463          	beq	gp,a4,80000934 <crash_forward>
    800004b0:	b9018c13          	addi	s8,gp,-1136 # 80001aa0 <_end+0x390>
    800004b4:	018d5fbb          	srlw	t6,s10,s8
    800004b8:	00001517          	auipc	a0,0x1
    800004bc:	02b50513          	addi	a0,a0,43 # 800014e3 <test_memory+0x1e3>
    800004c0:	00d9f233          	and	tp,s3,a3
    800004c4:	018c08b3          	add	a7,s8,s8
    800004c8:	03ad1833          	mulh	a6,s10,s10
    800004cc:	f6210c93          	addi	s9,sp,-158
    800004d0:	01b5d393          	srli	t2,a1,0x1b
    800004d4:	00100f93          	li	t6,1
    800004d8:	00001297          	auipc	t0,0x1
    800004dc:	ea428293          	addi	t0,t0,-348 # 8000137c <test_memory+0x7c>
    800004e0:	01ac0db3          	add	s11,s8,s10
    800004e4:	01dd4ab3          	xor	s5,s10,t4
    800004e8:	d3100193          	li	gp,-719
    800004ec:	fab00493          	li	s1,-85
    800004f0:	0139bf33          	sltu	t5,s3,s3
    800004f4:	00b26433          	or	s0,tp,a1
    800004f8:	0c100c93          	li	s9,193
    800004fc:	be500393          	li	t2,-1051
    80000500:	03ff9f93          	slli	t6,t6,0x3f
    80000504:	fea00813          	li	a6,-22
    80000508:	1662a623          	sw	t1,364(t0)
    8000050c:	42445463          	bge	s0,tp,80000934 <crash_forward>
    80000510:	d9218893          	addi	a7,gp,-622 # 80001ca2 <_end+0x592>
    80000514:	039cfdb3          	remu	s11,s9,s9
    80000518:	d8018d13          	addi	s10,gp,-640 # 80001c90 <_end+0x580>
    8000051c:	fff00613          	li	a2,-1
    80000520:	bfa1e4e3          	bltu	gp,s10,80000108 <crash_backward>
    80000524:	b2e00293          	li	t0,-1234
    80000528:	00001717          	auipc	a4,0x1
    8000052c:	f0d70713          	addi	a4,a4,-243 # 80001435 <test_memory+0x135>
    80000530:	da418a93          	addi	s5,gp,-604 # 80001cb4 <_end+0x5a4>
    80000534:	bacc6083          	lwu	ra,-1108(s8)
    80000538:	82e8b103          	ld	sp,-2002(a7)
    8000053c:	fff00b93          	li	s7,-1
    80000540:	29a72da3          	sw	s10,667(a4)
    80000544:	0252ef33          	rem	t5,t0,t0
    80000548:	01fbcbb3          	xor	s7,s7,t6
    8000054c:	017bf333          	and	t1,s7,s7
    80000550:	01664633          	xor	a2,a2,s6
    80000554:	826a80a3          	sb	t1,-2015(s5)
    80000558:	00c37a33          	and	s4,t1,a2
    8000055c:	016a69b3          	or	s3,s4,s6
    80000560:	16d532a3          	sd	a3,357(a0)
    80000564:	1b300913          	li	s2,435
    80000568:	0123e7b3          	or	a5,t2,s2
    8000056c:	01fb6e33          	or	t3,s6,t6
    80000570:	4104debb          	sraw	t4,s1,a6
    80000574:	00100393          	li	t2,1
    80000578:	41ccd5bb          	sraw	a1,s9,t3
    8000057c:	01fff2b3          	and	t0,t6,t6
    80000580:	dd900913          	li	s2,-551
    80000584:	4bb00493          	li	s1,1211
    80000588:	c9b18f13          	addi	t5,gp,-869 # 80001bab <_end+0x49b>
    8000058c:	03082233          	mulhsu	tp,a6,a6
    80000590:	23d00d13          	li	s10,573
    80000594:	00948433          	add	s0,s1,s1
    80000598:	02e701b3          	mul	gp,a4,a4
    8000059c:	00001b97          	auipc	s7,0x1
    800005a0:	d9bb8b93          	addi	s7,s7,-613 # 80001337 <test_memory+0x37>
    800005a4:	41295cb3          	sra	s9,s2,s2
    800005a8:	06000693          	li	a3,96
    800005ac:	75300613          	li	a2,1875
    800005b0:	00001a17          	auipc	s4,0x1
    800005b4:	08ca0a13          	addi	s4,s4,140 # 8000163c <test_memory+0x33c>
    800005b8:	7c7d0993          	addi	s3,s10,1991
    800005bc:	ceca5f83          	lhu	t6,-788(s4)
    800005c0:	023ace33          	div	t3,s5,gp
    800005c4:	03f39393          	slli	t2,t2,0x3f
    800005c8:	181bec03          	lwu	s8,385(s7)
    800005cc:	94718293          	addi	t0,gp,-1721 # 80001857 <_end+0x147>
    800005d0:	afd2e583          	lwu	a1,-1283(t0)
    800005d4:	863f32a3          	sd	gp,-1947(t5)
    800005d8:	40d68ab3          	sub	s5,a3,a3
    800005dc:	ede18513          	addi	a0,gp,-290 # 80001dee <_end+0x6de>
    800005e0:	45600713          	li	a4,1110
    800005e4:	00001e97          	auipc	t4,0x1
    800005e8:	aa3e8e93          	addi	t4,t4,-1373 # 80001087 <fromhost+0x47>
    800005ec:	00e67333          	and	t1,a2,a4
    800005f0:	fff00b13          	li	s6,-1
    800005f4:	007b4b33          	xor	s6,s6,t2
    800005f8:	00100413          	li	s0,1
    800005fc:	7cc00b93          	li	s7,1996
    80000600:	b6100613          	li	a2,-1183
    80000604:	611b8313          	addi	t1,s7,1553
    80000608:	00001697          	auipc	a3,0x1
    8000060c:	c9868693          	addi	a3,a3,-872 # 800012a0 <reg_x20_output>
    80000610:	00001f17          	auipc	t5,0x1
    80000614:	a17f0f13          	addi	t5,t5,-1513 # 80001027 <tohost+0x27>
    80000618:	00100f93          	li	t6,1
    8000061c:	9d018d13          	addi	s10,gp,-1584 # 800018e0 <_end+0x1d0>
    80000620:	8e954103          	lbu	sp,-1815(a0)
    80000624:	2c8eaaa3          	sw	s0,725(t4)
    80000628:	a2f00293          	li	t0,-1489
    8000062c:	03ff9f93          	slli	t6,t6,0x3f
    80000630:	02562cb3          	mulhsu	s9,a2,t0
    80000634:	2e000213          	li	tp,736
    80000638:	00424a33          	xor	s4,tp,tp
    8000063c:	03f41413          	slli	s0,s0,0x3f
    80000640:	fff00593          	li	a1,-1
    80000644:	01f5c5b3          	xor	a1,a1,t6
    80000648:	2e6bd663          	bge	s7,t1,80000934 <crash_forward>
    8000064c:	00bff933          	and	s2,t6,a1
    80000650:	a84d1923          	sh	tp,-1390(s10)
    80000654:	2e006063          	bltu	zero,zero,80000934 <crash_forward>
    80000658:	17a69a83          	lh	s5,378(a3)
    8000065c:	fff00e13          	li	t3,-1
    80000660:	35500893          	li	a7,853
    80000664:	01bddbb3          	srl	s7,s11,s11
    80000668:	00001117          	auipc	sp,0x1
    8000066c:	c7010113          	addi	sp,sp,-912 # 800012d8 <reg_x27_output>
    80000670:	01fa6c33          	or	s8,s4,t6
    80000674:	1d900313          	li	t1,473
    80000678:	00000693          	li	a3,0
    8000067c:	0068c633          	xor	a2,a7,t1
    80000680:	56500993          	li	s3,1381
    80000684:	00000093          	li	ra,0
    80000688:	23700a13          	li	s4,567
    8000068c:	00001d17          	auipc	s10,0x1
    80000690:	fc3d0d13          	addi	s10,s10,-61 # 8000164f <test_memory+0x34f>
    80000694:	2af14c83          	lbu	s9,687(sp)
    80000698:	f81d3503          	ld	a0,-127(s10)
    8000069c:	ff000213          	li	tp,-16
    800006a0:	40420833          	sub	a6,tp,tp
    800006a4:	f7f82b93          	slti	s7,a6,-129
    800006a8:	008e4e33          	xor	t3,t3,s0
    800006ac:	43ff26a3          	sw	t6,1069(t5)
    800006b0:	016af7b3          	and	a5,s5,s6
    800006b4:	1dd00e93          	li	t4,477
    800006b8:	03da42b3          	div	t0,s4,t4
    800006bc:	0078edb3          	or	s11,a7,t2
    800006c0:	0139e1b3          	or	gp,s3,s3
    800006c4:	01c67733          	and	a4,a2,t3
    800006c8:	0087e4b3          	or	s1,a5,s0
    800006cc:	a2974ee3          	blt	a4,s1,80000108 <crash_backward>
    800006d0:	b4a18d93          	addi	s11,gp,-1206 # 80001a5a <_end+0x34a>
    800006d4:	79c00293          	li	t0,1948
    800006d8:	43f00f93          	li	t6,1087
    800006dc:	cfcd16b7          	lui	a3,0xcfcd1
    800006e0:	33e00313          	li	t1,830
    800006e4:	02a98633          	mul	a2,s3,a0
    800006e8:	0135fd33          	and	s10,a1,s3
    800006ec:	00100113          	li	sp,1
    800006f0:	03f11113          	slli	sp,sp,0x3f
    800006f4:	40810c33          	sub	s8,sp,s0
    800006f8:	02bc543b          	divuw	s0,s8,a1
    800006fc:	0252abb3          	mulhsu	s7,t0,t0
    80000700:	8bcda723          	sw	t3,-1874(s11)
    80000704:	00001797          	auipc	a5,0x1
    80000708:	f3b78793          	addi	a5,a5,-197 # 8000163f <test_memory+0x33f>
    8000070c:	00001e97          	auipc	t4,0x1
    80000710:	886e8e93          	addi	t4,t4,-1914 # 80000f92 <test_end+0x64a>
    80000714:	83e00213          	li	tp,-1986
    80000718:	231f019b          	addiw	gp,t5,561
    8000071c:	38eea703          	lw	a4,910(t4)
    80000720:	29ebd637          	lui	a2,0x29ebd
    80000724:	dc57aa03          	lw	s4,-571(a5)
    80000728:	01ce2ab3          	slt	s5,t3,t3
    8000072c:	0294e433          	rem	s0,s1,s1
    80000730:	f4e00e13          	li	t3,-178
    80000734:	e4700f13          	li	t5,-441
    80000738:	fff00893          	li	a7,-1
    8000073c:	404fd53b          	sraw	a0,t6,tp
    80000740:	03ce25b3          	mulhsu	a1,t3,t3
    80000744:	21630c93          	addi	s9,t1,534
    80000748:	0028c8b3          	xor	a7,a7,sp
    8000074c:	00000913          	li	s2,0
    80000750:	00000393          	li	t2,0
    80000754:	0117fb33          	and	s6,a5,a7
    80000758:	01ef54b3          	srl	s1,t5,t5
    8000075c:	41d301b3          	sub	gp,t1,t4
    80000760:	00001d17          	auipc	s10,0x1
    80000764:	c10d0d13          	addi	s10,s10,-1008 # 80001370 <test_memory+0x70>
    80000768:	92718d93          	addi	s11,gp,-1753 # 80001837 <_end+0x127>
    8000076c:	1bcd6683          	lwu	a3,444(s10)
    80000770:	1d937263          	bgeu	t1,s9,80000934 <crash_forward>
    80000774:	02e7e833          	rem	a6,a5,a4
    80000778:	00200c13          	li	s8,2
    8000077c:	002b69b3          	or	s3,s6,sp
    80000780:	ec118213          	addi	tp,gp,-319 # 80001dd1 <_end+0x6c1>
    80000784:	37200e93          	li	t4,882
    80000788:	2d000093          	li	ra,720
    8000078c:	00172733          	slt	a4,a4,ra
    80000790:	00001397          	auipc	t2,0x1
    80000794:	f3f38393          	addi	t2,t2,-193 # 800016cf <test_memory+0x3cf>
    80000798:	e15deb83          	lwu	s7,-491(s11)
    8000079c:	00100613          	li	a2,1
    800007a0:	264e8593          	addi	a1,t4,612
    800007a4:	e2f00493          	li	s1,-465
    800007a8:	00d6983b          	sllw	a6,a3,a3
    800007ac:	03f61613          	slli	a2,a2,0x3f
    800007b0:	fff00793          	li	a5,-1
    800007b4:	03266a33          	rem	s4,a2,s2
    800007b8:	00c7c7b3          	xor	a5,a5,a2
    800007bc:	dcd18713          	addi	a4,gp,-563 # 80001cdd <_end+0x5cd>
    800007c0:	12400a93          	li	s5,292
    800007c4:	021c22b3          	mulhsu	t0,s8,ra
    800007c8:	4031833b          	subw	t1,gp,gp
    800007cc:	00080f93          	mv	t6,a6
    800007d0:	00fe7433          	and	s0,t3,a5
    800007d4:	00000197          	auipc	gp,0x0
    800007d8:	74118193          	addi	gp,gp,1857 # 80000f15 <test_end+0x5cd>
    800007dc:	cbd18e93          	addi	t4,gp,-835 # 80001bcd <_end+0x4bd>
    800007e0:	00100693          	li	a3,1
    800007e4:	848e83a3          	sb	s0,-1977(t4)
    800007e8:	03549f33          	mulh	t5,s1,s5
    800007ec:	03f69693          	slli	a3,a3,0x3f
    800007f0:	153b0263          	beq	s6,s3,80000934 <crash_forward>
    800007f4:	86c20e23          	sb	a2,-1924(tp) # fffffffffffff87c <__global_pointer$+0xffffffff7fffd96c>
    800007f8:	00000813          	li	a6,0
    800007fc:	592197a3          	sh	s2,1423(gp) # 8000249f <__global_pointer$+0x58f>
    80000800:	fff00c93          	li	s9,-1
    80000804:	dd13b903          	ld	s2,-559(t2)
    80000808:	94f76b83          	lwu	s7,-1713(a4)
    8000080c:	000f8513          	mv	a0,t6
    80000810:	00000a13          	li	s4,0
    80000814:	00dcccb3          	xor	s9,s9,a3
    80000818:	00c36e33          	or	t3,t1,a2
    8000081c:	01937d33          	and	s10,t1,s9
    80000820:	00dd6db3          	or	s11,s10,a3
    80000824:	032974bb          	remuw	s1,s2,s2
    80000828:	3ae00393          	li	t2,942
    8000082c:	0210e7b3          	rem	a5,ra,ra
    80000830:	9d100313          	li	t1,-1583
    80000834:	b3900093          	li	ra,-1223
    80000838:	9e818693          	addi	a3,gp,-1560 # 800018f8 <_end+0x1e8>
    8000083c:	00634433          	xor	s0,t1,t1
    80000840:	017f599b          	srliw	s3,t5,0x17
    80000844:	00001c17          	auipc	s8,0x1
    80000848:	857c0c13          	addi	s8,s8,-1961 # 8000109b <fromhost+0x5b>
    8000084c:	40800513          	li	a0,1032
    80000850:	0210863b          	mulw	a2,ra,ra
    80000854:	b6883e13          	sltiu	t3,a6,-1176
    80000858:	93718193          	addi	gp,gp,-1737 # 80001847 <_end+0x137>
    8000085c:	036b6833          	rem	a6,s6,s6
    80000860:	ee418593          	addi	a1,gp,-284 # 80001df4 <_end+0x6e4>
    80000864:	01ec9b13          	slli	s6,s9,0x1e
    80000868:	8845bd03          	ld	s10,-1916(a1)
    8000086c:	61dc1f03          	lh	t5,1565(s8)
    80000870:	2aa00713          	li	a4,682
    80000874:	00001e97          	auipc	t4,0x1
    80000878:	f51e8e93          	addi	t4,t4,-175 # 800017c5 <_end+0xb5>
    8000087c:	e3018a83          	lb	s5,-464(gp) # 80001d40 <_end+0x630>
    80000880:	d3d00213          	li	tp,-707
    80000884:	00001897          	auipc	a7,0x1
    80000888:	80188893          	addi	a7,a7,-2047 # 80001085 <fromhost+0x45>
    8000088c:	02be7933          	remu	s2,t3,a1
    80000890:	02e7613b          	remw	sp,a4,a4
    80000894:	2ff8ac83          	lw	s9,767(a7)
    80000898:	00455bb3          	srl	s7,a0,tp
    8000089c:	e8deca03          	lbu	s4,-371(t4)
    800008a0:	b4469f83          	lh	t6,-1212(a3) # ffffffffcfcd0b44 <__global_pointer$+0xffffffff4fccec34>
    800008a4:	0273bdb3          	mulhu	s11,t2,t2
    800008a8:	0040006f          	j	800008ac <reg_dump>

00000000800008ac <reg_dump>:
    800008ac:	00001097          	auipc	ra,0x1
    800008b0:	e5408093          	addi	ra,ra,-428 # 80001700 <loop_count>
    800008b4:	0000a103          	lw	sp,0(ra)
    800008b8:	fff10193          	addi	gp,sp,-1
    800008bc:	0030a023          	sw	gp,0(ra)
    800008c0:	8e0114e3          	bnez	sp,800001a8 <pseg_0>
    800008c4:	00001097          	auipc	ra,0x1
    800008c8:	93c08093          	addi	ra,ra,-1732 # 80001200 <begin_signature>
    800008cc:	0000b023          	sd	zero,0(ra)
    800008d0:	0020b823          	sd	sp,16(ra)
    800008d4:	0240b023          	sd	tp,32(ra)
    800008d8:	0250b423          	sd	t0,40(ra)
    800008dc:	0260b823          	sd	t1,48(ra)
    800008e0:	0270bc23          	sd	t2,56(ra)
    800008e4:	0480b023          	sd	s0,64(ra)
    800008e8:	0490b423          	sd	s1,72(ra)
    800008ec:	04a0b823          	sd	a0,80(ra)
    800008f0:	06c0b023          	sd	a2,96(ra)
    800008f4:	06e0b823          	sd	a4,112(ra)
    800008f8:	06f0bc23          	sd	a5,120(ra)
    800008fc:	0900b023          	sd	a6,128(ra)
    80000900:	0920b823          	sd	s2,144(ra)
    80000904:	0930bc23          	sd	s3,152(ra)
    80000908:	0b40b023          	sd	s4,160(ra)
    8000090c:	0b50b423          	sd	s5,168(ra)
    80000910:	0b60b823          	sd	s6,176(ra)
    80000914:	0b70bc23          	sd	s7,184(ra)
    80000918:	0d90b423          	sd	s9,200(ra)
    8000091c:	0da0b823          	sd	s10,208(ra)
    80000920:	0db0bc23          	sd	s11,216(ra)
    80000924:	0fc0b023          	sd	t3,224(ra)
    80000928:	0fe0b823          	sd	t5,240(ra)
    8000092c:	0ff0bc23          	sd	t6,248(ra)
    80000930:	0180006f          	j	80000948 <test_end>

0000000080000934 <crash_forward>:
    80000934:	0ff0000f          	fence
    80000938:	00018063          	beqz	gp,80000938 <crash_forward+0x4>
    8000093c:	00119193          	slli	gp,gp,0x1
    80000940:	0011e193          	ori	gp,gp,1
    80000944:	00000073          	ecall

0000000080000948 <test_end>:
    80000948:	0ff0000f          	fence
    8000094c:	00100193          	li	gp,1
    80000950:	00000073          	ecall
    80000954:	c0001073          	unimp
	...

Disassembly of section .tohost:

0000000080001000 <tohost>:
	...

0000000080001040 <fromhost>:
	...
