
test.elf:     file format elf64-littleriscv


Disassembly of section .text.init:

0000000080000000 <_start>:
    80000000:	0580006f          	j	80000058 <reset_vector>

0000000080000004 <trap_vector>:
    80000004:	34202f73          	csrr	t5,mcause
    80000008:	00800f93          	li	t6,8
    8000000c:	05ff0063          	beq	t5,t6,8000004c <write_tohost>
    80000010:	00900f93          	li	t6,9
    80000014:	03ff0c63          	beq	t5,t6,8000004c <write_tohost>
    80000018:	00b00f93          	li	t6,11
    8000001c:	03ff0863          	beq	t5,t6,8000004c <write_tohost>
    80000020:	00000f13          	li	t5,0
    80000024:	000f0463          	beqz	t5,8000002c <trap_vector+0x28>
    80000028:	000f0067          	jr	t5
    8000002c:	34202f73          	csrr	t5,mcause
    80000030:	000f5463          	bgez	t5,80000038 <handle_exception>
    80000034:	0140006f          	j	80000048 <other_exception>

0000000080000038 <handle_exception>:
    80000038:	34102e73          	csrr	t3,mepc
    8000003c:	004e0e13          	addi	t3,t3,4
    80000040:	341e1073          	csrw	mepc,t3
    80000044:	30200073          	mret

0000000080000048 <other_exception>:
    80000048:	5391e193          	ori	gp,gp,1337

000000008000004c <write_tohost>:
    8000004c:	00001f17          	auipc	t5,0x1
    80000050:	fa3f2a23          	sw	gp,-76(t5) # 80001000 <tohost>
    80000054:	ff9ff06f          	j	8000004c <write_tohost>

0000000080000058 <reset_vector>:
    80000058:	f1402573          	csrr	a0,mhartid
    8000005c:	00051063          	bnez	a0,8000005c <reset_vector+0x4>
    80000060:	00000297          	auipc	t0,0x0
    80000064:	01028293          	addi	t0,t0,16 # 80000070 <reset_vector+0x18>
    80000068:	30529073          	csrw	mtvec,t0
    8000006c:	18005073          	csrwi	satp,0
    80000070:	00000297          	auipc	t0,0x0
    80000074:	01c28293          	addi	t0,t0,28 # 8000008c <reset_vector+0x34>
    80000078:	30529073          	csrw	mtvec,t0
    8000007c:	fff00293          	li	t0,-1
    80000080:	3b029073          	csrw	pmpaddr0,t0
    80000084:	01f00293          	li	t0,31
    80000088:	3a029073          	csrw	pmpcfg0,t0
    8000008c:	00000297          	auipc	t0,0x0
    80000090:	01828293          	addi	t0,t0,24 # 800000a4 <reset_vector+0x4c>
    80000094:	30529073          	csrw	mtvec,t0
    80000098:	30205073          	csrwi	medeleg,0
    8000009c:	30305073          	csrwi	mideleg,0
    800000a0:	30405073          	csrwi	mie,0
    800000a4:	00000193          	li	gp,0
    800000a8:	00000297          	auipc	t0,0x0
    800000ac:	f5c28293          	addi	t0,t0,-164 # 80000004 <trap_vector>
    800000b0:	30529073          	csrw	mtvec,t0
    800000b4:	00100513          	li	a0,1
    800000b8:	01f51513          	slli	a0,a0,0x1f
    800000bc:	00055863          	bgez	a0,800000cc <reset_vector+0x74>
    800000c0:	0ff0000f          	fence
    800000c4:	00100193          	li	gp,1
    800000c8:	00000073          	ecall
    800000cc:	00000293          	li	t0,0
    800000d0:	00028e63          	beqz	t0,800000ec <reset_vector+0x94>
    800000d4:	10529073          	csrw	stvec,t0
    800000d8:	0000b2b7          	lui	t0,0xb
    800000dc:	1092829b          	addiw	t0,t0,265
    800000e0:	30229073          	csrw	medeleg,t0
    800000e4:	30202373          	csrr	t1,medeleg
    800000e8:	f66290e3          	bne	t0,t1,80000048 <other_exception>
    800000ec:	30005073          	csrwi	mstatus,0
    800000f0:	00000297          	auipc	t0,0x0
    800000f4:	01428293          	addi	t0,t0,20 # 80000104 <reset_vector+0xac>
    800000f8:	34129073          	csrw	mepc,t0
    800000fc:	f1402573          	csrr	a0,mhartid
    80000100:	30200073          	mret
    80000104:	0180006f          	j	8000011c <test_start>

0000000080000108 <crash_backward>:
    80000108:	0ff0000f          	fence
    8000010c:	00018063          	beqz	gp,8000010c <crash_backward+0x4>
    80000110:	00119193          	slli	gp,gp,0x1
    80000114:	0011e193          	ori	gp,gp,1
    80000118:	00000073          	ecall

000000008000011c <test_start>:
    8000011c:	00001f97          	auipc	t6,0x1
    80000120:	fe4f8f93          	addi	t6,t6,-28 # 80001100 <hidden_data>
    80000124:	000fb003          	ld	zero,0(t6)
    80000128:	008fb083          	ld	ra,8(t6)
    8000012c:	010fb103          	ld	sp,16(t6)
    80000130:	018fb183          	ld	gp,24(t6)
    80000134:	020fb203          	ld	tp,32(t6)
    80000138:	028fb283          	ld	t0,40(t6)
    8000013c:	030fb303          	ld	t1,48(t6)
    80000140:	038fb383          	ld	t2,56(t6)
    80000144:	040fb403          	ld	s0,64(t6)
    80000148:	048fb483          	ld	s1,72(t6)
    8000014c:	050fb503          	ld	a0,80(t6)
    80000150:	058fb583          	ld	a1,88(t6)
    80000154:	060fb603          	ld	a2,96(t6)
    80000158:	068fb683          	ld	a3,104(t6)
    8000015c:	070fb703          	ld	a4,112(t6)
    80000160:	078fb783          	ld	a5,120(t6)
    80000164:	080fb803          	ld	a6,128(t6)
    80000168:	088fb883          	ld	a7,136(t6)
    8000016c:	090fb903          	ld	s2,144(t6)
    80000170:	098fb983          	ld	s3,152(t6)
    80000174:	0a0fba03          	ld	s4,160(t6)
    80000178:	0a8fba83          	ld	s5,168(t6)
    8000017c:	0b0fbb03          	ld	s6,176(t6)
    80000180:	0b8fbb83          	ld	s7,184(t6)
    80000184:	0c0fbc03          	ld	s8,192(t6)
    80000188:	0c8fbc83          	ld	s9,200(t6)
    8000018c:	0d0fbd03          	ld	s10,208(t6)
    80000190:	0d8fbd83          	ld	s11,216(t6)
    80000194:	0e0fbe03          	ld	t3,224(t6)
    80000198:	0e8fbe83          	ld	t4,232(t6)
    8000019c:	0f0fbf03          	ld	t5,240(t6)
    800001a0:	0f8fbf83          	ld	t6,248(t6)
    800001a4:	0040006f          	j	800001a8 <pseg_0>

00000000800001a8 <pseg_0>:
    800001a8:	416b0833          	sub	a6,s6,s6
    800001ac:	00001d17          	auipc	s10,0x1
    800001b0:	2e8d0d13          	addi	s10,s10,744 # 80001494 <test_memory+0x194>
    800001b4:	d9cc0b93          	addi	s7,s8,-612
    800001b8:	00050113          	mv	sp,a0
    800001bc:	00001717          	auipc	a4,0x1
    800001c0:	ac470713          	addi	a4,a4,-1340 # 80000c80 <test_end+0x25c>
    800001c4:	98b18693          	addi	a3,gp,-1653 # 8000189b <_end+0x18b>
    800001c8:	0208b233          	mulhu	tp,a7,zero
    800001cc:	00100093          	li	ra,1
    800001d0:	040060e3          	bltu	zero,zero,80000a10 <crash_forward>
    800001d4:	a2f18993          	addi	s3,gp,-1489 # 8000193f <_end+0x22f>
    800001d8:	00100493          	li	s1,1
    800001dc:	03f49493          	slli	s1,s1,0x3f
    800001e0:	00001c17          	auipc	s8,0x1
    800001e4:	badc0c13          	addi	s8,s8,-1107 # 80000d8d <test_end+0x369>
    800001e8:	9ad00793          	li	a5,-1619
    800001ec:	0010aa33          	slt	s4,ra,ra
    800001f0:	e3400913          	li	s2,-460
    800001f4:	03f09093          	slli	ra,ra,0x3f
    800001f8:	6f1c831b          	addiw	t1,s9,1777
    800001fc:	0127f3b3          	and	t2,a5,s2
    80000200:	7dd73423          	sd	t4,1992(a4)
    80000204:	fff00f93          	li	t6,-1
    80000208:	7bfc0223          	sb	t6,1956(s8)
    8000020c:	009fcfb3          	xor	t6,t6,s1
    80000210:	bf19de83          	lhu	t4,-1039(s3)
    80000214:	c876bea3          	sd	t2,-867(a3)
    80000218:	01f6f533          	and	a0,a3,t6
    8000021c:	fff00b13          	li	s6,-1
    80000220:	0a8d2283          	lw	t0,168(s10)
    80000224:	a2400593          	li	a1,-1500
    80000228:	a4900613          	li	a2,-1463
    8000022c:	00010a93          	mv	s5,sp
    80000230:	001b4b33          	xor	s6,s6,ra
    80000234:	0084143b          	sllw	s0,s0,s0
    80000238:	98200b93          	li	s7,-1662
    8000023c:	5e900f13          	li	t5,1513
    80000240:	01657cb3          	and	s9,a0,s6
    80000244:	ed5112e3          	bne	sp,s5,80000108 <crash_backward>
    80000248:	a05b8813          	addi	a6,s7,-1531
    8000024c:	001d6db3          	or	s11,s10,ra
    80000250:	02c5c1bb          	divw	gp,a1,a2
    80000254:	009a68b3          	or	a7,s4,s1
    80000258:	eb1508e3          	beq	a0,a7,80000108 <crash_backward>
    8000025c:	3a3f0e13          	addi	t3,t5,931
    80000260:	4090d61b          	sraiw	a2,ra,0x9
    80000264:	59db089b          	addiw	a7,s6,1437
    80000268:	03081e33          	mulh	t3,a6,a6
    8000026c:	cc718a93          	addi	s5,gp,-825 # 80001bd7 <_end+0x4c7>
    80000270:	adc00313          	li	t1,-1316
    80000274:	bbc00493          	li	s1,-1092
    80000278:	5a100713          	li	a4,1441
    8000027c:	39000b93          	li	s7,912
    80000280:	68a00893          	li	a7,1674
    80000284:	00100913          	li	s2,1
    80000288:	00935cbb          	srlw	s9,t1,s1
    8000028c:	f1200213          	li	tp,-238
    80000290:	64300a13          	li	s4,1603
    80000294:	03ad663b          	remw	a2,s10,s10
    80000298:	00001c17          	auipc	s8,0x1
    8000029c:	02fc0c13          	addi	s8,s8,47 # 800012c7 <reg_x24_output+0x7>
    800002a0:	41b00e93          	li	t4,1051
    800002a4:	e2900193          	li	gp,-471
    800002a8:	02845fb3          	divu	t6,s0,s0
    800002ac:	03ffa533          	mulhsu	a0,t6,t6
    800002b0:	03f91913          	slli	s2,s2,0x3f
    800002b4:	01d752b3          	srl	t0,a4,t4
    800002b8:	02324d33          	div	s10,tp,gp
    800002bc:	02b5bf33          	mulhu	t5,a1,a1
    800002c0:	4137569b          	sraiw	a3,a4,0x13
    800002c4:	411b87b3          	sub	a5,s7,a7
    800002c8:	fff00b13          	li	s6,-1
    800002cc:	00001397          	auipc	t2,0x1
    800002d0:	05e38393          	addi	t2,t2,94 # 8000132a <test_memory+0x2a>
    800002d4:	012b4b33          	xor	s6,s6,s2
    800002d8:	00001297          	auipc	t0,0x1
    800002dc:	0b828293          	addi	t0,t0,184 # 80001390 <test_memory+0x90>
    800002e0:	0233c103          	lbu	sp,35(t2)
    800002e4:	2ac2bc23          	sd	a2,696(t0)
    800002e8:	00001497          	auipc	s1,0x1
    800002ec:	3a448493          	addi	s1,s1,932 # 8000168c <test_memory+0x38c>
    800002f0:	29b00f93          	li	t6,667
    800002f4:	998a8803          	lb	a6,-1640(s5)
    800002f8:	da900c93          	li	s9,-599
    800002fc:	28800313          	li	t1,648
    80000300:	00001217          	auipc	tp,0x1
    80000304:	4d720213          	addi	tp,tp,1239 # 800017d7 <_end+0xc7>
    80000308:	009f599b          	srliw	s3,t5,0x9
    8000030c:	26000e93          	li	t4,608
    80000310:	90900793          	li	a5,-1783
    80000314:	41ffd73b          	sraw	a4,t6,t6
    80000318:	15800e13          	li	t3,344
    8000031c:	0167fdb3          	and	s11,a5,s6
    80000320:	52b00893          	li	a7,1323
    80000324:	0087c533          	xor	a0,a5,s0
    80000328:	ed44a603          	lw	a2,-300(s1)
    8000032c:	012de433          	or	s0,s11,s2
    80000330:	03dec1b3          	div	gp,t4,t4
    80000334:	07fc0ea3          	sb	t6,125(s8)
    80000338:	1003881b          	addiw	a6,t2,256
    8000033c:	41cc80bb          	subw	ra,s9,t3
    80000340:	429a0593          	addi	a1,s4,1065
    80000344:	03189d33          	mulh	s10,a7,a7
    80000348:	a8018b93          	addi	s7,gp,-1408 # 80001990 <_end+0x280>
    8000034c:	76f00393          	li	t2,1903
    80000350:	b9200993          	li	s3,-1134
    80000354:	6b45ee63          	bltu	a1,s4,80000a10 <crash_forward>
    80000358:	41b202b3          	sub	t0,tp,s11
    8000035c:	00c25db3          	srl	s11,tp,a2
    80000360:	bbc18e13          	addi	t3,gp,-1092 # 80001acc <_end+0x3bc>
    80000364:	bd924f03          	lbu	t5,-1063(tp) # fffffffffffffbd9 <__global_pointer$+0xffffffff7fffdcc9>
    80000368:	00001b17          	auipc	s6,0x1
    8000036c:	aebb0b13          	addi	s6,s6,-1301 # 80000e53 <test_end+0x42f>
    80000370:	b4918893          	addi	a7,gp,-1207 # 80001a59 <_end+0x349>
    80000374:	b9f8e503          	lwu	a0,-1121(a7)
    80000378:	a5618f93          	addi	t6,gp,-1450 # 80001966 <_end+0x256>
    8000037c:	00f326b3          	slt	a3,t1,a5
    80000380:	a6300593          	li	a1,-1437
    80000384:	75300713          	li	a4,1875
    80000388:	a3ab81a3          	sb	s10,-1501(s7)
    8000038c:	56eb26a3          	sw	a4,1389(s6)
    80000390:	883e3e23          	sd	gp,-1892(t3)
    80000394:	a2c00093          	li	ra,-1492
    80000398:	4a770d13          	addi	s10,a4,1191
    8000039c:	d5400793          	li	a5,-684
    800003a0:	4073813b          	subw	sp,t2,t2
    800003a4:	0139aab3          	slt	s5,s3,s3
    800003a8:	00100c93          	li	s9,1
    800003ac:	00001417          	auipc	s0,0x1
    800003b0:	c5f40413          	addi	s0,s0,-929 # 8000100b <tohost+0xb>
    800003b4:	037bfe33          	remu	t3,s7,s7
    800003b8:	00001697          	auipc	a3,0x1
    800003bc:	44868693          	addi	a3,a3,1096 # 80001800 <_end+0xf0>
    800003c0:	d656a223          	sw	t0,-668(a3)
    800003c4:	b0218493          	addi	s1,gp,-1278 # 80001a12 <_end+0x302>
    800003c8:	41385133          	sra	sp,a6,s3
    800003cc:	00001617          	auipc	a2,0x1
    800003d0:	de060613          	addi	a2,a2,-544 # 800011ac <reg_x21_init+0x4>
    800003d4:	62006e63          	bltu	zero,zero,80000a10 <crash_forward>
    800003d8:	00100d93          	li	s11,1
    800003dc:	62006a63          	bltu	zero,zero,80000a10 <crash_forward>
    800003e0:	03fc9c93          	slli	s9,s9,0x3f
    800003e4:	46161e23          	sh	ra,1148(a2)
    800003e8:	fff00913          	li	s2,-1
    800003ec:	b3b18393          	addi	t2,gp,-1221 # 80001a4b <_end+0x33b>
    800003f0:	00b5ea33          	or	s4,a1,a1
    800003f4:	03f8d2bb          	divuw	t0,a7,t6
    800003f8:	00001997          	auipc	s3,0x1
    800003fc:	8e198993          	addi	s3,s3,-1823 # 80000cd9 <test_end+0x2b5>
    80000400:	03fd9d93          	slli	s11,s11,0x3f
    80000404:	dab18e13          	addi	t3,gp,-597 # 80001cbb <_end+0x5ab>
    80000408:	fff00313          	li	t1,-1
    8000040c:	cc2fdc03          	lhu	s8,-830(t6)
    80000410:	bfd3e683          	lwu	a3,-1027(t2)
    80000414:	00f08bb3          	add	s7,ra,a5
    80000418:	01283133          	sltu	sp,a6,s2
    8000041c:	c0518293          	addi	t0,gp,-1019 # 80001b15 <_end+0x405>
    80000420:	c6f00513          	li	a0,-913
    80000424:	90318a13          	addi	s4,gp,-1789 # 80001813 <_end+0x103>
    80000428:	ba249923          	sh	sp,-1102(s1)
    8000042c:	b98a2aa3          	sw	s8,-1131(s4)
    80000430:	01b34333          	xor	t1,t1,s11
    80000434:	00a508bb          	addw	a7,a0,a0
    80000438:	00e77b33          	and	s6,a4,a4
    8000043c:	0067f233          	and	tp,a5,t1
    80000440:	00001a97          	auipc	s5,0x1
    80000444:	dd4a8a93          	addi	s5,s5,-556 # 80001214 <reg_x2_output+0x4>
    80000448:	318a9583          	lh	a1,792(s5)
    8000044c:	b3500f93          	li	t6,-1227
    80000450:	99ee0a23          	sb	t5,-1644(t3)
    80000454:	01994933          	xor	s2,s2,s9
    80000458:	00001a97          	auipc	s5,0x1
    8000045c:	fe4a8a93          	addi	s5,s5,-28 # 8000143c <test_memory+0x13c>
    80000460:	9f300613          	li	a2,-1549
    80000464:	8972ad03          	lw	s10,-1897(t0)
    80000468:	41ff8c3b          	subw	s8,t6,t6
    8000046c:	f3c60713          	addi	a4,a2,-196
    80000470:	182a9083          	lh	ra,386(s5)
    80000474:	00001597          	auipc	a1,0x1
    80000478:	21258593          	addi	a1,a1,530 # 80001686 <test_memory+0x386>
    8000047c:	012cfeb3          	and	t4,s9,s2
    80000480:	a0c18093          	addi	ra,gp,-1524 # 8000191c <_end+0x20c>
    80000484:	019ee833          	or	a6,t4,s9
    80000488:	1d600113          	li	sp,470
    8000048c:	022158bb          	divuw	a7,sp,sp
    80000490:	01b26f33          	or	t5,tp,s11
    80000494:	4052dfbb          	sraw	t6,t0,t0
    80000498:	64e98a23          	sb	a4,1620(s3)
    8000049c:	014a5b33          	srl	s6,s4,s4
    800004a0:	a9e0b623          	sd	t5,-1396(ra)
    800004a4:	00001397          	auipc	t2,0x1
    800004a8:	24638393          	addi	t2,t2,582 # 800016ea <test_memory+0x3ea>
    800004ac:	570e8263          	beq	t4,a6,80000a10 <crash_forward>
    800004b0:	be200a13          	li	s4,-1054
    800004b4:	00001a97          	auipc	s5,0x1
    800004b8:	8eea8a93          	addi	s5,s5,-1810 # 80000da2 <test_end+0x37e>
    800004bc:	5b543183          	ld	gp,1461(s0)
    800004c0:	0163a123          	sw	s6,2(t2)
    800004c4:	c44f52e3          	bge	t5,tp,80000108 <crash_backward>
    800004c8:	dee00d13          	li	s10,-530
    800004cc:	c2700793          	li	a5,-985
    800004d0:	54c75063          	bge	a4,a2,80000a10 <crash_forward>
    800004d4:	40f78533          	sub	a0,a5,a5
    800004d8:	5aaaab23          	sw	a0,1462(s5)
    800004dc:	03aa7c3b          	remuw	s8,s4,s10
    800004e0:	5b900c13          	li	s8,1465
    800004e4:	6bc00893          	li	a7,1724
    800004e8:	00001517          	auipc	a0,0x1
    800004ec:	94250513          	addi	a0,a0,-1726 # 80000e2a <test_end+0x406>
    800004f0:	00001317          	auipc	t1,0x1
    800004f4:	f3a30313          	addi	t1,t1,-198 # 8000142a <test_memory+0x12a>
    800004f8:	000b8413          	mv	s0,s7
    800004fc:	00001397          	auipc	t2,0x1
    80000500:	1d938393          	addi	t2,t2,473 # 800016d5 <test_memory+0x3d5>
    80000504:	90800793          	li	a5,-1784
    80000508:	0318eebb          	remw	t4,a7,a7
    8000050c:	f4600913          	li	s2,-186
    80000510:	cba18813          	addi	a6,gp,-838 # 80001bca <_end+0x4ba>
    80000514:	ff05cb83          	lbu	s7,-16(a1)
    80000518:	7a653083          	ld	ra,1958(a0)
    8000051c:	00f3ad83          	lw	s11,15(t2)
    80000520:	a7980f23          	sb	s9,-1410(a6)
    80000524:	5d600893          	li	a7,1494
    80000528:	00001f97          	auipc	t6,0x1
    8000052c:	abaf8f93          	addi	t6,t6,-1350 # 80000fe2 <test_end+0x5be>
    80000530:	00001d17          	auipc	s10,0x1
    80000534:	281d0d13          	addi	s10,s10,641 # 800017b1 <_end+0xa1>
    80000538:	e1ed16a3          	sh	t5,-499(s10)
    8000053c:	00001a17          	auipc	s4,0x1
    80000540:	d7fa0a13          	addi	s4,s4,-641 # 800012bb <reg_x23_output+0x3>
    80000544:	00040193          	mv	gp,s0
    80000548:	bc3460e3          	bltu	s0,gp,80000108 <crash_backward>
    8000054c:	01188bb3          	add	s7,a7,a7
    80000550:	2f1a5703          	lhu	a4,753(s4)
    80000554:	00001097          	auipc	ra,0x1
    80000558:	8cc08093          	addi	ra,ra,-1844 # 80000e20 <test_end+0x3fc>
    8000055c:	7a408803          	lb	a6,1956(ra)
    80000560:	00100893          	li	a7,1
    80000564:	00100713          	li	a4,1
    80000568:	00001697          	auipc	a3,0x1
    8000056c:	fd368693          	addi	a3,a3,-45 # 8000153b <test_memory+0x23b>
    80000570:	0084513b          	srlw	sp,s0,s0
    80000574:	ea418213          	addi	tp,gp,-348 # 80001db4 <_end+0x6a4>
    80000578:	00001e17          	auipc	t3,0x1
    8000057c:	055e0e13          	addi	t3,t3,85 # 800015cd <test_memory+0x2cd>
    80000580:	82800493          	li	s1,-2008
    80000584:	032c59b3          	divu	s3,s8,s2
    80000588:	e1a68283          	lb	t0,-486(a3)
    8000058c:	00001b97          	auipc	s7,0x1
    80000590:	a03b8b93          	addi	s7,s7,-1533 # 80000f8f <test_end+0x56b>
    80000594:	591bbd03          	ld	s10,1425(s7)
    80000598:	943204a3          	sb	gp,-1719(tp) # fffffffffffff949 <__global_pointer$+0xffffffff7fffda39>
    8000059c:	4196de93          	srai	t4,a3,0x19
    800005a0:	a0848613          	addi	a2,s1,-1528
    800005a4:	71cfdc83          	lhu	s9,1820(t6)
    800005a8:	03f71713          	slli	a4,a4,0x3f
    800005ac:	00001397          	auipc	t2,0x1
    800005b0:	a6f38393          	addi	t2,t2,-1425 # 8000101b <tohost+0x1b>
    800005b4:	fff00413          	li	s0,-1
    800005b8:	00001a97          	auipc	s5,0x1
    800005bc:	f5ca8a93          	addi	s5,s5,-164 # 80001514 <test_memory+0x214>
    800005c0:	c6b18593          	addi	a1,gp,-917 # 80001b7b <_end+0x46b>
    800005c4:	40f78f3b          	subw	t5,a5,a5
    800005c8:	04ca8323          	sb	a2,70(s5)
    800005cc:	d92e21a3          	sw	s2,-637(t3)
    800005d0:	02f1cc3b          	divw	s8,gp,a5
    800005d4:	03f89893          	slli	a7,a7,0x3f
    800005d8:	40630eb3          	sub	t4,t1,t1
    800005dc:	00100c93          	li	s9,1
    800005e0:	ebcbe613          	ori	a2,s7,-324
    800005e4:	ba218113          	addi	sp,gp,-1118 # 80001ab2 <_end+0x3a2>
    800005e8:	13236b03          	lwu	s6,306(t1)
    800005ec:	03fc9c93          	slli	s9,s9,0x3f
    800005f0:	ba318793          	addi	a5,gp,-1117 # 80001ab3 <_end+0x3a3>
    800005f4:	b417ae03          	lw	t3,-1215(a5)
    800005f8:	fff00a13          	li	s4,-1
    800005fc:	00001a97          	auipc	s5,0x1
    80000600:	e55a8a93          	addi	s5,s5,-427 # 80001451 <test_memory+0x151>
    80000604:	4f73dd83          	lhu	s11,1271(t2)
    80000608:	fff00993          	li	s3,-1
    8000060c:	00e44433          	xor	s0,s0,a4
    80000610:	00100b13          	li	s6,1
    80000614:	03fb1b13          	slli	s6,s6,0x3f
    80000618:	038c7c33          	remu	s8,s8,s8
    8000061c:	0199c9b3          	xor	s3,s3,s9
    80000620:	a1812923          	sw	s8,-1518(sp)
    80000624:	a1718d13          	addi	s10,gp,-1513 # 80001927 <_end+0x217>
    80000628:	fff00613          	li	a2,-1
    8000062c:	9925aaa3          	sw	s2,-1643(a1)
    80000630:	f83ae683          	lwu	a3,-125(s5)
    80000634:	02efce3b          	divw	t3,t6,a4
    80000638:	00001117          	auipc	sp,0x1
    8000063c:	02e10113          	addi	sp,sp,46 # 80001666 <test_memory+0x366>
    80000640:	00001797          	auipc	a5,0x1
    80000644:	16c78793          	addi	a5,a5,364 # 800017ac <_end+0x9c>
    80000648:	0089f0b3          	and	ra,s3,s0
    8000064c:	00001e97          	auipc	t4,0x1
    80000650:	ed2e8e93          	addi	t4,t4,-302 # 8000151e <test_memory+0x21e>
    80000654:	02614c03          	lbu	s8,38(sp)
    80000658:	aa500493          	li	s1,-1371
    8000065c:	01664633          	xor	a2,a2,s6
    80000660:	15800593          	li	a1,344
    80000664:	df800c13          	li	s8,-520
    80000668:	088e8283          	lb	t0,136(t4)
    8000066c:	011a4a33          	xor	s4,s4,a7
    80000670:	bbad0b83          	lb	s7,-1094(s10)
    80000674:	038c1db3          	mulh	s11,s8,s8
    80000678:	00cf7f33          	and	t5,t5,a2
    8000067c:	0094823b          	addw	tp,s1,s1
    80000680:	00ea61b3          	or	gp,s4,a4
    80000684:	eb27ba23          	sd	s2,-332(a5)
    80000688:	31300113          	li	sp,787
    8000068c:	3830c263          	blt	ra,gp,80000a10 <crash_forward>
    80000690:	013c7fb3          	and	t6,s8,s3
    80000694:	0052a433          	slt	s0,t0,t0
    80000698:	00000d13          	li	s10,0
    8000069c:	014ff533          	and	a0,t6,s4
    800006a0:	02214e3b          	divw	t3,sp,sp
    800006a4:	dde00213          	li	tp,-546
    800006a8:	40b5d3bb          	sraw	t2,a1,a1
    800006ac:	6db00413          	li	s0,1755
    800006b0:	02842e33          	mulhsu	t3,s0,s0
    800006b4:	ddf00a93          	li	s5,-545
    800006b8:	016f6333          	or	t1,t5,s6
    800006bc:	019fe933          	or	s2,t6,s9
    800006c0:	d5718713          	addi	a4,gp,-681 # 80001c67 <_end+0x557>
    800006c4:	00000b93          	li	s7,0
    800006c8:	00001d97          	auipc	s11,0x1
    800006cc:	d69d8d93          	addi	s11,s11,-663 # 80001431 <test_memory+0x131>
    800006d0:	026303bb          	mulw	t2,t1,t1
    800006d4:	40420c33          	sub	s8,tp,tp
    800006d8:	031b0eb3          	mul	t4,s6,a7
    800006dc:	415156b3          	sra	a3,sp,s5
    800006e0:	01156833          	or	a6,a0,a7
    800006e4:	32a85663          	bge	a6,a0,80000a10 <crash_forward>
    800006e8:	f6400093          	li	ra,-156
    800006ec:	337d6263          	bltu	s10,s7,80000a10 <crash_forward>
    800006f0:	00100993          	li	s3,1
    800006f4:	00001a97          	auipc	s5,0x1
    800006f8:	ca3a8a93          	addi	s5,s5,-861 # 80001397 <test_memory+0x97>
    800006fc:	02c663b3          	rem	t2,a2,a2
    80000700:	33c00e13          	li	t3,828
    80000704:	c6618193          	addi	gp,gp,-922 # 80001b76 <_end+0x466>
    80000708:	fb800413          	li	s0,-72
    8000070c:	123a8f83          	lb	t6,291(s5)
    80000710:	cfa00a13          	li	s4,-774
    80000714:	00100393          	li	t2,1
    80000718:	4cfd6a93          	ori	s5,s10,1231
    8000071c:	e1400513          	li	a0,-492
    80000720:	0010b7b3          	sltu	a5,ra,ra
    80000724:	03f39393          	slli	t2,t2,0x3f
    80000728:	034a7b3b          	remuw	s6,s4,s4
    8000072c:	00000817          	auipc	a6,0x0
    80000730:	50b80813          	addi	a6,a6,1291 # 80000c37 <test_end+0x213>
    80000734:	7db00213          	li	tp,2011
    80000738:	7fb84103          	lbu	sp,2043(a6)
    8000073c:	008e15b3          	sll	a1,t3,s0
    80000740:	96973483          	ld	s1,-1687(a4)
    80000744:	02451c33          	mulh	s8,a0,tp
    80000748:	dce00893          	li	a7,-562
    8000074c:	89588913          	addi	s2,a7,-1899
    80000750:	03f99993          	slli	s3,s3,0x3f
    80000754:	0140df9b          	srliw	t6,ra,0x14
    80000758:	fff00313          	li	t1,-1
    8000075c:	fff00b93          	li	s7,-1
    80000760:	01334333          	xor	t1,t1,s3
    80000764:	9b1972e3          	bgeu	s2,a7,80000108 <crash_backward>
    80000768:	2b500e93          	li	t4,693
    8000076c:	006dfcb3          	and	s9,s11,t1
    80000770:	007bcbb3          	xor	s7,s7,t2
    80000774:	8d71a323          	sw	s7,-1850(gp) # 800017d6 <_end+0xc6>
    80000778:	00ddd283          	lhu	t0,13(s11)
    8000077c:	01deb6b3          	sltu	a3,t4,t4
    80000780:	013cef33          	or	t5,s9,s3
    80000784:	999f52e3          	bge	t5,s9,80000108 <crash_backward>
    80000788:	0172f633          	and	a2,t0,s7
    8000078c:	00100593          	li	a1,1
    80000790:	00001e97          	auipc	t4,0x1
    80000794:	d3be8e93          	addi	t4,t4,-709 # 800014cb <test_memory+0x1cb>
    80000798:	00766d33          	or	s10,a2,t2
    8000079c:	d9400493          	li	s1,-620
    800007a0:	03f59593          	slli	a1,a1,0x3f
    800007a4:	01dedf3b          	srlw	t5,t4,t4
    800007a8:	97a600e3          	beq	a2,s10,80000108 <crash_backward>
    800007ac:	00001897          	auipc	a7,0x1
    800007b0:	d3488893          	addi	a7,a7,-716 # 800014e0 <test_memory+0x1e0>
    800007b4:	00001197          	auipc	gp,0x1
    800007b8:	bf018193          	addi	gp,gp,-1040 # 800013a4 <test_memory+0xa4>
    800007bc:	f841ae03          	lw	t3,-124(gp) # 80001e94 <_end+0x784>
    800007c0:	fff00793          	li	a5,-1
    800007c4:	00000c13          	li	s8,0
    800007c8:	c9e18713          	addi	a4,gp,-866 # 80001bae <_end+0x49e>
    800007cc:	03ef72b3          	remu	t0,t5,t5
    800007d0:	30900313          	li	t1,777
    800007d4:	00b7c7b3          	xor	a5,a5,a1
    800007d8:	0294c533          	div	a0,s1,s1
    800007dc:	00001b17          	auipc	s6,0x1
    800007e0:	b66b0b13          	addi	s6,s6,-1178 # 80001342 <test_memory+0x42>
    800007e4:	afe72683          	lw	a3,-1282(a4)
    800007e8:	00000093          	li	ra,0
    800007ec:	09d00f93          	li	t6,157
    800007f0:	0d28ca83          	lbu	s5,210(a7)
    800007f4:	d1700413          	li	s0,-745
    800007f8:	00001997          	auipc	s3,0x1
    800007fc:	83d98993          	addi	s3,s3,-1987 # 80001035 <tohost+0x35>
    80000800:	00001897          	auipc	a7,0x1
    80000804:	8e588893          	addi	a7,a7,-1819 # 800010e5 <fromhost+0xa5>
    80000808:	4ed9dd83          	lhu	s11,1261(s3)
    8000080c:	034d8bbb          	mulw	s7,s11,s4
    80000810:	00001717          	auipc	a4,0x1
    80000814:	c9f70713          	addi	a4,a4,-865 # 800014af <test_memory+0x1af>
    80000818:	f1571aa3          	sh	s5,-235(a4)
    8000081c:	0031d63b          	srlw	a2,gp,gp
    80000820:	00001a17          	auipc	s4,0x1
    80000824:	ea0a0a13          	addi	s4,s4,-352 # 800016c0 <test_memory+0x3c0>
    80000828:	1adb0423          	sb	a3,424(s6)
    8000082c:	d8318993          	addi	s3,gp,-637 # 80001c93 <_end+0x583>
    80000830:	12600393          	li	t2,294
    80000834:	88799b83          	lh	s7,-1913(s3)
    80000838:	35188f03          	lb	t5,849(a7)
    8000083c:	41ff823b          	subw	tp,t6,t6
    80000840:	5de00d13          	li	s10,1502
    80000844:	00001197          	auipc	gp,0x1
    80000848:	ce418193          	addi	gp,gp,-796 # 80001528 <test_memory+0x228>
    8000084c:	0c400613          	li	a2,196
    80000850:	02833cb3          	mulhu	s9,t1,s0
    80000854:	02c660bb          	remw	ra,a2,a2
    80000858:	00001717          	auipc	a4,0x1
    8000085c:	91370713          	addi	a4,a4,-1773 # 8000116b <reg_x13_init+0x3>
    80000860:	f24a2623          	sw	tp,-212(s4)
    80000864:	00739e33          	sll	t3,t2,t2
    80000868:	08819a83          	lh	s5,136(gp) # 80001f98 <__global_pointer$+0x88>
    8000086c:	99e18d93          	addi	s11,gp,-1634 # 800018ae <_end+0x19e>
    80000870:	b2218493          	addi	s1,gp,-1246 # 80001a32 <_end+0x322>
    80000874:	00000613          	li	a2,0
    80000878:	0118dbbb          	srlw	s7,a7,a7
    8000087c:	acc48d23          	sb	a2,-1318(s1)
    80000880:	411a8cbb          	subw	s9,s5,a7
    80000884:	0273c0b3          	div	ra,t2,t2
    80000888:	05300c13          	li	s8,83
    8000088c:	00000397          	auipc	t2,0x0
    80000890:	40038393          	addi	t2,t2,1024 # 80000c8c <test_end+0x268>
    80000894:	00f37933          	and	s2,t1,a5
    80000898:	00000b17          	auipc	s6,0x0
    8000089c:	73db0b13          	addi	s6,s6,1853 # 80000fd5 <test_end+0x5b1>
    800008a0:	4abb1e03          	lh	t3,1195(s6)
    800008a4:	12700f93          	li	t6,295
    800008a8:	c3600193          	li	gp,-970
    800008ac:	018d2533          	slt	a0,s10,s8
    800008b0:	d68d9723          	sh	s0,-658(s11)
    800008b4:	00b96133          	or	sp,s2,a1
    800008b8:	003f933b          	sllw	t1,t6,gp
    800008bc:	11dee803          	lwu	a6,285(t4)
    800008c0:	93a18f13          	addi	t5,gp,-1734 # 8000184a <_end+0x13a>
    800008c4:	7523d203          	lhu	tp,1874(t2)
    800008c8:	4af70683          	lb	a3,1199(a4)
    800008cc:	00001997          	auipc	s3,0x1
    800008d0:	a0498993          	addi	s3,s3,-1532 # 800012d0 <reg_x26_output>
    800008d4:	00000893          	li	a7,0
    800008d8:	3809d403          	lhu	s0,896(s3)
    800008dc:	831666e3          	bltu	a2,a7,80000108 <crash_backward>
    800008e0:	b97f1923          	sh	s7,-1134(t5)
    800008e4:	00001297          	auipc	t0,0x1
    800008e8:	dd028293          	addi	t0,t0,-560 # 800016b4 <test_memory+0x3b4>
    800008ec:	cdf2ae23          	sw	t6,-804(t0)
    800008f0:	d4600e93          	li	t4,-698
    800008f4:	8b100393          	li	t2,-1871
    800008f8:	32500b93          	li	s7,805
    800008fc:	54300d13          	li	s10,1347
    80000900:	4e800d93          	li	s11,1256
    80000904:	54400493          	li	s1,1348
    80000908:	b3500f13          	li	t5,-1227
    8000090c:	03ef1933          	mulh	s2,t5,t5
    80000910:	0052d6bb          	srlw	a3,t0,t0
    80000914:	fe006a63          	bltu	zero,zero,80000108 <crash_backward>
    80000918:	00000c17          	auipc	s8,0x0
    8000091c:	671c0c13          	addi	s8,s8,1649 # 80000f89 <test_end+0x565>
    80000920:	5dbc5703          	lhu	a4,1499(s8)
    80000924:	00000293          	li	t0,0
    80000928:	00000893          	li	a7,0
    8000092c:	03ad553b          	divuw	a0,s10,s10
    80000930:	7a2dfa13          	andi	s4,s11,1954
    80000934:	010e121b          	slliw	tp,t3,0x10
    80000938:	0273afb3          	mulhsu	t6,t2,t2
    8000093c:	2b800593          	li	a1,696
    80000940:	00100e13          	li	t3,1
    80000944:	00bf3133          	sltu	sp,t5,a1
    80000948:	03fe1e13          	slli	t3,t3,0x3f
    8000094c:	b4100793          	li	a5,-1215
    80000950:	40fe8cb3          	sub	s9,t4,a5
    80000954:	41bb80bb          	subw	ra,s7,s11
    80000958:	fff00993          	li	s3,-1
    8000095c:	00948b33          	add	s6,s1,s1
    80000960:	01c9c9b3          	xor	s3,s3,t3
    80000964:	01327633          	and	a2,tp,s3
    80000968:	01c36333          	or	t1,t1,t3
    8000096c:	0a667263          	bgeu	a2,t1,80000a10 <crash_forward>
    80000970:	0040006f          	j	80000974 <reg_dump>

0000000080000974 <reg_dump>:
    80000974:	00001097          	auipc	ra,0x1
    80000978:	d8c08093          	addi	ra,ra,-628 # 80001700 <loop_count>
    8000097c:	0000a103          	lw	sp,0(ra)
    80000980:	fff10193          	addi	gp,sp,-1
    80000984:	0030a023          	sw	gp,0(ra)
    80000988:	820110e3          	bnez	sp,800001a8 <pseg_0>
    8000098c:	00001097          	auipc	ra,0x1
    80000990:	87408093          	addi	ra,ra,-1932 # 80001200 <begin_signature>
    80000994:	0000b023          	sd	zero,0(ra)
    80000998:	0020b823          	sd	sp,16(ra)
    8000099c:	0030bc23          	sd	gp,24(ra)
    800009a0:	0240b023          	sd	tp,32(ra)
    800009a4:	0250b423          	sd	t0,40(ra)
    800009a8:	0260b823          	sd	t1,48(ra)
    800009ac:	0270bc23          	sd	t2,56(ra)
    800009b0:	0480b023          	sd	s0,64(ra)
    800009b4:	0490b423          	sd	s1,72(ra)
    800009b8:	04a0b823          	sd	a0,80(ra)
    800009bc:	04b0bc23          	sd	a1,88(ra)
    800009c0:	06c0b023          	sd	a2,96(ra)
    800009c4:	06d0b423          	sd	a3,104(ra)
    800009c8:	06e0b823          	sd	a4,112(ra)
    800009cc:	06f0bc23          	sd	a5,120(ra)
    800009d0:	0900b023          	sd	a6,128(ra)
    800009d4:	0910b423          	sd	a7,136(ra)
    800009d8:	0920b823          	sd	s2,144(ra)
    800009dc:	0930bc23          	sd	s3,152(ra)
    800009e0:	0b40b023          	sd	s4,160(ra)
    800009e4:	0b50b423          	sd	s5,168(ra)
    800009e8:	0b60b823          	sd	s6,176(ra)
    800009ec:	0b70bc23          	sd	s7,184(ra)
    800009f0:	0d90b423          	sd	s9,200(ra)
    800009f4:	0da0b823          	sd	s10,208(ra)
    800009f8:	0db0bc23          	sd	s11,216(ra)
    800009fc:	0fc0b023          	sd	t3,224(ra)
    80000a00:	0fd0b423          	sd	t4,232(ra)
    80000a04:	0fe0b823          	sd	t5,240(ra)
    80000a08:	0ff0bc23          	sd	t6,248(ra)
    80000a0c:	0180006f          	j	80000a24 <test_end>

0000000080000a10 <crash_forward>:
    80000a10:	0ff0000f          	fence
    80000a14:	00018063          	beqz	gp,80000a14 <crash_forward+0x4>
    80000a18:	00119193          	slli	gp,gp,0x1
    80000a1c:	0011e193          	ori	gp,gp,1
    80000a20:	00000073          	ecall

0000000080000a24 <test_end>:
    80000a24:	0ff0000f          	fence
    80000a28:	00100193          	li	gp,1
    80000a2c:	00000073          	ecall
    80000a30:	c0001073          	unimp
	...

Disassembly of section .tohost:

0000000080001000 <tohost>:
	...

0000000080001040 <fromhost>:
	...
