
test.elf:     file format elf64-littleriscv


Disassembly of section .text.init:

0000000080000000 <_start>:
    80000000:	0580006f          	j	80000058 <reset_vector>

0000000080000004 <trap_vector>:
    80000004:	34202f73          	csrr	t5,mcause
    80000008:	00800f93          	li	t6,8
    8000000c:	05ff0063          	beq	t5,t6,8000004c <write_tohost>
    80000010:	00900f93          	li	t6,9
    80000014:	03ff0c63          	beq	t5,t6,8000004c <write_tohost>
    80000018:	00b00f93          	li	t6,11
    8000001c:	03ff0863          	beq	t5,t6,8000004c <write_tohost>
    80000020:	00000f13          	li	t5,0
    80000024:	000f0463          	beqz	t5,8000002c <trap_vector+0x28>
    80000028:	000f0067          	jr	t5
    8000002c:	34202f73          	csrr	t5,mcause
    80000030:	000f5463          	bgez	t5,80000038 <handle_exception>
    80000034:	0140006f          	j	80000048 <other_exception>

0000000080000038 <handle_exception>:
    80000038:	34102e73          	csrr	t3,mepc
    8000003c:	004e0e13          	addi	t3,t3,4
    80000040:	341e1073          	csrw	mepc,t3
    80000044:	30200073          	mret

0000000080000048 <other_exception>:
    80000048:	5391e193          	ori	gp,gp,1337

000000008000004c <write_tohost>:
    8000004c:	00001f17          	auipc	t5,0x1
    80000050:	fa3f2a23          	sw	gp,-76(t5) # 80001000 <tohost>
    80000054:	ff9ff06f          	j	8000004c <write_tohost>

0000000080000058 <reset_vector>:
    80000058:	f1402573          	csrr	a0,mhartid
    8000005c:	00051063          	bnez	a0,8000005c <reset_vector+0x4>
    80000060:	00000297          	auipc	t0,0x0
    80000064:	01028293          	addi	t0,t0,16 # 80000070 <reset_vector+0x18>
    80000068:	30529073          	csrw	mtvec,t0
    8000006c:	18005073          	csrwi	satp,0
    80000070:	00000297          	auipc	t0,0x0
    80000074:	01c28293          	addi	t0,t0,28 # 8000008c <reset_vector+0x34>
    80000078:	30529073          	csrw	mtvec,t0
    8000007c:	fff00293          	li	t0,-1
    80000080:	3b029073          	csrw	pmpaddr0,t0
    80000084:	01f00293          	li	t0,31
    80000088:	3a029073          	csrw	pmpcfg0,t0
    8000008c:	00000297          	auipc	t0,0x0
    80000090:	01828293          	addi	t0,t0,24 # 800000a4 <reset_vector+0x4c>
    80000094:	30529073          	csrw	mtvec,t0
    80000098:	30205073          	csrwi	medeleg,0
    8000009c:	30305073          	csrwi	mideleg,0
    800000a0:	30405073          	csrwi	mie,0
    800000a4:	00000193          	li	gp,0
    800000a8:	00000297          	auipc	t0,0x0
    800000ac:	f5c28293          	addi	t0,t0,-164 # 80000004 <trap_vector>
    800000b0:	30529073          	csrw	mtvec,t0
    800000b4:	00100513          	li	a0,1
    800000b8:	01f51513          	slli	a0,a0,0x1f
    800000bc:	00055863          	bgez	a0,800000cc <reset_vector+0x74>
    800000c0:	0ff0000f          	fence
    800000c4:	00100193          	li	gp,1
    800000c8:	00000073          	ecall
    800000cc:	00000293          	li	t0,0
    800000d0:	00028e63          	beqz	t0,800000ec <reset_vector+0x94>
    800000d4:	10529073          	csrw	stvec,t0
    800000d8:	0000b2b7          	lui	t0,0xb
    800000dc:	1092829b          	addiw	t0,t0,265
    800000e0:	30229073          	csrw	medeleg,t0
    800000e4:	30202373          	csrr	t1,medeleg
    800000e8:	f66290e3          	bne	t0,t1,80000048 <other_exception>
    800000ec:	30005073          	csrwi	mstatus,0
    800000f0:	00000297          	auipc	t0,0x0
    800000f4:	01428293          	addi	t0,t0,20 # 80000104 <reset_vector+0xac>
    800000f8:	34129073          	csrw	mepc,t0
    800000fc:	f1402573          	csrr	a0,mhartid
    80000100:	30200073          	mret
    80000104:	0180006f          	j	8000011c <test_start>

0000000080000108 <crash_backward>:
    80000108:	0ff0000f          	fence
    8000010c:	00018063          	beqz	gp,8000010c <crash_backward+0x4>
    80000110:	00119193          	slli	gp,gp,0x1
    80000114:	0011e193          	ori	gp,gp,1
    80000118:	00000073          	ecall

000000008000011c <test_start>:
    8000011c:	00001f97          	auipc	t6,0x1
    80000120:	fe4f8f93          	addi	t6,t6,-28 # 80001100 <hidden_data>
    80000124:	000fb003          	ld	zero,0(t6)
    80000128:	008fb083          	ld	ra,8(t6)
    8000012c:	010fb103          	ld	sp,16(t6)
    80000130:	018fb183          	ld	gp,24(t6)
    80000134:	020fb203          	ld	tp,32(t6)
    80000138:	028fb283          	ld	t0,40(t6)
    8000013c:	030fb303          	ld	t1,48(t6)
    80000140:	038fb383          	ld	t2,56(t6)
    80000144:	040fb403          	ld	s0,64(t6)
    80000148:	048fb483          	ld	s1,72(t6)
    8000014c:	050fb503          	ld	a0,80(t6)
    80000150:	058fb583          	ld	a1,88(t6)
    80000154:	060fb603          	ld	a2,96(t6)
    80000158:	068fb683          	ld	a3,104(t6)
    8000015c:	070fb703          	ld	a4,112(t6)
    80000160:	078fb783          	ld	a5,120(t6)
    80000164:	080fb803          	ld	a6,128(t6)
    80000168:	088fb883          	ld	a7,136(t6)
    8000016c:	090fb903          	ld	s2,144(t6)
    80000170:	098fb983          	ld	s3,152(t6)
    80000174:	0a0fba03          	ld	s4,160(t6)
    80000178:	0a8fba83          	ld	s5,168(t6)
    8000017c:	0b0fbb03          	ld	s6,176(t6)
    80000180:	0b8fbb83          	ld	s7,184(t6)
    80000184:	0c0fbc03          	ld	s8,192(t6)
    80000188:	0c8fbc83          	ld	s9,200(t6)
    8000018c:	0d0fbd03          	ld	s10,208(t6)
    80000190:	0d8fbd83          	ld	s11,216(t6)
    80000194:	0e0fbe03          	ld	t3,224(t6)
    80000198:	0e8fbe83          	ld	t4,232(t6)
    8000019c:	0f0fbf03          	ld	t5,240(t6)
    800001a0:	0f8fbf83          	ld	t6,248(t6)
    800001a4:	0040006f          	j	800001a8 <pseg_0>

00000000800001a8 <pseg_0>:
    800001a8:	0264d133          	divu	sp,s1,t1
    800001ac:	fd500c93          	li	s9,-43
    800001b0:	92718193          	addi	gp,gp,-1753 # 80001837 <_end+0x127>
    800001b4:	00000793          	li	a5,0
    800001b8:	9b300313          	li	t1,-1613
    800001bc:	bf300893          	li	a7,-1037
    800001c0:	eff00513          	li	a0,-257
    800001c4:	007d513b          	srlw	sp,s10,t2
    800001c8:	031cf833          	remu	a6,s9,a7
    800001cc:	32800a13          	li	s4,808
    800001d0:	00001217          	auipc	tp,0x1
    800001d4:	ff520213          	addi	tp,tp,-11 # 800011c5 <reg_x24_init+0x5>
    800001d8:	03dee6b3          	rem	a3,t4,t4
    800001dc:	00001f97          	auipc	t6,0x1
    800001e0:	59bf8f93          	addi	t6,t6,1435 # 80001777 <_end+0x67>
    800001e4:	e711a703          	lw	a4,-399(gp) # 80001d81 <_end+0x671>
    800001e8:	00078b93          	mv	s7,a5
    800001ec:	00001817          	auipc	a6,0x1
    800001f0:	58180813          	addi	a6,a6,1409 # 8000176d <_end+0x5d>
    800001f4:	00000293          	li	t0,0
    800001f8:	c2d00b13          	li	s6,-979
    800001fc:	e78f8ea3          	sb	s8,-387(t6)
    80000200:	af100093          	li	ra,-1295
    80000204:	02952e13          	slti	t3,a0,41
    80000208:	feb30f13          	addi	t5,t1,-21
    8000020c:	0242843b          	mulw	s0,t0,tp
    80000210:	d8e00a93          	li	s5,-626
    80000214:	02b6c4b3          	div	s1,a3,a1
    80000218:	3f8217a3          	sh	s8,1007(tp) # 3ef <_start-0x7ffffc11>
    8000021c:	69fa0e93          	addi	t4,s4,1695
    80000220:	93f18113          	addi	sp,gp,-1729 # 8000184f <_end+0x13f>
    80000224:	03653933          	mulhu	s2,a0,s6
    80000228:	efe360e3          	bltu	t1,t5,80000108 <crash_backward>
    8000022c:	07da72e3          	bgeu	s4,t4,80000a90 <crash_forward>
    80000230:	065790e3          	bne	a5,t0,80000a90 <crash_forward>
    80000234:	73700593          	li	a1,1847
    80000238:	8f65039b          	addiw	t2,a0,-1802
    8000023c:	ba5138a3          	sd	t0,-1103(sp)
    80000240:	c9581c83          	lh	s9,-875(a6)
    80000244:	040066e3          	bltu	zero,zero,80000a90 <crash_forward>
    80000248:	000b8d93          	mv	s11,s7
    8000024c:	02b0dd33          	divu	s10,ra,a1
    80000250:	00001e17          	auipc	t3,0x1
    80000254:	43ee0e13          	addi	t3,t3,1086 # 8000168e <test_memory+0x38e>
    80000258:	00100313          	li	t1,1
    8000025c:	03f31313          	slli	t1,t1,0x3f
    80000260:	00001f97          	auipc	t6,0x1
    80000264:	a22f8f93          	addi	t6,t6,-1502 # 80000c82 <test_end+0x1de>
    80000268:	fff00393          	li	t2,-1
    8000026c:	fd3e4283          	lbu	t0,-45(t3)
    80000270:	02eee8bb          	remw	a7,t4,a4
    80000274:	78c00613          	li	a2,1932
    80000278:	00001417          	auipc	s0,0x1
    8000027c:	26840413          	addi	s0,s0,616 # 800014e0 <test_memory+0x1e0>
    80000280:	00001e97          	auipc	t4,0x1
    80000284:	edfe8e93          	addi	t4,t4,-289 # 8000115f <reg_x11_init+0x7>
    80000288:	00435a33          	srl	s4,t1,tp
    8000028c:	02caac33          	mulhsu	s8,s5,a2
    80000290:	019c9533          	sll	a0,s9,s9
    80000294:	0063c3b3          	xor	t2,t2,t1
    80000298:	ed718693          	addi	a3,gp,-297 # 80001de7 <_end+0x6d7>
    8000029c:	e3e42a23          	sw	t5,-460(s0)
    800002a0:	00001497          	auipc	s1,0x1
    800002a4:	27048493          	addi	s1,s1,624 # 80001510 <test_memory+0x210>
    800002a8:	74afc703          	lbu	a4,1866(t6)
    800002ac:	7fbb9263          	bne	s7,s11,80000a90 <crash_forward>
    800002b0:	c8e7fa93          	andi	s5,a5,-882
    800002b4:	02c66d3b          	remw	s10,a2,a2
    800002b8:	86569183          	lh	gp,-1947(a3)
    800002bc:	01294433          	xor	s0,s2,s2
    800002c0:	48500813          	li	a6,1157
    800002c4:	4d800593          	li	a1,1240
    800002c8:	030877b3          	remu	a5,a6,a6
    800002cc:	29cec203          	lbu	tp,668(t4)
    800002d0:	9c100e13          	li	t3,-1599
    800002d4:	b2e18a93          	addi	s5,gp,-1234 # 80001a3e <_end+0x32e>
    800002d8:	40f85f13          	srai	t5,a6,0xf
    800002dc:	01ce4a33          	xor	s4,t3,t3
    800002e0:	eaf48da3          	sb	a5,-325(s1)
    800002e4:	0318d433          	divu	s0,a7,a7
    800002e8:	a60a9d03          	lh	s10,-1440(s5)
    800002ec:	82700b93          	li	s7,-2009
    800002f0:	00001217          	auipc	tp,0x1
    800002f4:	22c20213          	addi	tp,tp,556 # 8000151c <test_memory+0x21c>
    800002f8:	62f00513          	li	a0,1583
    800002fc:	26d00293          	li	t0,621
    80000300:	4d400813          	li	a6,1236
    80000304:	20a00693          	li	a3,522
    80000308:	00001417          	auipc	s0,0x1
    8000030c:	8e040413          	addi	s0,s0,-1824 # 80000be8 <test_end+0x144>
    80000310:	caa18f93          	addi	t6,gp,-854 # 80001bba <_end+0x4aa>
    80000314:	45b00613          	li	a2,1115
    80000318:	41835abb          	sraw	s5,t1,s8
    8000031c:	0071fcb3          	and	s9,gp,t2
    80000320:	cc100a13          	li	s4,-831
    80000324:	03486eb3          	rem	t4,a6,s4
    80000328:	b8c00893          	li	a7,-1140
    8000032c:	00d501bb          	addw	gp,a0,a3
    80000330:	00001497          	auipc	s1,0x1
    80000334:	4cc48493          	addi	s1,s1,1228 # 800017fc <_end+0xec>
    80000338:	031660b3          	rem	ra,a2,a7
    8000033c:	0b826703          	lwu	a4,184(tp) # b8 <_start-0x7fffff48>
    80000340:	7e442f03          	lw	t5,2020(s0)
    80000344:	96afa123          	sw	a0,-1694(t6)
    80000348:	0255ec3b          	remw	s8,a1,t0
    8000034c:	02300813          	li	a6,35
    80000350:	00001617          	auipc	a2,0x1
    80000354:	2d060613          	addi	a2,a2,720 # 80001620 <test_memory+0x320>
    80000358:	00001a97          	auipc	s5,0x1
    8000035c:	ce2a8a93          	addi	s5,s5,-798 # 8000103a <tohost+0x3a>
    80000360:	03de873b          	mulw	a4,t4,t4
    80000364:	412350b3          	sra	ra,t1,s2
    80000368:	01062e03          	lw	t3,16(a2)
    8000036c:	000029b3          	sltz	s3,zero
    80000370:	00001897          	auipc	a7,0x1
    80000374:	ca188893          	addi	a7,a7,-863 # 80001011 <tohost+0x11>
    80000378:	021b4733          	div	a4,s6,ra
    8000037c:	00010e13          	mv	t3,sp
    80000380:	386abf03          	ld	t5,902(s5)
    80000384:	00001417          	auipc	s0,0x1
    80000388:	45e40413          	addi	s0,s0,1118 # 800017e2 <_end+0xd2>
    8000038c:	28500513          	li	a0,645
    80000390:	90418b13          	addi	s6,gp,-1788 # 80001814 <_end+0x104>
    80000394:	6d000e93          	li	t4,1744
    80000398:	00000613          	li	a2,0
    8000039c:	017b8dbb          	addw	s11,s7,s7
    800003a0:	06500f93          	li	t6,101
    800003a4:	3ac00213          	li	tp,940
    800003a8:	3ab88b23          	sb	a1,950(a7)
    800003ac:	40ee89bb          	subw	s3,t4,a4
    800003b0:	d6643183          	ld	gp,-666(s0)
    800003b4:	006fe133          	or	sp,t6,t1
    800003b8:	e8018a93          	addi	s5,gp,-384 # 80001d90 <_end+0x680>
    800003bc:	000e0c13          	mv	s8,t3
    800003c0:	e8cb3903          	ld	s2,-372(s6)
    800003c4:	00001997          	auipc	s3,0x1
    800003c8:	ff198993          	addi	s3,s3,-15 # 800013b5 <test_memory+0xb5>
    800003cc:	af518893          	addi	a7,gp,-1291 # 80001a05 <_end+0x2f5>
    800003d0:	99018f13          	addi	t5,gp,-1648 # 800018a0 <_end+0x190>
    800003d4:	02450a33          	mul	s4,a0,tp
    800003d8:	00000593          	li	a1,0
    800003dc:	05098da3          	sb	a6,91(s3)
    800003e0:	d27f3023          	sd	t2,-736(t5)
    800003e4:	0073873b          	addw	a4,t2,t2
    800003e8:	00001c17          	auipc	s8,0x1
    800003ec:	28ec0c13          	addi	s8,s8,654 # 80001676 <test_memory+0x376>
    800003f0:	ec6c0e23          	sb	t1,-292(s8)
    800003f4:	03d876bb          	remuw	a3,a6,t4
    800003f8:	68b66c63          	bltu	a2,a1,80000a90 <crash_forward>
    800003fc:	8e7acb83          	lbu	s7,-1817(s5)
    80000400:	00001417          	auipc	s0,0x1
    80000404:	d0840413          	addi	s0,s0,-760 # 80001108 <reg_x1_init>
    80000408:	c4a18f13          	addi	t5,gp,-950 # 80001b5a <_end+0x44a>
    8000040c:	01085933          	srl	s2,a6,a6
    80000410:	c8a18d13          	addi	s10,gp,-886 # 80001b9a <_end+0x48a>
    80000414:	ef848783          	lb	a5,-264(s1)
    80000418:	00001997          	auipc	s3,0x1
    8000041c:	ee598993          	addi	s3,s3,-283 # 800012fd <reg_x31_output+0x5>
    80000420:	00001b17          	auipc	s6,0x1
    80000424:	864b0b13          	addi	s6,s6,-1948 # 80000c84 <test_end+0x1e0>
    80000428:	6cdb00a3          	sb	a3,1729(s6)
    8000042c:	0239b9a3          	sd	gp,51(s3)
    80000430:	05d00293          	li	t0,93
    80000434:	00001217          	auipc	tp,0x1
    80000438:	07120213          	addi	tp,tp,113 # 800014a5 <test_memory+0x1a5>
    8000043c:	02323e03          	ld	t3,35(tp) # 23 <_start-0x7fffffdd>
    80000440:	a1b8ed83          	lwu	s11,-1509(a7)
    80000444:	21443423          	sd	s4,520(s0)
    80000448:	b50d0da3          	sb	a6,-1189(s10)
    8000044c:	b3ef2503          	lw	a0,-1218(t5)
    80000450:	005fd0b3          	srl	ra,t6,t0
    80000454:	00100713          	li	a4,1
    80000458:	00001617          	auipc	a2,0x1
    8000045c:	f1360613          	addi	a2,a2,-237 # 8000136b <test_memory+0x6b>
    80000460:	000a8413          	mv	s0,s5
    80000464:	00100513          	li	a0,1
    80000468:	00100193          	li	gp,1
    8000046c:	40f7ddbb          	sraw	s11,a5,a5
    80000470:	9f500213          	li	tp,-1547
    80000474:	004239b3          	sltu	s3,tp,tp
    80000478:	00100093          	li	ra,1
    8000047c:	00001b97          	auipc	s7,0x1
    80000480:	f5fb8b93          	addi	s7,s7,-161 # 800013db <test_memory+0xdb>
    80000484:	00040f13          	mv	t5,s0
    80000488:	05fbd283          	lhu	t0,95(s7)
    8000048c:	b4500813          	li	a6,-1211
    80000490:	03f09093          	slli	ra,ra,0x3f
    80000494:	03f51513          	slli	a0,a0,0x3f
    80000498:	0052f3b3          	and	t2,t0,t0
    8000049c:	fff00913          	li	s2,-1
    800004a0:	03f19193          	slli	gp,gp,0x3f
    800004a4:	09c00293          	li	t0,156
    800004a8:	fff00d13          	li	s10,-1
    800004ac:	00194933          	xor	s2,s2,ra
    800004b0:	03f71713          	slli	a4,a4,0x3f
    800004b4:	fff00113          	li	sp,-1
    800004b8:	0125f4b3          	and	s1,a1,s2
    800004bc:	02b5c3bb          	divw	t2,a1,a1
    800004c0:	04362aa3          	sw	gp,85(a2)
    800004c4:	81e80b13          	addi	s6,a6,-2018
    800004c8:	c5e440e3          	blt	s0,t5,80000108 <crash_backward>
    800004cc:	00ad4d33          	xor	s10,s10,a0
    800004d0:	01a9fcb3          	and	s9,s3,s10
    800004d4:	00aa65b3          	or	a1,s4,a0
    800004d8:	8a700f93          	li	t6,-1881
    800004dc:	00314133          	xor	sp,sp,gp
    800004e0:	a0b00393          	li	t2,-1525
    800004e4:	000f0e93          	mv	t4,t5
    800004e8:	000e8693          	mv	a3,t4
    800004ec:	81d38f13          	addi	t5,t2,-2019
    800004f0:	fff00893          	li	a7,-1
    800004f4:	03f28db3          	mul	s11,t0,t6
    800004f8:	00100993          	li	s3,1
    800004fc:	0014eab3          	or	s5,s1,ra
    80000500:	00001397          	auipc	t2,0x1
    80000504:	02c38393          	addi	t2,t2,44 # 8000152c <test_memory+0x22c>
    80000508:	bfa00b13          	li	s6,-1030
    8000050c:	c3400413          	li	s0,-972
    80000510:	03f99993          	slli	s3,s3,0x3f
    80000514:	90de7fb7          	lui	t6,0x90de7
    80000518:	56decc63          	blt	t4,a3,80000a90 <crash_forward>
    8000051c:	f2c3bf03          	ld	t5,-212(t2)
    80000520:	00006633          	or	a2,zero,zero
    80000524:	fff00b93          	li	s7,-1
    80000528:	035ab2b3          	mulhu	t0,s5,s5
    8000052c:	028b483b          	divw	a6,s6,s0
    80000530:	002f7a33          	and	s4,t5,sp
    80000534:	19b00a93          	li	s5,411
    80000538:	2fc00813          	li	a6,764
    8000053c:	00000417          	auipc	s0,0x0
    80000540:	7f040413          	addi	s0,s0,2032 # 80000d2c <test_end+0x288>
    80000544:	43100613          	li	a2,1073
    80000548:	00001f97          	auipc	t6,0x1
    8000054c:	a37f8f93          	addi	t6,t6,-1481 # 80000f7f <test_end+0x4db>
    80000550:	00e8c8b3          	xor	a7,a7,a4
    80000554:	011bf333          	and	t1,s7,a7
    80000558:	00cacf33          	xor	t5,s5,a2
    8000055c:	c9a18e93          	addi	t4,gp,-870 # 80001baa <_end+0x49a>
    80000560:	00e2e7b3          	or	a5,t0,a4
    80000564:	00001d97          	auipc	s11,0x1
    80000568:	9d2d8d93          	addi	s11,s11,-1582 # 80000f36 <test_end+0x492>
    8000056c:	00001497          	auipc	s1,0x1
    80000570:	99c48493          	addi	s1,s1,-1636 # 80000f08 <test_end+0x464>
    80000574:	7a340083          	lb	ra,1955(s0)
    80000578:	e4818d13          	addi	s10,gp,-440 # 80001d58 <_end+0x648>
    8000057c:	013bcbb3          	xor	s7,s7,s3
    80000580:	5ba80b13          	addi	s6,a6,1466
    80000584:	b867e2e3          	bltu	a5,t1,80000108 <crash_backward>
    80000588:	479fe683          	lwu	a3,1145(t6)
    8000058c:	003a6c33          	or	s8,s4,gp
    80000590:	00001c97          	auipc	s9,0x1
    80000594:	de4c8c93          	addi	s9,s9,-540 # 80001374 <test_memory+0x74>
    80000598:	94c00593          	li	a1,-1716
    8000059c:	4f680a63          	beq	a6,s6,80000a90 <crash_forward>
    800005a0:	00b5c0b3          	xor	ra,a1,a1
    800005a4:	418c0f33          	sub	t5,s8,s8
    800005a8:	918d2903          	lw	s2,-1768(s10)
    800005ac:	b30ed383          	lhu	t2,-1232(t4)
    800005b0:	0179fe33          	and	t3,s3,s7
    800005b4:	b9800793          	li	a5,-1128
    800005b8:	00001a97          	auipc	s5,0x1
    800005bc:	bb4a8a93          	addi	s5,s5,-1100 # 8000116c <reg_x13_init+0x4>
    800005c0:	4f6aa023          	sw	s6,1248(s5)
    800005c4:	005200bb          	addw	ra,tp,t0
    800005c8:	68b00513          	li	a0,1675
    800005cc:	00001397          	auipc	t2,0x1
    800005d0:	e3738393          	addi	t2,t2,-457 # 80001403 <test_memory+0x103>
    800005d4:	f2900893          	li	a7,-215
    800005d8:	00001917          	auipc	s2,0x1
    800005dc:	f1e90913          	addi	s2,s2,-226 # 800014f6 <test_memory+0x1f6>
    800005e0:	00001e97          	auipc	t4,0x1
    800005e4:	884e8e93          	addi	t4,t4,-1916 # 80000e64 <test_end+0x3c0>
    800005e8:	b34c50e3          	bge	s8,s4,80000108 <crash_backward>
    800005ec:	4c3da123          	sw	gp,1218(s11)
    800005f0:	11293583          	ld	a1,274(s2)
    800005f4:	acd00613          	li	a2,-1331
    800005f8:	01157433          	and	s0,a0,a7
    800005fc:	001086b3          	add	a3,ra,ra
    80000600:	692e9803          	lh	a6,1682(t4)
    80000604:	013e6233          	or	tp,t3,s3
    80000608:	32f00d93          	li	s11,815
    8000060c:	47948283          	lb	t0,1145(s1)
    80000610:	f5b3df03          	lhu	t5,-165(t2)
    80000614:	00100193          	li	gp,1
    80000618:	18700f93          	li	t6,391
    8000061c:	00001d17          	auipc	s10,0x1
    80000620:	afcd0d13          	addi	s10,s10,-1284 # 80001118 <reg_x3_init>
    80000624:	00001897          	auipc	a7,0x1
    80000628:	c6788893          	addi	a7,a7,-921 # 8000128b <reg_x17_output+0x3>
    8000062c:	12200393          	li	t2,290
    80000630:	002ca823          	sw	sp,16(s9)
    80000634:	037332b3          	mulhu	t0,t1,s7
    80000638:	0323e4bb          	remw	s1,t2,s2
    8000063c:	55cd2b03          	lw	s6,1372(s10)
    80000640:	827c031b          	addiw	t1,s8,-2009
    80000644:	02c7873b          	mulw	a4,a5,a2
    80000648:	0031d83b          	srlw	a6,gp,gp
    8000064c:	016b5cbb          	srlw	s9,s6,s6
    80000650:	444e7063          	bgeu	t3,tp,80000a90 <crash_forward>
    80000654:	03f19193          	slli	gp,gp,0x3f
    80000658:	00461f33          	sll	t5,a2,tp
    8000065c:	00001497          	auipc	s1,0x1
    80000660:	d1348493          	addi	s1,s1,-749 # 8000136f <test_memory+0x6f>
    80000664:	00100a93          	li	s5,1
    80000668:	0a98e903          	lwu	s2,169(a7)
    8000066c:	00001797          	auipc	a5,0x1
    80000670:	e9b78793          	addi	a5,a5,-357 # 80001507 <test_memory+0x207>
    80000674:	00001717          	auipc	a4,0x1
    80000678:	dd470713          	addi	a4,a4,-556 # 80001448 <test_memory+0x148>
    8000067c:	dfd7ed03          	lwu	s10,-515(a5)
    80000680:	fff00113          	li	sp,-1
    80000684:	eb472c23          	sw	s4,-328(a4)
    80000688:	00314133          	xor	sp,sp,gp
    8000068c:	00001297          	auipc	t0,0x1
    80000690:	b3828293          	addi	t0,t0,-1224 # 800011c4 <reg_x24_init+0x4>
    80000694:	fe14a803          	lw	a6,-31(s1)
    80000698:	43e2ac23          	sw	t5,1080(t0)
    8000069c:	00001e17          	auipc	t3,0x1
    800006a0:	b08e0e13          	addi	t3,t3,-1272 # 800011a4 <reg_x20_init+0x4>
    800006a4:	4e0e2303          	lw	t1,1248(t3)
    800006a8:	00001b17          	auipc	s6,0x1
    800006ac:	035b0b13          	addi	s6,s6,53 # 800016dd <test_memory+0x3dd>
    800006b0:	00100293          	li	t0,1
    800006b4:	00001e17          	auipc	t3,0x1
    800006b8:	e15e0e13          	addi	t3,t3,-491 # 800014c9 <test_memory+0x1c9>
    800006bc:	00001c97          	auipc	s9,0x1
    800006c0:	0e0c8c93          	addi	s9,s9,224 # 8000179c <_end+0x8c>
    800006c4:	01fdda3b          	srlw	s4,s11,t6
    800006c8:	00100913          	li	s2,1
    800006cc:	03fa9a93          	slli	s5,s5,0x3f
    800006d0:	03f91913          	slli	s2,s2,0x3f
    800006d4:	00000d17          	auipc	s10,0x0
    800006d8:	7e7d0d13          	addi	s10,s10,2023 # 80000ebb <test_end+0x417>
    800006dc:	00000b97          	auipc	s7,0x0
    800006e0:	52db8b93          	addi	s7,s7,1325 # 80000c09 <test_end+0x165>
    800006e4:	002af0b3          	and	ra,s5,sp
    800006e8:	03f29293          	slli	t0,t0,0x3f
    800006ec:	fff00993          	li	s3,-1
    800006f0:	0030e5b3          	or	a1,ra,gp
    800006f4:	fff00513          	li	a0,-1
    800006f8:	01554533          	xor	a0,a0,s5
    800006fc:	00001f17          	auipc	t5,0x1
    80000700:	094f0f13          	addi	t5,t5,148 # 80001790 <_end+0x80>
    80000704:	74bb95a3          	sh	a1,1867(s7)
    80000708:	73400e93          	li	t4,1844
    8000070c:	9e15eee3          	bltu	a1,ra,80000108 <crash_backward>
    80000710:	4d4d28a3          	sw	s4,1233(s10)
    80000714:	c77b6603          	lwu	a2,-905(s6)
    80000718:	0129c9b3          	xor	s3,s3,s2
    8000071c:	41d3d6bb          	sraw	a3,t2,t4
    80000720:	4108023b          	subw	tp,a6,a6
    80000724:	ebfe2303          	lw	t1,-321(t3)
    80000728:	fff00893          	li	a7,-1
    8000072c:	01377733          	and	a4,a4,s3
    80000730:	c01c8da3          	sb	ra,-997(s9)
    80000734:	0058c8b3          	xor	a7,a7,t0
    80000738:	2e000a13          	li	s4,736
    8000073c:	012764b3          	or	s1,a4,s2
    80000740:	00a87c33          	and	s8,a6,a0
    80000744:	034a1db3          	mulh	s11,s4,s4
    80000748:	015ae433          	or	s0,s5,s5
    8000074c:	d28f3f83          	ld	t6,-728(t5)
    80000750:	011c7833          	and	a6,s8,a7
    80000754:	aa500d13          	li	s10,-1371
    80000758:	00100593          	li	a1,1
    8000075c:	00001f17          	auipc	t5,0x1
    80000760:	dedf0f13          	addi	t5,t5,-531 # 80001549 <test_memory+0x249>
    80000764:	72d00d93          	li	s11,1837
    80000768:	f0700113          	li	sp,-249
    8000076c:	b1100693          	li	a3,-1263
    80000770:	03bdc4bb          	divw	s1,s11,s11
    80000774:	9f100993          	li	s3,-1551
    80000778:	00211933          	sll	s2,sp,sp
    8000077c:	033d6333          	rem	t1,s10,s3
    80000780:	91018393          	addi	t2,gp,-1776 # 80001820 <_end+0x110>
    80000784:	b083a183          	lw	gp,-1272(t2)
    80000788:	03f59593          	slli	a1,a1,0x3f
    8000078c:	00000b13          	li	s6,0
    80000790:	0010de33          	srl	t3,ra,ra
    80000794:	00001497          	auipc	s1,0x1
    80000798:	d8c48493          	addi	s1,s1,-628 # 80001520 <test_memory+0x220>
    8000079c:	9ef00a13          	li	s4,-1553
    800007a0:	00000e17          	auipc	t3,0x0
    800007a4:	7d3e0e13          	addi	t3,t3,2003 # 80000f73 <test_end+0x4cf>
    800007a8:	8e700093          	li	ra,-1817
    800007ac:	fff00b93          	li	s7,-1
    800007b0:	421e4383          	lbu	t2,1057(t3)
    800007b4:	1c64cd83          	lbu	s11,454(s1)
    800007b8:	00000193          	li	gp,0
    800007bc:	005867b3          	or	a5,a6,t0
    800007c0:	f2800e93          	li	t4,-216
    800007c4:	7b800413          	li	s0,1976
    800007c8:	419059bb          	sraw	s3,zero,s9
    800007cc:	00000c93          	li	s9,0
    800007d0:	00842133          	slt	sp,s0,s0
    800007d4:	03d6c733          	div	a4,a3,t4
    800007d8:	00bbcbb3          	xor	s7,s7,a1
    800007dc:	2bce1a63          	bne	t3,t3,80000a90 <crash_forward>
    800007e0:	021a2633          	mulhsu	a2,s4,ra
    800007e4:	92f842e3          	blt	a6,a5,80000108 <crash_backward>
    800007e8:	00000c13          	li	s8,0
    800007ec:	00001517          	auipc	a0,0x1
    800007f0:	8d750513          	addi	a0,a0,-1833 # 800010c3 <fromhost+0x83>
    800007f4:	01717233          	and	tp,sp,s7
    800007f8:	00001d17          	auipc	s10,0x1
    800007fc:	e1fd0d13          	addi	s10,s10,-481 # 80001617 <test_memory+0x317>
    80000800:	cecd0f23          	sb	a2,-770(s10)
    80000804:	00b26fb3          	or	t6,tp,a1
    80000808:	25152a83          	lw	s5,593(a0)
    8000080c:	299b6263          	bltu	s6,s9,80000a90 <crash_forward>
    80000810:	08bf05a3          	sb	a1,139(t5)
    80000814:	02423333          	mulhu	t1,tp,tp
    80000818:	02029093          	slli	ra,t0,0x20
    8000081c:	ea218493          	addi	s1,gp,-350 # 80001db2 <_end+0x6a2>
    80000820:	00001597          	auipc	a1,0x1
    80000824:	efe58593          	addi	a1,a1,-258 # 8000171e <_end+0xe>
    80000828:	dfc00a13          	li	s4,-516
    8000082c:	f6200a93          	li	s5,-158
    80000830:	9b5a8893          	addi	a7,s5,-1611
    80000834:	93e4b283          	ld	t0,-1730(s1)
    80000838:	53f00313          	li	t1,1343
    8000083c:	02633c33          	mulhu	s8,t1,t1
    80000840:	b1018693          	addi	a3,gp,-1264 # 80001a20 <_end+0x310>
    80000844:	039ccb3b          	divw	s6,s9,s9
    80000848:	2558d463          	bge	a7,s5,80000a90 <crash_forward>
    8000084c:	02e71eb3          	mulh	t4,a4,a4
    80000850:	03d4443b          	divw	s0,s0,t4
    80000854:	00001917          	auipc	s2,0x1
    80000858:	eec90913          	addi	s2,s2,-276 # 80001740 <_end+0x30>
    8000085c:	01eee4b3          	or	s1,t4,t5
    80000860:	00100d13          	li	s10,1
    80000864:	00001e17          	auipc	t3,0x1
    80000868:	d90e0e13          	addi	t3,t3,-624 # 800015f4 <test_memory+0x2f4>
    8000086c:	014a5bb3          	srl	s7,s4,s4
    80000870:	bfa69503          	lh	a0,-1030(a3)
    80000874:	03fd1d13          	slli	s10,s10,0x3f
    80000878:	29300993          	li	s3,659
    8000087c:	fd700d93          	li	s11,-41
    80000880:	d8f5a323          	sw	a5,-634(a1)
    80000884:	fff00113          	li	sp,-1
    80000888:	00001f17          	auipc	t5,0x1
    8000088c:	ac2f0f13          	addi	t5,t5,-1342 # 8000134a <test_memory+0x4a>
    80000890:	ed600813          	li	a6,-298
    80000894:	01a14133          	xor	sp,sp,s10
    80000898:	002f70b3          	and	ra,t5,sp
    8000089c:	5e700793          	li	a5,1511
    800008a0:	01a6ecb3          	or	s9,a3,s10
    800008a4:	eeee3e23          	sd	a4,-260(t3)
    800008a8:	02f9e633          	rem	a2,s3,a5
    800008ac:	1da00713          	li	a4,474
    800008b0:	ec890f23          	sb	s0,-290(s2)
    800008b4:	00000217          	auipc	tp,0x0
    800008b8:	6cc20213          	addi	tp,tp,1740 # 80000f80 <test_end+0x4dc>
    800008bc:	03bdf3bb          	remuw	t2,s11,s11
    800008c0:	00e86fb3          	or	t6,a6,a4
    800008c4:	62c26183          	lwu	gp,1580(tp) # 62c <_start-0x7ffff9d4>
    800008c8:	76100913          	li	s2,1889
    800008cc:	00a2d21b          	srliw	tp,t0,0xa
    800008d0:	821cdce3          	bge	s9,ra,80000108 <crash_backward>
    800008d4:	f8400e13          	li	t3,-124
    800008d8:	0f9f2123          	sw	s9,226(t5)
    800008dc:	ed900c93          	li	s9,-295
    800008e0:	92400093          	li	ra,-1756
    800008e4:	d1c18f13          	addi	t5,gp,-740 # 80001c2c <_end+0x51c>
    800008e8:	02208abb          	mulw	s5,ra,sp
    800008ec:	e3500893          	li	a7,-459
    800008f0:	00001f97          	auipc	t6,0x1
    800008f4:	912f8f93          	addi	t6,t6,-1774 # 80001202 <begin_signature+0x2>
    800008f8:	001cd23b          	srlw	tp,s9,ra
    800008fc:	d7b00693          	li	a3,-645
    80000900:	a90e0313          	addi	t1,t3,-1392
    80000904:	00100513          	li	a0,1
    80000908:	a4800113          	li	sp,-1464
    8000090c:	034171bb          	remuw	gp,sp,s4
    80000910:	00b5c433          	xor	s0,a1,a1
    80000914:	76c00c93          	li	s9,1900
    80000918:	40d68bb3          	sub	s7,a3,a3
    8000091c:	01917ab3          	and	s5,sp,s9
    80000920:	5ad00393          	li	t2,1453
    80000924:	00100b13          	li	s6,1
    80000928:	ab8f6d03          	lwu	s10,-1352(t5)
    8000092c:	166e6263          	bltu	t3,t1,80000a90 <crash_forward>
    80000930:	000e0d93          	mv	s11,t3
    80000934:	01196733          	or	a4,s2,a7
    80000938:	03f51513          	slli	a0,a0,0x3f
    8000093c:	a1518093          	addi	ra,gp,-1515 # 80001925 <_end+0x215>
    80000940:	03fb1b13          	slli	s6,s6,0x3f
    80000944:	02738a33          	mul	s4,t2,t2
    80000948:	c9b086a3          	sb	s11,-883(ra)
    8000094c:	00000797          	auipc	a5,0x0
    80000950:	5ed78793          	addi	a5,a5,1517 # 80000f39 <test_end+0x495>
    80000954:	fff00813          	li	a6,-1
    80000958:	00a84833          	xor	a6,a6,a0
    8000095c:	000d8493          	mv	s1,s11
    80000960:	fff00593          	li	a1,-1
    80000964:	010e7633          	and	a2,t3,a6
    80000968:	00000697          	auipc	a3,0x0
    8000096c:	1cd68693          	addi	a3,a3,461 # 80000b35 <test_end+0x91>
    80000970:	7f36e883          	lwu	a7,2035(a3)
    80000974:	00001097          	auipc	ra,0x1
    80000978:	9bc08093          	addi	ra,ra,-1604 # 80001330 <test_memory+0x30>
    8000097c:	72779ca3          	sh	t2,1849(a5)
    80000980:	0165c5b3          	xor	a1,a1,s6
    80000984:	0075d333          	srl	t1,a1,t2
    80000988:	00a662b3          	or	t0,a2,a0
    8000098c:	00b2f9b3          	and	s3,t0,a1
    80000990:	e5700a13          	li	s4,-425
    80000994:	00100893          	li	a7,1
    80000998:	472fac03          	lw	s8,1138(t6)
    8000099c:	f6560663          	beq	a2,t0,80000108 <crash_backward>
    800009a0:	03f89893          	slli	a7,a7,0x3f
    800009a4:	00001a97          	auipc	s5,0x1
    800009a8:	8faa8a93          	addi	s5,s5,-1798 # 8000129e <reg_x19_output+0x6>
    800009ac:	00028913          	mv	s2,t0
    800009b0:	01686eb3          	or	t4,a6,s6
    800009b4:	00090e13          	mv	t3,s2
    800009b8:	4e600193          	li	gp,1254
    800009bc:	f5c94663          	blt	s2,t3,80000108 <crash_backward>
    800009c0:	fff00693          	li	a3,-1
    800009c4:	1ccabd23          	sd	a2,474(s5)
    800009c8:	00001b97          	auipc	s7,0x1
    800009cc:	b1bb8b93          	addi	s7,s7,-1253 # 800014e3 <test_memory+0x1e3>
    800009d0:	1480b203          	ld	tp,328(ra)
    800009d4:	0116c6b3          	xor	a3,a3,a7
    800009d8:	0afbdc83          	lhu	s9,175(s7)
    800009dc:	00001417          	auipc	s0,0x1
    800009e0:	c4e40413          	addi	s0,s0,-946 # 8000162a <test_memory+0x32a>
    800009e4:	00d4f133          	and	sp,s1,a3
    800009e8:	011b63b3          	or	t2,s6,a7
    800009ec:	023a673b          	remw	a4,s4,gp
    800009f0:	00000f17          	auipc	t5,0x0
    800009f4:	748f0f13          	addi	t5,t5,1864 # 80001138 <reg_x7_init>
    800009f8:	07440d03          	lb	s10,116(s0)
    800009fc:	0823da63          	bge	t2,sp,80000a90 <crash_forward>
    80000a00:	573f2023          	sw	s3,1376(t5)
    80000a04:	0040006f          	j	80000a08 <reg_dump>

0000000080000a08 <reg_dump>:
    80000a08:	00001097          	auipc	ra,0x1
    80000a0c:	cf808093          	addi	ra,ra,-776 # 80001700 <loop_count>
    80000a10:	0000a103          	lw	sp,0(ra)
    80000a14:	fff10193          	addi	gp,sp,-1
    80000a18:	0030a023          	sw	gp,0(ra)
    80000a1c:	f8011663          	bnez	sp,800001a8 <pseg_0>
    80000a20:	00000097          	auipc	ra,0x0
    80000a24:	7e008093          	addi	ra,ra,2016 # 80001200 <begin_signature>
    80000a28:	0000b023          	sd	zero,0(ra)
    80000a2c:	0020b823          	sd	sp,16(ra)
    80000a30:	0030bc23          	sd	gp,24(ra)
    80000a34:	0240b023          	sd	tp,32(ra)
    80000a38:	0250b423          	sd	t0,40(ra)
    80000a3c:	0260b823          	sd	t1,48(ra)
    80000a40:	0270bc23          	sd	t2,56(ra)
    80000a44:	0490b423          	sd	s1,72(ra)
    80000a48:	04a0b823          	sd	a0,80(ra)
    80000a4c:	04b0bc23          	sd	a1,88(ra)
    80000a50:	06c0b023          	sd	a2,96(ra)
    80000a54:	06d0b423          	sd	a3,104(ra)
    80000a58:	06e0b823          	sd	a4,112(ra)
    80000a5c:	0900b023          	sd	a6,128(ra)
    80000a60:	0910b423          	sd	a7,136(ra)
    80000a64:	0920b823          	sd	s2,144(ra)
    80000a68:	0930bc23          	sd	s3,152(ra)
    80000a6c:	0b40b023          	sd	s4,160(ra)
    80000a70:	0b60b823          	sd	s6,176(ra)
    80000a74:	0d80b023          	sd	s8,192(ra)
    80000a78:	0d90b423          	sd	s9,200(ra)
    80000a7c:	0da0b823          	sd	s10,208(ra)
    80000a80:	0db0bc23          	sd	s11,216(ra)
    80000a84:	0fc0b023          	sd	t3,224(ra)
    80000a88:	0fd0b423          	sd	t4,232(ra)
    80000a8c:	0180006f          	j	80000aa4 <test_end>

0000000080000a90 <crash_forward>:
    80000a90:	0ff0000f          	fence
    80000a94:	00018063          	beqz	gp,80000a94 <crash_forward+0x4>
    80000a98:	00119193          	slli	gp,gp,0x1
    80000a9c:	0011e193          	ori	gp,gp,1
    80000aa0:	00000073          	ecall

0000000080000aa4 <test_end>:
    80000aa4:	0ff0000f          	fence
    80000aa8:	00100193          	li	gp,1
    80000aac:	00000073          	ecall
    80000ab0:	c0001073          	unimp

Disassembly of section .tohost:

0000000080001000 <tohost>:
	...

0000000080001040 <fromhost>:
	...

Disassembly of section .data:

0000000080001100 <hidden_data>:
    80001100:	bf24                	fsd	fs1,120(a4)
    80001102:	851a                	mv	a0,t1
    80001104:	b17415c7          	fmsub.s	fa1,fs0,fs7,fs6,rtz

0000000080001108 <reg_x1_init>:
    80001108:	61cc                	ld	a1,128(a1)
    8000110a:	b3e8                	fsd	fa0,224(a5)
    8000110c:	16c1                	addi	a3,a3,-16
    8000110e:	87f0                	0x87f0

0000000080001110 <reg_x2_init>:
    80001110:	0006                	c.slli	zero,0x1
    80001112:	0000                	unimp
    80001114:	0000                	unimp
	...

0000000080001118 <reg_x3_init>:
    80001118:	00000007          	0x7
    8000111c:	0000                	unimp
	...

0000000080001120 <reg_x4_init>:
	...

0000000080001128 <reg_x5_init>:
    80001128:	0005                	c.nop	1
    8000112a:	8000                	0x8000
    8000112c:	ffff                	0xffff
    8000112e:	ffff                	0xffff

0000000080001130 <reg_x6_init>:
	...

0000000080001138 <reg_x7_init>:
    80001138:	00000003          	lb	zero,0(zero) # 0 <_start-0x80000000>
    8000113c:	0000                	unimp
	...

0000000080001140 <reg_x8_init>:
    80001140:	0001                	nop
    80001142:	0000                	unimp
    80001144:	0000                	unimp
    80001146:	0800                	addi	s0,sp,16

0000000080001148 <reg_x9_init>:
    80001148:	103d                	c.nop	-17
    8000114a:	9ee2a4e3          	0x9ee2a4e3
    8000114e:	3f7c                	fld	fa5,248(a4)

0000000080001150 <reg_x10_init>:
    80001150:	ffffff83          	0xffffff83
    80001154:	ffff                	0xffff
    80001156:	ffff                	0xffff

0000000080001158 <reg_x11_init>:
    80001158:	9489                	srai	s1,s1,0x22
    8000115a:	5da5                	li	s11,-23
    8000115c:	4db51c67          	0x4db51c67

0000000080001160 <reg_x12_init>:
    80001160:	ffff                	0xffff
    80001162:	ffff                	0xffff
    80001164:	ffff                	0xffff
    80001166:	ffff                	0xffff

0000000080001168 <reg_x13_init>:
    80001168:	00000003          	lb	zero,0(zero) # 0 <_start-0x80000000>
    8000116c:	0000                	unimp
    8000116e:	0800                	addi	s0,sp,16

0000000080001170 <reg_x14_init>:
    80001170:	ff80                	sd	s0,56(a5)
    80001172:	ffff                	0xffff
    80001174:	ffff                	0xffff
    80001176:	ffff                	0xffff

0000000080001178 <reg_x15_init>:
    80001178:	4cf9                	li	s9,30
    8000117a:	e731                	bnez	a4,800011c6 <reg_x24_init+0x6>
    8000117c:	f5ecc8ef          	jal	a7,7ffcd8da <_start-0x32726>

0000000080001180 <reg_x16_init>:
    80001180:	5064                	lw	s1,100(s0)
    80001182:	1484ac8f          	0x1484ac8f
    80001186:	          	fsq	ft1,882(a4)

0000000080001188 <reg_x17_init>:
    80001188:	16d23617          	auipc	a2,0x16d23
    8000118c:	1126                	slli	sp,sp,0x29
    8000118e:	16a6                	slli	a3,a3,0x29

0000000080001190 <reg_x18_init>:
    80001190:	76b4                	ld	a3,104(a3)
    80001192:	60b9                	lui	ra,0xe
    80001194:	8525                	srai	a0,a0,0x9
    80001196:	52cc                	lw	a1,36(a3)

0000000080001198 <reg_x19_init>:
    80001198:	0000                	unimp
    8000119a:	0000                	unimp
    8000119c:	0000                	unimp
    8000119e:	0800                	addi	s0,sp,16

00000000800011a0 <reg_x20_init>:
	...

00000000800011a8 <reg_x21_init>:
    800011a8:	294a8d4f          	fnmadd.s	fs10,fs5,fs4,ft5,rne
    800011ac:	24fa                	fld	fs1,408(sp)
    800011ae:	          	0xff861177

00000000800011b0 <reg_x22_init>:
    800011b0:	ff86                	sd	ra,504(sp)
    800011b2:	ffff                	0xffff
    800011b4:	ffff                	0xffff
    800011b6:	ffff                	0xffff

00000000800011b8 <reg_x23_init>:
    800011b8:	ff82                	sd	zero,504(sp)
    800011ba:	ffff                	0xffff
    800011bc:	ffff                	0xffff
    800011be:	ffff                	0xffff

00000000800011c0 <reg_x24_init>:
    800011c0:	b808                	fsd	fa0,48(s0)
    800011c2:	db58                	sw	a4,52(a4)
    800011c4:	b4dd74bb          	0xb4dd74bb

00000000800011c8 <reg_x25_init>:
    800011c8:	0004                	0x4
    800011ca:	0000                	unimp
    800011cc:	0000                	unimp
	...

00000000800011d0 <reg_x26_init>:
    800011d0:	fcde                	sd	s7,120(sp)
    800011d2:	e2d4                	sd	a3,128(a3)
    800011d4:	34bd                	addiw	s1,s1,-17
    800011d6:	c83e                	sw	a5,16(sp)

00000000800011d8 <reg_x27_init>:
    800011d8:	0cf6                	slli	s9,s9,0x1d
    800011da:	3d0d                	addiw	s10,s10,-29
    800011dc:	1bec                	addi	a1,sp,508
    800011de:	0518                	addi	a4,sp,640

00000000800011e0 <reg_x28_init>:
    800011e0:	b45a                	fsd	fs6,40(sp)
    800011e2:	1ead                	addi	t4,t4,-21
    800011e4:	143243bb          	0x143243bb

00000000800011e8 <reg_x29_init>:
    800011e8:	ffff                	0xffff
    800011ea:	ffff                	0xffff
    800011ec:	ffff                	0xffff
    800011ee:	ffff                	0xffff

00000000800011f0 <reg_x30_init>:
    800011f0:	8008                	0x8008
    800011f2:	ffff                	0xffff
    800011f4:	ffff                	0xffff
    800011f6:	ffff                	0xffff

00000000800011f8 <reg_x31_init>:
	...

0000000080001200 <begin_signature>:
    80001200:	d4aa                	sw	a0,104(sp)
    80001202:	da080457          	0xda080457
    80001206:	db12                	sw	tp,180(sp)

0000000080001208 <reg_x1_output>:
    80001208:	5112                	lw	sp,36(sp)
    8000120a:	f899                	bnez	s1,80001120 <reg_x4_init>
    8000120c:	959c                	0x959c
    8000120e:	e805                	bnez	s0,8000123e <reg_x7_output+0x6>

0000000080001210 <reg_x2_output>:
    80001210:	4ef6b9bf d1fa94c7 	0xd1fa94c74ef6b9bf

0000000080001218 <reg_x3_output>:
    80001218:	538a                	lw	t2,160(sp)
    8000121a:	baa6                	fsd	fs1,368(sp)
    8000121c:	2e39                	addiw	t3,t3,14
    8000121e:	3692                	fld	fa3,288(sp)

0000000080001220 <reg_x4_output>:
    80001220:	7d2e                	ld	s10,232(sp)
    80001222:	c198                	sw	a4,0(a1)
    80001224:	572d                	li	a4,-21
    80001226:	2119                	addiw	sp,sp,6

0000000080001228 <reg_x5_output>:
    80001228:	8a81                	andi	a3,a3,0
    8000122a:	f504                	sd	s1,40(a0)
    8000122c:	d1b2                	sw	a2,224(sp)
    8000122e:	4ed8                	lw	a4,28(a3)

0000000080001230 <reg_x6_output>:
    80001230:	b80af48f          	0xb80af48f
    80001234:	f15a3d2b          	0xf15a3d2b

0000000080001238 <reg_x7_output>:
    80001238:	fa51                	bnez	a2,800011cc <reg_x25_init+0x4>
    8000123a:	d6ee5947          	fmsub.q	fs2,ft8,fa4,fs10,unknown
    8000123e:	fbbc                	sd	a5,112(a5)

0000000080001240 <reg_x8_output>:
    80001240:	e71a                	sd	t1,392(sp)
    80001242:	d74a                	sw	s2,172(sp)
    80001244:	6f10                	ld	a2,24(a4)
    80001246:	b3ba                	fsd	fa4,480(sp)

0000000080001248 <reg_x9_output>:
    80001248:	0ef5                	addi	t4,t4,29
    8000124a:	702e                	0x702e
    8000124c:	345c55fb          	0x345c55fb

0000000080001250 <reg_x10_output>:
    80001250:	fe7e                	sd	t6,312(sp)
    80001252:	4894                	lw	a3,16(s1)
    80001254:	e12e                	sd	a1,128(sp)
    80001256:	          	0xab0304f3

0000000080001258 <reg_x11_output>:
    80001258:	dc78ab03          	lw	s6,-569(a7)
    8000125c:	2a54                	fld	fa3,144(a2)
    8000125e:	5615                	li	a2,-27

0000000080001260 <reg_x12_output>:
    80001260:	70f1                	lui	ra,0xffffc
    80001262:	df54                	sw	a3,60(a4)
    80001264:	5521e9b7          	lui	s3,0x5521e

0000000080001268 <reg_x13_output>:
    80001268:	b1d8                	fsd	fa4,160(a1)
    8000126a:	13f6                	slli	t2,t2,0x3d
    8000126c:	5568                	lw	a0,108(a0)
    8000126e:	da61                	beqz	a2,8000123e <reg_x7_output+0x6>

0000000080001270 <reg_x14_output>:
    80001270:	b888                	fsd	fa0,48(s1)
    80001272:	b689                	j	80000db4 <test_end+0x310>
    80001274:	d0f0                	sw	a2,100(s1)
    80001276:	dc7e                	sw	t6,56(sp)

0000000080001278 <reg_x15_output>:
    80001278:	8114                	0x8114
    8000127a:	c14e                	sw	s3,128(sp)
    8000127c:	8552                	mv	a0,s4
    8000127e:	7db8                	ld	a4,120(a1)

0000000080001280 <reg_x16_output>:
    80001280:	ebc8                	sd	a0,144(a5)
    80001282:	5114                	lw	a3,32(a0)
    80001284:	bf89                	j	800011d6 <reg_x26_init+0x6>
    80001286:	          	fsd	fs4,205(a7)

0000000080001288 <reg_x17_output>:
    80001288:	0d48                	addi	a0,sp,660
    8000128a:	3172                	fld	ft2,312(sp)
    8000128c:	c3ee                	sw	s11,196(sp)
    8000128e:	cb3c                	sw	a5,80(a4)

0000000080001290 <reg_x18_output>:
    80001290:	8b7c                	0x8b7c
    80001292:	5af4                	lw	a3,116(a3)
    80001294:	af40                	fsd	fs0,152(a4)
    80001296:	5cc6                	lw	s9,112(sp)

0000000080001298 <reg_x19_output>:
    80001298:	95ee                	add	a1,a1,s11
    8000129a:	920e49eb          	0x920e49eb
    8000129e:	68d4                	ld	a3,144(s1)

00000000800012a0 <reg_x20_output>:
    800012a0:	d9c8                	sw	a0,52(a1)
    800012a2:	b942                	fsd	fa6,176(sp)
    800012a4:	ead841cf          	fnmadd.d	ft3,fa6,fa3,ft9,rmm

00000000800012a8 <reg_x21_output>:
    800012a8:	2499                	addiw	s1,s1,6
    800012aa:	b4ad                	j	80000d14 <test_end+0x270>
    800012ac:	f306                	sd	ra,416(sp)
    800012ae:	20b4                	fld	fa3,64(s1)

00000000800012b0 <reg_x22_output>:
    800012b0:	0e7e                	slli	t3,t3,0x1f
    800012b2:	e0c9                	bnez	s1,80001334 <test_memory+0x34>
    800012b4:	a209                	j	800013b6 <test_memory+0xb6>
    800012b6:	8f3d                	xor	a4,a4,a5

00000000800012b8 <reg_x23_output>:
    800012b8:	4b6d                	li	s6,27
    800012ba:	d1fc                	sw	a5,100(a1)
    800012bc:	2c71                	addiw	s8,s8,28
    800012be:	1482                	slli	s1,s1,0x20

00000000800012c0 <reg_x24_output>:
    800012c0:	40a0fcaf          	0x40a0fcaf
    800012c4:	8428d33f  	0xecb6d6d08428d33f

00000000800012c8 <reg_x25_output>:
    800012c8:	d6d0                	sw	a2,44(a3)
    800012ca:	ecb6                	sd	a3,88(sp)
    800012cc:	3e2e                	fld	ft8,232(sp)
    800012ce:	5b56                	lw	s6,116(sp)

00000000800012d0 <reg_x26_output>:
    800012d0:	fd85                	bnez	a1,80001208 <reg_x1_output>
    800012d2:	94d2                	add	s1,s1,s4
    800012d4:	12e0                	addi	s0,sp,364
    800012d6:	f274                	sd	a3,224(a2)

00000000800012d8 <reg_x27_output>:
    800012d8:	6661                	lui	a2,0x18
    800012da:	67c4                	ld	s1,136(a5)
    800012dc:	56ad                	li	a3,-21
    800012de:	6368                	ld	a0,192(a4)

00000000800012e0 <reg_x28_output>:
    800012e0:	3450                	fld	fa2,168(s0)
    800012e2:	3067e567          	0x3067e567
    800012e6:	          	0x2128f35b

00000000800012e8 <reg_x29_output>:
    800012e8:	2128                	fld	fa0,64(a0)
    800012ea:	a054                	fsd	fa3,128(s0)
    800012ec:	2a00c767          	0x2a00c767

00000000800012f0 <reg_x30_output>:
    800012f0:	7fdd                	lui	t6,0xffff7
    800012f2:	de3e                	sw	a5,60(sp)
    800012f4:	ff79                	bnez	a4,800012d2 <reg_x26_output+0x2>
    800012f6:	          	auipc	s9,0xf90f8

00000000800012f8 <reg_x31_output>:
    800012f8:	fec4f90f          	0xfec4f90f
    800012fc:	3db2                	fld	fs11,296(sp)
    800012fe:	dd19                	beqz	a0,8000121c <reg_x3_output+0x4>

0000000080001300 <test_memory>:
    80001300:	ad0e                	fsd	ft3,152(sp)
    80001302:	ac78                	fsd	fa4,216(s0)
    80001304:	4844                	lw	s1,20(s0)
    80001306:	56d1                	li	a3,-12
    80001308:	3191                	addiw	gp,gp,-28
    8000130a:	cb0a                	sw	sp,148(sp)
    8000130c:	43b6                	lw	t2,76(sp)
    8000130e:	e9c1                	bnez	a1,8000139e <test_memory+0x9e>
    80001310:	1c72bea7          	fsd	ft7,477(t0)
    80001314:	835dda2f          	0x835dda2f
    80001318:	1db0                	addi	a2,sp,760
    8000131a:	6845                	lui	a6,0x11
    8000131c:	455b4dbb          	0x455b4dbb
    80001320:	5e65                	li	t3,-7
    80001322:	d8c1                	beqz	s1,800012b2 <reg_x22_output+0x2>
    80001324:	a4b0                	fsd	fa2,72(s1)
    80001326:	492c1253          	0x492c1253
    8000132a:	6968                	ld	a0,208(a0)
    8000132c:	d7a5                	beqz	a5,80001294 <reg_x18_output+0x4>
    8000132e:	d646                	sw	a7,44(sp)
    80001330:	cb54                	sw	a3,20(a4)
    80001332:	4438                	lw	a4,72(s0)
    80001334:	fa80                	sd	s0,48(a3)
    80001336:	46f4                	lw	a3,76(a3)
    80001338:	80f1                	srli	s1,s1,0x1c
    8000133a:	56bebd47          	fmsub.q	fs10,ft9,fa1,fa0,rup
    8000133e:	f6d0                	sd	a2,168(a3)
    80001340:	d962                	sw	s8,176(sp)
    80001342:	e854                	sd	a3,144(s0)
    80001344:	62ec                	ld	a1,192(a3)
    80001346:	350c                	fld	fa1,40(a0)
    80001348:	6ed0                	ld	a2,152(a3)
    8000134a:	03bdeebb          	remw	t4,s11,s11
    8000134e:	db88                	sw	a0,48(a5)
    80001350:	d62e                	sw	a1,44(sp)
    80001352:	1b68                	addi	a0,sp,444
    80001354:	9d8d                	subw	a1,a1,a1
    80001356:	afe9                	j	80001b30 <_end+0x420>
    80001358:	bc72                	fsd	ft8,56(sp)
    8000135a:	0cb6                	slli	s9,s9,0xd
    8000135c:	c100                	sw	s0,0(a0)
    8000135e:	28ac                	fld	fa1,80(s1)
    80001360:	6725                	lui	a4,0x9
    80001362:	b028                	fsd	fa0,96(s0)
    80001364:	e9b8bc1b          	0xe9b8bc1b
    80001368:	f189                	bnez	a1,8000126a <reg_x13_output+0x2>
    8000136a:	5995                	li	s3,-27
    8000136c:	a115                	j	80001790 <_end+0x80>
    8000136e:	b968                	fsd	fa0,240(a0)
    80001370:	b4d0                	fsd	fa2,168(s1)
    80001372:	769ddf97          	auipc	t6,0x769dd
    80001376:	ca16                	sw	t0,20(sp)
    80001378:	efd28147          	fmsub.q	ft2,ft5,ft9,ft9,rne
    8000137c:	d180                	sw	s0,32(a1)
    8000137e:	cb70                	sw	a2,84(a4)
    80001380:	7766                	ld	a4,120(sp)
    80001382:	7082                	ld	ra,32(sp)
    80001384:	1dc6                	slli	s11,s11,0x31
    80001386:	bb13eb53          	0xbb13eb53
    8000138a:	5fd4                	lw	a3,60(a5)
    8000138c:	b272edbf 797eb8a8 	0x797eb8a8b272edbf
    80001394:	cf9c                	sw	a5,24(a5)
    80001396:	927a6907          	0x927a6907
    8000139a:	fe871e27          	0xfe871e27
    8000139e:	74d5                	lui	s1,0xffff5
    800013a0:	5eee                	lw	t4,248(sp)
    800013a2:	2579                	addiw	a0,a0,30
    800013a4:	d259                	beqz	a2,8000132a <test_memory+0x2a>
    800013a6:	72633eb7          	lui	t4,0x72633
    800013aa:	d60c                	sw	a1,40(a2)
    800013ac:	a952                	fsd	fs4,144(sp)
    800013ae:	4ef5                	li	t4,29
    800013b0:	d57c                	sw	a5,108(a0)
    800013b2:	39951c17          	auipc	s8,0x39951
    800013b6:	0c72                	slli	s8,s8,0x1c
    800013b8:	8f86                	mv	t6,ra
    800013ba:	399c                	fld	fa5,48(a1)
    800013bc:	541f e762 6619      	0x6619e762541f
    800013c2:	39a2a81b          	0x39a2a81b
    800013c6:	4006                	0x4006
    800013c8:	6e1f 4988 4171      	0x417149886e1f
    800013ce:	d619                	beqz	a2,800012dc <reg_x27_output+0x4>
    800013d0:	17e2                	slli	a5,a5,0x38
    800013d2:	53a8                	lw	a0,96(a5)
    800013d4:	0d9ecd3b          	0xd9ecd3b
    800013d8:	8ede                	mv	t4,s7
    800013da:	d25d                	beqz	a2,80001380 <test_memory+0x80>
    800013dc:	1e53e897          	auipc	a7,0x1e53e
    800013e0:	6e1a275b          	0x6e1a275b
    800013e4:	915a                	add	sp,sp,s6
    800013e6:	68c0                	ld	s0,144(s1)
    800013e8:	7721                	lui	a4,0xfffe8
    800013ea:	bf45                	j	8000139a <test_memory+0x9a>
    800013ec:	0e36                	slli	t3,t3,0xd
    800013ee:	febe                	sd	a5,376(sp)
    800013f0:	6bc6                	ld	s7,80(sp)
    800013f2:	1632                	slli	a2,a2,0x2c
    800013f4:	fb65                	bnez	a4,800013e4 <test_memory+0xe4>
    800013f6:	88ee                	mv	a7,s11
    800013f8:	8864                	0x8864
    800013fa:	11b0                	addi	a2,sp,232
    800013fc:	6105                	addi	sp,sp,32
    800013fe:	6ad6                	ld	s5,336(sp)
    80001400:	d7133db7          	lui	s11,0xd7133
    80001404:	11ec4d93          	xori	s11,s8,286
    80001408:	ad925af7          	0xad925af7
    8000140c:	9ecc                	0x9ecc
    8000140e:	0235                	addi	tp,tp,13
    80001410:	b2e8                	fsd	fa0,224(a3)
    80001412:	5c0c                	lw	a1,56(s0)
    80001414:	ed8d                	bnez	a1,8000144e <test_memory+0x14e>
    80001416:	f8d9                	bnez	s1,800013ac <test_memory+0xac>
    80001418:	8ff2                	mv	t6,t3
    8000141a:	91fc                	0x91fc
    8000141c:	1bb485bb          	0x1bb485bb
    80001420:	4349                	li	t1,18
    80001422:	ffd0                	sd	a2,184(a5)
    80001424:	014e                	slli	sp,sp,0x13
    80001426:	dbb5                	beqz	a5,8000139a <test_memory+0x9a>
    80001428:	4e66                	lw	t3,88(sp)
    8000142a:	9140                	0x9140
    8000142c:	15da                	slli	a1,a1,0x36
    8000142e:	ab29                	j	80001948 <_end+0x238>
    80001430:	24912b5b          	0x24912b5b
    80001434:	7651                	lui	a2,0xffff4
    80001436:	0205                	addi	tp,tp,1
    80001438:	dfd5                	beqz	a5,800013f4 <test_memory+0xf4>
    8000143a:	a98d                	j	800018ac <_end+0x19c>
    8000143c:	e6d8                	sd	a4,136(a3)
    8000143e:	1fbe5cf7          	0x1fbe5cf7
    80001442:	0518                	addi	a4,sp,640
    80001444:	d6ea                	sw	s10,108(sp)
    80001446:	1fe35253          	fdiv.q	ft4,ft6,ft10,unknown
    8000144a:	f28d                	bnez	a3,8000136c <test_memory+0x6c>
    8000144c:	960d                	srai	a2,a2,0x23
    8000144e:	333e                	fld	ft6,488(sp)
    80001450:	2608                	fld	fa0,8(a2)
    80001452:	9026                	c.add	zero,s1
    80001454:	91f2                	add	gp,gp,t3
    80001456:	825c                	0x825c
    80001458:	b34c                	fsd	fa1,160(a4)
    8000145a:	d4e0                	sw	s0,108(s1)
    8000145c:	792890bb          	0x792890bb
    80001460:	78eba6d7          	0x78eba6d7
    80001464:	98aa                	add	a7,a7,a0
    80001466:	de3d                	beqz	a2,800013e4 <test_memory+0xe4>
    80001468:	3a18                	fld	fa4,48(a2)
    8000146a:	4931                	li	s2,12
    8000146c:	c24fbe97          	auipc	t4,0xc24fb
    80001470:	0d29                	addi	s10,s10,10
    80001472:	e616                	sd	t0,264(sp)
    80001474:	76d8                	ld	a4,168(a3)
    80001476:	8f45                	or	a4,a4,s1
    80001478:	f10d                	bnez	a0,8000139a <test_memory+0x9a>
    8000147a:	fc7c                	sd	a5,248(s0)
    8000147c:	d085                	beqz	s1,8000139c <test_memory+0x9c>
    8000147e:	6a1e                	ld	s4,448(sp)
    80001480:	86ea                	mv	a3,s10
    80001482:	49368e47          	fmsub.s	ft8,fa3,fs3,fs1,rne
    80001486:	0bd9                	addi	s7,s7,22
    80001488:	7665                	lui	a2,0xffff9
    8000148a:	37aaf23b          	0x37aaf23b
    8000148e:	bace2a43          	fmadd.d	fs4,ft8,fa2,fs7,rdn
    80001492:	f1f1                	bnez	a1,80001456 <test_memory+0x156>
    80001494:	360c                	fld	fa1,40(a2)
    80001496:	b159                	j	8000111c <reg_x3_init+0x4>
    80001498:	a5c1                	j	80001b58 <_end+0x448>
    8000149a:	09ac                	addi	a1,sp,216
    8000149c:	08a1                	addi	a7,a7,8
    8000149e:	b399                	j	800011e4 <reg_x28_init+0x4>
    800014a0:	8761                	srai	a4,a4,0x18
    800014a2:	28c5                	addiw	a7,a7,17
    800014a4:	4c1c                	lw	a5,24(s0)
    800014a6:	bd41                	j	80001336 <test_memory+0x36>
    800014a8:	bf5d                	j	8000145e <test_memory+0x15e>
    800014aa:	55a4                	lw	s1,104(a1)
    800014ac:	4f04                	lw	s1,24(a4)
    800014ae:	1f5b0adb          	0x1f5b0adb
    800014b2:	ebbd2177          	0xebbd2177
    800014b6:	563e                	lw	a2,236(sp)
    800014b8:	4e84                	lw	s1,24(a3)
    800014ba:	95349c97          	auipc	s9,0x95349
    800014be:	1738d607          	0x1738d607
    800014c2:	1e498eb7          	lui	t4,0x1e498
    800014c6:	e6d1                	bnez	a3,80001552 <test_memory+0x252>
    800014c8:	8345                	srli	a4,a4,0x11
    800014ca:	6cc5                	lui	s9,0x11
    800014cc:	a45e                	fsd	fs7,8(sp)
    800014ce:	3808e10b          	0x3808e10b
    800014d2:	3136                	fld	ft2,360(sp)
    800014d4:	7fbc                	ld	a5,120(a5)
    800014d6:	238c                	fld	fa1,0(a5)
    800014d8:	f366                	sd	s9,416(sp)
    800014da:	c0b2bd8b          	0xc0b2bd8b
    800014de:	4440                	lw	s0,12(s0)
    800014e0:	f5932b83          	lw	s7,-167(t1)
    800014e4:	9e94                	0x9e94
    800014e6:	0d81                	addi	s11,s11,0
    800014e8:	f698                	sd	a4,40(a3)
    800014ea:	1616                	slli	a2,a2,0x25
    800014ec:	a5a7e5fb          	0xa5a7e5fb
    800014f0:	5560                	lw	s0,108(a0)
    800014f2:	036e                	slli	t1,t1,0x1b
    800014f4:	f600                	sd	s0,40(a2)
    800014f6:	8fce                	mv	t6,s3
    800014f8:	11ec                	addi	a1,sp,236
    800014fa:	1284                	addi	s1,sp,352
    800014fc:	c84e                	sw	s3,16(sp)
    800014fe:	ab0e                	fsd	ft3,400(sp)
    80001500:	6de6                	ld	s11,88(sp)
    80001502:	81d1                	srli	a1,a1,0x14
    80001504:	e634                	sd	a3,72(a2)
    80001506:	dc55                	beqz	s0,800014c2 <test_memory+0x1c2>
    80001508:	2685                	addiw	a3,a3,1
    8000150a:	05ea                	slli	a1,a1,0x1a
    8000150c:	9d20                	0x9d20
    8000150e:	877d                	srai	a4,a4,0x1f
    80001510:	b1c2                	fsd	fa6,224(sp)
    80001512:	71dd                	lui	gp,0xffff7
    80001514:	4f22                	lw	t5,8(sp)
    80001516:	e91c                	sd	a5,16(a0)
    80001518:	7929578f          	0x7929578f
    8000151c:	f07d                	bnez	s0,80001502 <test_memory+0x202>
    8000151e:	85c9                	srai	a1,a1,0x12
    80001520:	9c8cbb1b          	0x9c8cbb1b
    80001524:	b146                	fsd	fa7,160(sp)
    80001526:	cc5a                	sw	s6,24(sp)
    80001528:	aefedb6f          	jal	s6,7ffef016 <_start-0x10fea>
    8000152c:	0a95                	addi	s5,s5,5
    8000152e:	57e3fd2b          	0x57e3fd2b
    80001532:	887d                	andi	s0,s0,31
    80001534:	f8e0                	sd	s0,240(s1)
    80001536:	bad0                	fsd	fa2,176(a3)
    80001538:	e4e82c3b          	0xe4e82c3b
    8000153c:	a97a                	fsd	ft10,144(sp)
    8000153e:	6f70                	ld	a2,216(a4)
    80001540:	f170                	sd	a2,224(a0)
    80001542:	b286                	fsd	ft1,352(sp)
    80001544:	5749                	li	a4,-14
    80001546:	08fa                	slli	a7,a7,0x1e
    80001548:	4b6c                	lw	a1,84(a4)
    8000154a:	3124                	fld	fs1,96(a0)
    8000154c:	1329                	addi	t1,t1,-22
    8000154e:	e345                	bnez	a4,800015ee <test_memory+0x2ee>
    80001550:	594a                	lw	s2,176(sp)
    80001552:	ce9e9c63          	bne	t4,s1,80000a4a <reg_dump+0x42>
    80001556:	565a                	lw	a2,180(sp)
    80001558:	0cd2                	slli	s9,s9,0x14
    8000155a:	07d9                	addi	a5,a5,22
    8000155c:	5befc3c7          	fmsub.d	ft7,ft11,ft10,fa1,rmm
    80001560:	0f46                	slli	t5,t5,0x11
    80001562:	8968                	0x8968
    80001564:	53a2                	lw	t2,40(sp)
    80001566:	9cc770a7          	0x9cc770a7
    8000156a:	374d                	addiw	a4,a4,-13
    8000156c:	3c2c                	fld	fa1,120(s0)
    8000156e:	9b9e                	add	s7,s7,t2
    80001570:	1f4554d3          	fdiv.q	fs1,fa0,fs4,unknown
    80001574:	a9e2                	fsd	fs8,208(sp)
    80001576:	b5a71d33          	0xb5a71d33
    8000157a:	9c8a                	add	s9,s9,sp
    8000157c:	b4a4                	fsd	fs1,104(s1)
    8000157e:	e98c                	sd	a1,16(a1)
    80001580:	5952a193          	slti	gp,t0,1429
    80001584:	5e19                	li	t3,-26
    80001586:	d01f 387f b1c4      	0xb1c4387fd01f
    8000158c:	2ac0b7f3          	csrrc	a5,0x2ac,ra
    80001590:	4d2d                	li	s10,11
    80001592:	e555                	bnez	a0,8000163e <test_memory+0x33e>
    80001594:	0c6d82d3          	0xc6d82d3
    80001598:	1d04                	addi	s1,sp,688
    8000159a:	ea9a1df7          	0xea9a1df7
    8000159e:	826146a3          	0x826146a3
    800015a2:	1358c227          	fsq	fs5,292(a7) # 9e53f500 <__global_pointer$+0x1e53d5f0>
    800015a6:	3cc9                	addiw	s9,s9,-14
    800015a8:	ecc5                	bnez	s1,80001660 <test_memory+0x360>
    800015aa:	8461                	srai	s0,s0,0x18
    800015ac:	20ed8257          	0x20ed8257
    800015b0:	cf5c                	sw	a5,28(a4)
    800015b2:	d072                	sw	t3,32(sp)
    800015b4:	f47220c3          	0xf47220c3
    800015b8:	3da4                	fld	fs1,120(a1)
    800015ba:	5a2d                	li	s4,-21
    800015bc:	bc2d31f3          	csrrc	gp,0xbc2,s10
    800015c0:	e74d                	bnez	a4,8000166a <test_memory+0x36a>
    800015c2:	8512                	mv	a0,tp
    800015c4:	2d72                	fld	fs10,280(sp)
    800015c6:	c0ee                	sw	s11,64(sp)
    800015c8:	df82                	sw	zero,252(sp)
    800015ca:	93fc                	0x93fc
    800015cc:	b4328d37          	lui	s10,0xb4328
    800015d0:	78ea6937          	lui	s2,0x78ea6
    800015d4:	b9d85aa3          	0xb9d85aa3
    800015d8:	b139                	j	800011e6 <reg_x28_init+0x6>
    800015da:	9379                	srli	a4,a4,0x3e
    800015dc:	293e                	fld	fs2,456(sp)
    800015de:	c9b8                	sw	a4,80(a1)
    800015e0:	c008                	sw	a0,0(s0)
    800015e2:	a43c                	fsd	fa5,72(s0)
    800015e4:	4c5a                	lw	s8,148(sp)
    800015e6:	62d4                	ld	a3,128(a3)
    800015e8:	196f50cf          	fnmadd.s	ft1,ft10,fs6,ft3,unknown
    800015ec:	d169fcf3          	csrrci	s9,0xd16,19
    800015f0:	793d6feb          	0x793d6feb
    800015f4:	e788                	sd	a0,8(a5)
    800015f6:	f670                	sd	a2,232(a2)
    800015f8:	d3181ae7          	0xd3181ae7
    800015fc:	c5d0                	sw	a2,12(a1)
    800015fe:	e3d2                	sd	s4,448(sp)
    80001600:	64da                	ld	s1,400(sp)
    80001602:	2bb6                	fld	fs7,328(sp)
    80001604:	4e69                	li	t3,26
    80001606:	edf6                	sd	t4,216(sp)
    80001608:	2d7a                	fld	fs10,408(sp)
    8000160a:	c3e5                	beqz	a5,800016ea <test_memory+0x3ea>
    8000160c:	74ee                	ld	s1,248(sp)
    8000160e:	1234                	addi	a3,sp,296
    80001610:	1676                	slli	a2,a2,0x3d
    80001612:	77ac                	ld	a1,104(a5)
    80001614:	bf2d                	j	8000154e <test_memory+0x24e>
    80001616:	53ec                	lw	a1,100(a5)
    80001618:	a7b761c7          	fmsub.q	ft3,fa4,fs11,fs4,unknown
    8000161c:	e83e                	sd	a5,16(sp)
    8000161e:	951a520b          	0x951a520b
    80001622:	6fff                	0x6fff
    80001624:	38d9                	addiw	a7,a7,-10
    80001626:	cbe0                	sw	s0,84(a5)
    80001628:	7188                	ld	a0,32(a1)
    8000162a:	ff59                	bnez	a4,800015c8 <test_memory+0x2c8>
    8000162c:	76407413          	andi	s0,zero,1892
    80001630:	d42d                	beqz	s0,8000159a <test_memory+0x29a>
    80001632:	0a6ee57b          	0xa6ee57b
    80001636:	bb6503bf 00e4c95a 	0xe4c95abb6503bf
    8000163e:	5e04                	lw	s1,56(a2)
    80001640:	ffbcc5b7          	lui	a1,0xffbcc
    80001644:	a86fb04b          	fnmsub.s	ft0,ft11,ft6,fs5,rup
    80001648:	5aad                	li	s5,-21
    8000164a:	a76d                	j	80001df4 <_end+0x6e4>
    8000164c:	c150                	sw	a2,4(a0)
    8000164e:	7670                	ld	a2,232(a2)
    80001650:	1b36                	slli	s6,s6,0x2d
    80001652:	b134                	fsd	fa3,96(a0)
    80001654:	a3d0                	fsd	fa2,128(a5)
    80001656:	ca1c                	sw	a5,16(a2)
    80001658:	03618643          	fmadd.d	fa2,ft3,fs6,ft0,rne
    8000165c:	013dc463          	blt	s11,s3,80001664 <test_memory+0x364>
    80001660:	bfb2                	fsd	fa2,504(sp)
    80001662:	df78                	sw	a4,124(a4)
    80001664:	0144                	addi	s1,sp,132
    80001666:	6ad6937b          	0x6ad6937b
    8000166a:	e8158a03          	lb	s4,-383(a1) # ffffffffffbcbe81 <__global_pointer$+0xffffffff7fbc9f71>
    8000166e:	5f0f88b3          	0x5f0f88b3
    80001672:	27f9d64b          	fnmsub.q	fa2,fs3,ft11,ft4,unknown
    80001676:	f4542c3b          	0xf4542c3b
    8000167a:	f01b54bf 8ea183a0 	0x8ea183a0f01b54bf
    80001682:	b8ace78b          	0xb8ace78b
    80001686:	d020                	sw	s0,96(s0)
    80001688:	3a9f 6048 c4d9      	0xc4d960483a9f
    8000168e:	739e                	ld	t2,480(sp)
    80001690:	6b05                	lui	s6,0x1
    80001692:	c9fe                	sw	t6,208(sp)
    80001694:	9631                	srai	a2,a2,0x2c
    80001696:	7431                	lui	s0,0xfffec
    80001698:	8581                	c.srai64	a1
    8000169a:	6db2                	ld	s11,264(sp)
    8000169c:	1eb4                	addi	a3,sp,888
    8000169e:	08e1                	addi	a7,a7,24
    800016a0:	bf2e                	fsd	fa1,440(sp)
    800016a2:	4580                	lw	s0,8(a1)
    800016a4:	cc50                	sw	a2,28(s0)
    800016a6:	8841                	andi	s0,s0,16
    800016a8:	1bdd                	addi	s7,s7,-9
    800016aa:	21915013          	0x21915013
    800016ae:	e11c                	sd	a5,0(a0)
    800016b0:	08be                	slli	a7,a7,0xf
    800016b2:	424c                	lw	a1,4(a2)
    800016b4:	80e9                	srli	s1,s1,0x1a
    800016b6:	671c                	ld	a5,8(a4)
    800016b8:	5228                	lw	a0,96(a2)
    800016ba:	9176                	add	sp,sp,t4
    800016bc:	ac99                	j	80001912 <_end+0x202>
    800016be:	df3a                	sw	a4,188(sp)
    800016c0:	ed96                	sd	t0,216(sp)
    800016c2:	3396                	fld	ft7,352(sp)
    800016c4:	535e                	lw	t1,244(sp)
    800016c6:	28e8                	fld	fa0,208(s1)
    800016c8:	8c16                	mv	s8,t0
    800016ca:	9ac8                	0x9ac8
    800016cc:	623d                	lui	tp,0xf
    800016ce:	f6b077c3          	fmadd.q	fa5,ft0,fa1,ft10
    800016d2:	b94e                	fsd	fs3,176(sp)
    800016d4:	ce30                	sw	a2,88(a2)
    800016d6:	2597bc67          	0x2597bc67
    800016da:	69d0                	ld	a2,144(a1)
    800016dc:	7e37ac7b          	0x7e37ac7b
    800016e0:	f232a42b          	0xf232a42b
    800016e4:	ceea                	sw	s10,92(sp)
    800016e6:	429c                	lw	a5,0(a3)
    800016e8:	7704                	ld	s1,40(a4)
    800016ea:	da28                	sw	a0,112(a2)
    800016ec:	415e                	lw	sp,212(sp)
    800016ee:	62a8                	ld	a0,64(a3)
    800016f0:	5c702ea7          	fsw	ft7,1501(zero) # 5dd <_start-0x7ffffa23>
    800016f4:	9f60083f 896c6895 	0x896c68959f60083f
    800016fc:	ebca                	sd	s2,464(sp)
    800016fe:	886e                	mv	a6,s11

0000000080001700 <loop_count>:
    80001700:	0040                	addi	s0,sp,4
	...

Disassembly of section .riscv.attributes:

0000000000000000 <.riscv.attributes>:
   0:	2d41                	addiw	s10,s10,16
   2:	0000                	unimp
   4:	7200                	ld	s0,32(a2)
   6:	7369                	lui	t1,0xffffa
   8:	01007663          	bgeu	zero,a6,14 <_start-0x7fffffec>
   c:	00000023          	sb	zero,0(zero) # 0 <_start-0x80000000>
  10:	7205                	lui	tp,0xfffe1
  12:	3676                	fld	fa2,376(sp)
  14:	6934                	ld	a3,80(a0)
  16:	7032                	0x7032
  18:	5f30                	lw	a2,120(a4)
  1a:	326d                	addiw	tp,tp,-5
  1c:	3070                	fld	fa2,224(s0)
  1e:	615f 7032 5f30      	0x5f307032615f
  24:	3266                	fld	ft4,120(sp)
  26:	3070                	fld	fa2,224(s0)
  28:	645f 7032 0030      	0x307032645f
