
test.elf:     file format elf64-littleriscv


Disassembly of section .text.init:

0000000080000000 <_start>:
    80000000:	0580006f          	j	80000058 <reset_vector>

0000000080000004 <trap_vector>:
    80000004:	34202f73          	csrr	t5,mcause
    80000008:	00800f93          	li	t6,8
    8000000c:	05ff0063          	beq	t5,t6,8000004c <write_tohost>
    80000010:	00900f93          	li	t6,9
    80000014:	03ff0c63          	beq	t5,t6,8000004c <write_tohost>
    80000018:	00b00f93          	li	t6,11
    8000001c:	03ff0863          	beq	t5,t6,8000004c <write_tohost>
    80000020:	00000f13          	li	t5,0
    80000024:	000f0463          	beqz	t5,8000002c <trap_vector+0x28>
    80000028:	000f0067          	jr	t5
    8000002c:	34202f73          	csrr	t5,mcause
    80000030:	000f5463          	bgez	t5,80000038 <handle_exception>
    80000034:	0140006f          	j	80000048 <other_exception>

0000000080000038 <handle_exception>:
    80000038:	34102e73          	csrr	t3,mepc
    8000003c:	004e0e13          	addi	t3,t3,4
    80000040:	341e1073          	csrw	mepc,t3
    80000044:	30200073          	mret

0000000080000048 <other_exception>:
    80000048:	5391e193          	ori	gp,gp,1337

000000008000004c <write_tohost>:
    8000004c:	00001f17          	auipc	t5,0x1
    80000050:	fa3f2a23          	sw	gp,-76(t5) # 80001000 <tohost>
    80000054:	ff9ff06f          	j	8000004c <write_tohost>

0000000080000058 <reset_vector>:
    80000058:	f1402573          	csrr	a0,mhartid
    8000005c:	00051063          	bnez	a0,8000005c <reset_vector+0x4>
    80000060:	00000297          	auipc	t0,0x0
    80000064:	01028293          	addi	t0,t0,16 # 80000070 <reset_vector+0x18>
    80000068:	30529073          	csrw	mtvec,t0
    8000006c:	18005073          	csrwi	satp,0
    80000070:	00000297          	auipc	t0,0x0
    80000074:	01c28293          	addi	t0,t0,28 # 8000008c <reset_vector+0x34>
    80000078:	30529073          	csrw	mtvec,t0
    8000007c:	fff00293          	li	t0,-1
    80000080:	3b029073          	csrw	pmpaddr0,t0
    80000084:	01f00293          	li	t0,31
    80000088:	3a029073          	csrw	pmpcfg0,t0
    8000008c:	00000297          	auipc	t0,0x0
    80000090:	01828293          	addi	t0,t0,24 # 800000a4 <reset_vector+0x4c>
    80000094:	30529073          	csrw	mtvec,t0
    80000098:	30205073          	csrwi	medeleg,0
    8000009c:	30305073          	csrwi	mideleg,0
    800000a0:	30405073          	csrwi	mie,0
    800000a4:	00000193          	li	gp,0
    800000a8:	00000297          	auipc	t0,0x0
    800000ac:	f5c28293          	addi	t0,t0,-164 # 80000004 <trap_vector>
    800000b0:	30529073          	csrw	mtvec,t0
    800000b4:	00100513          	li	a0,1
    800000b8:	01f51513          	slli	a0,a0,0x1f
    800000bc:	00055863          	bgez	a0,800000cc <reset_vector+0x74>
    800000c0:	0ff0000f          	fence
    800000c4:	00100193          	li	gp,1
    800000c8:	00000073          	ecall
    800000cc:	00000293          	li	t0,0
    800000d0:	00028e63          	beqz	t0,800000ec <reset_vector+0x94>
    800000d4:	10529073          	csrw	stvec,t0
    800000d8:	0000b2b7          	lui	t0,0xb
    800000dc:	1092829b          	addiw	t0,t0,265
    800000e0:	30229073          	csrw	medeleg,t0
    800000e4:	30202373          	csrr	t1,medeleg
    800000e8:	f66290e3          	bne	t0,t1,80000048 <other_exception>
    800000ec:	30005073          	csrwi	mstatus,0
    800000f0:	00000297          	auipc	t0,0x0
    800000f4:	01428293          	addi	t0,t0,20 # 80000104 <reset_vector+0xac>
    800000f8:	34129073          	csrw	mepc,t0
    800000fc:	f1402573          	csrr	a0,mhartid
    80000100:	30200073          	mret
    80000104:	0180006f          	j	8000011c <test_start>

0000000080000108 <crash_backward>:
    80000108:	0ff0000f          	fence
    8000010c:	00018063          	beqz	gp,8000010c <crash_backward+0x4>
    80000110:	00119193          	slli	gp,gp,0x1
    80000114:	0011e193          	ori	gp,gp,1
    80000118:	00000073          	ecall

000000008000011c <test_start>:
    8000011c:	00001f97          	auipc	t6,0x1
    80000120:	fe4f8f93          	addi	t6,t6,-28 # 80001100 <hidden_data>
    80000124:	000fb003          	ld	zero,0(t6)
    80000128:	008fb083          	ld	ra,8(t6)
    8000012c:	010fb103          	ld	sp,16(t6)
    80000130:	018fb183          	ld	gp,24(t6)
    80000134:	020fb203          	ld	tp,32(t6)
    80000138:	028fb283          	ld	t0,40(t6)
    8000013c:	030fb303          	ld	t1,48(t6)
    80000140:	038fb383          	ld	t2,56(t6)
    80000144:	040fb403          	ld	s0,64(t6)
    80000148:	048fb483          	ld	s1,72(t6)
    8000014c:	050fb503          	ld	a0,80(t6)
    80000150:	058fb583          	ld	a1,88(t6)
    80000154:	060fb603          	ld	a2,96(t6)
    80000158:	068fb683          	ld	a3,104(t6)
    8000015c:	070fb703          	ld	a4,112(t6)
    80000160:	078fb783          	ld	a5,120(t6)
    80000164:	080fb803          	ld	a6,128(t6)
    80000168:	088fb883          	ld	a7,136(t6)
    8000016c:	090fb903          	ld	s2,144(t6)
    80000170:	098fb983          	ld	s3,152(t6)
    80000174:	0a0fba03          	ld	s4,160(t6)
    80000178:	0a8fba83          	ld	s5,168(t6)
    8000017c:	0b0fbb03          	ld	s6,176(t6)
    80000180:	0b8fbb83          	ld	s7,184(t6)
    80000184:	0c0fbc03          	ld	s8,192(t6)
    80000188:	0c8fbc83          	ld	s9,200(t6)
    8000018c:	0d0fbd03          	ld	s10,208(t6)
    80000190:	0d8fbd83          	ld	s11,216(t6)
    80000194:	0e0fbe03          	ld	t3,224(t6)
    80000198:	0e8fbe83          	ld	t4,232(t6)
    8000019c:	0f0fbf03          	ld	t5,240(t6)
    800001a0:	0f8fbf83          	ld	t6,248(t6)
    800001a4:	0040006f          	j	800001a8 <pseg_0>

00000000800001a8 <pseg_0>:
    800001a8:	0264d133          	divu	sp,s1,t1
    800001ac:	fd500c93          	li	s9,-43
    800001b0:	92718193          	addi	gp,gp,-1753 # 80001837 <_end+0x127>
    800001b4:	00000793          	li	a5,0
    800001b8:	9b300313          	li	t1,-1613
    800001bc:	bf300893          	li	a7,-1037
    800001c0:	eff00513          	li	a0,-257
    800001c4:	007d513b          	srlw	sp,s10,t2
    800001c8:	031cf833          	remu	a6,s9,a7
    800001cc:	32800a13          	li	s4,808
    800001d0:	00001217          	auipc	tp,0x1
    800001d4:	ff520213          	addi	tp,tp,-11 # 800011c5 <reg_x24_init+0x5>
    800001d8:	03dee6b3          	rem	a3,t4,t4
    800001dc:	00001f97          	auipc	t6,0x1
    800001e0:	59bf8f93          	addi	t6,t6,1435 # 80001777 <_end+0x67>
    800001e4:	e711a703          	lw	a4,-399(gp) # 80001d81 <_end+0x671>
    800001e8:	00078b93          	mv	s7,a5
    800001ec:	00001817          	auipc	a6,0x1
    800001f0:	58180813          	addi	a6,a6,1409 # 8000176d <_end+0x5d>
    800001f4:	00000293          	li	t0,0
    800001f8:	c2d00b13          	li	s6,-979
    800001fc:	e78f8ea3          	sb	s8,-387(t6)
    80000200:	af100093          	li	ra,-1295
    80000204:	02952e13          	slti	t3,a0,41
    80000208:	feb30f13          	addi	t5,t1,-21
    8000020c:	0242843b          	mulw	s0,t0,tp
    80000210:	d8e00a93          	li	s5,-626
    80000214:	02b6c4b3          	div	s1,a3,a1
    80000218:	3f8217a3          	sh	s8,1007(tp) # 3ef <_start-0x7ffffc11>
    8000021c:	69fa0e93          	addi	t4,s4,1695
    80000220:	93f18113          	addi	sp,gp,-1729 # 8000184f <_end+0x13f>
    80000224:	03653933          	mulhu	s2,a0,s6
    80000228:	efe360e3          	bltu	t1,t5,80000108 <crash_backward>
    8000022c:	07da72e3          	bgeu	s4,t4,80000a90 <crash_forward>
    80000230:	065790e3          	bne	a5,t0,80000a90 <crash_forward>
    80000234:	73700593          	li	a1,1847
    80000238:	8f65039b          	addiw	t2,a0,-1802
    8000023c:	ba5138a3          	sd	t0,-1103(sp)
    80000240:	c9581c83          	lh	s9,-875(a6)
    80000244:	040066e3          	bltu	zero,zero,80000a90 <crash_forward>
    80000248:	000b8d93          	mv	s11,s7
    8000024c:	02b0dd33          	divu	s10,ra,a1
    80000250:	00001e17          	auipc	t3,0x1
    80000254:	43ee0e13          	addi	t3,t3,1086 # 8000168e <test_memory+0x38e>
    80000258:	00100313          	li	t1,1
    8000025c:	03f31313          	slli	t1,t1,0x3f
    80000260:	00001f97          	auipc	t6,0x1
    80000264:	a22f8f93          	addi	t6,t6,-1502 # 80000c82 <test_end+0x1de>
    80000268:	fff00393          	li	t2,-1
    8000026c:	fd3e4283          	lbu	t0,-45(t3)
    80000270:	02eee8bb          	remw	a7,t4,a4
    80000274:	78c00613          	li	a2,1932
    80000278:	00001417          	auipc	s0,0x1
    8000027c:	26840413          	addi	s0,s0,616 # 800014e0 <test_memory+0x1e0>
    80000280:	00001e97          	auipc	t4,0x1
    80000284:	edfe8e93          	addi	t4,t4,-289 # 8000115f <reg_x11_init+0x7>
    80000288:	00435a33          	srl	s4,t1,tp
    8000028c:	02caac33          	mulhsu	s8,s5,a2
    80000290:	019c9533          	sll	a0,s9,s9
    80000294:	0063c3b3          	xor	t2,t2,t1
    80000298:	ed718693          	addi	a3,gp,-297 # 80001de7 <_end+0x6d7>
    8000029c:	e3e42a23          	sw	t5,-460(s0)
    800002a0:	00001497          	auipc	s1,0x1
    800002a4:	27048493          	addi	s1,s1,624 # 80001510 <test_memory+0x210>
    800002a8:	74afc703          	lbu	a4,1866(t6)
    800002ac:	7fbb9263          	bne	s7,s11,80000a90 <crash_forward>
    800002b0:	c8e7fa93          	andi	s5,a5,-882
    800002b4:	02c66d3b          	remw	s10,a2,a2
    800002b8:	86569183          	lh	gp,-1947(a3)
    800002bc:	01294433          	xor	s0,s2,s2
    800002c0:	48500813          	li	a6,1157
    800002c4:	4d800593          	li	a1,1240
    800002c8:	030877b3          	remu	a5,a6,a6
    800002cc:	29cec203          	lbu	tp,668(t4)
    800002d0:	9c100e13          	li	t3,-1599
    800002d4:	b2e18a93          	addi	s5,gp,-1234 # 80001a3e <_end+0x32e>
    800002d8:	40f85f13          	srai	t5,a6,0xf
    800002dc:	01ce4a33          	xor	s4,t3,t3
    800002e0:	eaf48da3          	sb	a5,-325(s1)
    800002e4:	0318d433          	divu	s0,a7,a7
    800002e8:	a60a9d03          	lh	s10,-1440(s5)
    800002ec:	82700b93          	li	s7,-2009
    800002f0:	00001217          	auipc	tp,0x1
    800002f4:	22c20213          	addi	tp,tp,556 # 8000151c <test_memory+0x21c>
    800002f8:	62f00513          	li	a0,1583
    800002fc:	26d00293          	li	t0,621
    80000300:	4d400813          	li	a6,1236
    80000304:	20a00693          	li	a3,522
    80000308:	00001417          	auipc	s0,0x1
    8000030c:	8e040413          	addi	s0,s0,-1824 # 80000be8 <test_end+0x144>
    80000310:	caa18f93          	addi	t6,gp,-854 # 80001bba <_end+0x4aa>
    80000314:	45b00613          	li	a2,1115
    80000318:	41835abb          	sraw	s5,t1,s8
    8000031c:	0071fcb3          	and	s9,gp,t2
    80000320:	cc100a13          	li	s4,-831
    80000324:	03486eb3          	rem	t4,a6,s4
    80000328:	b8c00893          	li	a7,-1140
    8000032c:	00d501bb          	addw	gp,a0,a3
    80000330:	00001497          	auipc	s1,0x1
    80000334:	4cc48493          	addi	s1,s1,1228 # 800017fc <_end+0xec>
    80000338:	031660b3          	rem	ra,a2,a7
    8000033c:	0b826703          	lwu	a4,184(tp) # b8 <_start-0x7fffff48>
    80000340:	7e442f03          	lw	t5,2020(s0)
    80000344:	96afa123          	sw	a0,-1694(t6)
    80000348:	0255ec3b          	remw	s8,a1,t0
    8000034c:	02300813          	li	a6,35
    80000350:	00001617          	auipc	a2,0x1
    80000354:	2d060613          	addi	a2,a2,720 # 80001620 <test_memory+0x320>
    80000358:	00001a97          	auipc	s5,0x1
    8000035c:	ce2a8a93          	addi	s5,s5,-798 # 8000103a <tohost+0x3a>
    80000360:	03de873b          	mulw	a4,t4,t4
    80000364:	412350b3          	sra	ra,t1,s2
    80000368:	01062e03          	lw	t3,16(a2)
    8000036c:	000029b3          	sltz	s3,zero
    80000370:	00001897          	auipc	a7,0x1
    80000374:	ca188893          	addi	a7,a7,-863 # 80001011 <tohost+0x11>
    80000378:	021b4733          	div	a4,s6,ra
    8000037c:	00010e13          	mv	t3,sp
    80000380:	386abf03          	ld	t5,902(s5)
    80000384:	00001417          	auipc	s0,0x1
    80000388:	45e40413          	addi	s0,s0,1118 # 800017e2 <_end+0xd2>
    8000038c:	28500513          	li	a0,645
    80000390:	90418b13          	addi	s6,gp,-1788 # 80001814 <_end+0x104>
    80000394:	6d000e93          	li	t4,1744
    80000398:	00000613          	li	a2,0
    8000039c:	017b8dbb          	addw	s11,s7,s7
    800003a0:	06500f93          	li	t6,101
    800003a4:	3ac00213          	li	tp,940
    800003a8:	3ab88b23          	sb	a1,950(a7)
    800003ac:	40ee89bb          	subw	s3,t4,a4
    800003b0:	d6643183          	ld	gp,-666(s0)
    800003b4:	006fe133          	or	sp,t6,t1
    800003b8:	e8018a93          	addi	s5,gp,-384 # 80001d90 <_end+0x680>
    800003bc:	000e0c13          	mv	s8,t3
    800003c0:	e8cb3903          	ld	s2,-372(s6)
    800003c4:	00001997          	auipc	s3,0x1
    800003c8:	ff198993          	addi	s3,s3,-15 # 800013b5 <test_memory+0xb5>
    800003cc:	af518893          	addi	a7,gp,-1291 # 80001a05 <_end+0x2f5>
    800003d0:	99018f13          	addi	t5,gp,-1648 # 800018a0 <_end+0x190>
    800003d4:	02450a33          	mul	s4,a0,tp
    800003d8:	00000593          	li	a1,0
    800003dc:	05098da3          	sb	a6,91(s3)
    800003e0:	d27f3023          	sd	t2,-736(t5)
    800003e4:	0073873b          	addw	a4,t2,t2
    800003e8:	00001c17          	auipc	s8,0x1
    800003ec:	28ec0c13          	addi	s8,s8,654 # 80001676 <test_memory+0x376>
    800003f0:	ec6c0e23          	sb	t1,-292(s8)
    800003f4:	03d876bb          	remuw	a3,a6,t4
    800003f8:	68b66c63          	bltu	a2,a1,80000a90 <crash_forward>
    800003fc:	8e7acb83          	lbu	s7,-1817(s5)
    80000400:	00001417          	auipc	s0,0x1
    80000404:	d0840413          	addi	s0,s0,-760 # 80001108 <reg_x1_init>
    80000408:	c4a18f13          	addi	t5,gp,-950 # 80001b5a <_end+0x44a>
    8000040c:	01085933          	srl	s2,a6,a6
    80000410:	c8a18d13          	addi	s10,gp,-886 # 80001b9a <_end+0x48a>
    80000414:	ef848783          	lb	a5,-264(s1)
    80000418:	00001997          	auipc	s3,0x1
    8000041c:	ee598993          	addi	s3,s3,-283 # 800012fd <reg_x31_output+0x5>
    80000420:	00001b17          	auipc	s6,0x1
    80000424:	864b0b13          	addi	s6,s6,-1948 # 80000c84 <test_end+0x1e0>
    80000428:	6cdb00a3          	sb	a3,1729(s6)
    8000042c:	0239b9a3          	sd	gp,51(s3)
    80000430:	05d00293          	li	t0,93
    80000434:	00001217          	auipc	tp,0x1
    80000438:	07120213          	addi	tp,tp,113 # 800014a5 <test_memory+0x1a5>
    8000043c:	02323e03          	ld	t3,35(tp) # 23 <_start-0x7fffffdd>
    80000440:	a1b8ed83          	lwu	s11,-1509(a7)
    80000444:	21443423          	sd	s4,520(s0)
    80000448:	b50d0da3          	sb	a6,-1189(s10)
    8000044c:	b3ef2503          	lw	a0,-1218(t5)
    80000450:	005fd0b3          	srl	ra,t6,t0
    80000454:	00100713          	li	a4,1
    80000458:	00001617          	auipc	a2,0x1
    8000045c:	f1360613          	addi	a2,a2,-237 # 8000136b <test_memory+0x6b>
    80000460:	000a8413          	mv	s0,s5
    80000464:	00100513          	li	a0,1
    80000468:	00100193          	li	gp,1
    8000046c:	40f7ddbb          	sraw	s11,a5,a5
    80000470:	9f500213          	li	tp,-1547
    80000474:	004239b3          	sltu	s3,tp,tp
    80000478:	00100093          	li	ra,1
    8000047c:	00001b97          	auipc	s7,0x1
    80000480:	f5fb8b93          	addi	s7,s7,-161 # 800013db <test_memory+0xdb>
    80000484:	00040f13          	mv	t5,s0
    80000488:	05fbd283          	lhu	t0,95(s7)
    8000048c:	b4500813          	li	a6,-1211
    80000490:	03f09093          	slli	ra,ra,0x3f
    80000494:	03f51513          	slli	a0,a0,0x3f
    80000498:	0052f3b3          	and	t2,t0,t0
    8000049c:	fff00913          	li	s2,-1
    800004a0:	03f19193          	slli	gp,gp,0x3f
    800004a4:	09c00293          	li	t0,156
    800004a8:	fff00d13          	li	s10,-1
    800004ac:	00194933          	xor	s2,s2,ra
    800004b0:	03f71713          	slli	a4,a4,0x3f
    800004b4:	fff00113          	li	sp,-1
    800004b8:	0125f4b3          	and	s1,a1,s2
    800004bc:	02b5c3bb          	divw	t2,a1,a1
    800004c0:	04362aa3          	sw	gp,85(a2)
    800004c4:	81e80b13          	addi	s6,a6,-2018
    800004c8:	c5e440e3          	blt	s0,t5,80000108 <crash_backward>
    800004cc:	00ad4d33          	xor	s10,s10,a0
    800004d0:	01a9fcb3          	and	s9,s3,s10
    800004d4:	00aa65b3          	or	a1,s4,a0
    800004d8:	8a700f93          	li	t6,-1881
    800004dc:	00314133          	xor	sp,sp,gp
    800004e0:	a0b00393          	li	t2,-1525
    800004e4:	000f0e93          	mv	t4,t5
    800004e8:	000e8693          	mv	a3,t4
    800004ec:	81d38f13          	addi	t5,t2,-2019
    800004f0:	fff00893          	li	a7,-1
    800004f4:	03f28db3          	mul	s11,t0,t6
    800004f8:	00100993          	li	s3,1
    800004fc:	0014eab3          	or	s5,s1,ra
    80000500:	00001397          	auipc	t2,0x1
    80000504:	02c38393          	addi	t2,t2,44 # 8000152c <test_memory+0x22c>
    80000508:	bfa00b13          	li	s6,-1030
    8000050c:	c3400413          	li	s0,-972
    80000510:	03f99993          	slli	s3,s3,0x3f
    80000514:	90de7fb7          	lui	t6,0x90de7
    80000518:	56decc63          	blt	t4,a3,80000a90 <crash_forward>
    8000051c:	f2c3bf03          	ld	t5,-212(t2)
    80000520:	00006633          	or	a2,zero,zero
    80000524:	fff00b93          	li	s7,-1
    80000528:	035ab2b3          	mulhu	t0,s5,s5
    8000052c:	028b483b          	divw	a6,s6,s0
    80000530:	002f7a33          	and	s4,t5,sp
    80000534:	19b00a93          	li	s5,411
    80000538:	2fc00813          	li	a6,764
    8000053c:	00000417          	auipc	s0,0x0
    80000540:	7f040413          	addi	s0,s0,2032 # 80000d2c <test_end+0x288>
    80000544:	43100613          	li	a2,1073
    80000548:	00001f97          	auipc	t6,0x1
    8000054c:	a37f8f93          	addi	t6,t6,-1481 # 80000f7f <test_end+0x4db>
    80000550:	00e8c8b3          	xor	a7,a7,a4
    80000554:	011bf333          	and	t1,s7,a7
    80000558:	00cacf33          	xor	t5,s5,a2
    8000055c:	c9a18e93          	addi	t4,gp,-870 # 80001baa <_end+0x49a>
    80000560:	00e2e7b3          	or	a5,t0,a4
    80000564:	00001d97          	auipc	s11,0x1
    80000568:	9d2d8d93          	addi	s11,s11,-1582 # 80000f36 <test_end+0x492>
    8000056c:	00001497          	auipc	s1,0x1
    80000570:	99c48493          	addi	s1,s1,-1636 # 80000f08 <test_end+0x464>
    80000574:	7a340083          	lb	ra,1955(s0)
    80000578:	e4818d13          	addi	s10,gp,-440 # 80001d58 <_end+0x648>
    8000057c:	013bcbb3          	xor	s7,s7,s3
    80000580:	5ba80b13          	addi	s6,a6,1466
    80000584:	b867e2e3          	bltu	a5,t1,80000108 <crash_backward>
    80000588:	479fe683          	lwu	a3,1145(t6)
    8000058c:	003a6c33          	or	s8,s4,gp
    80000590:	00001c97          	auipc	s9,0x1
    80000594:	de4c8c93          	addi	s9,s9,-540 # 80001374 <test_memory+0x74>
    80000598:	94c00593          	li	a1,-1716
    8000059c:	4f680a63          	beq	a6,s6,80000a90 <crash_forward>
    800005a0:	00b5c0b3          	xor	ra,a1,a1
    800005a4:	418c0f33          	sub	t5,s8,s8
    800005a8:	918d2903          	lw	s2,-1768(s10)
    800005ac:	b30ed383          	lhu	t2,-1232(t4)
    800005b0:	0179fe33          	and	t3,s3,s7
    800005b4:	b9800793          	li	a5,-1128
    800005b8:	00001a97          	auipc	s5,0x1
    800005bc:	bb4a8a93          	addi	s5,s5,-1100 # 8000116c <reg_x13_init+0x4>
    800005c0:	4f6aa023          	sw	s6,1248(s5)
    800005c4:	005200bb          	addw	ra,tp,t0
    800005c8:	68b00513          	li	a0,1675
    800005cc:	00001397          	auipc	t2,0x1
    800005d0:	e3738393          	addi	t2,t2,-457 # 80001403 <test_memory+0x103>
    800005d4:	f2900893          	li	a7,-215
    800005d8:	00001917          	auipc	s2,0x1
    800005dc:	f1e90913          	addi	s2,s2,-226 # 800014f6 <test_memory+0x1f6>
    800005e0:	00001e97          	auipc	t4,0x1
    800005e4:	884e8e93          	addi	t4,t4,-1916 # 80000e64 <test_end+0x3c0>
    800005e8:	b34c50e3          	bge	s8,s4,80000108 <crash_backward>
    800005ec:	4c3da123          	sw	gp,1218(s11)
    800005f0:	11293583          	ld	a1,274(s2)
    800005f4:	acd00613          	li	a2,-1331
    800005f8:	01157433          	and	s0,a0,a7
    800005fc:	001086b3          	add	a3,ra,ra
    80000600:	692e9803          	lh	a6,1682(t4)
    80000604:	013e6233          	or	tp,t3,s3
    80000608:	32f00d93          	li	s11,815
    8000060c:	47948283          	lb	t0,1145(s1)
    80000610:	f5b3df03          	lhu	t5,-165(t2)
    80000614:	00100193          	li	gp,1
    80000618:	18700f93          	li	t6,391
    8000061c:	00001d17          	auipc	s10,0x1
    80000620:	afcd0d13          	addi	s10,s10,-1284 # 80001118 <reg_x3_init>
    80000624:	00001897          	auipc	a7,0x1
    80000628:	c6788893          	addi	a7,a7,-921 # 8000128b <reg_x17_output+0x3>
    8000062c:	12200393          	li	t2,290
    80000630:	002ca823          	sw	sp,16(s9)
    80000634:	037332b3          	mulhu	t0,t1,s7
    80000638:	0323e4bb          	remw	s1,t2,s2
    8000063c:	55cd2b03          	lw	s6,1372(s10)
    80000640:	827c031b          	addiw	t1,s8,-2009
    80000644:	02c7873b          	mulw	a4,a5,a2
    80000648:	0031d83b          	srlw	a6,gp,gp
    8000064c:	016b5cbb          	srlw	s9,s6,s6
    80000650:	444e7063          	bgeu	t3,tp,80000a90 <crash_forward>
    80000654:	03f19193          	slli	gp,gp,0x3f
    80000658:	00461f33          	sll	t5,a2,tp
    8000065c:	00001497          	auipc	s1,0x1
    80000660:	d1348493          	addi	s1,s1,-749 # 8000136f <test_memory+0x6f>
    80000664:	00100a93          	li	s5,1
    80000668:	0a98e903          	lwu	s2,169(a7)
    8000066c:	00001797          	auipc	a5,0x1
    80000670:	e9b78793          	addi	a5,a5,-357 # 80001507 <test_memory+0x207>
    80000674:	00001717          	auipc	a4,0x1
    80000678:	dd470713          	addi	a4,a4,-556 # 80001448 <test_memory+0x148>
    8000067c:	dfd7ed03          	lwu	s10,-515(a5)
    80000680:	fff00113          	li	sp,-1
    80000684:	eb472c23          	sw	s4,-328(a4)
    80000688:	00314133          	xor	sp,sp,gp
    8000068c:	00001297          	auipc	t0,0x1
    80000690:	b3828293          	addi	t0,t0,-1224 # 800011c4 <reg_x24_init+0x4>
    80000694:	fe14a803          	lw	a6,-31(s1)
    80000698:	43e2ac23          	sw	t5,1080(t0)
    8000069c:	00001e17          	auipc	t3,0x1
    800006a0:	b08e0e13          	addi	t3,t3,-1272 # 800011a4 <reg_x20_init+0x4>
    800006a4:	4e0e2303          	lw	t1,1248(t3)
    800006a8:	00001b17          	auipc	s6,0x1
    800006ac:	035b0b13          	addi	s6,s6,53 # 800016dd <test_memory+0x3dd>
    800006b0:	00100293          	li	t0,1
    800006b4:	00001e17          	auipc	t3,0x1
    800006b8:	e15e0e13          	addi	t3,t3,-491 # 800014c9 <test_memory+0x1c9>
    800006bc:	00001c97          	auipc	s9,0x1
    800006c0:	0e0c8c93          	addi	s9,s9,224 # 8000179c <_end+0x8c>
    800006c4:	01fdda3b          	srlw	s4,s11,t6
    800006c8:	00100913          	li	s2,1
    800006cc:	03fa9a93          	slli	s5,s5,0x3f
    800006d0:	03f91913          	slli	s2,s2,0x3f
    800006d4:	00000d17          	auipc	s10,0x0
    800006d8:	7e7d0d13          	addi	s10,s10,2023 # 80000ebb <test_end+0x417>
    800006dc:	00000b97          	auipc	s7,0x0
    800006e0:	52db8b93          	addi	s7,s7,1325 # 80000c09 <test_end+0x165>
    800006e4:	002af0b3          	and	ra,s5,sp
    800006e8:	03f29293          	slli	t0,t0,0x3f
    800006ec:	fff00993          	li	s3,-1
    800006f0:	0030e5b3          	or	a1,ra,gp
    800006f4:	fff00513          	li	a0,-1
    800006f8:	01554533          	xor	a0,a0,s5
    800006fc:	00001f17          	auipc	t5,0x1
    80000700:	094f0f13          	addi	t5,t5,148 # 80001790 <_end+0x80>
    80000704:	74bb95a3          	sh	a1,1867(s7)
    80000708:	73400e93          	li	t4,1844
    8000070c:	9e15eee3          	bltu	a1,ra,80000108 <crash_backward>
    80000710:	4d4d28a3          	sw	s4,1233(s10)
    80000714:	c77b6603          	lwu	a2,-905(s6)
    80000718:	0129c9b3          	xor	s3,s3,s2
    8000071c:	41d3d6bb          	sraw	a3,t2,t4
    80000720:	4108023b          	subw	tp,a6,a6
    80000724:	ebfe2303          	lw	t1,-321(t3)
    80000728:	fff00893          	li	a7,-1
    8000072c:	01377733          	and	a4,a4,s3
    80000730:	c01c8da3          	sb	ra,-997(s9)
    80000734:	0058c8b3          	xor	a7,a7,t0
    80000738:	2e000a13          	li	s4,736
    8000073c:	012764b3          	or	s1,a4,s2
    80000740:	00a87c33          	and	s8,a6,a0
    80000744:	034a1db3          	mulh	s11,s4,s4
    80000748:	015ae433          	or	s0,s5,s5
    8000074c:	d28f3f83          	ld	t6,-728(t5)
    80000750:	011c7833          	and	a6,s8,a7
    80000754:	aa500d13          	li	s10,-1371
    80000758:	00100593          	li	a1,1
    8000075c:	00001f17          	auipc	t5,0x1
    80000760:	dedf0f13          	addi	t5,t5,-531 # 80001549 <test_memory+0x249>
    80000764:	72d00d93          	li	s11,1837
    80000768:	f0700113          	li	sp,-249
    8000076c:	b1100693          	li	a3,-1263
    80000770:	03bdc4bb          	divw	s1,s11,s11
    80000774:	9f100993          	li	s3,-1551
    80000778:	00211933          	sll	s2,sp,sp
    8000077c:	033d6333          	rem	t1,s10,s3
    80000780:	91018393          	addi	t2,gp,-1776 # 80001820 <_end+0x110>
    80000784:	b083a183          	lw	gp,-1272(t2)
    80000788:	03f59593          	slli	a1,a1,0x3f
    8000078c:	00000b13          	li	s6,0
    80000790:	0010de33          	srl	t3,ra,ra
    80000794:	00001497          	auipc	s1,0x1
    80000798:	d8c48493          	addi	s1,s1,-628 # 80001520 <test_memory+0x220>
    8000079c:	9ef00a13          	li	s4,-1553
    800007a0:	00000e17          	auipc	t3,0x0
    800007a4:	7d3e0e13          	addi	t3,t3,2003 # 80000f73 <test_end+0x4cf>
    800007a8:	8e700093          	li	ra,-1817
    800007ac:	fff00b93          	li	s7,-1
    800007b0:	421e4383          	lbu	t2,1057(t3)
    800007b4:	1c64cd83          	lbu	s11,454(s1)
    800007b8:	00000193          	li	gp,0
    800007bc:	005867b3          	or	a5,a6,t0
    800007c0:	f2800e93          	li	t4,-216
    800007c4:	7b800413          	li	s0,1976
    800007c8:	419059bb          	sraw	s3,zero,s9
    800007cc:	00000c93          	li	s9,0
    800007d0:	00842133          	slt	sp,s0,s0
    800007d4:	03d6c733          	div	a4,a3,t4
    800007d8:	00bbcbb3          	xor	s7,s7,a1
    800007dc:	2bce1a63          	bne	t3,t3,80000a90 <crash_forward>
    800007e0:	021a2633          	mulhsu	a2,s4,ra
    800007e4:	92f842e3          	blt	a6,a5,80000108 <crash_backward>
    800007e8:	00000c13          	li	s8,0
    800007ec:	00001517          	auipc	a0,0x1
    800007f0:	8d750513          	addi	a0,a0,-1833 # 800010c3 <fromhost+0x83>
    800007f4:	01717233          	and	tp,sp,s7
    800007f8:	00001d17          	auipc	s10,0x1
    800007fc:	e1fd0d13          	addi	s10,s10,-481 # 80001617 <test_memory+0x317>
    80000800:	cecd0f23          	sb	a2,-770(s10)
    80000804:	00b26fb3          	or	t6,tp,a1
    80000808:	25152a83          	lw	s5,593(a0)
    8000080c:	299b6263          	bltu	s6,s9,80000a90 <crash_forward>
    80000810:	08bf05a3          	sb	a1,139(t5)
    80000814:	02423333          	mulhu	t1,tp,tp
    80000818:	02029093          	slli	ra,t0,0x20
    8000081c:	ea218493          	addi	s1,gp,-350 # 80001db2 <_end+0x6a2>
    80000820:	00001597          	auipc	a1,0x1
    80000824:	efe58593          	addi	a1,a1,-258 # 8000171e <_end+0xe>
    80000828:	dfc00a13          	li	s4,-516
    8000082c:	f6200a93          	li	s5,-158
    80000830:	9b5a8893          	addi	a7,s5,-1611
    80000834:	93e4b283          	ld	t0,-1730(s1)
    80000838:	53f00313          	li	t1,1343
    8000083c:	02633c33          	mulhu	s8,t1,t1
    80000840:	b1018693          	addi	a3,gp,-1264 # 80001a20 <_end+0x310>
    80000844:	039ccb3b          	divw	s6,s9,s9
    80000848:	2558d463          	bge	a7,s5,80000a90 <crash_forward>
    8000084c:	02e71eb3          	mulh	t4,a4,a4
    80000850:	03d4443b          	divw	s0,s0,t4
    80000854:	00001917          	auipc	s2,0x1
    80000858:	eec90913          	addi	s2,s2,-276 # 80001740 <_end+0x30>
    8000085c:	01eee4b3          	or	s1,t4,t5
    80000860:	00100d13          	li	s10,1
    80000864:	00001e17          	auipc	t3,0x1
    80000868:	d90e0e13          	addi	t3,t3,-624 # 800015f4 <test_memory+0x2f4>
    8000086c:	014a5bb3          	srl	s7,s4,s4
    80000870:	bfa69503          	lh	a0,-1030(a3)
    80000874:	03fd1d13          	slli	s10,s10,0x3f
    80000878:	29300993          	li	s3,659
    8000087c:	fd700d93          	li	s11,-41
    80000880:	d8f5a323          	sw	a5,-634(a1)
    80000884:	fff00113          	li	sp,-1
    80000888:	00001f17          	auipc	t5,0x1
    8000088c:	ac2f0f13          	addi	t5,t5,-1342 # 8000134a <test_memory+0x4a>
    80000890:	ed600813          	li	a6,-298
    80000894:	01a14133          	xor	sp,sp,s10
    80000898:	002f70b3          	and	ra,t5,sp
    8000089c:	5e700793          	li	a5,1511
    800008a0:	01a6ecb3          	or	s9,a3,s10
    800008a4:	eeee3e23          	sd	a4,-260(t3)
    800008a8:	02f9e633          	rem	a2,s3,a5
    800008ac:	1da00713          	li	a4,474
    800008b0:	ec890f23          	sb	s0,-290(s2)
    800008b4:	00000217          	auipc	tp,0x0
    800008b8:	6cc20213          	addi	tp,tp,1740 # 80000f80 <test_end+0x4dc>
    800008bc:	03bdf3bb          	remuw	t2,s11,s11
    800008c0:	00e86fb3          	or	t6,a6,a4
    800008c4:	62c26183          	lwu	gp,1580(tp) # 62c <_start-0x7ffff9d4>
    800008c8:	76100913          	li	s2,1889
    800008cc:	00a2d21b          	srliw	tp,t0,0xa
    800008d0:	821cdce3          	bge	s9,ra,80000108 <crash_backward>
    800008d4:	f8400e13          	li	t3,-124
    800008d8:	0f9f2123          	sw	s9,226(t5)
    800008dc:	ed900c93          	li	s9,-295
    800008e0:	92400093          	li	ra,-1756
    800008e4:	d1c18f13          	addi	t5,gp,-740 # 80001c2c <_end+0x51c>
    800008e8:	02208abb          	mulw	s5,ra,sp
    800008ec:	e3500893          	li	a7,-459
    800008f0:	00001f97          	auipc	t6,0x1
    800008f4:	912f8f93          	addi	t6,t6,-1774 # 80001202 <begin_signature+0x2>
    800008f8:	001cd23b          	srlw	tp,s9,ra
    800008fc:	d7b00693          	li	a3,-645
    80000900:	a90e0313          	addi	t1,t3,-1392
    80000904:	00100513          	li	a0,1
    80000908:	a4800113          	li	sp,-1464
    8000090c:	034171bb          	remuw	gp,sp,s4
    80000910:	00b5c433          	xor	s0,a1,a1
    80000914:	76c00c93          	li	s9,1900
    80000918:	40d68bb3          	sub	s7,a3,a3
    8000091c:	01917ab3          	and	s5,sp,s9
    80000920:	5ad00393          	li	t2,1453
    80000924:	00100b13          	li	s6,1
    80000928:	ab8f6d03          	lwu	s10,-1352(t5)
    8000092c:	166e6263          	bltu	t3,t1,80000a90 <crash_forward>
    80000930:	000e0d93          	mv	s11,t3
    80000934:	01196733          	or	a4,s2,a7
    80000938:	03f51513          	slli	a0,a0,0x3f
    8000093c:	a1518093          	addi	ra,gp,-1515 # 80001925 <_end+0x215>
    80000940:	03fb1b13          	slli	s6,s6,0x3f
    80000944:	02738a33          	mul	s4,t2,t2
    80000948:	c9b086a3          	sb	s11,-883(ra)
    8000094c:	00000797          	auipc	a5,0x0
    80000950:	5ed78793          	addi	a5,a5,1517 # 80000f39 <test_end+0x495>
    80000954:	fff00813          	li	a6,-1
    80000958:	00a84833          	xor	a6,a6,a0
    8000095c:	000d8493          	mv	s1,s11
    80000960:	fff00593          	li	a1,-1
    80000964:	010e7633          	and	a2,t3,a6
    80000968:	00000697          	auipc	a3,0x0
    8000096c:	1cd68693          	addi	a3,a3,461 # 80000b35 <test_end+0x91>
    80000970:	7f36e883          	lwu	a7,2035(a3)
    80000974:	00001097          	auipc	ra,0x1
    80000978:	9bc08093          	addi	ra,ra,-1604 # 80001330 <test_memory+0x30>
    8000097c:	72779ca3          	sh	t2,1849(a5)
    80000980:	0165c5b3          	xor	a1,a1,s6
    80000984:	0075d333          	srl	t1,a1,t2
    80000988:	00a662b3          	or	t0,a2,a0
    8000098c:	00b2f9b3          	and	s3,t0,a1
    80000990:	e5700a13          	li	s4,-425
    80000994:	00100893          	li	a7,1
    80000998:	472fac03          	lw	s8,1138(t6)
    8000099c:	f6560663          	beq	a2,t0,80000108 <crash_backward>
    800009a0:	03f89893          	slli	a7,a7,0x3f
    800009a4:	00001a97          	auipc	s5,0x1
    800009a8:	8faa8a93          	addi	s5,s5,-1798 # 8000129e <reg_x19_output+0x6>
    800009ac:	00028913          	mv	s2,t0
    800009b0:	01686eb3          	or	t4,a6,s6
    800009b4:	00090e13          	mv	t3,s2
    800009b8:	4e600193          	li	gp,1254
    800009bc:	f5c94663          	blt	s2,t3,80000108 <crash_backward>
    800009c0:	fff00693          	li	a3,-1
    800009c4:	1ccabd23          	sd	a2,474(s5)
    800009c8:	00001b97          	auipc	s7,0x1
    800009cc:	b1bb8b93          	addi	s7,s7,-1253 # 800014e3 <test_memory+0x1e3>
    800009d0:	1480b203          	ld	tp,328(ra)
    800009d4:	0116c6b3          	xor	a3,a3,a7
    800009d8:	0afbdc83          	lhu	s9,175(s7)
    800009dc:	00001417          	auipc	s0,0x1
    800009e0:	c4e40413          	addi	s0,s0,-946 # 8000162a <test_memory+0x32a>
    800009e4:	00d4f133          	and	sp,s1,a3
    800009e8:	011b63b3          	or	t2,s6,a7
    800009ec:	023a673b          	remw	a4,s4,gp
    800009f0:	00000f17          	auipc	t5,0x0
    800009f4:	748f0f13          	addi	t5,t5,1864 # 80001138 <reg_x7_init>
    800009f8:	07440d03          	lb	s10,116(s0)
    800009fc:	0823da63          	bge	t2,sp,80000a90 <crash_forward>
    80000a00:	573f2023          	sw	s3,1376(t5)
    80000a04:	0040006f          	j	80000a08 <reg_dump>

0000000080000a08 <reg_dump>:
    80000a08:	00001097          	auipc	ra,0x1
    80000a0c:	cf808093          	addi	ra,ra,-776 # 80001700 <loop_count>
    80000a10:	0000a103          	lw	sp,0(ra)
    80000a14:	fff10193          	addi	gp,sp,-1
    80000a18:	0030a023          	sw	gp,0(ra)
    80000a1c:	f8011663          	bnez	sp,800001a8 <pseg_0>
    80000a20:	00000097          	auipc	ra,0x0
    80000a24:	7e008093          	addi	ra,ra,2016 # 80001200 <begin_signature>
    80000a28:	0000b023          	sd	zero,0(ra)
    80000a2c:	0020b823          	sd	sp,16(ra)
    80000a30:	0030bc23          	sd	gp,24(ra)
    80000a34:	0240b023          	sd	tp,32(ra)
    80000a38:	0250b423          	sd	t0,40(ra)
    80000a3c:	0260b823          	sd	t1,48(ra)
    80000a40:	0270bc23          	sd	t2,56(ra)
    80000a44:	0490b423          	sd	s1,72(ra)
    80000a48:	04a0b823          	sd	a0,80(ra)
    80000a4c:	04b0bc23          	sd	a1,88(ra)
    80000a50:	06c0b023          	sd	a2,96(ra)
    80000a54:	06d0b423          	sd	a3,104(ra)
    80000a58:	06e0b823          	sd	a4,112(ra)
    80000a5c:	0900b023          	sd	a6,128(ra)
    80000a60:	0910b423          	sd	a7,136(ra)
    80000a64:	0920b823          	sd	s2,144(ra)
    80000a68:	0930bc23          	sd	s3,152(ra)
    80000a6c:	0b40b023          	sd	s4,160(ra)
    80000a70:	0b60b823          	sd	s6,176(ra)
    80000a74:	0d80b023          	sd	s8,192(ra)
    80000a78:	0d90b423          	sd	s9,200(ra)
    80000a7c:	0da0b823          	sd	s10,208(ra)
    80000a80:	0db0bc23          	sd	s11,216(ra)
    80000a84:	0fc0b023          	sd	t3,224(ra)
    80000a88:	0fd0b423          	sd	t4,232(ra)
    80000a8c:	0180006f          	j	80000aa4 <test_end>

0000000080000a90 <crash_forward>:
    80000a90:	0ff0000f          	fence
    80000a94:	00018063          	beqz	gp,80000a94 <crash_forward+0x4>
    80000a98:	00119193          	slli	gp,gp,0x1
    80000a9c:	0011e193          	ori	gp,gp,1
    80000aa0:	00000073          	ecall

0000000080000aa4 <test_end>:
    80000aa4:	0ff0000f          	fence
    80000aa8:	00100193          	li	gp,1
    80000aac:	00000073          	ecall
    80000ab0:	c0001073          	unimp

Disassembly of section .tohost:

0000000080001000 <tohost>:
	...

0000000080001040 <fromhost>:
	...
