
test.elf:     file format elf64-littleriscv


Disassembly of section .text.init:

0000000080000000 <_start>:
    80000000:	0580006f          	j	80000058 <reset_vector>

0000000080000004 <trap_vector>:
    80000004:	34202f73          	csrr	t5,mcause
    80000008:	00800f93          	li	t6,8
    8000000c:	05ff0063          	beq	t5,t6,8000004c <write_tohost>
    80000010:	00900f93          	li	t6,9
    80000014:	03ff0c63          	beq	t5,t6,8000004c <write_tohost>
    80000018:	00b00f93          	li	t6,11
    8000001c:	03ff0863          	beq	t5,t6,8000004c <write_tohost>
    80000020:	00000f13          	li	t5,0
    80000024:	000f0463          	beqz	t5,8000002c <trap_vector+0x28>
    80000028:	000f0067          	jr	t5
    8000002c:	34202f73          	csrr	t5,mcause
    80000030:	000f5463          	bgez	t5,80000038 <handle_exception>
    80000034:	0140006f          	j	80000048 <other_exception>

0000000080000038 <handle_exception>:
    80000038:	34102e73          	csrr	t3,mepc
    8000003c:	004e0e13          	addi	t3,t3,4
    80000040:	341e1073          	csrw	mepc,t3
    80000044:	30200073          	mret

0000000080000048 <other_exception>:
    80000048:	5391e193          	ori	gp,gp,1337

000000008000004c <write_tohost>:
    8000004c:	00001f17          	auipc	t5,0x1
    80000050:	fa3f2a23          	sw	gp,-76(t5) # 80001000 <tohost>
    80000054:	ff9ff06f          	j	8000004c <write_tohost>

0000000080000058 <reset_vector>:
    80000058:	f1402573          	csrr	a0,mhartid
    8000005c:	00051063          	bnez	a0,8000005c <reset_vector+0x4>
    80000060:	00000297          	auipc	t0,0x0
    80000064:	01028293          	addi	t0,t0,16 # 80000070 <reset_vector+0x18>
    80000068:	30529073          	csrw	mtvec,t0
    8000006c:	18005073          	csrwi	satp,0
    80000070:	00000297          	auipc	t0,0x0
    80000074:	01c28293          	addi	t0,t0,28 # 8000008c <reset_vector+0x34>
    80000078:	30529073          	csrw	mtvec,t0
    8000007c:	fff00293          	li	t0,-1
    80000080:	3b029073          	csrw	pmpaddr0,t0
    80000084:	01f00293          	li	t0,31
    80000088:	3a029073          	csrw	pmpcfg0,t0
    8000008c:	00000297          	auipc	t0,0x0
    80000090:	01828293          	addi	t0,t0,24 # 800000a4 <reset_vector+0x4c>
    80000094:	30529073          	csrw	mtvec,t0
    80000098:	30205073          	csrwi	medeleg,0
    8000009c:	30305073          	csrwi	mideleg,0
    800000a0:	30405073          	csrwi	mie,0
    800000a4:	00000193          	li	gp,0
    800000a8:	00000297          	auipc	t0,0x0
    800000ac:	f5c28293          	addi	t0,t0,-164 # 80000004 <trap_vector>
    800000b0:	30529073          	csrw	mtvec,t0
    800000b4:	00100513          	li	a0,1
    800000b8:	01f51513          	slli	a0,a0,0x1f
    800000bc:	00055863          	bgez	a0,800000cc <reset_vector+0x74>
    800000c0:	0ff0000f          	fence
    800000c4:	00100193          	li	gp,1
    800000c8:	00000073          	ecall
    800000cc:	00000293          	li	t0,0
    800000d0:	00028e63          	beqz	t0,800000ec <reset_vector+0x94>
    800000d4:	10529073          	csrw	stvec,t0
    800000d8:	0000b2b7          	lui	t0,0xb
    800000dc:	1092829b          	addiw	t0,t0,265
    800000e0:	30229073          	csrw	medeleg,t0
    800000e4:	30202373          	csrr	t1,medeleg
    800000e8:	f66290e3          	bne	t0,t1,80000048 <other_exception>
    800000ec:	30005073          	csrwi	mstatus,0
    800000f0:	00000297          	auipc	t0,0x0
    800000f4:	01428293          	addi	t0,t0,20 # 80000104 <reset_vector+0xac>
    800000f8:	34129073          	csrw	mepc,t0
    800000fc:	f1402573          	csrr	a0,mhartid
    80000100:	30200073          	mret
    80000104:	0180006f          	j	8000011c <test_start>

0000000080000108 <crash_backward>:
    80000108:	0ff0000f          	fence
    8000010c:	00018063          	beqz	gp,8000010c <crash_backward+0x4>
    80000110:	00119193          	slli	gp,gp,0x1
    80000114:	0011e193          	ori	gp,gp,1
    80000118:	00000073          	ecall

000000008000011c <test_start>:
    8000011c:	00001f97          	auipc	t6,0x1
    80000120:	fe4f8f93          	addi	t6,t6,-28 # 80001100 <hidden_data>
    80000124:	000fb003          	ld	zero,0(t6)
    80000128:	008fb083          	ld	ra,8(t6)
    8000012c:	010fb103          	ld	sp,16(t6)
    80000130:	018fb183          	ld	gp,24(t6)
    80000134:	020fb203          	ld	tp,32(t6)
    80000138:	028fb283          	ld	t0,40(t6)
    8000013c:	030fb303          	ld	t1,48(t6)
    80000140:	038fb383          	ld	t2,56(t6)
    80000144:	040fb403          	ld	s0,64(t6)
    80000148:	048fb483          	ld	s1,72(t6)
    8000014c:	050fb503          	ld	a0,80(t6)
    80000150:	058fb583          	ld	a1,88(t6)
    80000154:	060fb603          	ld	a2,96(t6)
    80000158:	068fb683          	ld	a3,104(t6)
    8000015c:	070fb703          	ld	a4,112(t6)
    80000160:	078fb783          	ld	a5,120(t6)
    80000164:	080fb803          	ld	a6,128(t6)
    80000168:	088fb883          	ld	a7,136(t6)
    8000016c:	090fb903          	ld	s2,144(t6)
    80000170:	098fb983          	ld	s3,152(t6)
    80000174:	0a0fba03          	ld	s4,160(t6)
    80000178:	0a8fba83          	ld	s5,168(t6)
    8000017c:	0b0fbb03          	ld	s6,176(t6)
    80000180:	0b8fbb83          	ld	s7,184(t6)
    80000184:	0c0fbc03          	ld	s8,192(t6)
    80000188:	0c8fbc83          	ld	s9,200(t6)
    8000018c:	0d0fbd03          	ld	s10,208(t6)
    80000190:	0d8fbd83          	ld	s11,216(t6)
    80000194:	0e0fbe03          	ld	t3,224(t6)
    80000198:	0e8fbe83          	ld	t4,232(t6)
    8000019c:	0f0fbf03          	ld	t5,240(t6)
    800001a0:	0f8fbf83          	ld	t6,248(t6)
    800001a4:	0040006f          	j	800001a8 <pseg_0>

00000000800001a8 <pseg_0>:
    800001a8:	00001097          	auipc	ra,0x1
    800001ac:	07a08093          	addi	ra,ra,122 # 80001222 <reg_x4_output+0x2>
    800001b0:	a9718813          	addi	a6,gp,-1385 # 800019a7 <_end+0x297>
    800001b4:	00001c17          	auipc	s8,0x1
    800001b8:	20fc0c13          	addi	s8,s8,527 # 800013c3 <test_memory+0xc3>
    800001bc:	03450233          	mul	tp,a0,s4
    800001c0:	01625eb3          	srl	t4,tp,s6
    800001c4:	301c1c83          	lh	s9,769(s8)
    800001c8:	c6900893          	li	a7,-919
    800001cc:	79400193          	li	gp,1940
    800001d0:	f5c00f93          	li	t6,-164
    800001d4:	f1300393          	li	t2,-237
    800001d8:	02b5fdb3          	remu	s11,a1,a1
    800001dc:	d1688493          	addi	s1,a7,-746
    800001e0:	05d00793          	li	a5,93
    800001e4:	01fff2b3          	and	t0,t6,t6
    800001e8:	00f3de3b          	srlw	t3,t2,a5
    800001ec:	01bdc433          	xor	s0,s11,s11
    800001f0:	00001a97          	auipc	s5,0x1
    800001f4:	f81a8a93          	addi	s5,s5,-127 # 80001171 <reg_x14_init+0x1>
    800001f8:	68200713          	li	a4,1666
    800001fc:	39409923          	sh	s4,914(ra)
    80000200:	49a70313          	addi	t1,a4,1178
    80000204:	00001997          	auipc	s3,0x1
    80000208:	2ff98993          	addi	s3,s3,767 # 80001503 <test_memory+0x203>
    8000020c:	e52997a3          	sh	s2,-433(s3)
    80000210:	d1800913          	li	s2,-744
    80000214:	40318bb3          	sub	s7,gp,gp
    80000218:	1e1a9683          	lh	a3,481(s5)
    8000021c:	15700c93          	li	s9,343
    80000220:	00001f17          	auipc	t5,0x1
    80000224:	08bf0f13          	addi	t5,t5,139 # 800012ab <reg_x21_output+0x3>
    80000228:	00100b13          	li	s6,1
    8000022c:	00a0b133          	sltu	sp,ra,a0
    80000230:	00000d13          	li	s10,0
    80000234:	412905bb          	subw	a1,s2,s2
    80000238:	c7f85603          	lhu	a2,-897(a6)
    8000023c:	7a675a63          	bge	a4,t1,800009f0 <crash_forward>
    80000240:	00000a13          	li	s4,0
    80000244:	a9700313          	li	t1,-1385
    80000248:	00001f97          	auipc	t6,0x1
    8000024c:	00cf8f93          	addi	t6,t6,12 # 80001254 <reg_x10_output+0x4>
    80000250:	7c500293          	li	t0,1989
    80000254:	019c9db3          	sll	s11,s9,s9
    80000258:	00000093          	li	ra,0
    8000025c:	00001417          	auipc	s0,0x1
    80000260:	2a340413          	addi	s0,s0,675 # 800014ff <test_memory+0x1ff>
    80000264:	044411a3          	sh	tp,67(s0)
    80000268:	145f5503          	lhu	a0,325(t5)
    8000026c:	d8718613          	addi	a2,gp,-633 # 80001c97 <_end+0x587>
    80000270:	00000493          	li	s1,0
    80000274:	cf500193          	li	gp,-779
    80000278:	e7c30693          	addi	a3,t1,-388
    8000027c:	91b18a93          	addi	s5,gp,-1765 # 8000182b <_end+0x11b>
    80000280:	0221043b          	mulw	s0,sp,sp
    80000284:	ac318b93          	addi	s7,gp,-1341 # 800019d3 <_end+0x2c3>
    80000288:	b09ae383          	lwu	t2,-1271(s5)
    8000028c:	82762ea3          	sw	t2,-1987(a2)
    80000290:	a65be103          	lwu	sp,-1435(s7)
    80000294:	0052c7b3          	xor	a5,t0,t0
    80000298:	b2700e13          	li	t3,-1241
    8000029c:	280fe903          	lwu	s2,640(t6)
    800002a0:	d4600813          	li	a6,-698
    800002a4:	c8b00293          	li	t0,-885
    800002a8:	02f7ddbb          	divuw	s11,a5,a5
    800002ac:	010878b3          	and	a7,a6,a6
    800002b0:	71c00f13          	li	t5,1820
    800002b4:	606f0313          	addi	t1,t5,1542
    800002b8:	00001097          	auipc	ra,0x1
    800002bc:	c1f08093          	addi	ra,ra,-993 # 80000ed7 <test_end+0x4d3>
    800002c0:	0329053b          	mulw	a0,s2,s2
    800002c4:	00000c93          	li	s9,0
    800002c8:	5a109a83          	lh	s5,1441(ra)
    800002cc:	a9e00113          	li	sp,-1378
    800002d0:	3d900993          	li	s3,985
    800002d4:	0022b4b3          	sltu	s1,t0,sp
    800002d8:	41ce573b          	sraw	a4,t3,t3
    800002dc:	60500813          	li	a6,1541
    800002e0:	0f300913          	li	s2,243
    800002e4:	9f418593          	addi	a1,gp,-1548 # 80001904 <_end+0x1f4>
    800002e8:	00001617          	auipc	a2,0x1
    800002ec:	1eb60613          	addi	a2,a2,491 # 800014d3 <test_memory+0x1d3>
    800002f0:	d2000413          	li	s0,-736
    800002f4:	e0b1cae3          	blt	gp,a1,80000108 <crash_backward>
    800002f8:	0353d593          	srli	a1,t2,0x35
    800002fc:	00000693          	li	a3,0
    80000300:	12d62b83          	lw	s7,301(a2)
    80000304:	028470b3          	remu	ra,s0,s0
    80000308:	01282db3          	slt	s11,a6,s2
    8000030c:	6cf00d13          	li	s10,1743
    80000310:	6bf00393          	li	t2,1727
    80000314:	a5e18313          	addi	t1,gp,-1442 # 8000196e <_end+0x25e>
    80000318:	e3a00e13          	li	t3,-454
    8000031c:	dac00113          	li	sp,-596
    80000320:	3c97a893          	slti	a7,a5,969
    80000324:	00211bbb          	sllw	s7,sp,sp
    80000328:	dedc90e3          	bne	s9,a3,80000108 <crash_backward>
    8000032c:	00001497          	auipc	s1,0x1
    80000330:	a9548493          	addi	s1,s1,-1387 # 80000dc1 <test_end+0x3bd>
    80000334:	03fb1b13          	slli	s6,s6,0x3f
    80000338:	91818593          	addi	a1,gp,-1768 # 80001828 <_end+0x118>
    8000033c:	87d00813          	li	a6,-1923
    80000340:	00100f93          	li	t6,1
    80000344:	007387b3          	add	a5,t2,t2
    80000348:	6d448703          	lb	a4,1748(s1)
    8000034c:	00001097          	auipc	ra,0x1
    80000350:	9a808093          	addi	ra,ra,-1624 # 80000cf4 <test_end+0x2f0>
    80000354:	00001417          	auipc	s0,0x1
    80000358:	0f640413          	addi	s0,s0,246 # 8000144a <test_memory+0x14a>
    8000035c:	a4700293          	li	t0,-1465
    80000360:	03ff9f93          	slli	t6,t6,0x3f
    80000364:	b7c31e23          	sh	t3,-1156(t1)
    80000368:	68009323          	sh	zero,1670(ra)
    8000036c:	03a99a33          	mulh	s4,s3,s10
    80000370:	0b943723          	sd	s9,174(s0)
    80000374:	005e61b3          	or	gp,t3,t0
    80000378:	00001617          	auipc	a2,0x1
    8000037c:	9b560613          	addi	a2,a2,-1611 # 80000d2d <test_end+0x329>
    80000380:	fff00513          	li	a0,-1
    80000384:	41080db3          	sub	s11,a6,a6
    80000388:	fff00e93          	li	t4,-1
    8000038c:	016eceb3          	xor	t4,t4,s6
    80000390:	01defc33          	and	s8,t4,t4
    80000394:	01f54533          	xor	a0,a0,t6
    80000398:	7be60d23          	sb	t5,1978(a2)
    8000039c:	00a67f33          	and	t5,a2,a0
    800003a0:	01ff6ab3          	or	s5,t5,t6
    800003a4:	cbc5e903          	lwu	s2,-836(a1)
    800003a8:	016c6233          	or	tp,s8,s6
    800003ac:	655f0263          	beq	t5,s5,800009f0 <crash_forward>
    800003b0:	c7500b13          	li	s6,-907
    800003b4:	a37b0d93          	addi	s11,s6,-1481
    800003b8:	00100913          	li	s2,1
    800003bc:	03f91913          	slli	s2,s2,0x3f
    800003c0:	fff00493          	li	s1,-1
    800003c4:	0124c4b3          	xor	s1,s1,s2
    800003c8:	08f00b13          	li	s6,143
    800003cc:	00100893          	li	a7,1
    800003d0:	00001217          	auipc	tp,0x1
    800003d4:	d9a20213          	addi	tp,tp,-614 # 8000116a <reg_x13_init+0x2>
    800003d8:	001f4733          	xor	a4,t5,ra
    800003dc:	00001397          	auipc	t2,0x1
    800003e0:	e2338393          	addi	t2,t2,-477 # 800011ff <reg_x31_init+0x7>
    800003e4:	87400693          	li	a3,-1932
    800003e8:	03f89893          	slli	a7,a7,0x3f
    800003ec:	00001a17          	auipc	s4,0x1
    800003f0:	97aa0a13          	addi	s4,s4,-1670 # 80000d66 <test_end+0x362>
    800003f4:	fff00f13          	li	t5,-1
    800003f8:	42622f83          	lw	t6,1062(tp) # 426 <_start-0x7ffffbda>
    800003fc:	57800113          	li	sp,1400
    80000400:	009b7c33          	and	s8,s6,s1
    80000404:	0125e2b3          	or	t0,a1,s2
    80000408:	00001997          	auipc	s3,0x1
    8000040c:	34298993          	addi	s3,s3,834 # 8000174a <_end+0x3a>
    80000410:	4a5b0a93          	addi	s5,s6,1189
    80000414:	7b5a0ca3          	sb	s5,1977(s4)
    80000418:	2b13b183          	ld	gp,689(t2)
    8000041c:	00001597          	auipc	a1,0x1
    80000420:	db558593          	addi	a1,a1,-587 # 800011d1 <reg_x26_init+0x1>
    80000424:	eaa9e803          	lwu	a6,-342(s3)
    80000428:	0226c7b3          	div	a5,a3,sp
    8000042c:	0f400193          	li	gp,244
    80000430:	00001217          	auipc	tp,0x1
    80000434:	ba420213          	addi	tp,tp,-1116 # 80000fd4 <test_end+0x5d0>
    80000438:	02118393          	addi	t2,gp,33 # 80001f31 <__global_pointer$+0x21>
    8000043c:	41359c83          	lh	s9,1043(a1)
    80000440:	ca818e13          	addi	t3,gp,-856 # 80001bb8 <_end+0x4a8>
    80000444:	000b8613          	mv	a2,s7
    80000448:	9e4e0303          	lb	t1,-1564(t3)
    8000044c:	011f4f33          	xor	t5,t5,a7
    80000450:	00060e93          	mv	t4,a2
    80000454:	cb5b0ae3          	beq	s6,s5,80000108 <crash_backward>
    80000458:	01e77533          	and	a0,a4,t5
    8000045c:	01792d37          	lui	s10,0x1792
    80000460:	0db00593          	li	a1,219
    80000464:	5fe58c93          	addi	s9,a1,1534
    80000468:	007a1333          	sll	t1,s4,t2
    8000046c:	90418b93          	addi	s7,gp,-1788 # 80001814 <_end+0x104>
    80000470:	00001117          	auipc	sp,0x1
    80000474:	dc210113          	addi	sp,sp,-574 # 80001232 <reg_x6_output+0x2>
    80000478:	aba00993          	li	s3,-1350
    8000047c:	e4cbba83          	ld	s5,-436(s7)
    80000480:	46a00093          	li	ra,1130
    80000484:	be018c13          	addi	s8,gp,-1056 # 80001af0 <_end+0x3e0>
    80000488:	37900b13          	li	s6,889
    8000048c:	1ab00193          	li	gp,427
    80000490:	6af23623          	sd	a5,1708(tp) # 6ac <_start-0x7ffff954>
    80000494:	ad418d13          	addi	s10,gp,-1324 # 800019e4 <_end+0x2d4>
    80000498:	01156433          	or	s0,a0,a7
    8000049c:	c7ed1423          	sh	t5,-920(s10) # 1791c68 <_start-0x7e86e398>
    800004a0:	d8900813          	li	a6,-631
    800004a4:	05d00793          	li	a5,93
    800004a8:	00001b97          	auipc	s7,0x1
    800004ac:	2ddb8b93          	addi	s7,s7,733 # 80001785 <_end+0x75>
    800004b0:	03609db3          	mulh	s11,ra,s6
    800004b4:	95e18a13          	addi	s4,gp,-1698 # 8000186e <_end+0x15e>
    800004b8:	40f25d33          	sra	s10,tp,a5
    800004bc:	1d411e03          	lh	t3,468(sp)
    800004c0:	cc0a2123          	sw	zero,-830(s4)
    800004c4:	ec7ba383          	lw	t2,-313(s7)
    800004c8:	00001097          	auipc	ra,0x1
    800004cc:	c9f08093          	addi	ra,ra,-865 # 80001167 <reg_x12_init+0x7>
    800004d0:	00001e97          	auipc	t4,0x1
    800004d4:	bede8e93          	addi	t4,t4,-1043 # 800010bd <fromhost+0x7d>
    800004d8:	224aa213          	slti	tp,s5,548
    800004dc:	00001d17          	auipc	s10,0x1
    800004e0:	9f7d0d13          	addi	s10,s10,-1545 # 80000ed3 <test_end+0x4cf>
    800004e4:	a6900393          	li	t2,-1431
    800004e8:	13900413          	li	s0,313
    800004ec:	00001597          	auipc	a1,0x1
    800004f0:	cc258593          	addi	a1,a1,-830 # 800011ae <reg_x21_init+0x6>
    800004f4:	010996bb          	sllw	a3,s3,a6
    800004f8:	00100493          	li	s1,1
    800004fc:	56feda83          	lhu	s5,1391(t4)
    80000500:	00001d97          	auipc	s11,0x1
    80000504:	91cd8d93          	addi	s11,s11,-1764 # 80000e1c <test_end+0x418>
    80000508:	a40c3903          	ld	s2,-1472(s8)
    8000050c:	00318333          	add	t1,gp,gp
    80000510:	27700513          	li	a0,631
    80000514:	377ee237          	lui	tp,0x377ee
    80000518:	6f8d9c83          	lh	s9,1784(s11)
    8000051c:	5c5d2b83          	lw	s7,1477(s10)
    80000520:	00a53b33          	sltu	s6,a0,a0
    80000524:	95518113          	addi	sp,gp,-1707 # 80001865 <_end+0x155>
    80000528:	0094f533          	and	a0,s1,s1
    8000052c:	02630333          	mul	t1,t1,t1
    80000530:	2fe5a523          	sw	t5,746(a1)
    80000534:	40f00f33          	neg	t5,a5
    80000538:	00f7b633          	sltu	a2,a5,a5
    8000053c:	68600993          	li	s3,1670
    80000540:	00f1823b          	addw	tp,gp,a5
    80000544:	4a90b883          	ld	a7,1193(ra)
    80000548:	00001e97          	auipc	t4,0x1
    8000054c:	db5e8e93          	addi	t4,t4,-587 # 800012fd <reg_x31_output+0x5>
    80000550:	dbc135a3          	sd	t3,-597(sp)
    80000554:	1e7eea03          	lwu	s4,487(t4)
    80000558:	0283ce33          	div	t3,t2,s0
    8000055c:	5cd45c37          	lui	s8,0x5cd45
    80000560:	93618913          	addi	s2,gp,-1738 # 80001846 <_end+0x136>
    80000564:	8f300693          	li	a3,-1805
    80000568:	48001463          	bnez	zero,800009f0 <crash_forward>
    8000056c:	03f49493          	slli	s1,s1,0x3f
    80000570:	00000097          	auipc	ra,0x0
    80000574:	7ca08093          	addi	ra,ra,1994 # 80000d3a <test_end+0x336>
    80000578:	0139bf33          	sltu	t5,s3,s3
    8000057c:	00001a17          	auipc	s4,0x1
    80000580:	cf1a0a13          	addi	s4,s4,-783 # 8000126d <reg_x13_output+0x5>
    80000584:	00001d17          	auipc	s10,0x1
    80000588:	f14d0d13          	addi	s10,s10,-236 # 80001498 <test_memory+0x198>
    8000058c:	01fc2233          	slt	tp,s8,t6
    80000590:	fff00713          	li	a4,-1
    80000594:	00001417          	auipc	s0,0x1
    80000598:	1de40413          	addi	s0,s0,478 # 80001772 <_end+0x62>
    8000059c:	00d9883b          	addw	a6,s3,a3
    800005a0:	00974733          	xor	a4,a4,s1
    800005a4:	e3e40583          	lb	a1,-450(s0)
    800005a8:	00001517          	auipc	a0,0x1
    800005ac:	13b50513          	addi	a0,a0,315 # 800016e3 <test_memory+0x3e3>
    800005b0:	00001397          	auipc	t2,0x1
    800005b4:	bbc38393          	addi	t2,t2,-1092 # 8000116c <reg_x13_init+0x4>
    800005b8:	00001b97          	auipc	s7,0x1
    800005bc:	8dab8b93          	addi	s7,s7,-1830 # 80000e92 <test_end+0x48e>
    800005c0:	7e60be83          	ld	t4,2022(ra)
    800005c4:	db296a83          	lwu	s5,-590(s2)
    800005c8:	88400e13          	li	t3,-1916
    800005cc:	00ee72b3          	and	t0,t3,a4
    800005d0:	ec5978b7          	lui	a7,0xec597
    800005d4:	f11520a3          	sw	a7,-255(a0)
    800005d8:	41ce51b3          	sra	gp,t3,t3
    800005dc:	d8b00d93          	li	s11,-629
    800005e0:	00088893          	mv	a7,a7
    800005e4:	010906b3          	add	a3,s2,a6
    800005e8:	00001097          	auipc	ra,0x1
    800005ec:	02f08093          	addi	ra,ra,47 # 80001617 <test_memory+0x317>
    800005f0:	4243ec03          	lwu	s8,1060(t2)
    800005f4:	18b00613          	li	a2,395
    800005f8:	e400aea3          	sw	zero,-419(ra)
    800005fc:	59600e93          	li	t4,1430
    80000600:	c8d00c93          	li	s9,-883
    80000604:	0092efb3          	or	t6,t0,s1
    80000608:	9f900413          	li	s0,-1543
    8000060c:	22fa39a3          	sd	a5,563(s4)
    80000610:	01c0d5b3          	srl	a1,ra,t3
    80000614:	03d66f3b          	remw	t5,a2,t4
    80000618:	038c1a33          	mulh	s4,s8,s8
    8000061c:	a873ee13          	ori	t3,t2,-1401
    80000620:	00000f17          	auipc	t5,0x0
    80000624:	7d3f0f13          	addi	t5,t5,2003 # 80000df3 <test_end+0x3ef>
    80000628:	017bc5b3          	xor	a1,s7,s7
    8000062c:	a6fa96b7          	lui	a3,0xa6fa9
    80000630:	00088813          	mv	a6,a7
    80000634:	f9e00113          	li	sp,-98
    80000638:	03bdbb33          	mulhu	s6,s11,s11
    8000063c:	14cd4303          	lbu	t1,332(s10)
    80000640:	6ffb8fa3          	sb	t6,1791(s7)
    80000644:	00001197          	auipc	gp,0x1
    80000648:	9b418193          	addi	gp,gp,-1612 # 80000ff8 <test_end+0x5f4>
    8000064c:	abf2fee3          	bgeu	t0,t6,80000108 <crash_backward>
    80000650:	00001e97          	auipc	t4,0x1
    80000654:	a82e8e93          	addi	t4,t4,-1406 # 800010d2 <fromhost+0x92>
    80000658:	4c0e8ba3          	sb	zero,1239(t4)
    8000065c:	00000917          	auipc	s2,0x0
    80000660:	6c090913          	addi	s2,s2,1728 # 80000d1c <test_end+0x318>
    80000664:	00001a97          	auipc	s5,0x1
    80000668:	8e7a8a93          	addi	s5,s5,-1817 # 80000f4b <test_end+0x547>
    8000066c:	a4300213          	li	tp,-1469
    80000670:	00001597          	auipc	a1,0x1
    80000674:	9b858593          	addi	a1,a1,-1608 # 80001028 <tohost+0x28>
    80000678:	024479bb          	remuw	s3,s0,tp
    8000067c:	402c87b3          	sub	a5,s9,sp
    80000680:	69bf1603          	lh	a2,1691(t5)
    80000684:	44518083          	lb	ra,1093(gp) # 80002355 <__global_pointer$+0x445>
    80000688:	00001a17          	auipc	s4,0x1
    8000068c:	b86a0a13          	addi	s4,s4,-1146 # 8000120e <reg_x1_output+0x6>
    80000690:	4eda98a3          	sh	a3,1265(s5)
    80000694:	3aca0123          	sb	a2,930(s4)
    80000698:	5885b683          	ld	a3,1416(a1)
    8000069c:	6c693623          	sd	t1,1740(s2)
    800006a0:	a7800993          	li	s3,-1416
    800006a4:	00001397          	auipc	t2,0x1
    800006a8:	e6c38393          	addi	t2,t2,-404 # 80001510 <test_memory+0x210>
    800006ac:	eb118693          	addi	a3,gp,-335 # 80001dc1 <_end+0x6b1>
    800006b0:	41ad5b33          	sra	s6,s10,s10
    800006b4:	c5f18c93          	addi	s9,gp,-929 # 80001b6f <_end+0x45f>
    800006b8:	3cb00e93          	li	t4,971
    800006bc:	34400413          	li	s0,836
    800006c0:	5bb40493          	addi	s1,s0,1467
    800006c4:	2fc00793          	li	a5,764
    800006c8:	80169883          	lh	a7,-2047(a3) # ffffffffa6fa8801 <__global_pointer$+0xffffffff26fa68f1>
    800006cc:	a2006ee3          	bltu	zero,zero,80000108 <crash_backward>
    800006d0:	fde00093          	li	ra,-34
    800006d4:	35a00113          	li	sp,858
    800006d8:	00001197          	auipc	gp,0x1
    800006dc:	9d218193          	addi	gp,gp,-1582 # 800010aa <fromhost+0x6a>
    800006e0:	00100e13          	li	t3,1
    800006e4:	a2018d93          	addi	s11,gp,-1504 # 80001930 <_end+0x220>
    800006e8:	b84d84a3          	sb	tp,-1143(s11)
    800006ec:	8a4cc283          	lbu	t0,-1884(s9)
    800006f0:	00fe9a3b          	sllw	s4,t4,a5
    800006f4:	89400d13          	li	s10,-1900
    800006f8:	000b8593          	mv	a1,s7
    800006fc:	2f200f93          	li	t6,754
    80000700:	00c97c33          	and	s8,s2,a2
    80000704:	1a03b303          	ld	t1,416(t2)
    80000708:	0210893b          	mulw	s2,ra,ra
    8000070c:	37018323          	sb	a6,870(gp) # 80002276 <__global_pointer$+0x366>
    80000710:	01fd023b          	addw	tp,s10,t6
    80000714:	00000617          	auipc	a2,0x0
    80000718:	71960613          	addi	a2,a2,1817 # 80000e2d <test_end+0x429>
    8000071c:	4029d83b          	sraw	a6,s3,sp
    80000720:	00050493          	mv	s1,a0
    80000724:	00000c13          	li	s8,0
    80000728:	00001117          	auipc	sp,0x1
    8000072c:	8a510113          	addi	sp,sp,-1883 # 80000fcd <test_end+0x5c9>
    80000730:	72b61b83          	lh	s7,1835(a2)
    80000734:	00000693          	li	a3,0
    80000738:	00068913          	mv	s2,a3
    8000073c:	00000093          	li	ra,0
    80000740:	00100793          	li	a5,1
    80000744:	536131a3          	sd	s6,1315(sp)
    80000748:	03fe1e13          	slli	t3,t3,0x3f
    8000074c:	03f79793          	slli	a5,a5,0x3f
    80000750:	013988bb          	addw	a7,s3,s3
    80000754:	00048f93          	mv	t6,s1
    80000758:	fff00a93          	li	s5,-1
    8000075c:	ea100193          	li	gp,-351
    80000760:	f3e18813          	addi	a6,gp,-194 # 80001e4e <_end+0x73e>
    80000764:	01cacab3          	xor	s5,s5,t3
    80000768:	00058513          	mv	a0,a1
    8000076c:	00e75db3          	srl	s11,a4,a4
    80000770:	01577733          	and	a4,a4,s5
    80000774:	82e82983          	lw	s3,-2002(a6)
    80000778:	01c76f33          	or	t5,a4,t3
    8000077c:	d6418d13          	addi	s10,gp,-668 # 80001c74 <_end+0x564>
    80000780:	028458b3          	divu	a7,s0,s0
    80000784:	00100a13          	li	s4,1
    80000788:	99e740e3          	blt	a4,t5,80000108 <crash_backward>
    8000078c:	03fa1a13          	slli	s4,s4,0x3f
    80000790:	c0e00413          	li	s0,-1010
    80000794:	00028113          	mv	sp,t0
    80000798:	963d58e3          	bge	s10,gp,80000108 <crash_backward>
    8000079c:	24a5ea63          	bltu	a1,a0,800009f0 <crash_forward>
    800007a0:	00845233          	srl	tp,s0,s0
    800007a4:	fff00b13          	li	s6,-1
    800007a8:	00001617          	auipc	a2,0x1
    800007ac:	a4660613          	addi	a2,a2,-1466 # 800011ee <reg_x29_init+0x6>
    800007b0:	17163d23          	sd	a7,378(a2)
    800007b4:	00010493          	mv	s1,sp
    800007b8:	00001417          	auipc	s0,0x1
    800007bc:	c1840413          	addi	s0,s0,-1000 # 800013d0 <test_memory+0xd0>
    800007c0:	9c318d13          	addi	s10,gp,-1597 # 800018d3 <_end+0x1c3>
    800007c4:	014b4b33          	xor	s6,s6,s4
    800007c8:	0cc46f03          	lwu	t5,204(s0)
    800007cc:	016bf3b3          	and	t2,s7,s6
    800007d0:	92916ce3          	bltu	sp,s1,80000108 <crash_backward>
    800007d4:	005289b3          	add	s3,t0,t0
    800007d8:	02a544b3          	div	s1,a0,a0
    800007dc:	d12d0703          	lb	a4,-750(s10)
    800007e0:	0143e2b3          	or	t0,t2,s4
    800007e4:	eda00213          	li	tp,-294
    800007e8:	bf020f93          	addi	t6,tp,-1040 # 377edbf0 <_start-0x48812410>
    800007ec:	1fc00193          	li	gp,508
    800007f0:	00001897          	auipc	a7,0x1
    800007f4:	de188893          	addi	a7,a7,-543 # 800015d1 <test_memory+0x2d1>
    800007f8:	00001c17          	auipc	s8,0x1
    800007fc:	81bc0c13          	addi	s8,s8,-2021 # 80001013 <tohost+0x13>
    80000800:	f3e88483          	lb	s1,-194(a7)
    80000804:	e1900413          	li	s0,-487
    80000808:	cdd00093          	li	ra,-803
    8000080c:	1e538263          	beq	t2,t0,800009f0 <crash_forward>
    80000810:	86e40113          	addi	sp,s0,-1938
    80000814:	fff00c93          	li	s9,-1
    80000818:	023185bb          	mulw	a1,gp,gp
    8000081c:	0d800e13          	li	t3,216
    80000820:	3ddc3503          	ld	a0,989(s8)
    80000824:	e2900813          	li	a6,-471
    80000828:	08900993          	li	s3,137
    8000082c:	03008abb          	mulw	s5,ra,a6
    80000830:	5e598f13          	addi	t5,s3,1509
    80000834:	1a4fde63          	bge	t6,tp,800009f0 <crash_forward>
    80000838:	00fcccb3          	xor	s9,s9,a5
    8000083c:	019dfeb3          	and	t4,s11,s9
    80000840:	013a01bb          	addw	gp,s4,s3
    80000844:	027130b3          	mulhu	ra,sp,t2
    80000848:	00f7e333          	or	t1,a5,a5
    8000084c:	00100593          	li	a1,1
    80000850:	bc418293          	addi	t0,gp,-1084 # 80001ad4 <_end+0x3c4>
    80000854:	00001817          	auipc	a6,0x1
    80000858:	c2380813          	addi	a6,a6,-989 # 80001477 <test_memory+0x177>
    8000085c:	8be986e3          	beq	s3,t5,80000108 <crash_backward>
    80000860:	97900a13          	li	s4,-1671
    80000864:	00100913          	li	s2,1
    80000868:	e44a0113          	addi	sp,s4,-444
    8000086c:	33f00893          	li	a7,831
    80000870:	8e400b13          	li	s6,-1820
    80000874:	03f91913          	slli	s2,s2,0x3f
    80000878:	fff00693          	li	a3,-1
    8000087c:	162a6a63          	bltu	s4,sp,800009f0 <crash_forward>
    80000880:	035ae0b3          	rem	ra,s5,s5
    80000884:	038c753b          	remuw	a0,s8,s8
    80000888:	0368f73b          	remuw	a4,a7,s6
    8000088c:	b362da83          	lhu	s5,-1226(t0)
    80000890:	187818a3          	sh	t2,401(a6)
    80000894:	0126c6b3          	xor	a3,a3,s2
    80000898:	01fff3b3          	and	t2,t6,t6
    8000089c:	03ce3633          	mulhu	a2,t3,t3
    800008a0:	00d9fbb3          	and	s7,s3,a3
    800008a4:	9b000413          	li	s0,-1616
    800008a8:	03f59593          	slli	a1,a1,0x3f
    800008ac:	012bedb3          	or	s11,s7,s2
    800008b0:	146ec063          	blt	t4,t1,800009f0 <crash_forward>
    800008b4:	a8918713          	addi	a4,gp,-1399 # 80001999 <_end+0x289>
    800008b8:	00d6b333          	sltu	t1,a3,a3
    800008bc:	00030c93          	mv	s9,t1
    800008c0:	87918e13          	addi	t3,gp,-1927 # 80001789 <_end+0x79>
    800008c4:	00001b17          	auipc	s6,0x1
    800008c8:	a86b0b13          	addi	s6,s6,-1402 # 8000134a <test_memory+0x4a>
    800008cc:	c5800d13          	li	s10,-936
    800008d0:	c2318293          	addi	t0,gp,-989 # 80001b33 <_end+0x423>
    800008d4:	b712e103          	lwu	sp,-1167(t0)
    800008d8:	8bc00a13          	li	s4,-1860
    800008dc:	00001897          	auipc	a7,0x1
    800008e0:	96388893          	addi	a7,a7,-1693 # 8000123f <reg_x7_output+0x7>
    800008e4:	032ed7b3          	divu	a5,t4,s2
    800008e8:	00100393          	li	t2,1
    800008ec:	03a4623b          	remw	tp,s0,s10
    800008f0:	c4f71503          	lh	a0,-945(a4)
    800008f4:	3b78a6a3          	sw	s7,941(a7)
    800008f8:	a8800813          	li	a6,-1400
    800008fc:	000c8193          	mv	gp,s9
    80000900:	030a40b3          	div	ra,s4,a6
    80000904:	03f39393          	slli	t2,t2,0x3f
    80000908:	803c90e3          	bne	s9,gp,80000108 <crash_backward>
    8000090c:	00217bb3          	and	s7,sp,sp
    80000910:	fb100313          	li	t1,-79
    80000914:	00000817          	auipc	a6,0x0
    80000918:	5bb80813          	addi	a6,a6,1467 # 80000ecf <test_end+0x4cb>
    8000091c:	75183c83          	ld	s9,1873(a6)
    80000920:	00cd01bb          	addw	gp,s10,a2
    80000924:	fff00c13          	li	s8,-1
    80000928:	176b5f03          	lhu	t5,374(s6)
    8000092c:	00636133          	or	sp,t1,t1
    80000930:	f4300793          	li	a5,-189
    80000934:	fff00993          	li	s3,-1
    80000938:	00058913          	mv	s2,a1
    8000093c:	00090e93          	mv	t4,s2
    80000940:	00bc4c33          	xor	s8,s8,a1
    80000944:	0079c9b3          	xor	s3,s3,t2
    80000948:	cdb00d93          	li	s11,-805
    8000094c:	01b786bb          	addw	a3,a5,s11
    80000950:	0139f633          	and	a2,s3,s3
    80000954:	018affb3          	and	t6,s5,s8
    80000958:	00766ab3          	or	s5,a2,t2
    8000095c:	00bfe4b3          	or	s1,t6,a1
    80000960:	0040006f          	j	80000964 <reg_dump>

0000000080000964 <reg_dump>:
    80000964:	00001097          	auipc	ra,0x1
    80000968:	d9c08093          	addi	ra,ra,-612 # 80001700 <loop_count>
    8000096c:	0000a103          	lw	sp,0(ra)
    80000970:	fff10193          	addi	gp,sp,-1
    80000974:	0030a023          	sw	gp,0(ra)
    80000978:	820118e3          	bnez	sp,800001a8 <pseg_0>
    8000097c:	00001097          	auipc	ra,0x1
    80000980:	88408093          	addi	ra,ra,-1916 # 80001200 <begin_signature>
    80000984:	0000b023          	sd	zero,0(ra)
    80000988:	0020b823          	sd	sp,16(ra)
    8000098c:	0030bc23          	sd	gp,24(ra)
    80000990:	0240b023          	sd	tp,32(ra)
    80000994:	0260b823          	sd	t1,48(ra)
    80000998:	0270bc23          	sd	t2,56(ra)
    8000099c:	0480b023          	sd	s0,64(ra)
    800009a0:	0490b423          	sd	s1,72(ra)
    800009a4:	04a0b823          	sd	a0,80(ra)
    800009a8:	04b0bc23          	sd	a1,88(ra)
    800009ac:	06c0b023          	sd	a2,96(ra)
    800009b0:	06d0b423          	sd	a3,104(ra)
    800009b4:	06f0bc23          	sd	a5,120(ra)
    800009b8:	0920b823          	sd	s2,144(ra)
    800009bc:	0930bc23          	sd	s3,152(ra)
    800009c0:	0b40b023          	sd	s4,160(ra)
    800009c4:	0b50b423          	sd	s5,168(ra)
    800009c8:	0b70bc23          	sd	s7,184(ra)
    800009cc:	0d80b023          	sd	s8,192(ra)
    800009d0:	0d90b423          	sd	s9,200(ra)
    800009d4:	0da0b823          	sd	s10,208(ra)
    800009d8:	0db0bc23          	sd	s11,216(ra)
    800009dc:	0fc0b023          	sd	t3,224(ra)
    800009e0:	0fd0b423          	sd	t4,232(ra)
    800009e4:	0fe0b823          	sd	t5,240(ra)
    800009e8:	0ff0bc23          	sd	t6,248(ra)
    800009ec:	0180006f          	j	80000a04 <test_end>

00000000800009f0 <crash_forward>:
    800009f0:	0ff0000f          	fence
    800009f4:	00018063          	beqz	gp,800009f4 <crash_forward+0x4>
    800009f8:	00119193          	slli	gp,gp,0x1
    800009fc:	0011e193          	ori	gp,gp,1
    80000a00:	00000073          	ecall

0000000080000a04 <test_end>:
    80000a04:	0ff0000f          	fence
    80000a08:	00100193          	li	gp,1
    80000a0c:	00000073          	ecall
    80000a10:	c0001073          	unimp
	...

Disassembly of section .tohost:

0000000080001000 <tohost>:
	...

0000000080001040 <fromhost>:
	...

Disassembly of section .data:

0000000080001100 <hidden_data>:
    80001100:	34ce5c47          	0x34ce5c47
    80001104:	8265                	srli	a2,a2,0x19
    80001106:	2cc0                	fld	fs0,152(s1)

0000000080001108 <reg_x1_init>:
    80001108:	8008                	0x8008
    8000110a:	ffff                	0xffff
    8000110c:	ffff                	0xffff
    8000110e:	ffff                	0xffff

0000000080001110 <reg_x2_init>:
    80001110:	86f9                	srai	a3,a3,0x1e
    80001112:	a805                	j	80001142 <reg_x8_init+0x2>
    80001114:	dece8bd3          	0xdece8bd3

0000000080001118 <reg_x3_init>:
    80001118:	c9fc                	sw	a5,84(a1)
    8000111a:	15d8f7bb          	0x15d8f7bb
    8000111e:	212a                	fld	ft2,136(sp)

0000000080001120 <reg_x4_init>:
    80001120:	3997e7db          	0x3997e7db
    80001124:	f256                	sd	s5,288(sp)
    80001126:	eb08                	sd	a0,16(a4)

0000000080001128 <reg_x5_init>:
    80001128:	ffff                	0xffff
    8000112a:	ffff                	0xffff
    8000112c:	ffff                	0xffff
    8000112e:	ffff                	0xffff

0000000080001130 <reg_x6_init>:
    80001130:	d46250ab          	0xd46250ab
    80001134:	3018                	fld	fa4,32(s0)
    80001136:	          	lui	s2,0x3f

0000000080001138 <reg_x7_init>:
    80001138:	00000003          	lb	zero,0(zero) # 0 <_start-0x80000000>
    8000113c:	0000                	unimp
    8000113e:	0800                	addi	s0,sp,16

0000000080001140 <reg_x8_init>:
    80001140:	3938                	fld	fa4,112(a0)
    80001142:	e9f2                	sd	t3,208(sp)
    80001144:	ddaa                	sw	a0,248(sp)
    80001146:	f4e6                	sd	s9,104(sp)

0000000080001148 <reg_x9_init>:
    80001148:	5e59                	li	t3,-10
    8000114a:	b376                	fsd	ft9,416(sp)
    8000114c:	3931910b          	0x3931910b

0000000080001150 <reg_x10_init>:
	...

0000000080001158 <reg_x11_init>:
	...

0000000080001160 <reg_x12_init>:
    80001160:	aa4a                	fsd	fs2,272(sp)
    80001162:	4ed9                	li	t4,22
    80001164:	227bab03          	lw	s6,551(s7)

0000000080001168 <reg_x13_init>:
	...

0000000080001170 <reg_x14_init>:
    80001170:	896e                	mv	s2,s11
    80001172:	6bad                	lui	s7,0xb
    80001174:	a1f1                	j	80001640 <test_memory+0x340>
    80001176:	          	0xff803d2b

0000000080001178 <reg_x15_init>:
    80001178:	ff80                	sd	s0,56(a5)
    8000117a:	ffff                	0xffff
    8000117c:	ffff                	0xffff
    8000117e:	ffff                	0xffff

0000000080001180 <reg_x16_init>:
    80001180:	4288                	lw	a0,0(a3)
    80001182:	167c                	addi	a5,sp,812
    80001184:	2861                	addiw	a6,a6,24
    80001186:	82e2                	mv	t0,s8

0000000080001188 <reg_x17_init>:
    80001188:	1494                	addi	a3,sp,608
    8000118a:	a6e567fb          	0xa6e567fb
    8000118e:	6d9a                	ld	s11,384(sp)

0000000080001190 <reg_x18_init>:
    80001190:	8005                	srli	s0,s0,0x1
    80001192:	ffff                	0xffff
    80001194:	ffff                	0xffff
    80001196:	ffff                	0xffff

0000000080001198 <reg_x19_init>:
    80001198:	cd6899e3          	bne	a7,s6,80000e6a <test_end+0x466>
    8000119c:	1a9eddf7          	0x1a9eddf7

00000000800011a0 <reg_x20_init>:
    800011a0:	ee4e                	sd	s3,280(sp)
    800011a2:	4ad31d87          	0x4ad31d87
    800011a6:	c030                	sw	a2,64(s0)

00000000800011a8 <reg_x21_init>:
    800011a8:	ffff                	0xffff
    800011aa:	ffff                	0xffff
    800011ac:	ffff                	0xffff
    800011ae:	ffff                	0xffff

00000000800011b0 <reg_x22_init>:
    800011b0:	0004                	0x4
    800011b2:	0000                	unimp
    800011b4:	0000                	unimp
	...

00000000800011b8 <reg_x23_init>:
    800011b8:	8000                	0x8000
    800011ba:	ffff                	0xffff
    800011bc:	ffff                	0xffff
    800011be:	ffff                	0xffff

00000000800011c0 <reg_x24_init>:
    800011c0:	fb99                	bnez	a5,800010d6 <fromhost+0x96>
    800011c2:	7528                	ld	a0,104(a0)
    800011c4:	a4f5                	j	800014b0 <test_memory+0x1b0>
    800011c6:	          	0x8002b30b

00000000800011c8 <reg_x25_init>:
    800011c8:	8002                	0x8002
    800011ca:	ffff                	0xffff
    800011cc:	ffff                	0xffff
    800011ce:	ffff                	0xffff

00000000800011d0 <reg_x26_init>:
    800011d0:	66355ebb          	0x66355ebb
    800011d4:	9f45                	0x9f45
    800011d6:	b6f1                	j	80000da2 <test_end+0x39e>

00000000800011d8 <reg_x27_init>:
    800011d8:	00000007          	0x7
    800011dc:	0000                	unimp
	...

00000000800011e0 <reg_x28_init>:
    800011e0:	75c5                	lui	a1,0xffff1
    800011e2:	a55c1527          	0xa55c1527
    800011e6:	6270                	ld	a2,192(a2)

00000000800011e8 <reg_x29_init>:
    800011e8:	6c8a4c53          	0x6c8a4c53
    800011ec:	53131013          	0x53131013

00000000800011f0 <reg_x30_init>:
    800011f0:	bcc0                	fsd	fs0,184(s1)
    800011f2:	6146                	ld	sp,80(sp)
    800011f4:	c503b527          	fsd	fa6,-950(t2)

00000000800011f8 <reg_x31_init>:
    800011f8:	fbe8                	sd	a0,240(a5)
    800011fa:	3e5e                	fld	ft8,496(sp)
    800011fc:	7cf6                	ld	s9,376(sp)
    800011fe:	a17a                	fsd	ft10,128(sp)

0000000080001200 <begin_signature>:
    80001200:	78ee                	ld	a7,248(sp)
    80001202:	34f4                	fld	fa3,232(s1)
    80001204:	4ac0                	lw	s0,20(a3)
    80001206:	          	0xb59545c7

0000000080001208 <reg_x1_output>:
    80001208:	b595                	j	8000106c <fromhost+0x2c>
    8000120a:	4271                	li	tp,28
    8000120c:	3709                	addiw	a4,a4,-30
    8000120e:	          	jal	s3,800b224c <__global_pointer$+0xb033c>

0000000080001210 <reg_x2_output>:
    80001210:	4a5303eb          	0x4a5303eb
    80001214:	6fc8                	ld	a0,152(a5)
    80001216:	3314                	fld	fa3,32(a4)

0000000080001218 <reg_x3_output>:
    80001218:	edff                	0xedff
    8000121a:	ee44                	sd	s1,152(a2)
    8000121c:	51fc                	lw	a5,100(a1)
    8000121e:	cdca                	sw	s2,216(sp)

0000000080001220 <reg_x4_output>:
    80001220:	d710                	sw	a2,40(a4)
    80001222:	f5aeeaaf          	0xf5aeeaaf
    80001226:	68a1                	lui	a7,0x8

0000000080001228 <reg_x5_output>:
    80001228:	9691                	srai	a3,a3,0x24
    8000122a:	f187f30f          	0xf187f30f
    8000122e:	3b15                	addiw	s6,s6,-27

0000000080001230 <reg_x6_output>:
    80001230:	2bad                	addiw	s7,s7,11
    80001232:	d19c                	sw	a5,32(a1)
    80001234:	f8bda9eb          	0xf8bda9eb

0000000080001238 <reg_x7_output>:
    80001238:	b162                	fsd	fs8,160(sp)
    8000123a:	040a                	slli	s0,s0,0x2
    8000123c:	8ea9                	xor	a3,a3,a0
    8000123e:	          	0x4e680aab

0000000080001240 <reg_x8_output>:
    80001240:	4e68                	lw	a0,92(a2)
    80001242:	f2a6                	sd	s1,352(sp)
    80001244:	82b8                	0x82b8
    80001246:	9e19                	subw	a2,a2,a4

0000000080001248 <reg_x9_output>:
    80001248:	c178                	sw	a4,68(a0)
    8000124a:	1935                	addi	s2,s2,-19
    8000124c:	5528dbb3          	0x5528dbb3

0000000080001250 <reg_x10_output>:
    80001250:	b1b9                	j	80000e9e <test_end+0x49a>
    80001252:	61c8                	ld	a0,128(a1)
    80001254:	82d2                	mv	t0,s4
    80001256:	8bf8                	0x8bf8

0000000080001258 <reg_x11_output>:
    80001258:	e459                	bnez	s0,800012e6 <reg_x28_output+0x6>
    8000125a:	971d                	srai	a4,a4,0x27
    8000125c:	ffbed7bb          	0xffbed7bb

0000000080001260 <reg_x12_output>:
    80001260:	1293339b          	0x1293339b
    80001264:	957c                	0x957c
    80001266:	2b5f        	0x70470e12b5f

0000000080001268 <reg_x13_output>:
    80001268:	70e1                	lui	ra,0xffff8
    8000126a:	0704                	addi	s1,sp,896
    8000126c:	8f54343b          	0x8f54343b

0000000080001270 <reg_x14_output>:
    80001270:	8a7f                	0x8a7f
    80001272:	81b6                	mv	gp,a3
    80001274:	79a9a6c7          	fmsub.s	fa3,fs3,fs10,fa5,rdn

0000000080001278 <reg_x15_output>:
    80001278:	2f56                	fld	ft10,336(sp)
    8000127a:	7ed0                	ld	a2,184(a3)
    8000127c:	f0ec                	sd	a1,224(s1)
    8000127e:	a5b5                	j	800018ea <_end+0x1da>

0000000080001280 <reg_x16_output>:
    80001280:	0d84                	addi	s1,sp,720
    80001282:	daa5                	beqz	a3,800011f2 <reg_x30_init+0x2>
    80001284:	0d0e7c17          	auipc	s8,0xd0e7

0000000080001288 <reg_x17_output>:
    80001288:	7eb9                	lui	t4,0xfffee
    8000128a:	fb51                	bnez	a4,8000121e <reg_x3_output+0x6>
    8000128c:	51f6                	lw	gp,124(sp)
    8000128e:	          	0x4be522db

0000000080001290 <reg_x18_output>:
    80001290:	4be5                	li	s7,25
    80001292:	10e1b67b          	0x10e1b67b
    80001296:	fea0                	sd	s0,120(a3)

0000000080001298 <reg_x19_output>:
    80001298:	fb5e                	sd	s7,432(sp)
    8000129a:	1f12                	slli	t5,t5,0x24
    8000129c:	9450                	0x9450
    8000129e:	9cf0                	0x9cf0

00000000800012a0 <reg_x20_output>:
    800012a0:	0d9627b3          	0xd9627b3
    800012a4:	873a7bb3          	0x873a7bb3

00000000800012a8 <reg_x21_output>:
    800012a8:	7abe                	ld	s5,488(sp)
    800012aa:	b975                	j	80000f66 <test_end+0x562>
    800012ac:	045f cf2e       	0x67c3cf2e045f

00000000800012b0 <reg_x22_output>:
    800012b0:	396367c3          	fmadd.s	fa5,ft6,fs6,ft7,unknown
    800012b4:	aa1e9f77          	0xaa1e9f77

00000000800012b8 <reg_x23_output>:
    800012b8:	708c                	ld	a1,32(s1)
    800012ba:	5ae4f66f          	jal	a2,80050868 <__global_pointer$+0x4e958>
    800012be:	          	lui	a5,0xf4e9e

00000000800012c0 <reg_x24_output>:
    800012c0:	f4e9                	bnez	s1,8000128a <reg_x17_output+0x2>
    800012c2:	fb54                	sd	a3,176(a4)
    800012c4:	2cf6                	fld	fs9,344(sp)
    800012c6:	04b0                	addi	a2,sp,584

00000000800012c8 <reg_x25_output>:
    800012c8:	1105                	addi	sp,sp,-31
    800012ca:	3c35                	addiw	s8,s8,-19
    800012cc:	8416                	mv	s0,t0
    800012ce:	8a19                	andi	a2,a2,6

00000000800012d0 <reg_x26_output>:
    800012d0:	3665                	addiw	a2,a2,-7
    800012d2:	e7ae                	sd	a1,456(sp)
    800012d4:	b8a1                	j	80000b2c <test_end+0x128>
    800012d6:	          	0xc48cbb53

00000000800012d8 <reg_x27_output>:
    800012d8:	c48c                	sw	a1,8(s1)
    800012da:	35093a8f          	0x35093a8f
    800012de:	          	0x419d9cbb

00000000800012e0 <reg_x28_output>:
    800012e0:	419d                	li	gp,7
    800012e2:	8266                	mv	tp,s9
    800012e4:	e88e                	sd	gp,80(sp)
    800012e6:	77f1                	lui	a5,0xffffc

00000000800012e8 <reg_x29_output>:
    800012e8:	c075                	beqz	s0,800013cc <test_memory+0xcc>
    800012ea:	0d00                	addi	s0,sp,656
    800012ec:	f359                	bnez	a4,80001272 <reg_x14_output+0x2>
    800012ee:	ddf6                	sw	t4,248(sp)

00000000800012f0 <reg_x30_output>:
    800012f0:	d10c                	sw	a1,32(a0)
    800012f2:	f8d0                	sd	a2,176(s1)
    800012f4:	fec1                	bnez	a3,8000128c <reg_x17_output+0x4>
    800012f6:	c370                	sw	a2,68(a4)

00000000800012f8 <reg_x31_output>:
    800012f8:	d920                	sw	s0,112(a0)
    800012fa:	73032633          	0x73032633
    800012fe:	          	0x367affdb

0000000080001300 <test_memory>:
    80001300:	367a                	fld	fa2,440(sp)
    80001302:	43ad076b          	0x43ad076b
    80001306:	70c6                	ld	ra,112(sp)
    80001308:	e14a                	sd	s2,128(sp)
    8000130a:	f604                	sd	s1,40(a2)
    8000130c:	01f96e8f          	0x1f96e8f
    80001310:	bc6d                	j	80000dca <test_end+0x3c6>
    80001312:	1749                	addi	a4,a4,-14
    80001314:	14fa                	slli	s1,s1,0x3e
    80001316:	da55                	beqz	a2,800012ca <reg_x25_output+0x2>
    80001318:	2a9f 5cab 5d79      	0x5d795cab2a9f
    8000131e:	6d74                	ld	a3,216(a0)
    80001320:	2adf 7575 9c87      	0x9c8775752adf
    80001326:	e169                	bnez	a0,800013e8 <test_memory+0xe8>
    80001328:	fb92                	sd	tp,496(sp)
    8000132a:	acc65ac3          	0xacc65ac3
    8000132e:	5afd                	li	s5,-1
    80001330:	6330                	ld	a2,64(a4)
    80001332:	73b12f4f          	fnmadd.d	ft10,ft2,fs11,fa4,rdn
    80001336:	bff9                	j	80001314 <test_memory+0x14>
    80001338:	0e71                	addi	t3,t3,28
    8000133a:	702e                	0x702e
    8000133c:	0ab85df7          	0xab85df7
    80001340:	475d                	li	a4,23
    80001342:	4511                	li	a0,4
    80001344:	b6d5                	j	80000f28 <test_end+0x524>
    80001346:	1eb4                	addi	a3,sp,888
    80001348:	80356db3          	0x80356db3
    8000134c:	bd7d3027          	fsd	fs7,-1088(s10)
    80001350:	6072                	0x6072
    80001352:	4d13a5e3          	0x4d13a5e3
    80001356:	9916                	add	s2,s2,t0
    80001358:	4194                	lw	a3,0(a1)
    8000135a:	29b0                	fld	fa2,80(a1)
    8000135c:	3bd5b76f          	jal	a4,8005cf18 <__global_pointer$+0x5b008>
    80001360:	f83d                	bnez	s0,800012d6 <reg_x26_output+0x6>
    80001362:	9b35                	andi	a4,a4,-19
    80001364:	6854                	ld	a3,144(s0)
    80001366:	feca                	sd	s2,376(sp)
    80001368:	72a262e3          	bltu	tp,a0,8000228c <__global_pointer$+0x37c>
    8000136c:	0688                	addi	a0,sp,832
    8000136e:	9a437b87          	0x9a437b87
    80001372:	b214                	fsd	fa3,32(a2)
    80001374:	818e                	mv	gp,gp
    80001376:	91ae                	add	gp,gp,a1
    80001378:	c71a                	sw	t1,140(sp)
    8000137a:	aa06                	fsd	ft1,272(sp)
    8000137c:	76eaceb3          	0x76eaceb3
    80001380:	2ff8                	fld	fa4,216(a5)
    80001382:	cc7c                	sw	a5,92(s0)
    80001384:	1a1e5547          	fmsub.d	fa0,ft8,ft1,ft3,unknown
    80001388:	04bb19af          	0x4bb19af
    8000138c:	19dd                	addi	s3,s3,-9
    8000138e:	03e0                	addi	s0,sp,460
    80001390:	2c29                	addiw	s8,s8,10
    80001392:	417a                	lw	sp,156(sp)
    80001394:	a458                	fsd	fa4,136(s0)
    80001396:	9475                	srai	s0,s0,0x3d
    80001398:	16a9                	addi	a3,a3,-22
    8000139a:	02fddd7b          	0x2fddd7b
    8000139e:	79bc290b          	0x79bc290b
    800013a2:	f44e                	sd	s3,40(sp)
    800013a4:	bcf1                	j	80000e80 <test_end+0x47c>
    800013a6:	1ae6                	slli	s5,s5,0x39
    800013a8:	7a75                	lui	s4,0xffffd
    800013aa:	989e                	add	a7,a7,t2
    800013ac:	10c0                	addi	s0,sp,100
    800013ae:	99ad                	andi	a1,a1,-21
    800013b0:	219c                	fld	fa5,0(a1)
    800013b2:	2831                	addiw	a6,a6,12
    800013b4:	0fe4                	addi	s1,sp,988
    800013b6:	7242                	ld	tp,48(sp)
    800013b8:	9af9                	andi	a3,a3,-2
    800013ba:	0425                	addi	s0,s0,9
    800013bc:	1669                	addi	a2,a2,-6
    800013be:	08d6                	slli	a7,a7,0x15
    800013c0:	dbee                	sw	s11,244(sp)
    800013c2:	561cdaf7          	0x561cdaf7
    800013c6:	fde9b74b          	0xfde9b74b
    800013ca:	00cd                	addi	ra,ra,19
    800013cc:	bef1                	j	80000fa8 <test_end+0x5a4>
    800013ce:	00887647          	fmsub.s	fa2,fa6,fs0,ft0
    800013d2:	0a705be7          	0xa705be7
    800013d6:	48fd                	li	a7,31
    800013d8:	805a                	c.mv	zero,s6
    800013da:	42a9                	li	t0,10
    800013dc:	2675                	addiw	a2,a2,29
    800013de:	6064                	ld	s1,192(s0)
    800013e0:	8aa2                	mv	s5,s0
    800013e2:	18bc                	addi	a5,sp,120
    800013e4:	3b96                	fld	fs7,352(sp)
    800013e6:	e3946ae3          	bltu	s0,s9,8000121a <reg_x3_output+0x2>
    800013ea:	25d0cc47          	0x25d0cc47
    800013ee:	7922                	ld	s2,40(sp)
    800013f0:	23ce                	fld	ft7,208(sp)
    800013f2:	fa78a0bb          	0xfa78a0bb
    800013f6:	b5c2                	fsd	fa6,232(sp)
    800013f8:	482bd32b          	0x482bd32b
    800013fc:	8e883487          	fld	fs1,-1816(a6)
    80001400:	6a25                	lui	s4,0x9
    80001402:	3f66                	fld	ft10,120(sp)
    80001404:	4453e8af          	0x4453e8af
    80001408:	b850                	fsd	fa2,176(s0)
    8000140a:	be41                	j	80000f9a <test_end+0x596>
    8000140c:	04e5                	addi	s1,s1,25
    8000140e:	63d9                	lui	t2,0x16
    80001410:	e5c2                	sd	a6,200(sp)
    80001412:	5e00                	lw	s0,56(a2)
    80001414:	ab44                	fsd	fs1,144(a4)
    80001416:	6225                	lui	tp,0x9
    80001418:	ee64                	sd	s1,216(a2)
    8000141a:	179f 3e67 3dab      	0x3dab3e67179f
    80001420:	6174                	ld	a3,192(a0)
    80001422:	45bbd6ef          	jal	a3,800bf07c <__global_pointer$+0xbd16c>
    80001426:	2ccd2423          	sw	a2,712(s10)
    8000142a:	073d                	addi	a4,a4,15
    8000142c:	fa59                	bnez	a2,800013c2 <test_memory+0xc2>
    8000142e:	9aae82d7          	0x9aae82d7
    80001432:	482c                	lw	a1,80(s0)
    80001434:	c8c2a157          	0xc8c2a157
    80001438:	3a0d                	addiw	s4,s4,-29
    8000143a:	e6c0ebc3          	fmadd.q	fs7,ft1,fa2,ft8,unknown
    8000143e:	94c1                	srai	s1,s1,0x30
    80001440:	7cc2                	ld	s9,48(sp)
    80001442:	c4962533          	0xc4962533
    80001446:	9a0e                	add	s4,s4,gp
    80001448:	3c10                	fld	fa2,56(s0)
    8000144a:	1271                	addi	tp,tp,-4
    8000144c:	8d31337b          	0x8d31337b
    80001450:	5b4e                	lw	s6,240(sp)
    80001452:	2c75                	addiw	s8,s8,29
    80001454:	7efe                	ld	t4,504(sp)
    80001456:	a19f 39c4 fe62      	0xfe6239c4a19f
    8000145c:	f51eada3          	sw	a7,-165(t4) # fffffffffffedf5b <__global_pointer$+0xffffffff7ffec04b>
    80001460:	dff6                	sw	t4,252(sp)
    80001462:	0bd4                	addi	a3,sp,468
    80001464:	26798d1b          	addiw	s10,s3,615
    80001468:	5fc1a1ef          	jal	gp,8001ba64 <__global_pointer$+0x19b54>
    8000146c:	788aad3b          	0x788aad3b
    80001470:	71f59f53          	0x71f59f53
    80001474:	42fe78c7          	fmsub.d	fa7,ft8,fa5,fs0
    80001478:	eb3c                	sd	a5,80(a4)
    8000147a:	b4c0                	fsd	fs0,168(s1)
    8000147c:	b904                	fsd	fs1,48(a0)
    8000147e:	ae22                	fsd	fs0,280(sp)
    80001480:	892a                	mv	s2,a0
    80001482:	b9aac2bb          	0xb9aac2bb
    80001486:	a19605c3          	fmadd.s	fa1,fa2,fs9,fs4,rne
    8000148a:	efbe                	sd	a5,472(sp)
    8000148c:	04b1                	addi	s1,s1,12
    8000148e:	a7e0f843          	fmadd.q	fa6,ft1,ft10,fs4
    80001492:	d354                	sw	a3,36(a4)
    80001494:	da05                	beqz	a2,800013c4 <test_memory+0xc4>
    80001496:	679c                	ld	a5,8(a5)
    80001498:	74b8                	ld	a4,104(s1)
    8000149a:	5440                	lw	s0,44(s0)
    8000149c:	2d3d                	addiw	s10,s10,15
    8000149e:	e32d6e0f          	0xe32d6e0f
    800014a2:	d8da                	sw	s6,112(sp)
    800014a4:	a3ac                	fsd	fa1,64(a5)
    800014a6:	d39c                	sw	a5,32(a5)
    800014a8:	1c04                	addi	s1,sp,560
    800014aa:	d7983c67          	0xd7983c67
    800014ae:	ba10612f          	0xba10612f
    800014b2:	6b42                	ld	s6,16(sp)
    800014b4:	9952                	add	s2,s2,s4
    800014b6:	378d                	addiw	a5,a5,-29
    800014b8:	2394                	fld	fa3,0(a5)
    800014ba:	eb9c                	sd	a5,16(a5)
    800014bc:	1586                	slli	a1,a1,0x21
    800014be:	1d79                	addi	s10,s10,-2
    800014c0:	2802                	fld	fa6,0(sp)
    800014c2:	4007b027          	fsd	ft0,1024(a5) # ffffffffffffc400 <__global_pointer$+0xffffffff7fffa4f0>
    800014c6:	44a2                	lw	s1,8(sp)
    800014c8:	96a6f68f          	0x96a6f68f
    800014cc:	b4ca                	fsd	fs2,104(sp)
    800014ce:	296eb597          	auipc	a1,0x296eb
    800014d2:	6d52                	ld	s10,272(sp)
    800014d4:	fd06                	sd	ra,184(sp)
    800014d6:	2521                	addiw	a0,a0,8
    800014d8:	babd                	j	80000e56 <test_end+0x452>
    800014da:	dc828e57          	0xdc828e57
    800014de:	4121                	li	sp,8
    800014e0:	935f 9ce4 8ba9      	0x8ba99ce4935f
    800014e6:	ecdf d15c 05cb      	0x5cbd15cecdf
    800014ec:	af499ccf          	fnmadd.q	fs9,fs3,fs4,fs5,rtz
    800014f0:	cbf7327b          	0xcbf7327b
    800014f4:	4fc0                	lw	s0,28(a5)
    800014f6:	2b92                	fld	fs7,256(sp)
    800014f8:	59391133          	0x59391133
    800014fc:	54b6                	lw	s1,108(sp)
    800014fe:	f436                	sd	a3,40(sp)
    80001500:	ebba652f          	0xebba652f
    80001504:	0804                	addi	s1,sp,16
    80001506:	89fc                	0x89fc
    80001508:	0de8                	addi	a0,sp,732
    8000150a:	736a                	ld	t1,184(sp)
    8000150c:	1249                	addi	tp,tp,-14
    8000150e:	b7f4                	fsd	fa3,232(a5)
    80001510:	9bb8a52b          	0x9bb8a52b
    80001514:	a4e5                	j	800017fc <_end+0xec>
    80001516:	4158                	lw	a4,4(a0)
    80001518:	008e                	slli	ra,ra,0x3
    8000151a:	5107f7e7          	0x5107f7e7
    8000151e:	0b36                	slli	s6,s6,0xd
    80001520:	b411                	j	80000f24 <test_end+0x520>
    80001522:	478d5533          	0x478d5533
    80001526:	902e                	c.add	zero,a1
    80001528:	2582                	fld	fa1,0(sp)
    8000152a:	036c                	addi	a1,sp,396
    8000152c:	e21dba83          	ld	s5,-479(s11)
    80001530:	5f68                	lw	a0,124(a4)
    80001532:	ad1d3adb          	0xad1d3adb
    80001536:	a3765c6f          	jal	s8,7ff66f6c <_start-0x99094>
    8000153a:	cd438d07          	0xcd438d07
    8000153e:	f606                	sd	ra,296(sp)
    80001540:	0fd6                	slli	t6,t6,0x15
    80001542:	d098                	sw	a4,32(s1)
    80001544:	8a3a                	mv	s4,a4
    80001546:	4fcec943          	fmadd.q	fs2,ft9,ft8,fs1,rmm
    8000154a:	f546                	sd	a7,168(sp)
    8000154c:	1f618deb          	0x1f618deb
    80001550:	978e                	add	a5,a5,gp
    80001552:	2412                	fld	fs0,256(sp)
    80001554:	9ad0                	0x9ad0
    80001556:	e42a3ae7          	0xe42a3ae7
    8000155a:	a69aef77          	0xa69aef77
    8000155e:	85f0                	0x85f0
    80001560:	f406                	sd	ra,40(sp)
    80001562:	4b45                	li	s6,17
    80001564:	6a0d                	lui	s4,0x3
    80001566:	ad4e                	fsd	fs3,152(sp)
    80001568:	50887943          	fmadd.s	fs2,fa6,fs0,fa0
    8000156c:	9895                	andi	s1,s1,-27
    8000156e:	22d0                	fld	fa2,128(a3)
    80001570:	f6ed                	bnez	a3,8000155a <test_memory+0x25a>
    80001572:	d9fe                	sw	t6,240(sp)
    80001574:	16ae                	slli	a3,a3,0x2b
    80001576:	5afa3e83          	ld	t4,1455(s4) # 35af <_start-0x7fffca51>
    8000157a:	2876                	fld	fa6,344(sp)
    8000157c:	e421                	bnez	s0,800015c4 <test_memory+0x2c4>
    8000157e:	d28d                	beqz	a3,800014a0 <test_memory+0x1a0>
    80001580:	0a5c                	addi	a5,sp,276
    80001582:	84f9                	srai	s1,s1,0x1e
    80001584:	9782                	jalr	a5
    80001586:	bcce                	fsd	fs3,120(sp)
    80001588:	89ae                	mv	s3,a1
    8000158a:	ec48                	sd	a0,152(s0)
    8000158c:	989b4ab3          	0x989b4ab3
    80001590:	8886844b          	fnmsub.s	fs0,fa3,fs0,fa7,rne
    80001594:	0e4e442b          	0xe4e442b
    80001598:	7ccd                	lui	s9,0xffff3
    8000159a:	8f4effdb          	0x8f4effdb
    8000159e:	3d4616e7          	0x3d4616e7
    800015a2:	34a6                	fld	fs1,104(sp)
    800015a4:	a624                	fsd	fs1,72(a2)
    800015a6:	faad8c63          	beq	s11,a0,80000d5e <test_end+0x35a>
    800015aa:	161e                	slli	a2,a2,0x27
    800015ac:	5925                	li	s2,-23
    800015ae:	9e64                	0x9e64
    800015b0:	5e5f d04f d5ff      	0xd5ffd04f5e5f
    800015b6:	5d61                	li	s10,-8
    800015b8:	199c                	addi	a5,sp,240
    800015ba:	2cb9                	addiw	s9,s9,14
    800015bc:	1c7f                	0x1c7f
    800015be:	8646                	mv	a2,a7
    800015c0:	9a66                	add	s4,s4,s9
    800015c2:	e8f6a4d7          	0xe8f6a4d7
    800015c6:	625c                	ld	a5,128(a2)
    800015c8:	be35                	j	80001104 <hidden_data+0x4>
    800015ca:	2de43aaf          	0x2de43aaf
    800015ce:	b1df 4657 afe7      	0xafe74657b1df
    800015d4:	2a4432a3          	sd	tp,677(s0)
    800015d8:	2af5                	addiw	s5,s5,29
    800015da:	637471fb          	0x637471fb
    800015de:	c676                	sw	t4,12(sp)
    800015e0:	29b20513          	addi	a0,tp,667 # 929b <_start-0x7fff6d65>
    800015e4:	5f0a                	lw	t5,160(sp)
    800015e6:	3eb8                	fld	fa4,120(a3)
    800015e8:	750d                	lui	a0,0xfffe3
    800015ea:	76f9                	lui	a3,0xffffe
    800015ec:	e894                	sd	a3,16(s1)
    800015ee:	fa539d9b          	0xfa539d9b
    800015f2:	a561                	j	80001c7a <_end+0x56a>
    800015f4:	a8d8                	fsd	fa4,144(s1)
    800015f6:	069a                	slli	a3,a3,0x6
    800015f8:	f279                	bnez	a2,800015be <test_memory+0x2be>
    800015fa:	27ce87e3          	beq	t4,t3,80002068 <__global_pointer$+0x158>
    800015fe:	f385                	bnez	a5,8000151e <test_memory+0x21e>
    80001600:	b8d9                	j	80000ed6 <test_end+0x4d2>
    80001602:	2e0e                	fld	ft8,192(sp)
    80001604:	e662afef          	jal	t6,7ff2bc6a <_start-0xd4396>
    80001608:	f551                	bnez	a0,80001594 <test_memory+0x294>
    8000160a:	e6e4                	sd	s1,200(a3)
    8000160c:	eefa                	sd	t5,344(sp)
    8000160e:	4622                	lw	a2,8(sp)
    80001610:	f2785fe7          	0xf2785fe7
    80001614:	b420                	fsd	fs0,104(s0)
    80001616:	7b1c                	ld	a5,48(a4)
    80001618:	685e                	ld	a6,464(sp)
    8000161a:	347d                	addiw	s0,s0,-1
    8000161c:	319a                	fld	ft3,416(sp)
    8000161e:	9bf4cf33          	0x9bf4cf33
    80001622:	1852                	slli	a6,a6,0x34
    80001624:	383a                	fld	fa6,424(sp)
    80001626:	12ca                	slli	t0,t0,0x32
    80001628:	dacf20ef          	jal	ra,7fff3bd4 <_start-0xc42c>
    8000162c:	0d82                	c.slli64	s11
    8000162e:	9bc2                	add	s7,s7,a6
    80001630:	7e9d                	lui	t4,0xfffe7
    80001632:	6472                	ld	s0,280(sp)
    80001634:	67fb5143          	fmadd.q	ft2,fs6,ft11,fa2,unknown
    80001638:	f9ed                	bnez	a1,8000162a <test_memory+0x32a>
    8000163a:	5e59                	li	t3,-10
    8000163c:	f5c2                	sd	a6,232(sp)
    8000163e:	61d904a3          	sb	t4,1545(s2) # 3f609 <_start-0x7ffc09f7>
    80001642:	f2ed                	bnez	a3,80001624 <test_memory+0x324>
    80001644:	37172603          	lw	a2,881(a4)
    80001648:	0c2d                	addi	s8,s8,11
    8000164a:	27badb07          	0x27badb07
    8000164e:	5fad                	li	t6,-21
    80001650:	4a71                	li	s4,28
    80001652:	2066                	fld	ft0,88(sp)
    80001654:	562e62cb          	fnmsub.q	ft5,ft8,ft2,fa0,unknown
    80001658:	9805                	andi	s0,s0,-31
    8000165a:	363e                	fld	fa2,488(sp)
    8000165c:	ce95                	beqz	a3,80001698 <test_memory+0x398>
    8000165e:	3708                	fld	fa0,40(a4)
    80001660:	7dae                	ld	s11,232(sp)
    80001662:	97aa                	add	a5,a5,a0
    80001664:	a56a                	fsd	fs10,136(sp)
    80001666:	649a                	ld	s1,384(sp)
    80001668:	7421                	lui	s0,0xfffe8
    8000166a:	857a                	mv	a0,t5
    8000166c:	dd5478d3          	0xdd5478d3
    80001670:	bb953e53          	0xbb953e53
    80001674:	2586                	fld	fa1,64(sp)
    80001676:	0a5a                	slli	s4,s4,0x16
    80001678:	1596                	slli	a1,a1,0x25
    8000167a:	cd90                	sw	a2,24(a1)
    8000167c:	e84ac447          	fmsub.s	fs0,fs5,ft4,ft9,rmm
    80001680:	e4cd                	bnez	s1,8000172a <_end+0x1a>
    80001682:	183d                	addi	a6,a6,-17
    80001684:	1d10                	addi	a2,sp,688
    80001686:	8537b847          	0x8537b847
    8000168a:	df0a                	sw	sp,188(sp)
    8000168c:	6424                	ld	s1,72(s0)
    8000168e:	3312                	fld	ft6,288(sp)
    80001690:	c6a9                	beqz	a3,800016da <test_memory+0x3da>
    80001692:	56f2                	lw	a3,60(sp)
    80001694:	4e3eb50b          	0x4e3eb50b
    80001698:	909dd627          	0x909dd627
    8000169c:	e572                	sd	t3,136(sp)
    8000169e:	22f4                	fld	fa3,192(a3)
    800016a0:	a145                	j	80001b40 <_end+0x430>
    800016a2:	41b6                	lw	gp,76(sp)
    800016a4:	63437a97          	auipc	s5,0x63437
    800016a8:	f1b0                	sd	a2,96(a1)
    800016aa:	a742                	fsd	fa6,392(sp)
    800016ac:	4792d5a7          	0x4792d5a7
    800016b0:	7bca                	ld	s7,176(sp)
    800016b2:	8c1d                	sub	s0,s0,a5
    800016b4:	a02d                	j	800016de <test_memory+0x3de>
    800016b6:	cc52d1e3          	bge	t0,t0,80001378 <test_memory+0x78>
    800016ba:	2f922523          	sw	s9,746(tp) # 2ea <_start-0x7ffffd16>
    800016be:	38e1                	addiw	a7,a7,-8
    800016c0:	3459                	addiw	s0,s0,-10
    800016c2:	63c1                	lui	t2,0x10
    800016c4:	8f2a                	mv	t5,a0
    800016c6:	581dd0eb          	0x581dd0eb
    800016ca:	9a6d                	andi	a2,a2,-5
    800016cc:	3279                	addiw	tp,tp,-2
    800016ce:	1396                	slli	t2,t2,0x25
    800016d0:	b9552c83          	lw	s9,-1131(a0) # fffffffffffe2b95 <__global_pointer$+0xffffffff7ffe0c85>
    800016d4:	8d8a                	mv	s11,sp
    800016d6:	39f1                	addiw	s3,s3,-4
    800016d8:	c842                	sw	a6,16(sp)
    800016da:	1e9d                	addi	t4,t4,-25
    800016dc:	0786                	slli	a5,a5,0x1
    800016de:	d66a                	sw	s10,44(sp)
    800016e0:	c8ff                	0xc8ff
    800016e2:	7bf6f7e3          	bgeu	a3,t6,80002690 <__global_pointer$+0x780>
    800016e6:	f9e7a4cf          	fnmadd.s	fs1,fa5,ft10,ft11,rdn
    800016ea:	533a                	lw	t1,172(sp)
    800016ec:	d95f 79f1 b896      	0xb89679f1d95f
    800016f2:	f000a137          	lui	sp,0xf000a
    800016f6:	163beceb          	0x163beceb
    800016fa:	d346                	sw	a7,164(sp)
    800016fc:	4211                	li	tp,4
    800016fe:	2022                	fld	ft0,8(sp)

0000000080001700 <loop_count>:
    80001700:	0040                	addi	s0,sp,4
	...

Disassembly of section .riscv.attributes:

0000000000000000 <.riscv.attributes>:
   0:	2d41                	addiw	s10,s10,16
   2:	0000                	unimp
   4:	7200                	ld	s0,32(a2)
   6:	7369                	lui	t1,0xffffa
   8:	01007663          	bgeu	zero,a6,14 <_start-0x7fffffec>
   c:	00000023          	sb	zero,0(zero) # 0 <_start-0x80000000>
  10:	7205                	lui	tp,0xfffe1
  12:	3676                	fld	fa2,376(sp)
  14:	6934                	ld	a3,80(a0)
  16:	7032                	0x7032
  18:	5f30                	lw	a2,120(a4)
  1a:	326d                	addiw	tp,tp,-5
  1c:	3070                	fld	fa2,224(s0)
  1e:	615f 7032 5f30      	0x5f307032615f
  24:	3266                	fld	ft4,120(sp)
  26:	3070                	fld	fa2,224(s0)
  28:	645f 7032 0030      	0x307032645f
