
test.elf:     file format elf64-littleriscv


Disassembly of section .text.init:

0000000080000000 <_start>:
    80000000:	0580006f          	j	80000058 <reset_vector>

0000000080000004 <trap_vector>:
    80000004:	34202f73          	csrr	t5,mcause
    80000008:	00800f93          	li	t6,8
    8000000c:	05ff0063          	beq	t5,t6,8000004c <write_tohost>
    80000010:	00900f93          	li	t6,9
    80000014:	03ff0c63          	beq	t5,t6,8000004c <write_tohost>
    80000018:	00b00f93          	li	t6,11
    8000001c:	03ff0863          	beq	t5,t6,8000004c <write_tohost>
    80000020:	00000f13          	li	t5,0
    80000024:	000f0463          	beqz	t5,8000002c <trap_vector+0x28>
    80000028:	000f0067          	jr	t5
    8000002c:	34202f73          	csrr	t5,mcause
    80000030:	000f5463          	bgez	t5,80000038 <handle_exception>
    80000034:	0140006f          	j	80000048 <other_exception>

0000000080000038 <handle_exception>:
    80000038:	34102e73          	csrr	t3,mepc
    8000003c:	004e0e13          	addi	t3,t3,4
    80000040:	341e1073          	csrw	mepc,t3
    80000044:	30200073          	mret

0000000080000048 <other_exception>:
    80000048:	5391e193          	ori	gp,gp,1337

000000008000004c <write_tohost>:
    8000004c:	00001f17          	auipc	t5,0x1
    80000050:	fa3f2a23          	sw	gp,-76(t5) # 80001000 <tohost>
    80000054:	ff9ff06f          	j	8000004c <write_tohost>

0000000080000058 <reset_vector>:
    80000058:	f1402573          	csrr	a0,mhartid
    8000005c:	00051063          	bnez	a0,8000005c <reset_vector+0x4>
    80000060:	00000297          	auipc	t0,0x0
    80000064:	01028293          	addi	t0,t0,16 # 80000070 <reset_vector+0x18>
    80000068:	30529073          	csrw	mtvec,t0
    8000006c:	18005073          	csrwi	satp,0
    80000070:	00000297          	auipc	t0,0x0
    80000074:	01c28293          	addi	t0,t0,28 # 8000008c <reset_vector+0x34>
    80000078:	30529073          	csrw	mtvec,t0
    8000007c:	fff00293          	li	t0,-1
    80000080:	3b029073          	csrw	pmpaddr0,t0
    80000084:	01f00293          	li	t0,31
    80000088:	3a029073          	csrw	pmpcfg0,t0
    8000008c:	00000297          	auipc	t0,0x0
    80000090:	01828293          	addi	t0,t0,24 # 800000a4 <reset_vector+0x4c>
    80000094:	30529073          	csrw	mtvec,t0
    80000098:	30205073          	csrwi	medeleg,0
    8000009c:	30305073          	csrwi	mideleg,0
    800000a0:	30405073          	csrwi	mie,0
    800000a4:	00000193          	li	gp,0
    800000a8:	00000297          	auipc	t0,0x0
    800000ac:	f5c28293          	addi	t0,t0,-164 # 80000004 <trap_vector>
    800000b0:	30529073          	csrw	mtvec,t0
    800000b4:	00100513          	li	a0,1
    800000b8:	01f51513          	slli	a0,a0,0x1f
    800000bc:	00055863          	bgez	a0,800000cc <reset_vector+0x74>
    800000c0:	0ff0000f          	fence
    800000c4:	00100193          	li	gp,1
    800000c8:	00000073          	ecall
    800000cc:	00000293          	li	t0,0
    800000d0:	00028e63          	beqz	t0,800000ec <reset_vector+0x94>
    800000d4:	10529073          	csrw	stvec,t0
    800000d8:	0000b2b7          	lui	t0,0xb
    800000dc:	1092829b          	addiw	t0,t0,265
    800000e0:	30229073          	csrw	medeleg,t0
    800000e4:	30202373          	csrr	t1,medeleg
    800000e8:	f66290e3          	bne	t0,t1,80000048 <other_exception>
    800000ec:	30005073          	csrwi	mstatus,0
    800000f0:	00000297          	auipc	t0,0x0
    800000f4:	01428293          	addi	t0,t0,20 # 80000104 <reset_vector+0xac>
    800000f8:	34129073          	csrw	mepc,t0
    800000fc:	f1402573          	csrr	a0,mhartid
    80000100:	30200073          	mret
    80000104:	0180006f          	j	8000011c <test_start>

0000000080000108 <crash_backward>:
    80000108:	0ff0000f          	fence
    8000010c:	00018063          	beqz	gp,8000010c <crash_backward+0x4>
    80000110:	00119193          	slli	gp,gp,0x1
    80000114:	0011e193          	ori	gp,gp,1
    80000118:	00000073          	ecall

000000008000011c <test_start>:
    8000011c:	00001f97          	auipc	t6,0x1
    80000120:	fe4f8f93          	addi	t6,t6,-28 # 80001100 <hidden_data>
    80000124:	000fb003          	ld	zero,0(t6)
    80000128:	008fb083          	ld	ra,8(t6)
    8000012c:	010fb103          	ld	sp,16(t6)
    80000130:	018fb183          	ld	gp,24(t6)
    80000134:	020fb203          	ld	tp,32(t6)
    80000138:	028fb283          	ld	t0,40(t6)
    8000013c:	030fb303          	ld	t1,48(t6)
    80000140:	038fb383          	ld	t2,56(t6)
    80000144:	040fb403          	ld	s0,64(t6)
    80000148:	048fb483          	ld	s1,72(t6)
    8000014c:	050fb503          	ld	a0,80(t6)
    80000150:	058fb583          	ld	a1,88(t6)
    80000154:	060fb603          	ld	a2,96(t6)
    80000158:	068fb683          	ld	a3,104(t6)
    8000015c:	070fb703          	ld	a4,112(t6)
    80000160:	078fb783          	ld	a5,120(t6)
    80000164:	080fb803          	ld	a6,128(t6)
    80000168:	088fb883          	ld	a7,136(t6)
    8000016c:	090fb903          	ld	s2,144(t6)
    80000170:	098fb983          	ld	s3,152(t6)
    80000174:	0a0fba03          	ld	s4,160(t6)
    80000178:	0a8fba83          	ld	s5,168(t6)
    8000017c:	0b0fbb03          	ld	s6,176(t6)
    80000180:	0b8fbb83          	ld	s7,184(t6)
    80000184:	0c0fbc03          	ld	s8,192(t6)
    80000188:	0c8fbc83          	ld	s9,200(t6)
    8000018c:	0d0fbd03          	ld	s10,208(t6)
    80000190:	0d8fbd83          	ld	s11,216(t6)
    80000194:	0e0fbe03          	ld	t3,224(t6)
    80000198:	0e8fbe83          	ld	t4,232(t6)
    8000019c:	0f0fbf03          	ld	t5,240(t6)
    800001a0:	0f8fbf83          	ld	t6,248(t6)
    800001a4:	0040006f          	j	800001a8 <pseg_0>

00000000800001a8 <pseg_0>:
    800001a8:	00001097          	auipc	ra,0x1
    800001ac:	07a08093          	addi	ra,ra,122 # 80001222 <reg_x4_output+0x2>
    800001b0:	a9718813          	addi	a6,gp,-1385 # 800019a7 <_end+0x297>
    800001b4:	00001c17          	auipc	s8,0x1
    800001b8:	20fc0c13          	addi	s8,s8,527 # 800013c3 <test_memory+0xc3>
    800001bc:	03450233          	mul	tp,a0,s4
    800001c0:	01625eb3          	srl	t4,tp,s6
    800001c4:	301c1c83          	lh	s9,769(s8)
    800001c8:	c6900893          	li	a7,-919
    800001cc:	79400193          	li	gp,1940
    800001d0:	f5c00f93          	li	t6,-164
    800001d4:	f1300393          	li	t2,-237
    800001d8:	02b5fdb3          	remu	s11,a1,a1
    800001dc:	d1688493          	addi	s1,a7,-746
    800001e0:	05d00793          	li	a5,93
    800001e4:	01fff2b3          	and	t0,t6,t6
    800001e8:	00f3de3b          	srlw	t3,t2,a5
    800001ec:	01bdc433          	xor	s0,s11,s11
    800001f0:	00001a97          	auipc	s5,0x1
    800001f4:	f81a8a93          	addi	s5,s5,-127 # 80001171 <reg_x14_init+0x1>
    800001f8:	68200713          	li	a4,1666
    800001fc:	39409923          	sh	s4,914(ra)
    80000200:	49a70313          	addi	t1,a4,1178
    80000204:	00001997          	auipc	s3,0x1
    80000208:	2ff98993          	addi	s3,s3,767 # 80001503 <test_memory+0x203>
    8000020c:	e52997a3          	sh	s2,-433(s3)
    80000210:	d1800913          	li	s2,-744
    80000214:	40318bb3          	sub	s7,gp,gp
    80000218:	1e1a9683          	lh	a3,481(s5)
    8000021c:	15700c93          	li	s9,343
    80000220:	00001f17          	auipc	t5,0x1
    80000224:	08bf0f13          	addi	t5,t5,139 # 800012ab <reg_x21_output+0x3>
    80000228:	00100b13          	li	s6,1
    8000022c:	00a0b133          	sltu	sp,ra,a0
    80000230:	00000d13          	li	s10,0
    80000234:	412905bb          	subw	a1,s2,s2
    80000238:	c7f85603          	lhu	a2,-897(a6)
    8000023c:	7a675a63          	bge	a4,t1,800009f0 <crash_forward>
    80000240:	00000a13          	li	s4,0
    80000244:	a9700313          	li	t1,-1385
    80000248:	00001f97          	auipc	t6,0x1
    8000024c:	00cf8f93          	addi	t6,t6,12 # 80001254 <reg_x10_output+0x4>
    80000250:	7c500293          	li	t0,1989
    80000254:	019c9db3          	sll	s11,s9,s9
    80000258:	00000093          	li	ra,0
    8000025c:	00001417          	auipc	s0,0x1
    80000260:	2a340413          	addi	s0,s0,675 # 800014ff <test_memory+0x1ff>
    80000264:	044411a3          	sh	tp,67(s0)
    80000268:	145f5503          	lhu	a0,325(t5)
    8000026c:	d8718613          	addi	a2,gp,-633 # 80001c97 <_end+0x587>
    80000270:	00000493          	li	s1,0
    80000274:	cf500193          	li	gp,-779
    80000278:	e7c30693          	addi	a3,t1,-388
    8000027c:	91b18a93          	addi	s5,gp,-1765 # 8000182b <_end+0x11b>
    80000280:	0221043b          	mulw	s0,sp,sp
    80000284:	ac318b93          	addi	s7,gp,-1341 # 800019d3 <_end+0x2c3>
    80000288:	b09ae383          	lwu	t2,-1271(s5)
    8000028c:	82762ea3          	sw	t2,-1987(a2)
    80000290:	a65be103          	lwu	sp,-1435(s7)
    80000294:	0052c7b3          	xor	a5,t0,t0
    80000298:	b2700e13          	li	t3,-1241
    8000029c:	280fe903          	lwu	s2,640(t6)
    800002a0:	d4600813          	li	a6,-698
    800002a4:	c8b00293          	li	t0,-885
    800002a8:	02f7ddbb          	divuw	s11,a5,a5
    800002ac:	010878b3          	and	a7,a6,a6
    800002b0:	71c00f13          	li	t5,1820
    800002b4:	606f0313          	addi	t1,t5,1542
    800002b8:	00001097          	auipc	ra,0x1
    800002bc:	c1f08093          	addi	ra,ra,-993 # 80000ed7 <test_end+0x4d3>
    800002c0:	0329053b          	mulw	a0,s2,s2
    800002c4:	00000c93          	li	s9,0
    800002c8:	5a109a83          	lh	s5,1441(ra)
    800002cc:	a9e00113          	li	sp,-1378
    800002d0:	3d900993          	li	s3,985
    800002d4:	0022b4b3          	sltu	s1,t0,sp
    800002d8:	41ce573b          	sraw	a4,t3,t3
    800002dc:	60500813          	li	a6,1541
    800002e0:	0f300913          	li	s2,243
    800002e4:	9f418593          	addi	a1,gp,-1548 # 80001904 <_end+0x1f4>
    800002e8:	00001617          	auipc	a2,0x1
    800002ec:	1eb60613          	addi	a2,a2,491 # 800014d3 <test_memory+0x1d3>
    800002f0:	d2000413          	li	s0,-736
    800002f4:	e0b1cae3          	blt	gp,a1,80000108 <crash_backward>
    800002f8:	0353d593          	srli	a1,t2,0x35
    800002fc:	00000693          	li	a3,0
    80000300:	12d62b83          	lw	s7,301(a2)
    80000304:	028470b3          	remu	ra,s0,s0
    80000308:	01282db3          	slt	s11,a6,s2
    8000030c:	6cf00d13          	li	s10,1743
    80000310:	6bf00393          	li	t2,1727
    80000314:	a5e18313          	addi	t1,gp,-1442 # 8000196e <_end+0x25e>
    80000318:	e3a00e13          	li	t3,-454
    8000031c:	dac00113          	li	sp,-596
    80000320:	3c97a893          	slti	a7,a5,969
    80000324:	00211bbb          	sllw	s7,sp,sp
    80000328:	dedc90e3          	bne	s9,a3,80000108 <crash_backward>
    8000032c:	00001497          	auipc	s1,0x1
    80000330:	a9548493          	addi	s1,s1,-1387 # 80000dc1 <test_end+0x3bd>
    80000334:	03fb1b13          	slli	s6,s6,0x3f
    80000338:	91818593          	addi	a1,gp,-1768 # 80001828 <_end+0x118>
    8000033c:	87d00813          	li	a6,-1923
    80000340:	00100f93          	li	t6,1
    80000344:	007387b3          	add	a5,t2,t2
    80000348:	6d448703          	lb	a4,1748(s1)
    8000034c:	00001097          	auipc	ra,0x1
    80000350:	9a808093          	addi	ra,ra,-1624 # 80000cf4 <test_end+0x2f0>
    80000354:	00001417          	auipc	s0,0x1
    80000358:	0f640413          	addi	s0,s0,246 # 8000144a <test_memory+0x14a>
    8000035c:	a4700293          	li	t0,-1465
    80000360:	03ff9f93          	slli	t6,t6,0x3f
    80000364:	b7c31e23          	sh	t3,-1156(t1)
    80000368:	68009323          	sh	zero,1670(ra)
    8000036c:	03a99a33          	mulh	s4,s3,s10
    80000370:	0b943723          	sd	s9,174(s0)
    80000374:	005e61b3          	or	gp,t3,t0
    80000378:	00001617          	auipc	a2,0x1
    8000037c:	9b560613          	addi	a2,a2,-1611 # 80000d2d <test_end+0x329>
    80000380:	fff00513          	li	a0,-1
    80000384:	41080db3          	sub	s11,a6,a6
    80000388:	fff00e93          	li	t4,-1
    8000038c:	016eceb3          	xor	t4,t4,s6
    80000390:	01defc33          	and	s8,t4,t4
    80000394:	01f54533          	xor	a0,a0,t6
    80000398:	7be60d23          	sb	t5,1978(a2)
    8000039c:	00a67f33          	and	t5,a2,a0
    800003a0:	01ff6ab3          	or	s5,t5,t6
    800003a4:	cbc5e903          	lwu	s2,-836(a1)
    800003a8:	016c6233          	or	tp,s8,s6
    800003ac:	655f0263          	beq	t5,s5,800009f0 <crash_forward>
    800003b0:	c7500b13          	li	s6,-907
    800003b4:	a37b0d93          	addi	s11,s6,-1481
    800003b8:	00100913          	li	s2,1
    800003bc:	03f91913          	slli	s2,s2,0x3f
    800003c0:	fff00493          	li	s1,-1
    800003c4:	0124c4b3          	xor	s1,s1,s2
    800003c8:	08f00b13          	li	s6,143
    800003cc:	00100893          	li	a7,1
    800003d0:	00001217          	auipc	tp,0x1
    800003d4:	d9a20213          	addi	tp,tp,-614 # 8000116a <reg_x13_init+0x2>
    800003d8:	001f4733          	xor	a4,t5,ra
    800003dc:	00001397          	auipc	t2,0x1
    800003e0:	e2338393          	addi	t2,t2,-477 # 800011ff <reg_x31_init+0x7>
    800003e4:	87400693          	li	a3,-1932
    800003e8:	03f89893          	slli	a7,a7,0x3f
    800003ec:	00001a17          	auipc	s4,0x1
    800003f0:	97aa0a13          	addi	s4,s4,-1670 # 80000d66 <test_end+0x362>
    800003f4:	fff00f13          	li	t5,-1
    800003f8:	42622f83          	lw	t6,1062(tp) # 426 <_start-0x7ffffbda>
    800003fc:	57800113          	li	sp,1400
    80000400:	009b7c33          	and	s8,s6,s1
    80000404:	0125e2b3          	or	t0,a1,s2
    80000408:	00001997          	auipc	s3,0x1
    8000040c:	34298993          	addi	s3,s3,834 # 8000174a <_end+0x3a>
    80000410:	4a5b0a93          	addi	s5,s6,1189
    80000414:	7b5a0ca3          	sb	s5,1977(s4)
    80000418:	2b13b183          	ld	gp,689(t2)
    8000041c:	00001597          	auipc	a1,0x1
    80000420:	db558593          	addi	a1,a1,-587 # 800011d1 <reg_x26_init+0x1>
    80000424:	eaa9e803          	lwu	a6,-342(s3)
    80000428:	0226c7b3          	div	a5,a3,sp
    8000042c:	0f400193          	li	gp,244
    80000430:	00001217          	auipc	tp,0x1
    80000434:	ba420213          	addi	tp,tp,-1116 # 80000fd4 <test_end+0x5d0>
    80000438:	02118393          	addi	t2,gp,33 # 80001f31 <__global_pointer$+0x21>
    8000043c:	41359c83          	lh	s9,1043(a1)
    80000440:	ca818e13          	addi	t3,gp,-856 # 80001bb8 <_end+0x4a8>
    80000444:	000b8613          	mv	a2,s7
    80000448:	9e4e0303          	lb	t1,-1564(t3)
    8000044c:	011f4f33          	xor	t5,t5,a7
    80000450:	00060e93          	mv	t4,a2
    80000454:	cb5b0ae3          	beq	s6,s5,80000108 <crash_backward>
    80000458:	01e77533          	and	a0,a4,t5
    8000045c:	01792d37          	lui	s10,0x1792
    80000460:	0db00593          	li	a1,219
    80000464:	5fe58c93          	addi	s9,a1,1534
    80000468:	007a1333          	sll	t1,s4,t2
    8000046c:	90418b93          	addi	s7,gp,-1788 # 80001814 <_end+0x104>
    80000470:	00001117          	auipc	sp,0x1
    80000474:	dc210113          	addi	sp,sp,-574 # 80001232 <reg_x6_output+0x2>
    80000478:	aba00993          	li	s3,-1350
    8000047c:	e4cbba83          	ld	s5,-436(s7)
    80000480:	46a00093          	li	ra,1130
    80000484:	be018c13          	addi	s8,gp,-1056 # 80001af0 <_end+0x3e0>
    80000488:	37900b13          	li	s6,889
    8000048c:	1ab00193          	li	gp,427
    80000490:	6af23623          	sd	a5,1708(tp) # 6ac <_start-0x7ffff954>
    80000494:	ad418d13          	addi	s10,gp,-1324 # 800019e4 <_end+0x2d4>
    80000498:	01156433          	or	s0,a0,a7
    8000049c:	c7ed1423          	sh	t5,-920(s10) # 1791c68 <_start-0x7e86e398>
    800004a0:	d8900813          	li	a6,-631
    800004a4:	05d00793          	li	a5,93
    800004a8:	00001b97          	auipc	s7,0x1
    800004ac:	2ddb8b93          	addi	s7,s7,733 # 80001785 <_end+0x75>
    800004b0:	03609db3          	mulh	s11,ra,s6
    800004b4:	95e18a13          	addi	s4,gp,-1698 # 8000186e <_end+0x15e>
    800004b8:	40f25d33          	sra	s10,tp,a5
    800004bc:	1d411e03          	lh	t3,468(sp)
    800004c0:	cc0a2123          	sw	zero,-830(s4)
    800004c4:	ec7ba383          	lw	t2,-313(s7)
    800004c8:	00001097          	auipc	ra,0x1
    800004cc:	c9f08093          	addi	ra,ra,-865 # 80001167 <reg_x12_init+0x7>
    800004d0:	00001e97          	auipc	t4,0x1
    800004d4:	bede8e93          	addi	t4,t4,-1043 # 800010bd <fromhost+0x7d>
    800004d8:	224aa213          	slti	tp,s5,548
    800004dc:	00001d17          	auipc	s10,0x1
    800004e0:	9f7d0d13          	addi	s10,s10,-1545 # 80000ed3 <test_end+0x4cf>
    800004e4:	a6900393          	li	t2,-1431
    800004e8:	13900413          	li	s0,313
    800004ec:	00001597          	auipc	a1,0x1
    800004f0:	cc258593          	addi	a1,a1,-830 # 800011ae <reg_x21_init+0x6>
    800004f4:	010996bb          	sllw	a3,s3,a6
    800004f8:	00100493          	li	s1,1
    800004fc:	56feda83          	lhu	s5,1391(t4)
    80000500:	00001d97          	auipc	s11,0x1
    80000504:	91cd8d93          	addi	s11,s11,-1764 # 80000e1c <test_end+0x418>
    80000508:	a40c3903          	ld	s2,-1472(s8)
    8000050c:	00318333          	add	t1,gp,gp
    80000510:	27700513          	li	a0,631
    80000514:	377ee237          	lui	tp,0x377ee
    80000518:	6f8d9c83          	lh	s9,1784(s11)
    8000051c:	5c5d2b83          	lw	s7,1477(s10)
    80000520:	00a53b33          	sltu	s6,a0,a0
    80000524:	95518113          	addi	sp,gp,-1707 # 80001865 <_end+0x155>
    80000528:	0094f533          	and	a0,s1,s1
    8000052c:	02630333          	mul	t1,t1,t1
    80000530:	2fe5a523          	sw	t5,746(a1)
    80000534:	40f00f33          	neg	t5,a5
    80000538:	00f7b633          	sltu	a2,a5,a5
    8000053c:	68600993          	li	s3,1670
    80000540:	00f1823b          	addw	tp,gp,a5
    80000544:	4a90b883          	ld	a7,1193(ra)
    80000548:	00001e97          	auipc	t4,0x1
    8000054c:	db5e8e93          	addi	t4,t4,-587 # 800012fd <reg_x31_output+0x5>
    80000550:	dbc135a3          	sd	t3,-597(sp)
    80000554:	1e7eea03          	lwu	s4,487(t4)
    80000558:	0283ce33          	div	t3,t2,s0
    8000055c:	5cd45c37          	lui	s8,0x5cd45
    80000560:	93618913          	addi	s2,gp,-1738 # 80001846 <_end+0x136>
    80000564:	8f300693          	li	a3,-1805
    80000568:	48001463          	bnez	zero,800009f0 <crash_forward>
    8000056c:	03f49493          	slli	s1,s1,0x3f
    80000570:	00000097          	auipc	ra,0x0
    80000574:	7ca08093          	addi	ra,ra,1994 # 80000d3a <test_end+0x336>
    80000578:	0139bf33          	sltu	t5,s3,s3
    8000057c:	00001a17          	auipc	s4,0x1
    80000580:	cf1a0a13          	addi	s4,s4,-783 # 8000126d <reg_x13_output+0x5>
    80000584:	00001d17          	auipc	s10,0x1
    80000588:	f14d0d13          	addi	s10,s10,-236 # 80001498 <test_memory+0x198>
    8000058c:	01fc2233          	slt	tp,s8,t6
    80000590:	fff00713          	li	a4,-1
    80000594:	00001417          	auipc	s0,0x1
    80000598:	1de40413          	addi	s0,s0,478 # 80001772 <_end+0x62>
    8000059c:	00d9883b          	addw	a6,s3,a3
    800005a0:	00974733          	xor	a4,a4,s1
    800005a4:	e3e40583          	lb	a1,-450(s0)
    800005a8:	00001517          	auipc	a0,0x1
    800005ac:	13b50513          	addi	a0,a0,315 # 800016e3 <test_memory+0x3e3>
    800005b0:	00001397          	auipc	t2,0x1
    800005b4:	bbc38393          	addi	t2,t2,-1092 # 8000116c <reg_x13_init+0x4>
    800005b8:	00001b97          	auipc	s7,0x1
    800005bc:	8dab8b93          	addi	s7,s7,-1830 # 80000e92 <test_end+0x48e>
    800005c0:	7e60be83          	ld	t4,2022(ra)
    800005c4:	db296a83          	lwu	s5,-590(s2)
    800005c8:	88400e13          	li	t3,-1916
    800005cc:	00ee72b3          	and	t0,t3,a4
    800005d0:	ec5978b7          	lui	a7,0xec597
    800005d4:	f11520a3          	sw	a7,-255(a0)
    800005d8:	41ce51b3          	sra	gp,t3,t3
    800005dc:	d8b00d93          	li	s11,-629
    800005e0:	00088893          	mv	a7,a7
    800005e4:	010906b3          	add	a3,s2,a6
    800005e8:	00001097          	auipc	ra,0x1
    800005ec:	02f08093          	addi	ra,ra,47 # 80001617 <test_memory+0x317>
    800005f0:	4243ec03          	lwu	s8,1060(t2)
    800005f4:	18b00613          	li	a2,395
    800005f8:	e400aea3          	sw	zero,-419(ra)
    800005fc:	59600e93          	li	t4,1430
    80000600:	c8d00c93          	li	s9,-883
    80000604:	0092efb3          	or	t6,t0,s1
    80000608:	9f900413          	li	s0,-1543
    8000060c:	22fa39a3          	sd	a5,563(s4)
    80000610:	01c0d5b3          	srl	a1,ra,t3
    80000614:	03d66f3b          	remw	t5,a2,t4
    80000618:	038c1a33          	mulh	s4,s8,s8
    8000061c:	a873ee13          	ori	t3,t2,-1401
    80000620:	00000f17          	auipc	t5,0x0
    80000624:	7d3f0f13          	addi	t5,t5,2003 # 80000df3 <test_end+0x3ef>
    80000628:	017bc5b3          	xor	a1,s7,s7
    8000062c:	a6fa96b7          	lui	a3,0xa6fa9
    80000630:	00088813          	mv	a6,a7
    80000634:	f9e00113          	li	sp,-98
    80000638:	03bdbb33          	mulhu	s6,s11,s11
    8000063c:	14cd4303          	lbu	t1,332(s10)
    80000640:	6ffb8fa3          	sb	t6,1791(s7)
    80000644:	00001197          	auipc	gp,0x1
    80000648:	9b418193          	addi	gp,gp,-1612 # 80000ff8 <test_end+0x5f4>
    8000064c:	abf2fee3          	bgeu	t0,t6,80000108 <crash_backward>
    80000650:	00001e97          	auipc	t4,0x1
    80000654:	a82e8e93          	addi	t4,t4,-1406 # 800010d2 <fromhost+0x92>
    80000658:	4c0e8ba3          	sb	zero,1239(t4)
    8000065c:	00000917          	auipc	s2,0x0
    80000660:	6c090913          	addi	s2,s2,1728 # 80000d1c <test_end+0x318>
    80000664:	00001a97          	auipc	s5,0x1
    80000668:	8e7a8a93          	addi	s5,s5,-1817 # 80000f4b <test_end+0x547>
    8000066c:	a4300213          	li	tp,-1469
    80000670:	00001597          	auipc	a1,0x1
    80000674:	9b858593          	addi	a1,a1,-1608 # 80001028 <tohost+0x28>
    80000678:	024479bb          	remuw	s3,s0,tp
    8000067c:	402c87b3          	sub	a5,s9,sp
    80000680:	69bf1603          	lh	a2,1691(t5)
    80000684:	44518083          	lb	ra,1093(gp) # 80002355 <__global_pointer$+0x445>
    80000688:	00001a17          	auipc	s4,0x1
    8000068c:	b86a0a13          	addi	s4,s4,-1146 # 8000120e <reg_x1_output+0x6>
    80000690:	4eda98a3          	sh	a3,1265(s5)
    80000694:	3aca0123          	sb	a2,930(s4)
    80000698:	5885b683          	ld	a3,1416(a1)
    8000069c:	6c693623          	sd	t1,1740(s2)
    800006a0:	a7800993          	li	s3,-1416
    800006a4:	00001397          	auipc	t2,0x1
    800006a8:	e6c38393          	addi	t2,t2,-404 # 80001510 <test_memory+0x210>
    800006ac:	eb118693          	addi	a3,gp,-335 # 80001dc1 <_end+0x6b1>
    800006b0:	41ad5b33          	sra	s6,s10,s10
    800006b4:	c5f18c93          	addi	s9,gp,-929 # 80001b6f <_end+0x45f>
    800006b8:	3cb00e93          	li	t4,971
    800006bc:	34400413          	li	s0,836
    800006c0:	5bb40493          	addi	s1,s0,1467
    800006c4:	2fc00793          	li	a5,764
    800006c8:	80169883          	lh	a7,-2047(a3) # ffffffffa6fa8801 <__global_pointer$+0xffffffff26fa68f1>
    800006cc:	a2006ee3          	bltu	zero,zero,80000108 <crash_backward>
    800006d0:	fde00093          	li	ra,-34
    800006d4:	35a00113          	li	sp,858
    800006d8:	00001197          	auipc	gp,0x1
    800006dc:	9d218193          	addi	gp,gp,-1582 # 800010aa <fromhost+0x6a>
    800006e0:	00100e13          	li	t3,1
    800006e4:	a2018d93          	addi	s11,gp,-1504 # 80001930 <_end+0x220>
    800006e8:	b84d84a3          	sb	tp,-1143(s11)
    800006ec:	8a4cc283          	lbu	t0,-1884(s9)
    800006f0:	00fe9a3b          	sllw	s4,t4,a5
    800006f4:	89400d13          	li	s10,-1900
    800006f8:	000b8593          	mv	a1,s7
    800006fc:	2f200f93          	li	t6,754
    80000700:	00c97c33          	and	s8,s2,a2
    80000704:	1a03b303          	ld	t1,416(t2)
    80000708:	0210893b          	mulw	s2,ra,ra
    8000070c:	37018323          	sb	a6,870(gp) # 80002276 <__global_pointer$+0x366>
    80000710:	01fd023b          	addw	tp,s10,t6
    80000714:	00000617          	auipc	a2,0x0
    80000718:	71960613          	addi	a2,a2,1817 # 80000e2d <test_end+0x429>
    8000071c:	4029d83b          	sraw	a6,s3,sp
    80000720:	00050493          	mv	s1,a0
    80000724:	00000c13          	li	s8,0
    80000728:	00001117          	auipc	sp,0x1
    8000072c:	8a510113          	addi	sp,sp,-1883 # 80000fcd <test_end+0x5c9>
    80000730:	72b61b83          	lh	s7,1835(a2)
    80000734:	00000693          	li	a3,0
    80000738:	00068913          	mv	s2,a3
    8000073c:	00000093          	li	ra,0
    80000740:	00100793          	li	a5,1
    80000744:	536131a3          	sd	s6,1315(sp)
    80000748:	03fe1e13          	slli	t3,t3,0x3f
    8000074c:	03f79793          	slli	a5,a5,0x3f
    80000750:	013988bb          	addw	a7,s3,s3
    80000754:	00048f93          	mv	t6,s1
    80000758:	fff00a93          	li	s5,-1
    8000075c:	ea100193          	li	gp,-351
    80000760:	f3e18813          	addi	a6,gp,-194 # 80001e4e <_end+0x73e>
    80000764:	01cacab3          	xor	s5,s5,t3
    80000768:	00058513          	mv	a0,a1
    8000076c:	00e75db3          	srl	s11,a4,a4
    80000770:	01577733          	and	a4,a4,s5
    80000774:	82e82983          	lw	s3,-2002(a6)
    80000778:	01c76f33          	or	t5,a4,t3
    8000077c:	d6418d13          	addi	s10,gp,-668 # 80001c74 <_end+0x564>
    80000780:	028458b3          	divu	a7,s0,s0
    80000784:	00100a13          	li	s4,1
    80000788:	99e740e3          	blt	a4,t5,80000108 <crash_backward>
    8000078c:	03fa1a13          	slli	s4,s4,0x3f
    80000790:	c0e00413          	li	s0,-1010
    80000794:	00028113          	mv	sp,t0
    80000798:	963d58e3          	bge	s10,gp,80000108 <crash_backward>
    8000079c:	24a5ea63          	bltu	a1,a0,800009f0 <crash_forward>
    800007a0:	00845233          	srl	tp,s0,s0
    800007a4:	fff00b13          	li	s6,-1
    800007a8:	00001617          	auipc	a2,0x1
    800007ac:	a4660613          	addi	a2,a2,-1466 # 800011ee <reg_x29_init+0x6>
    800007b0:	17163d23          	sd	a7,378(a2)
    800007b4:	00010493          	mv	s1,sp
    800007b8:	00001417          	auipc	s0,0x1
    800007bc:	c1840413          	addi	s0,s0,-1000 # 800013d0 <test_memory+0xd0>
    800007c0:	9c318d13          	addi	s10,gp,-1597 # 800018d3 <_end+0x1c3>
    800007c4:	014b4b33          	xor	s6,s6,s4
    800007c8:	0cc46f03          	lwu	t5,204(s0)
    800007cc:	016bf3b3          	and	t2,s7,s6
    800007d0:	92916ce3          	bltu	sp,s1,80000108 <crash_backward>
    800007d4:	005289b3          	add	s3,t0,t0
    800007d8:	02a544b3          	div	s1,a0,a0
    800007dc:	d12d0703          	lb	a4,-750(s10)
    800007e0:	0143e2b3          	or	t0,t2,s4
    800007e4:	eda00213          	li	tp,-294
    800007e8:	bf020f93          	addi	t6,tp,-1040 # 377edbf0 <_start-0x48812410>
    800007ec:	1fc00193          	li	gp,508
    800007f0:	00001897          	auipc	a7,0x1
    800007f4:	de188893          	addi	a7,a7,-543 # 800015d1 <test_memory+0x2d1>
    800007f8:	00001c17          	auipc	s8,0x1
    800007fc:	81bc0c13          	addi	s8,s8,-2021 # 80001013 <tohost+0x13>
    80000800:	f3e88483          	lb	s1,-194(a7)
    80000804:	e1900413          	li	s0,-487
    80000808:	cdd00093          	li	ra,-803
    8000080c:	1e538263          	beq	t2,t0,800009f0 <crash_forward>
    80000810:	86e40113          	addi	sp,s0,-1938
    80000814:	fff00c93          	li	s9,-1
    80000818:	023185bb          	mulw	a1,gp,gp
    8000081c:	0d800e13          	li	t3,216
    80000820:	3ddc3503          	ld	a0,989(s8)
    80000824:	e2900813          	li	a6,-471
    80000828:	08900993          	li	s3,137
    8000082c:	03008abb          	mulw	s5,ra,a6
    80000830:	5e598f13          	addi	t5,s3,1509
    80000834:	1a4fde63          	bge	t6,tp,800009f0 <crash_forward>
    80000838:	00fcccb3          	xor	s9,s9,a5
    8000083c:	019dfeb3          	and	t4,s11,s9
    80000840:	013a01bb          	addw	gp,s4,s3
    80000844:	027130b3          	mulhu	ra,sp,t2
    80000848:	00f7e333          	or	t1,a5,a5
    8000084c:	00100593          	li	a1,1
    80000850:	bc418293          	addi	t0,gp,-1084 # 80001ad4 <_end+0x3c4>
    80000854:	00001817          	auipc	a6,0x1
    80000858:	c2380813          	addi	a6,a6,-989 # 80001477 <test_memory+0x177>
    8000085c:	8be986e3          	beq	s3,t5,80000108 <crash_backward>
    80000860:	97900a13          	li	s4,-1671
    80000864:	00100913          	li	s2,1
    80000868:	e44a0113          	addi	sp,s4,-444
    8000086c:	33f00893          	li	a7,831
    80000870:	8e400b13          	li	s6,-1820
    80000874:	03f91913          	slli	s2,s2,0x3f
    80000878:	fff00693          	li	a3,-1
    8000087c:	162a6a63          	bltu	s4,sp,800009f0 <crash_forward>
    80000880:	035ae0b3          	rem	ra,s5,s5
    80000884:	038c753b          	remuw	a0,s8,s8
    80000888:	0368f73b          	remuw	a4,a7,s6
    8000088c:	b362da83          	lhu	s5,-1226(t0)
    80000890:	187818a3          	sh	t2,401(a6)
    80000894:	0126c6b3          	xor	a3,a3,s2
    80000898:	01fff3b3          	and	t2,t6,t6
    8000089c:	03ce3633          	mulhu	a2,t3,t3
    800008a0:	00d9fbb3          	and	s7,s3,a3
    800008a4:	9b000413          	li	s0,-1616
    800008a8:	03f59593          	slli	a1,a1,0x3f
    800008ac:	012bedb3          	or	s11,s7,s2
    800008b0:	146ec063          	blt	t4,t1,800009f0 <crash_forward>
    800008b4:	a8918713          	addi	a4,gp,-1399 # 80001999 <_end+0x289>
    800008b8:	00d6b333          	sltu	t1,a3,a3
    800008bc:	00030c93          	mv	s9,t1
    800008c0:	87918e13          	addi	t3,gp,-1927 # 80001789 <_end+0x79>
    800008c4:	00001b17          	auipc	s6,0x1
    800008c8:	a86b0b13          	addi	s6,s6,-1402 # 8000134a <test_memory+0x4a>
    800008cc:	c5800d13          	li	s10,-936
    800008d0:	c2318293          	addi	t0,gp,-989 # 80001b33 <_end+0x423>
    800008d4:	b712e103          	lwu	sp,-1167(t0)
    800008d8:	8bc00a13          	li	s4,-1860
    800008dc:	00001897          	auipc	a7,0x1
    800008e0:	96388893          	addi	a7,a7,-1693 # 8000123f <reg_x7_output+0x7>
    800008e4:	032ed7b3          	divu	a5,t4,s2
    800008e8:	00100393          	li	t2,1
    800008ec:	03a4623b          	remw	tp,s0,s10
    800008f0:	c4f71503          	lh	a0,-945(a4)
    800008f4:	3b78a6a3          	sw	s7,941(a7)
    800008f8:	a8800813          	li	a6,-1400
    800008fc:	000c8193          	mv	gp,s9
    80000900:	030a40b3          	div	ra,s4,a6
    80000904:	03f39393          	slli	t2,t2,0x3f
    80000908:	803c90e3          	bne	s9,gp,80000108 <crash_backward>
    8000090c:	00217bb3          	and	s7,sp,sp
    80000910:	fb100313          	li	t1,-79
    80000914:	00000817          	auipc	a6,0x0
    80000918:	5bb80813          	addi	a6,a6,1467 # 80000ecf <test_end+0x4cb>
    8000091c:	75183c83          	ld	s9,1873(a6)
    80000920:	00cd01bb          	addw	gp,s10,a2
    80000924:	fff00c13          	li	s8,-1
    80000928:	176b5f03          	lhu	t5,374(s6)
    8000092c:	00636133          	or	sp,t1,t1
    80000930:	f4300793          	li	a5,-189
    80000934:	fff00993          	li	s3,-1
    80000938:	00058913          	mv	s2,a1
    8000093c:	00090e93          	mv	t4,s2
    80000940:	00bc4c33          	xor	s8,s8,a1
    80000944:	0079c9b3          	xor	s3,s3,t2
    80000948:	cdb00d93          	li	s11,-805
    8000094c:	01b786bb          	addw	a3,a5,s11
    80000950:	0139f633          	and	a2,s3,s3
    80000954:	018affb3          	and	t6,s5,s8
    80000958:	00766ab3          	or	s5,a2,t2
    8000095c:	00bfe4b3          	or	s1,t6,a1
    80000960:	0040006f          	j	80000964 <reg_dump>

0000000080000964 <reg_dump>:
    80000964:	00001097          	auipc	ra,0x1
    80000968:	d9c08093          	addi	ra,ra,-612 # 80001700 <loop_count>
    8000096c:	0000a103          	lw	sp,0(ra)
    80000970:	fff10193          	addi	gp,sp,-1
    80000974:	0030a023          	sw	gp,0(ra)
    80000978:	820118e3          	bnez	sp,800001a8 <pseg_0>
    8000097c:	00001097          	auipc	ra,0x1
    80000980:	88408093          	addi	ra,ra,-1916 # 80001200 <begin_signature>
    80000984:	0000b023          	sd	zero,0(ra)
    80000988:	0020b823          	sd	sp,16(ra)
    8000098c:	0030bc23          	sd	gp,24(ra)
    80000990:	0240b023          	sd	tp,32(ra)
    80000994:	0260b823          	sd	t1,48(ra)
    80000998:	0270bc23          	sd	t2,56(ra)
    8000099c:	0480b023          	sd	s0,64(ra)
    800009a0:	0490b423          	sd	s1,72(ra)
    800009a4:	04a0b823          	sd	a0,80(ra)
    800009a8:	04b0bc23          	sd	a1,88(ra)
    800009ac:	06c0b023          	sd	a2,96(ra)
    800009b0:	06d0b423          	sd	a3,104(ra)
    800009b4:	06f0bc23          	sd	a5,120(ra)
    800009b8:	0920b823          	sd	s2,144(ra)
    800009bc:	0930bc23          	sd	s3,152(ra)
    800009c0:	0b40b023          	sd	s4,160(ra)
    800009c4:	0b50b423          	sd	s5,168(ra)
    800009c8:	0b70bc23          	sd	s7,184(ra)
    800009cc:	0d80b023          	sd	s8,192(ra)
    800009d0:	0d90b423          	sd	s9,200(ra)
    800009d4:	0da0b823          	sd	s10,208(ra)
    800009d8:	0db0bc23          	sd	s11,216(ra)
    800009dc:	0fc0b023          	sd	t3,224(ra)
    800009e0:	0fd0b423          	sd	t4,232(ra)
    800009e4:	0fe0b823          	sd	t5,240(ra)
    800009e8:	0ff0bc23          	sd	t6,248(ra)
    800009ec:	0180006f          	j	80000a04 <test_end>

00000000800009f0 <crash_forward>:
    800009f0:	0ff0000f          	fence
    800009f4:	00018063          	beqz	gp,800009f4 <crash_forward+0x4>
    800009f8:	00119193          	slli	gp,gp,0x1
    800009fc:	0011e193          	ori	gp,gp,1
    80000a00:	00000073          	ecall

0000000080000a04 <test_end>:
    80000a04:	0ff0000f          	fence
    80000a08:	00100193          	li	gp,1
    80000a0c:	00000073          	ecall
    80000a10:	c0001073          	unimp
	...

Disassembly of section .tohost:

0000000080001000 <tohost>:
	...

0000000080001040 <fromhost>:
	...
