
test.elf:     file format elf64-littleriscv


Disassembly of section .text.init:

0000000080000000 <_start>:
    80000000:	0580006f          	j	80000058 <reset_vector>

0000000080000004 <trap_vector>:
    80000004:	34202f73          	csrr	t5,mcause
    80000008:	00800f93          	li	t6,8
    8000000c:	05ff0063          	beq	t5,t6,8000004c <write_tohost>
    80000010:	00900f93          	li	t6,9
    80000014:	03ff0c63          	beq	t5,t6,8000004c <write_tohost>
    80000018:	00b00f93          	li	t6,11
    8000001c:	03ff0863          	beq	t5,t6,8000004c <write_tohost>
    80000020:	00000f13          	li	t5,0
    80000024:	000f0463          	beqz	t5,8000002c <trap_vector+0x28>
    80000028:	000f0067          	jr	t5
    8000002c:	34202f73          	csrr	t5,mcause
    80000030:	000f5463          	bgez	t5,80000038 <handle_exception>
    80000034:	0140006f          	j	80000048 <other_exception>

0000000080000038 <handle_exception>:
    80000038:	34102e73          	csrr	t3,mepc
    8000003c:	004e0e13          	addi	t3,t3,4
    80000040:	341e1073          	csrw	mepc,t3
    80000044:	30200073          	mret

0000000080000048 <other_exception>:
    80000048:	5391e193          	ori	gp,gp,1337

000000008000004c <write_tohost>:
    8000004c:	00001f17          	auipc	t5,0x1
    80000050:	fa3f2a23          	sw	gp,-76(t5) # 80001000 <tohost>
    80000054:	ff9ff06f          	j	8000004c <write_tohost>

0000000080000058 <reset_vector>:
    80000058:	f1402573          	csrr	a0,mhartid
    8000005c:	00051063          	bnez	a0,8000005c <reset_vector+0x4>
    80000060:	00000297          	auipc	t0,0x0
    80000064:	01028293          	addi	t0,t0,16 # 80000070 <reset_vector+0x18>
    80000068:	30529073          	csrw	mtvec,t0
    8000006c:	18005073          	csrwi	satp,0
    80000070:	00000297          	auipc	t0,0x0
    80000074:	01c28293          	addi	t0,t0,28 # 8000008c <reset_vector+0x34>
    80000078:	30529073          	csrw	mtvec,t0
    8000007c:	fff00293          	li	t0,-1
    80000080:	3b029073          	csrw	pmpaddr0,t0
    80000084:	01f00293          	li	t0,31
    80000088:	3a029073          	csrw	pmpcfg0,t0
    8000008c:	00000297          	auipc	t0,0x0
    80000090:	01828293          	addi	t0,t0,24 # 800000a4 <reset_vector+0x4c>
    80000094:	30529073          	csrw	mtvec,t0
    80000098:	30205073          	csrwi	medeleg,0
    8000009c:	30305073          	csrwi	mideleg,0
    800000a0:	30405073          	csrwi	mie,0
    800000a4:	00000193          	li	gp,0
    800000a8:	00000297          	auipc	t0,0x0
    800000ac:	f5c28293          	addi	t0,t0,-164 # 80000004 <trap_vector>
    800000b0:	30529073          	csrw	mtvec,t0
    800000b4:	00100513          	li	a0,1
    800000b8:	01f51513          	slli	a0,a0,0x1f
    800000bc:	00055863          	bgez	a0,800000cc <reset_vector+0x74>
    800000c0:	0ff0000f          	fence
    800000c4:	00100193          	li	gp,1
    800000c8:	00000073          	ecall
    800000cc:	00000293          	li	t0,0
    800000d0:	00028e63          	beqz	t0,800000ec <reset_vector+0x94>
    800000d4:	10529073          	csrw	stvec,t0
    800000d8:	0000b2b7          	lui	t0,0xb
    800000dc:	1092829b          	addiw	t0,t0,265
    800000e0:	30229073          	csrw	medeleg,t0
    800000e4:	30202373          	csrr	t1,medeleg
    800000e8:	f66290e3          	bne	t0,t1,80000048 <other_exception>
    800000ec:	30005073          	csrwi	mstatus,0
    800000f0:	00000297          	auipc	t0,0x0
    800000f4:	01428293          	addi	t0,t0,20 # 80000104 <reset_vector+0xac>
    800000f8:	34129073          	csrw	mepc,t0
    800000fc:	f1402573          	csrr	a0,mhartid
    80000100:	30200073          	mret
    80000104:	0180006f          	j	8000011c <test_start>

0000000080000108 <crash_backward>:
    80000108:	0ff0000f          	fence
    8000010c:	00018063          	beqz	gp,8000010c <crash_backward+0x4>
    80000110:	00119193          	slli	gp,gp,0x1
    80000114:	0011e193          	ori	gp,gp,1
    80000118:	00000073          	ecall

000000008000011c <test_start>:
    8000011c:	00001f97          	auipc	t6,0x1
    80000120:	fe4f8f93          	addi	t6,t6,-28 # 80001100 <hidden_data>
    80000124:	000fb003          	ld	zero,0(t6)
    80000128:	008fb083          	ld	ra,8(t6)
    8000012c:	010fb103          	ld	sp,16(t6)
    80000130:	018fb183          	ld	gp,24(t6)
    80000134:	020fb203          	ld	tp,32(t6)
    80000138:	028fb283          	ld	t0,40(t6)
    8000013c:	030fb303          	ld	t1,48(t6)
    80000140:	038fb383          	ld	t2,56(t6)
    80000144:	040fb403          	ld	s0,64(t6)
    80000148:	048fb483          	ld	s1,72(t6)
    8000014c:	050fb503          	ld	a0,80(t6)
    80000150:	058fb583          	ld	a1,88(t6)
    80000154:	060fb603          	ld	a2,96(t6)
    80000158:	068fb683          	ld	a3,104(t6)
    8000015c:	070fb703          	ld	a4,112(t6)
    80000160:	078fb783          	ld	a5,120(t6)
    80000164:	080fb803          	ld	a6,128(t6)
    80000168:	088fb883          	ld	a7,136(t6)
    8000016c:	090fb903          	ld	s2,144(t6)
    80000170:	098fb983          	ld	s3,152(t6)
    80000174:	0a0fba03          	ld	s4,160(t6)
    80000178:	0a8fba83          	ld	s5,168(t6)
    8000017c:	0b0fbb03          	ld	s6,176(t6)
    80000180:	0b8fbb83          	ld	s7,184(t6)
    80000184:	0c0fbc03          	ld	s8,192(t6)
    80000188:	0c8fbc83          	ld	s9,200(t6)
    8000018c:	0d0fbd03          	ld	s10,208(t6)
    80000190:	0d8fbd83          	ld	s11,216(t6)
    80000194:	0e0fbe03          	ld	t3,224(t6)
    80000198:	0e8fbe83          	ld	t4,232(t6)
    8000019c:	0f0fbf03          	ld	t5,240(t6)
    800001a0:	0f8fbf83          	ld	t6,248(t6)
    800001a4:	0040006f          	j	800001a8 <pseg_0>

00000000800001a8 <pseg_0>:
    800001a8:	00001d97          	auipc	s11,0x1
    800001ac:	1e6d8d93          	addi	s11,s11,486 # 8000138e <test_memory+0x8e>
    800001b0:	01ad513b          	srlw	sp,s10,s10
    800001b4:	2d200713          	li	a4,722
    800001b8:	02e718b3          	mulh	a7,a4,a4
    800001bc:	00001817          	auipc	a6,0x1
    800001c0:	15080813          	addi	a6,a6,336 # 8000130c <test_memory+0xc>
    800001c4:	c2318293          	addi	t0,gp,-989 # 80001b33 <_end+0x423>
    800001c8:	000a8f13          	mv	t5,s5
    800001cc:	00001417          	auipc	s0,0x1
    800001d0:	5ef40413          	addi	s0,s0,1519 # 800017bb <_end+0xab>
    800001d4:	6d600d13          	li	s10,1750
    800001d8:	03ad5bb3          	divu	s7,s10,s10
    800001dc:	b0a29aa3          	sh	a0,-1259(t0)
    800001e0:	00001497          	auipc	s1,0x1
    800001e4:	d1448493          	addi	s1,s1,-748 # 80000ef4 <test_end+0x500>
    800001e8:	6124ba23          	sd	s2,1556(s1)
    800001ec:	d1018393          	addi	t2,gp,-752 # 80001c20 <_end+0x510>
    800001f0:	00001797          	auipc	a5,0x1
    800001f4:	39178793          	addi	a5,a5,913 # 80001581 <test_memory+0x281>
    800001f8:	da400593          	li	a1,-604
    800001fc:	00001a17          	auipc	s4,0x1
    80000200:	1efa0a13          	addi	s4,s4,495 # 800013eb <test_memory+0xeb>
    80000204:	dc918913          	addi	s2,gp,-567 # 80001cd9 <_end+0x5c9>
    80000208:	c4a40203          	lb	tp,-950(s0)
    8000020c:	cf018f93          	addi	t6,gp,-784 # 80001c00 <_end+0x4f0>
    80000210:	f1ba1603          	lh	a2,-229(s4)
    80000214:	8483b303          	ld	t1,-1976(t2)
    80000218:	a8cf9123          	sh	a2,-1406(t6)
    8000021c:	d8400193          	li	gp,-636
    80000220:	00000713          	li	a4,0
    80000224:	00001697          	auipc	a3,0x1
    80000228:	dac68693          	addi	a3,a3,-596 # 80000fd0 <test_end+0x5dc>
    8000022c:	003589bb          	addw	s3,a1,gp
    80000230:	ac700d13          	li	s10,-1337
    80000234:	00001117          	auipc	sp,0x1
    80000238:	4ed10113          	addi	sp,sp,1261 # 80001721 <_end+0x11>
    8000023c:	9b190523          	sb	a7,-1622(s2)
    80000240:	300db923          	sd	zero,786(s11)
    80000244:	000f0c13          	mv	s8,t5
    80000248:	663d2a13          	slti	s4,s10,1635
    8000024c:	e5e00213          	li	tp,-418
    80000250:	03bc14b3          	mulh	s1,s8,s11
    80000254:	00000b93          	li	s7,0
    80000258:	98f00093          	li	ra,-1649
    8000025c:	c0500c93          	li	s9,-1019
    80000260:	e99121a3          	sw	s9,-381(sp)
    80000264:	bb118913          	addi	s2,gp,-1103 # 80001ac1 <_end+0x3b1>
    80000268:	000c0a13          	mv	s4,s8
    8000026c:	23486a83          	lwu	s5,564(a6)
    80000270:	e99cece3          	bltu	s9,s9,80000108 <crash_backward>
    80000274:	00100993          	li	s3,1
    80000278:	4766db03          	lhu	s6,1142(a3)
    8000027c:	021d62b3          	rem	t0,s10,ra
    80000280:	bbe93ba3          	sd	t5,-1097(s2)
    80000284:	758f1e63          	bne	t5,s8,800009e0 <crash_forward>
    80000288:	74006c63          	bltu	zero,zero,800009e0 <crash_forward>
    8000028c:	000a0893          	mv	a7,s4
    80000290:	015a9db3          	sll	s11,s5,s5
    80000294:	03f99993          	slli	s3,s3,0x3f
    80000298:	4e300413          	li	s0,1251
    8000029c:	000b8e93          	mv	t4,s7
    800002a0:	efd7a5a3          	sw	t4,-277(a5)
    800002a4:	039ce533          	rem	a0,s9,s9
    800002a8:	00825fbb          	srlw	t6,tp,s0
    800002ac:	000e8e13          	mv	t3,t4
    800002b0:	fff00613          	li	a2,-1
    800002b4:	0318cf33          	div	t5,a7,a7
    800002b8:	00001297          	auipc	t0,0x1
    800002bc:	9bd28293          	addi	t0,t0,-1603 # 80000c75 <test_end+0x281>
    800002c0:	00001817          	auipc	a6,0x1
    800002c4:	2ac80813          	addi	a6,a6,684 # 8000156c <test_memory+0x26c>
    800002c8:	01364633          	xor	a2,a2,s3
    800002cc:	d2700e13          	li	t3,-729
    800002d0:	00100793          	li	a5,1
    800002d4:	40215233          	sra	tp,sp,sp
    800002d8:	9de18513          	addi	a0,gp,-1570 # 800018ee <_end+0x1de>
    800002dc:	03f79793          	slli	a5,a5,0x3f
    800002e0:	813e0393          	addi	t2,t3,-2029
    800002e4:	02481a83          	lh	s5,36(a6)
    800002e8:	72428223          	sb	tp,1828(t0)
    800002ec:	01ff8b33          	add	s6,t6,t6
    800002f0:	00c8f1b3          	and	gp,a7,a2
    800002f4:	00001097          	auipc	ra,0x1
    800002f8:	d1d08093          	addi	ra,ra,-739 # 80001011 <tohost+0x11>
    800002fc:	dff52123          	sw	t6,-542(a0)
    80000300:	fff00e93          	li	t4,-1
    80000304:	3b70b903          	ld	s2,951(ra)
    80000308:	be218713          	addi	a4,gp,-1054 # 80001af2 <_end+0x3e2>
    8000030c:	0131e5b3          	or	a1,gp,s3
    80000310:	a0e73d03          	ld	s10,-1522(a4)
    80000314:	6c7e6663          	bltu	t3,t2,800009e0 <crash_forward>
    80000318:	00feceb3          	xor	t4,t4,a5
    8000031c:	01d676b3          	and	a3,a2,t4
    80000320:	00f6ebb3          	or	s7,a3,a5
    80000324:	df76f2e3          	bgeu	a3,s7,80000108 <crash_backward>
    80000328:	00001a17          	auipc	s4,0x1
    8000032c:	d97a0a13          	addi	s4,s4,-617 # 800010bf <fromhost+0x7f>
    80000330:	00001597          	auipc	a1,0x1
    80000334:	23358593          	addi	a1,a1,563 # 80001563 <test_memory+0x263>
    80000338:	4bb00d13          	li	s10,1211
    8000033c:	0010a9b3          	slt	s3,ra,ra
    80000340:	00100193          	li	gp,1
    80000344:	acd00313          	li	t1,-1331
    80000348:	008ad633          	srl	a2,s5,s0
    8000034c:	03c7df93          	srli	t6,a5,0x3c
    80000350:	039cd93b          	divuw	s2,s9,s9
    80000354:	0ec00713          	li	a4,236
    80000358:	4e600d93          	li	s11,1254
    8000035c:	02ecd693          	srli	a3,s9,0x2e
    80000360:	b3400f13          	li	t5,-1228
    80000364:	02d6bbb3          	mulhu	s7,a3,a3
    80000368:	003196bb          	sllw	a3,gp,gp
    8000036c:	84400293          	li	t0,-1980
    80000370:	03ed513b          	divuw	sp,s10,t5
    80000374:	c9318893          	addi	a7,gp,-877 # 80001ba3 <_end+0x493>
    80000378:	01021433          	sll	s0,tp,a6
    8000037c:	e1959c83          	lh	s9,-487(a1)
    80000380:	c9d18993          	addi	s3,gp,-867 # 80001bad <_end+0x49d>
    80000384:	0252dc33          	divu	s8,t0,t0
    80000388:	99d30a93          	addi	s5,t1,-1635
    8000038c:	a379cf83          	lbu	t6,-1481(s3)
    80000390:	03f19193          	slli	gp,gp,0x3f
    80000394:	50e00613          	li	a2,1294
    80000398:	06a60b93          	addi	s7,a2,106
    8000039c:	a3100b13          	li	s6,-1487
    800003a0:	036b783b          	remuw	a6,s6,s6
    800003a4:	626ade63          	bge	s5,t1,800009e0 <crash_forward>
    800003a8:	00001917          	auipc	s2,0x1
    800003ac:	3dc90913          	addi	s2,s2,988 # 80001784 <_end+0x74>
    800003b0:	34ca30a3          	sd	a2,833(s4)
    800003b4:	fff00493          	li	s1,-1
    800003b8:	d4cbe8e3          	bltu	s7,a2,80000108 <crash_backward>
    800003bc:	01b72e33          	slt	t3,a4,s11
    800003c0:	b578d783          	lhu	a5,-1193(a7)
    800003c4:	0034c4b3          	xor	s1,s1,gp
    800003c8:	009d7eb3          	and	t4,s10,s1
    800003cc:	74600b93          	li	s7,1862
    800003d0:	00001297          	auipc	t0,0x1
    800003d4:	c9828293          	addi	t0,t0,-872 # 80001068 <fromhost+0x28>
    800003d8:	41a18f3b          	subw	t5,gp,s10
    800003dc:	2bbe899b          	addiw	s3,t4,699
    800003e0:	02007233          	remu	tp,zero,zero
    800003e4:	f5218b13          	addi	s6,gp,-174 # 80001e62 <_end+0x752>
    800003e8:	0c200f93          	li	t6,194
    800003ec:	003ee533          	or	a0,t4,gp
    800003f0:	00001417          	auipc	s0,0x1
    800003f4:	c5240413          	addi	s0,s0,-942 # 80001042 <fromhost+0x2>
    800003f8:	842b2a03          	lw	s4,-1982(s6)
    800003fc:	5eae8263          	beq	t4,a0,800009e0 <crash_forward>
    80000400:	85e00c13          	li	s8,-1954
    80000404:	adb00d13          	li	s10,-1317
    80000408:	495f8693          	addi	a3,t6,1173
    8000040c:	44900c93          	li	s9,1097
    80000410:	39700113          	li	sp,919
    80000414:	0274d8b3          	divu	a7,s1,t2
    80000418:	00005dbb          	srlw	s11,zero,zero
    8000041c:	037bd3bb          	divuw	t2,s7,s7
    80000420:	caf92623          	sw	a5,-852(s2)
    80000424:	67f40c23          	sb	t6,1656(s0)
    80000428:	25fc8813          	addi	a6,s9,607
    8000042c:	00001097          	auipc	ra,0x1
    80000430:	1e508093          	addi	ra,ra,485 # 80001611 <test_memory+0x311>
    80000434:	022155b3          	divu	a1,sp,sp
    80000438:	cd0cd8e3          	bge	s9,a6,80000108 <crash_backward>
    8000043c:	5adfd263          	bge	t6,a3,800009e0 <crash_forward>
    80000440:	00000793          	li	a5,0
    80000444:	03ad4ab3          	div	s5,s10,s10
    80000448:	56e29303          	lh	t1,1390(t0)
    8000044c:	fd500713          	li	a4,-43
    80000450:	fba0afa3          	sw	s10,-65(ra)
    80000454:	00000e13          	li	t3,0
    80000458:	00ec5633          	srl	a2,s8,a4
    8000045c:	00001317          	auipc	t1,0x1
    80000460:	92230313          	addi	t1,t1,-1758 # 80000d7e <test_end+0x38a>
    80000464:	00001697          	auipc	a3,0x1
    80000468:	35a68693          	addi	a3,a3,858 # 800017be <_end+0xae>
    8000046c:	60c00c13          	li	s8,1548
    80000470:	0019113b          	sllw	sp,s2,ra
    80000474:	00001a97          	auipc	s5,0x1
    80000478:	f1ca8a93          	addi	s5,s5,-228 # 80001390 <test_memory+0x90>
    8000047c:	01200b13          	li	s6,18
    80000480:	78500a13          	li	s4,1925
    80000484:	0e7aa823          	sw	t2,240(s5)
    80000488:	00001717          	auipc	a4,0x1
    8000048c:	8b070713          	addi	a4,a4,-1872 # 80000d38 <test_end+0x344>
    80000490:	8c300913          	li	s2,-1853
    80000494:	33800513          	li	a0,824
    80000498:	03a195b3          	mulh	a1,gp,s10
    8000049c:	07c00793          	li	a5,124
    800004a0:	72632603          	lw	a2,1830(t1)
    800004a4:	8df00393          	li	t2,-1825
    800004a8:	6e275483          	lhu	s1,1762(a4)
    800004ac:	00001c97          	auipc	s9,0x1
    800004b0:	971c8c93          	addi	s9,s9,-1679 # 80000e1d <test_end+0x429>
    800004b4:	2af00f93          	li	t6,687
    800004b8:	00ad81b3          	add	gp,s11,a0
    800004bc:	7c2ca9a3          	sw	sp,2003(s9)
    800004c0:	012b4eb3          	xor	t4,s6,s2
    800004c4:	a9800d13          	li	s10,-1384
    800004c8:	00cf1593          	slli	a1,t5,0xc
    800004cc:	00000217          	auipc	tp,0x0
    800004d0:	7dc20213          	addi	tp,tp,2012 # 80000ca8 <test_end+0x2b4>
    800004d4:	01f38bbb          	addw	s7,t2,t6
    800004d8:	16100413          	li	s0,353
    800004dc:	00001497          	auipc	s1,0x1
    800004e0:	9a248493          	addi	s1,s1,-1630 # 80000e7e <test_end+0x48a>
    800004e4:	41a78833          	sub	a6,a5,s10
    800004e8:	69da0893          	addi	a7,s4,1693
    800004ec:	514489a3          	sb	s4,1299(s1)
    800004f0:	57600293          	li	t0,1398
    800004f4:	aa118813          	addi	a6,gp,-1375 # 800019b1 <_end+0x2a1>
    800004f8:	00001197          	auipc	gp,0x1
    800004fc:	dcd18193          	addi	gp,gp,-563 # 800012c5 <reg_x24_output+0x5>
    80000500:	02c60e3b          	mulw	t3,a2,a2
    80000504:	79d21d23          	sh	t4,1946(tp) # 79a <_start-0x7ffff866>
    80000508:	1d200f93          	li	t6,466
    8000050c:	00001b17          	auipc	s6,0x1
    80000510:	a02b0b13          	addi	s6,s6,-1534 # 80000f0e <test_end+0x51a>
    80000514:	03ffa3b3          	mulhsu	t2,t6,t6
    80000518:	008569b3          	or	s3,a0,s0
    8000051c:	bfd00593          	li	a1,-1027
    80000520:	16018923          	sb	zero,370(gp) # 80002082 <__global_pointer$+0x172>
    80000524:	15800913          	li	s2,344
    80000528:	6fcb5b83          	lhu	s7,1788(s6)
    8000052c:	64e00e93          	li	t4,1614
    80000530:	bd48ece3          	bltu	a7,s4,80000108 <crash_backward>
    80000534:	01d5b133          	sltu	sp,a1,t4
    80000538:	e366ed83          	lwu	s11,-458(a3)
    8000053c:	01fc9f1b          	slliw	t5,s9,0x1f
    80000540:	ed600a93          	li	s5,-298
    80000544:	b0783d03          	ld	s10,-1273(a6)
    80000548:	b3b00793          	li	a5,-1221
    8000054c:	035af73b          	remuw	a4,s5,s5
    80000550:	005c50bb          	srlw	ra,s8,t0
    80000554:	7c100513          	li	a0,1985
    80000558:	00001c97          	auipc	s9,0x1
    8000055c:	10ec8c93          	addi	s9,s9,270 # 80001666 <test_memory+0x366>
    80000560:	ddeca103          	lw	sp,-546(s9)
    80000564:	00008893          	mv	a7,ra
    80000568:	01bde333          	or	t1,s11,s11
    8000056c:	00001497          	auipc	s1,0x1
    80000570:	19248493          	addi	s1,s1,402 # 800016fe <test_memory+0x3fe>
    80000574:	c4200f13          	li	t5,-958
    80000578:	00ea3333          	sltu	t1,s4,a4
    8000057c:	00000d93          	li	s11,0
    80000580:	dec49923          	sh	a2,-526(s1)
    80000584:	6b300193          	li	gp,1715
    80000588:	0175813b          	addw	sp,a1,s7
    8000058c:	015acbb3          	xor	s7,s5,s5
    80000590:	00001c17          	auipc	s8,0x1
    80000594:	055c0c13          	addi	s8,s8,85 # 800015e5 <test_memory+0x2e5>
    80000598:	6d600693          	li	a3,1750
    8000059c:	00001c97          	auipc	s9,0x1
    800005a0:	bb2c8c93          	addi	s9,s9,-1102 # 8000114e <reg_x9_init+0x6>
    800005a4:	00088f93          	mv	t6,a7
    800005a8:	43f89c63          	bne	a7,t6,800009e0 <crash_forward>
    800005ac:	40f9063b          	subw	a2,s2,a5
    800005b0:	00d53e33          	sltu	t3,a0,a3
    800005b4:	00001b97          	auipc	s7,0x1
    800005b8:	20ab8b93          	addi	s7,s7,522 # 800017be <_end+0xae>
    800005bc:	02eac3b3          	div	t2,s5,a4
    800005c0:	00001e97          	auipc	t4,0x1
    800005c4:	ad3e8e93          	addi	t4,t4,-1325 # 80001093 <fromhost+0x53>
    800005c8:	00100813          	li	a6,1
    800005cc:	38ecd103          	lhu	sp,910(s9)
    800005d0:	352eaaa3          	sw	s2,853(t4)
    800005d4:	e2118213          	addi	tp,gp,-479 # 80001d31 <_end+0x621>
    800005d8:	d12b9d23          	sh	s2,-742(s7)
    800005dc:	c8800b13          	li	s6,-888
    800005e0:	03f81813          	slli	a6,a6,0x3f
    800005e4:	d3a00513          	li	a0,-710
    800005e8:	00001697          	auipc	a3,0x1
    800005ec:	85168693          	addi	a3,a3,-1967 # 80000e39 <test_end+0x445>
    800005f0:	02babe33          	mulhu	t3,s5,a1
    800005f4:	ae700893          	li	a7,-1305
    800005f8:	4ff6a483          	lw	s1,1279(a3)
    800005fc:	c6500993          	li	s3,-923
    80000600:	403f05bb          	subw	a1,t5,gp
    80000604:	03156133          	rem	sp,a0,a7
    80000608:	85121d03          	lh	s10,-1967(tp) # fffffffffffff851 <__global_pointer$+0xffffffff7fffd941>
    8000060c:	00001797          	auipc	a5,0x1
    80000610:	f7b78793          	addi	a5,a5,-133 # 80001587 <test_memory+0x287>
    80000614:	033b5abb          	divuw	s5,s6,s3
    80000618:	fff00a13          	li	s4,-1
    8000061c:	00001b97          	auipc	s7,0x1
    80000620:	c77b8b93          	addi	s7,s7,-905 # 80001293 <reg_x18_output+0x3>
    80000624:	04578da3          	sb	t0,91(a5)
    80000628:	00100493          	li	s1,1
    8000062c:	00001217          	auipc	tp,0x1
    80000630:	cfb20213          	addi	tp,tp,-773 # 80001327 <test_memory+0x27>
    80000634:	00000093          	li	ra,0
    80000638:	035a8d3b          	mulw	s10,s5,s5
    8000063c:	3a1de263          	bltu	s11,ra,800009e0 <crash_forward>
    80000640:	00001197          	auipc	gp,0x1
    80000644:	92418193          	addi	gp,gp,-1756 # 80000f64 <test_end+0x570>
    80000648:	e03c2403          	lw	s0,-509(s8)
    8000064c:	0c0bc903          	lbu	s2,192(s7)
    80000650:	00b5fe33          	and	t3,a1,a1
    80000654:	b7818793          	addi	a5,gp,-1160 # 80001a88 <_end+0x378>
    80000658:	010a4a33          	xor	s4,s4,a6
    8000065c:	9be7a823          	sw	t5,-1616(a5)
    80000660:	45c1b623          	sd	t3,1100(gp) # 8000235c <__global_pointer$+0x44c>
    80000664:	00001697          	auipc	a3,0x1
    80000668:	d5368693          	addi	a3,a3,-685 # 800013b7 <test_memory+0xb7>
    8000066c:	00001e97          	auipc	t4,0x1
    80000670:	08be8e93          	addi	t4,t4,139 # 800016f7 <test_memory+0x3f7>
    80000674:	4ab00c13          	li	s8,1195
    80000678:	014172b3          	and	t0,sp,s4
    8000067c:	0102e733          	or	a4,t0,a6
    80000680:	d7000e13          	li	t3,-656
    80000684:	0324b133          	mulhu	sp,s1,s2
    80000688:	03f49493          	slli	s1,s1,0x3f
    8000068c:	c9fe8fa3          	sb	t6,-865(t4)
    80000690:	3a922883          	lw	a7,937(tp) # 3a9 <_start-0x7ffffc57>
    80000694:	00001597          	auipc	a1,0x1
    80000698:	fea58593          	addi	a1,a1,-22 # 8000167e <test_memory+0x37e>
    8000069c:	00100c93          	li	s9,1
    800006a0:	a9518d13          	addi	s10,gp,-1387 # 800019a5 <_end+0x295>
    800006a4:	d8259223          	sh	sp,-636(a1)
    800006a8:	03fc9c93          	slli	s9,s9,0x3f
    800006ac:	fff00f93          	li	t6,-1
    800006b0:	9b3d6083          	lwu	ra,-1613(s10)
    800006b4:	01df17bb          	sllw	a5,t5,t4
    800006b8:	1d048e9b          	addiw	t4,s1,464
    800006bc:	019fcfb3          	xor	t6,t6,s9
    800006c0:	03cc1433          	mulh	s0,s8,t3
    800006c4:	00001197          	auipc	gp,0x1
    800006c8:	c5718193          	addi	gp,gp,-937 # 8000131b <test_memory+0x1b>
    800006cc:	fff00513          	li	a0,-1
    800006d0:	42500293          	li	t0,1061
    800006d4:	37d18d83          	lb	s11,893(gp) # 8000228d <__global_pointer$+0x37d>
    800006d8:	04d6ab03          	lw	s6,77(a3)
    800006dc:	0052893b          	addw	s2,t0,t0
    800006e0:	cde00a93          	li	s5,-802
    800006e4:	00954533          	xor	a0,a0,s1
    800006e8:	00fe9233          	sll	tp,t4,a5
    800006ec:	015a8a33          	add	s4,s5,s5
    800006f0:	01f87633          	and	a2,a6,t6
    800006f4:	4a200813          	li	a6,1186
    800006f8:	1a300713          	li	a4,419
    800006fc:	00001d17          	auipc	s10,0x1
    80000700:	951d0d13          	addi	s10,s10,-1711 # 8000104d <fromhost+0xd>
    80000704:	00e80133          	add	sp,a6,a4
    80000708:	00000b93          	li	s7,0
    8000070c:	00001797          	auipc	a5,0x1
    80000710:	ea678793          	addi	a5,a5,-346 # 800015b2 <test_memory+0x2b2>
    80000714:	6bf08c13          	addi	s8,ra,1727
    80000718:	00a77f33          	and	t5,a4,a0
    8000071c:	00000e97          	auipc	t4,0x0
    80000720:	5e4e8e93          	addi	t4,t4,1508 # 80000d00 <test_end+0x30c>
    80000724:	0b479b03          	lh	s6,180(a5)
    80000728:	00100e13          	li	t3,1
    8000072c:	3d500113          	li	sp,981
    80000730:	022107bb          	mulw	a5,sp,sp
    80000734:	009f69b3          	or	s3,t5,s1
    80000738:	7ecee703          	lwu	a4,2028(t4)
    8000073c:	620d11a3          	sh	zero,1571(s10)
    80000740:	00000893          	li	a7,0
    80000744:	49500693          	li	a3,1173
    80000748:	00001e97          	auipc	t4,0x1
    8000074c:	840e8e93          	addi	t4,t4,-1984 # 80000f88 <test_end+0x594>
    80000750:	c2700413          	li	s0,-985
    80000754:	57ee81a3          	sb	t5,1379(t4)
    80000758:	07f00113          	li	sp,127
    8000075c:	0221773b          	remuw	a4,sp,sp
    80000760:	03fe1e13          	slli	t3,t3,0x3f
    80000764:	00001b17          	auipc	s6,0x1
    80000768:	061b0b13          	addi	s6,s6,97 # 800017c5 <_end+0xb5>
    8000076c:	00100113          	li	sp,1
    80000770:	00001d17          	auipc	s10,0x1
    80000774:	a89d0d13          	addi	s10,s10,-1399 # 800011f9 <reg_x31_init+0x1>
    80000778:	53500a13          	li	s4,1333
    8000077c:	019a6333          	or	t1,s4,s9
    80000780:	03f11113          	slli	sp,sp,0x3f
    80000784:	993f72e3          	bgeu	t5,s3,80000108 <crash_backward>
    80000788:	7f400593          	li	a1,2036
    8000078c:	96c35ee3          	bge	t1,a2,80000108 <crash_backward>
    80000790:	bc5b0783          	lb	a5,-1083(s6)
    80000794:	84c00213          	li	tp,-1972
    80000798:	8c700713          	li	a4,-1849
    8000079c:	004472b3          	and	t0,s0,tp
    800007a0:	02b6d1b3          	divu	gp,a3,a1
    800007a4:	00e77bb3          	and	s7,a4,a4
    800007a8:	fff00093          	li	ra,-1
    800007ac:	df277393          	andi	t2,a4,-526
    800007b0:	fff00913          	li	s2,-1
    800007b4:	01c94933          	xor	s2,s2,t3
    800007b8:	012cfab3          	and	s5,s9,s2
    800007bc:	cea18213          	addi	tp,gp,-790 # 80001bfa <_end+0x4ea>
    800007c0:	2b700b93          	li	s7,695
    800007c4:	d2d00413          	li	s0,-723
    800007c8:	d4100393          	li	t2,-703
    800007cc:	dd900813          	li	a6,-551
    800007d0:	89322323          	sw	s3,-1914(tp) # fffffffffffff886 <__global_pointer$+0xffffffff7fffd976>
    800007d4:	01ccedb3          	or	s11,s9,t3
    800007d8:	e4b00793          	li	a5,-437
    800007dc:	0f300313          	li	t1,243
    800007e0:	00000297          	auipc	t0,0x0
    800007e4:	7bf28293          	addi	t0,t0,1983 # 80000f9f <test_end+0x5ab>
    800007e8:	13bd37a3          	sd	s11,303(s10)
    800007ec:	0267ff3b          	remuw	t5,a5,t1
    800007f0:	00001597          	auipc	a1,0x1
    800007f4:	d3458593          	addi	a1,a1,-716 # 80001524 <test_memory+0x224>
    800007f8:	7572d983          	lhu	s3,1879(t0)
    800007fc:	0073853b          	addw	a0,t2,t2
    80000800:	a2b18313          	addi	t1,gp,-1493 # 8000193b <_end+0x22b>
    80000804:	90e00493          	li	s1,-1778
    80000808:	0020c0b3          	xor	ra,ra,sp
    8000080c:	4094db33          	sra	s6,s1,s1
    80000810:	00147eb3          	and	t4,s0,ra
    80000814:	7ec00f93          	li	t6,2028
    80000818:	00000717          	auipc	a4,0x0
    8000081c:	58570713          	addi	a4,a4,1413 # 80000d9d <test_end+0x3a9>
    80000820:	03f45633          	divu	a2,s0,t6
    80000824:	68c00f13          	li	t5,1676
    80000828:	00000797          	auipc	a5,0x0
    8000082c:	73378793          	addi	a5,a5,1843 # 80000f5b <test_end+0x567>
    80000830:	037bc1b3          	div	gp,s7,s7
    80000834:	a4533c83          	ld	s9,-1467(t1)
    80000838:	e3800693          	li	a3,-456
    8000083c:	40df5d33          	sra	s10,t5,a3
    80000840:	030a5c33          	divu	s8,s4,a6
    80000844:	002ee8b3          	or	a7,t4,sp
    80000848:	8d1ef0e3          	bgeu	t4,a7,80000108 <crash_backward>
    8000084c:	5d4725a3          	sw	s4,1483(a4)
    80000850:	fb85be23          	sd	s8,-68(a1)
    80000854:	4117e203          	lwu	tp,1041(a5)
    80000858:	ffe00193          	li	gp,-2
    8000085c:	ecc00d13          	li	s10,-308
    80000860:	00100413          	li	s0,1
    80000864:	039ce8bb          	remw	a7,s9,s9
    80000868:	5bb00493          	li	s1,1467
    8000086c:	03d78733          	mul	a4,a5,t4
    80000870:	01c7d233          	srl	tp,a5,t3
    80000874:	0031c6b3          	xor	a3,gp,gp
    80000878:	9b200f13          	li	t5,-1614
    8000087c:	cf800993          	li	s3,-776
    80000880:	d9600f93          	li	t6,-618
    80000884:	00000d97          	auipc	s11,0x0
    80000888:	736d8d93          	addi	s11,s11,1846 # 80000fba <test_end+0x5c6>
    8000088c:	bee00b13          	li	s6,-1042
    80000890:	03ce62b3          	rem	t0,t3,t3
    80000894:	41f98933          	sub	s2,s3,t6
    80000898:	01e5d6bb          	srlw	a3,a1,t5
    8000089c:	03e4e53b          	remw	a0,s1,t5
    800008a0:	413151b3          	sra	gp,sp,s3
    800008a4:	03ad53b3          	divu	t2,s10,s10
    800008a8:	01ce2133          	slt	sp,t3,t3
    800008ac:	9ec18213          	addi	tp,gp,-1556 # 800018fc <_end+0x1ec>
    800008b0:	00100313          	li	t1,1
    800008b4:	bc022e23          	sw	zero,-1060(tp) # fffffffffffffbdc <__global_pointer$+0xffffffff7fffdccc>
    800008b8:	4353dc13          	srai	s8,t2,0x35
    800008bc:	03f31313          	slli	t1,t1,0x3f
    800008c0:	3f3da323          	sw	s3,998(s11)
    800008c4:	fff00b93          	li	s7,-1
    800008c8:	03f41413          	slli	s0,s0,0x3f
    800008cc:	4ed00f93          	li	t6,1261
    800008d0:	367f8993          	addi	s3,t6,871
    800008d4:	bd6b0c93          	addi	s9,s6,-1066
    800008d8:	8c200813          	li	a6,-1854
    800008dc:	a3d00a93          	li	s5,-1475
    800008e0:	00001497          	auipc	s1,0x1
    800008e4:	f1b48493          	addi	s1,s1,-229 # 800017fb <_end+0xeb>
    800008e8:	fff00793          	li	a5,-1
    800008ec:	0087c7b3          	xor	a5,a5,s0
    800008f0:	00100393          	li	t2,1
    800008f4:	00001e17          	auipc	t3,0x1
    800008f8:	88ee0e13          	addi	t3,t3,-1906 # 80001182 <reg_x16_init+0x2>
    800008fc:	00f175b3          	and	a1,sp,a5
    80000900:	b2c49aa3          	sh	a2,-1227(s1)
    80000904:	03f39393          	slli	t2,t2,0x3f
    80000908:	0df9ec63          	bltu	s3,t6,800009e0 <crash_forward>
    8000090c:	008d6a33          	or	s4,s10,s0
    80000910:	006bcbb3          	xor	s7,s7,t1
    80000914:	00001897          	auipc	a7,0x1
    80000918:	88388893          	addi	a7,a7,-1917 # 80001197 <reg_x18_init+0x7>
    8000091c:	feba6663          	bltu	s4,a1,80000108 <crash_backward>
    80000920:	415800bb          	subw	ra,a6,s5
    80000924:	00213733          	sltu	a4,sp,sp
    80000928:	45ae0623          	sb	s10,1100(t3)
    8000092c:	fff00113          	li	sp,-1
    80000930:	25d8a283          	lw	t0,605(a7)
    80000934:	00714133          	xor	sp,sp,t2
    80000938:	0176f633          	and	a2,a3,s7
    8000093c:	00666eb3          	or	t4,a2,t1
    80000940:	fccee463          	bltu	t4,a2,80000108 <crash_backward>
    80000944:	002eff33          	and	t5,t4,sp
    80000948:	00736533          	or	a0,t1,t2
    8000094c:	faaf7e63          	bgeu	t5,a0,80000108 <crash_backward>
    80000950:	0040006f          	j	80000954 <reg_dump>

0000000080000954 <reg_dump>:
    80000954:	00001097          	auipc	ra,0x1
    80000958:	dac08093          	addi	ra,ra,-596 # 80001700 <loop_count>
    8000095c:	0000a103          	lw	sp,0(ra)
    80000960:	fff10193          	addi	gp,sp,-1
    80000964:	0030a023          	sw	gp,0(ra)
    80000968:	840110e3          	bnez	sp,800001a8 <pseg_0>
    8000096c:	00001097          	auipc	ra,0x1
    80000970:	89408093          	addi	ra,ra,-1900 # 80001200 <begin_signature>
    80000974:	0000b023          	sd	zero,0(ra)
    80000978:	0020b823          	sd	sp,16(ra)
    8000097c:	0030bc23          	sd	gp,24(ra)
    80000980:	0250b423          	sd	t0,40(ra)
    80000984:	0260b823          	sd	t1,48(ra)
    80000988:	0270bc23          	sd	t2,56(ra)
    8000098c:	0480b023          	sd	s0,64(ra)
    80000990:	04a0b823          	sd	a0,80(ra)
    80000994:	04b0bc23          	sd	a1,88(ra)
    80000998:	06c0b023          	sd	a2,96(ra)
    8000099c:	06d0b423          	sd	a3,104(ra)
    800009a0:	06e0b823          	sd	a4,112(ra)
    800009a4:	06f0bc23          	sd	a5,120(ra)
    800009a8:	0900b023          	sd	a6,128(ra)
    800009ac:	0920b823          	sd	s2,144(ra)
    800009b0:	0930bc23          	sd	s3,152(ra)
    800009b4:	0b40b023          	sd	s4,160(ra)
    800009b8:	0b50b423          	sd	s5,168(ra)
    800009bc:	0b60b823          	sd	s6,176(ra)
    800009c0:	0b70bc23          	sd	s7,184(ra)
    800009c4:	0d80b023          	sd	s8,192(ra)
    800009c8:	0d90b423          	sd	s9,200(ra)
    800009cc:	0da0b823          	sd	s10,208(ra)
    800009d0:	0fd0b423          	sd	t4,232(ra)
    800009d4:	0fe0b823          	sd	t5,240(ra)
    800009d8:	0ff0bc23          	sd	t6,248(ra)
    800009dc:	0180006f          	j	800009f4 <test_end>

00000000800009e0 <crash_forward>:
    800009e0:	0ff0000f          	fence
    800009e4:	00018063          	beqz	gp,800009e4 <crash_forward+0x4>
    800009e8:	00119193          	slli	gp,gp,0x1
    800009ec:	0011e193          	ori	gp,gp,1
    800009f0:	00000073          	ecall

00000000800009f4 <test_end>:
    800009f4:	0ff0000f          	fence
    800009f8:	00100193          	li	gp,1
    800009fc:	00000073          	ecall
    80000a00:	c0001073          	unimp
	...

Disassembly of section .tohost:

0000000080001000 <tohost>:
	...

0000000080001040 <fromhost>:
	...
