
test.elf:     file format elf64-littleriscv


Disassembly of section .text.init:

0000000080000000 <_start>:
    80000000:	0580006f          	j	80000058 <reset_vector>

0000000080000004 <trap_vector>:
    80000004:	34202f73          	csrr	t5,mcause
    80000008:	00800f93          	li	t6,8
    8000000c:	05ff0063          	beq	t5,t6,8000004c <write_tohost>
    80000010:	00900f93          	li	t6,9
    80000014:	03ff0c63          	beq	t5,t6,8000004c <write_tohost>
    80000018:	00b00f93          	li	t6,11
    8000001c:	03ff0863          	beq	t5,t6,8000004c <write_tohost>
    80000020:	00000f13          	li	t5,0
    80000024:	000f0463          	beqz	t5,8000002c <trap_vector+0x28>
    80000028:	000f0067          	jr	t5
    8000002c:	34202f73          	csrr	t5,mcause
    80000030:	000f5463          	bgez	t5,80000038 <handle_exception>
    80000034:	0140006f          	j	80000048 <other_exception>

0000000080000038 <handle_exception>:
    80000038:	34102e73          	csrr	t3,mepc
    8000003c:	004e0e13          	addi	t3,t3,4
    80000040:	341e1073          	csrw	mepc,t3
    80000044:	30200073          	mret

0000000080000048 <other_exception>:
    80000048:	5391e193          	ori	gp,gp,1337

000000008000004c <write_tohost>:
    8000004c:	00001f17          	auipc	t5,0x1
    80000050:	fa3f2a23          	sw	gp,-76(t5) # 80001000 <tohost>
    80000054:	ff9ff06f          	j	8000004c <write_tohost>

0000000080000058 <reset_vector>:
    80000058:	f1402573          	csrr	a0,mhartid
    8000005c:	00051063          	bnez	a0,8000005c <reset_vector+0x4>
    80000060:	00000297          	auipc	t0,0x0
    80000064:	01028293          	addi	t0,t0,16 # 80000070 <reset_vector+0x18>
    80000068:	30529073          	csrw	mtvec,t0
    8000006c:	18005073          	csrwi	satp,0
    80000070:	00000297          	auipc	t0,0x0
    80000074:	01c28293          	addi	t0,t0,28 # 8000008c <reset_vector+0x34>
    80000078:	30529073          	csrw	mtvec,t0
    8000007c:	fff00293          	li	t0,-1
    80000080:	3b029073          	csrw	pmpaddr0,t0
    80000084:	01f00293          	li	t0,31
    80000088:	3a029073          	csrw	pmpcfg0,t0
    8000008c:	00000297          	auipc	t0,0x0
    80000090:	01828293          	addi	t0,t0,24 # 800000a4 <reset_vector+0x4c>
    80000094:	30529073          	csrw	mtvec,t0
    80000098:	30205073          	csrwi	medeleg,0
    8000009c:	30305073          	csrwi	mideleg,0
    800000a0:	30405073          	csrwi	mie,0
    800000a4:	00000193          	li	gp,0
    800000a8:	00000297          	auipc	t0,0x0
    800000ac:	f5c28293          	addi	t0,t0,-164 # 80000004 <trap_vector>
    800000b0:	30529073          	csrw	mtvec,t0
    800000b4:	00100513          	li	a0,1
    800000b8:	01f51513          	slli	a0,a0,0x1f
    800000bc:	00055863          	bgez	a0,800000cc <reset_vector+0x74>
    800000c0:	0ff0000f          	fence
    800000c4:	00100193          	li	gp,1
    800000c8:	00000073          	ecall
    800000cc:	00000293          	li	t0,0
    800000d0:	00028e63          	beqz	t0,800000ec <reset_vector+0x94>
    800000d4:	10529073          	csrw	stvec,t0
    800000d8:	0000b2b7          	lui	t0,0xb
    800000dc:	1092829b          	addiw	t0,t0,265
    800000e0:	30229073          	csrw	medeleg,t0
    800000e4:	30202373          	csrr	t1,medeleg
    800000e8:	f66290e3          	bne	t0,t1,80000048 <other_exception>
    800000ec:	30005073          	csrwi	mstatus,0
    800000f0:	00000297          	auipc	t0,0x0
    800000f4:	01428293          	addi	t0,t0,20 # 80000104 <reset_vector+0xac>
    800000f8:	34129073          	csrw	mepc,t0
    800000fc:	f1402573          	csrr	a0,mhartid
    80000100:	30200073          	mret
    80000104:	0180006f          	j	8000011c <test_start>

0000000080000108 <crash_backward>:
    80000108:	0ff0000f          	fence
    8000010c:	00018063          	beqz	gp,8000010c <crash_backward+0x4>
    80000110:	00119193          	slli	gp,gp,0x1
    80000114:	0011e193          	ori	gp,gp,1
    80000118:	00000073          	ecall

000000008000011c <test_start>:
    8000011c:	00001f97          	auipc	t6,0x1
    80000120:	fe4f8f93          	addi	t6,t6,-28 # 80001100 <hidden_data>
    80000124:	000fb003          	ld	zero,0(t6)
    80000128:	008fb083          	ld	ra,8(t6)
    8000012c:	010fb103          	ld	sp,16(t6)
    80000130:	018fb183          	ld	gp,24(t6)
    80000134:	020fb203          	ld	tp,32(t6)
    80000138:	028fb283          	ld	t0,40(t6)
    8000013c:	030fb303          	ld	t1,48(t6)
    80000140:	038fb383          	ld	t2,56(t6)
    80000144:	040fb403          	ld	s0,64(t6)
    80000148:	048fb483          	ld	s1,72(t6)
    8000014c:	050fb503          	ld	a0,80(t6)
    80000150:	058fb583          	ld	a1,88(t6)
    80000154:	060fb603          	ld	a2,96(t6)
    80000158:	068fb683          	ld	a3,104(t6)
    8000015c:	070fb703          	ld	a4,112(t6)
    80000160:	078fb783          	ld	a5,120(t6)
    80000164:	080fb803          	ld	a6,128(t6)
    80000168:	088fb883          	ld	a7,136(t6)
    8000016c:	090fb903          	ld	s2,144(t6)
    80000170:	098fb983          	ld	s3,152(t6)
    80000174:	0a0fba03          	ld	s4,160(t6)
    80000178:	0a8fba83          	ld	s5,168(t6)
    8000017c:	0b0fbb03          	ld	s6,176(t6)
    80000180:	0b8fbb83          	ld	s7,184(t6)
    80000184:	0c0fbc03          	ld	s8,192(t6)
    80000188:	0c8fbc83          	ld	s9,200(t6)
    8000018c:	0d0fbd03          	ld	s10,208(t6)
    80000190:	0d8fbd83          	ld	s11,216(t6)
    80000194:	0e0fbe03          	ld	t3,224(t6)
    80000198:	0e8fbe83          	ld	t4,232(t6)
    8000019c:	0f0fbf03          	ld	t5,240(t6)
    800001a0:	0f8fbf83          	ld	t6,248(t6)
    800001a4:	0040006f          	j	800001a8 <pseg_0>

00000000800001a8 <pseg_0>:
    800001a8:	09600893          	li	a7,150
    800001ac:	2ad00593          	li	a1,685
    800001b0:	03b4f6b3          	remu	a3,s1,s11
    800001b4:	00001217          	auipc	tp,0x1
    800001b8:	48a20213          	addi	tp,tp,1162 # 8000163e <test_memory+0x33e>
    800001bc:	16e00a93          	li	s5,366
    800001c0:	00001e97          	auipc	t4,0x1
    800001c4:	401e8e93          	addi	t4,t4,1025 # 800015c1 <test_memory+0x2c1>
    800001c8:	b1818c13          	addi	s8,gp,-1256 # 80001a28 <_end+0x318>
    800001cc:	040044e3          	bltz	zero,80000a14 <crash_forward>
    800001d0:	d9c18713          	addi	a4,gp,-612 # 80001cac <_end+0x59c>
    800001d4:	42405793          	srai	a5,zero,0x24
    800001d8:	88872e23          	sw	s0,-1892(a4)
    800001dc:	42000a13          	li	s4,1056
    800001e0:	d1b18313          	addi	t1,gp,-741 # 80001c2b <_end+0x51b>
    800001e4:	9f200d93          	li	s11,-1550
    800001e8:	36100413          	li	s0,865
    800001ec:	00000513          	li	a0,0
    800001f0:	030b07bb          	mulw	a5,s6,a6
    800001f4:	415ad93b          	sraw	s2,s5,s5
    800001f8:	d12d8993          	addi	s3,s11,-750
    800001fc:	00028813          	mv	a6,t0
    80000200:	de1eb3a3          	sd	ra,-537(t4)
    80000204:	3c900a93          	li	s5,969
    80000208:	158a0293          	addi	t0,s4,344
    8000020c:	30788613          	addi	a2,a7,775
    80000210:	00001d17          	auipc	s10,0x1
    80000214:	fadd0d13          	addi	s10,s10,-83 # 800011bd <reg_x23_init+0x5>
    80000218:	31ed0da3          	sb	t5,795(s10)
    8000021c:	84330c23          	sb	gp,-1960(t1)
    80000220:	7fb9da63          	bge	s3,s11,80000a14 <crash_forward>
    80000224:	039207bb          	mulw	a5,tp,s9
    80000228:	02b5df3b          	divuw	t5,a1,a1
    8000022c:	015a893b          	addw	s2,s5,s5
    80000230:	40840bb3          	sub	s7,s0,s0
    80000234:	24000c93          	li	s9,576
    80000238:	000d8393          	mv	t2,s11
    8000023c:	016e3133          	sltu	sp,t3,s6
    80000240:	e9e22f83          	lw	t6,-354(tp) # fffffffffffffe9e <__global_pointer$+0xffffffff7fffdf8e>
    80000244:	01b25eb3          	srl	t4,tp,s11
    80000248:	00080b13          	mv	s6,a6
    8000024c:	020044b3          	div	s1,zero,zero
    80000250:	00000e13          	li	t3,0
    80000254:	00001317          	auipc	t1,0x1
    80000258:	a7730313          	addi	t1,t1,-1417 # 80000ccb <test_end+0x2a3>
    8000025c:	a1800e93          	li	t4,-1512
    80000260:	019cf1b3          	and	gp,s9,s9
    80000264:	00001d17          	auipc	s10,0x1
    80000268:	b4fd0d13          	addi	s10,s10,-1201 # 80000db3 <test_end+0x38b>
    8000026c:	6b9d1aa3          	sh	s9,1717(s10)
    80000270:	79d36603          	lwu	a2,1949(t1)
    80000274:	41ffd4b3          	sra	s1,t6,t6
    80000278:	00000d93          	li	s11,0
    8000027c:	4190559b          	sraiw	a1,zero,0x19
    80000280:	00001997          	auipc	s3,0x1
    80000284:	ad898993          	addi	s3,s3,-1320 # 80000d58 <test_end+0x330>
    80000288:	e9c510e3          	bne	a0,t3,80000108 <crash_backward>
    8000028c:	e7681ee3          	bne	a6,s6,80000108 <crash_backward>
    80000290:	bf9e8893          	addi	a7,t4,-1031
    80000294:	7749af83          	lw	t6,1908(s3)
    80000298:	00038693          	mv	a3,t2
    8000029c:	8e900b93          	li	s7,-1815
    800002a0:	b22c5083          	lhu	ra,-1246(s8)
    800002a4:	76d3e863          	bltu	t2,a3,80000a14 <crash_forward>
    800002a8:	f1560f13          	addi	t5,a2,-235
    800002ac:	02c63933          	mulhu	s2,a2,a2
    800002b0:	e5d8dce3          	bge	a7,t4,80000108 <crash_backward>
    800002b4:	928b8113          	addi	sp,s7,-1752
    800002b8:	742bce63          	blt	s7,sp,80000a14 <crash_forward>
    800002bc:	00000793          	li	a5,0
    800002c0:	2b500593          	li	a1,693
    800002c4:	54300c93          	li	s9,1347
    800002c8:	019cafb3          	slt	t6,s9,s9
    800002cc:	fc800393          	li	t2,-56
    800002d0:	023adf33          	divu	t5,s5,gp
    800002d4:	00001717          	auipc	a4,0x1
    800002d8:	bd970713          	addi	a4,a4,-1063 # 80000ead <test_end+0x485>
    800002dc:	01ffab33          	slt	s6,t6,t6
    800002e0:	aaa00293          	li	t0,-1366
    800002e4:	47846a13          	ori	s4,s0,1144
    800002e8:	00700113          	li	sp,7
    800002ec:	2b400493          	li	s1,692
    800002f0:	bea00993          	li	s3,-1046
    800002f4:	590ce613          	ori	a2,s9,1424
    800002f8:	6e3729a3          	sw	gp,1779(a4)
    800002fc:	8a900093          	li	ra,-1879
    80000300:	79e00f93          	li	t6,1950
    80000304:	6a500893          	li	a7,1701
    80000308:	29500b93          	li	s7,661
    8000030c:	70fde463          	bltu	s11,a5,80000a14 <crash_forward>
    80000310:	01ffef33          	or	t5,t6,t6
    80000314:	4fe00693          	li	a3,1278
    80000318:	67d00d13          	li	s10,1661
    8000031c:	00149c33          	sll	s8,s1,ra
    80000320:	5f8b8813          	addi	a6,s7,1528
    80000324:	0025de33          	srl	t3,a1,sp
    80000328:	40d3d53b          	sraw	a0,t2,a3
    8000032c:	00100a13          	li	s4,1
    80000330:	c3f42337          	lui	t1,0xc3f42
    80000334:	03fa1a13          	slli	s4,s4,0x3f
    80000338:	00001617          	auipc	a2,0x1
    8000033c:	b5f60613          	addi	a2,a2,-1185 # 80000e97 <test_end+0x46f>
    80000340:	00001517          	auipc	a0,0x1
    80000344:	0f150513          	addi	a0,a0,241 # 80001431 <test_memory+0x131>
    80000348:	0332feb3          	remu	t4,t0,s3
    8000034c:	0118f933          	and	s2,a7,a7
    80000350:	00000e13          	li	t3,0
    80000354:	01ad71b3          	and	gp,s10,s10
    80000358:	00000093          	li	ra,0
    8000035c:	c2b18593          	addi	a1,gp,-981 # 80001b3b <_end+0x42b>
    80000360:	54360483          	lb	s1,1347(a2)
    80000364:	00001917          	auipc	s2,0x1
    80000368:	01790913          	addi	s2,s2,23 # 8000137b <test_memory+0x7b>
    8000036c:	35196283          	lwu	t0,849(s2)
    80000370:	fff00d93          	li	s11,-1
    80000374:	00100c13          	li	s8,1
    80000378:	03fc1c13          	slli	s8,s8,0x3f
    8000037c:	f4400713          	li	a4,-188
    80000380:	042514a3          	sh	sp,73(a0)
    80000384:	f6600d13          	li	s10,-154
    80000388:	014dcdb3          	xor	s11,s11,s4
    8000038c:	5f100793          	li	a5,1521
    80000390:	01b7fb33          	and	s6,a5,s11
    80000394:	014cecb3          	or	s9,s9,s4
    80000398:	404d511b          	sraiw	sp,s10,0x4
    8000039c:	03ad11b3          	mulh	gp,s10,s10
    800003a0:	0210a133          	mulhsu	sp,ra,ra
    800003a4:	fff00f13          	li	t5,-1
    800003a8:	00001197          	auipc	gp,0x1
    800003ac:	b8618193          	addi	gp,gp,-1146 # 80000f2e <test_end+0x506>
    800003b0:	8b458123          	sb	s4,-1886(a1)
    800003b4:	88100213          	li	tp,-1919
    800003b8:	650bfe63          	bgeu	s7,a6,80000a14 <crash_forward>
    800003bc:	5ad00d13          	li	s10,1453
    800003c0:	64004a63          	bltz	zero,80000a14 <crash_forward>
    800003c4:	018f4f33          	xor	t5,t5,s8
    800003c8:	09400913          	li	s2,148
    800003cc:	62f1a523          	sw	a5,1578(gp) # 8000253a <__global_pointer$+0x62a>
    800003d0:	1d690293          	addi	t0,s2,470
    800003d4:	03bdce3b          	divw	t3,s11,s11
    800003d8:	40fe81bb          	subw	gp,t4,a5
    800003dc:	01e073b3          	and	t2,zero,t5
    800003e0:	d5700413          	li	s0,-681
    800003e4:	ff6b4b93          	xori	s7,s6,-10
    800003e8:	19000993          	li	s3,400
    800003ec:	00824ab3          	xor	s5,tp,s0
    800003f0:	a3600313          	li	t1,-1482
    800003f4:	00001117          	auipc	sp,0x1
    800003f8:	bae10113          	addi	sp,sp,-1106 # 80000fa2 <test_end+0x57a>
    800003fc:	00f70fb3          	add	t6,a4,a5
    80000400:	0183e6b3          	or	a3,t2,s8
    80000404:	00001597          	auipc	a1,0x1
    80000408:	af058593          	addi	a1,a1,-1296 # 80000ef4 <test_end+0x4cc>
    8000040c:	0069ceb3          	xor	t4,s3,t1
    80000410:	03ad4533          	div	a0,s10,s10
    80000414:	00001c97          	auipc	s9,0x1
    80000418:	35ac8c93          	addi	s9,s9,858 # 8000176e <_end+0x5e>
    8000041c:	00100b93          	li	s7,1
    80000420:	012450b3          	srl	ra,s0,s2
    80000424:	22e00b13          	li	s6,558
    80000428:	2cb00293          	li	t0,715
    8000042c:	00001d97          	auipc	s11,0x1
    80000430:	b4bd8d93          	addi	s11,s11,-1205 # 80000f77 <test_end+0x54f>
    80000434:	00001217          	auipc	tp,0x1
    80000438:	d4c20213          	addi	tp,tp,-692 # 80001180 <reg_x16_init>
    8000043c:	bbe18a13          	addi	s4,gp,-1090 # 80001ace <_end+0x3be>
    80000440:	8fea5183          	lhu	gp,-1794(s4)
    80000444:	00001e97          	auipc	t4,0x1
    80000448:	a97e8e93          	addi	t4,t4,-1385 # 80000edb <test_end+0x4b3>
    8000044c:	036b733b          	remuw	t1,s6,s6
    80000450:	45928513          	addi	a0,t0,1113
    80000454:	ba2cb783          	ld	a5,-1118(s9)
    80000458:	00001097          	auipc	ra,0x1
    8000045c:	be608093          	addi	ra,ra,-1050 # 8000103e <tohost+0x3e>
    80000460:	9bd00693          	li	a3,-1603
    80000464:	32c21903          	lh	s2,812(tp) # 32c <_start-0x7ffffcd4>
    80000468:	00d6af33          	slt	t5,a3,a3
    8000046c:	6695ba23          	sd	s1,1652(a1)
    80000470:	00001997          	auipc	s3,0x1
    80000474:	8d398993          	addi	s3,s3,-1837 # 80000d43 <test_end+0x31b>
    80000478:	00001e17          	auipc	t3,0x1
    8000047c:	db3e0e13          	addi	t3,t3,-589 # 8000122b <reg_x5_output+0x3>
    80000480:	01d901b3          	add	gp,s2,t4
    80000484:	42d11123          	sh	a3,1058(sp)
    80000488:	00001817          	auipc	a6,0x1
    8000048c:	d4580813          	addi	a6,a6,-699 # 800011cd <reg_x25_init+0x5>
    80000490:	6f59ad03          	lw	s10,1781(s3)
    80000494:	428e9da3          	sh	s0,1083(t4)
    80000498:	3e20ac03          	lw	s8,994(ra)
    8000049c:	00001897          	auipc	a7,0x1
    800004a0:	a2988893          	addi	a7,a7,-1495 # 80000ec5 <test_end+0x49d>
    800004a4:	41984603          	lbu	a2,1049(a6)
    800004a8:	00d683b3          	add	t2,a3,a3
    800004ac:	5efdb0a3          	sd	a5,1505(s11)
    800004b0:	03fb9b93          	slli	s7,s7,0x3f
    800004b4:	23de2f83          	lw	t6,573(t3)
    800004b8:	c45568e3          	bltu	a0,t0,80000108 <crash_backward>
    800004bc:	74e00413          	li	s0,1870
    800004c0:	76988fa3          	sb	s1,1919(a7)
    800004c4:	fff00a93          	li	s5,-1
    800004c8:	79e00a13          	li	s4,1950
    800004cc:	4144533b          	sraw	t1,s0,s4
    800004d0:	017acab3          	xor	s5,s5,s7
    800004d4:	015174b3          	and	s1,sp,s5
    800004d8:	0174e733          	or	a4,s1,s7
    800004dc:	015483bb          	addw	t2,s1,s5
    800004e0:	28e00b93          	li	s7,654
    800004e4:	00001817          	auipc	a6,0x1
    800004e8:	e3a80813          	addi	a6,a6,-454 # 8000131e <test_memory+0x1e>
    800004ec:	61800f13          	li	t5,1560
    800004f0:	fd800713          	li	a4,-40
    800004f4:	00001317          	auipc	t1,0x1
    800004f8:	1d730313          	addi	t1,t1,471 # 800016cb <test_memory+0x3cb>
    800004fc:	00005233          	srl	tp,zero,zero
    80000500:	00733133          	sltu	sp,t1,t2
    80000504:	02eb9433          	mulh	s0,s7,a4
    80000508:	00001f97          	auipc	t6,0x1
    8000050c:	15af8f93          	addi	t6,t6,346 # 80001662 <test_memory+0x362>
    80000510:	12000e13          	li	t3,288
    80000514:	f7100d93          	li	s11,-143
    80000518:	00100393          	li	t2,1
    8000051c:	f52f9783          	lh	a5,-174(t6)
    80000520:	98118693          	addi	a3,gp,-1663 # 80001891 <_end+0x181>
    80000524:	03f39393          	slli	t2,t2,0x3f
    80000528:	78a04cb7          	lui	s9,0x78a04
    8000052c:	a5f00513          	li	a0,-1441
    80000530:	41be593b          	sraw	s2,t3,s11
    80000534:	419cdebb          	sraw	t4,s9,s9
    80000538:	f1f35583          	lhu	a1,-225(t1)
    8000053c:	9d500d13          	li	s10,-1579
    80000540:	ac86cc03          	lbu	s8,-1336(a3)
    80000544:	036254bb          	divuw	s1,tp,s6
    80000548:	a7000913          	li	s2,-1424
    8000054c:	156807a3          	sb	s6,335(a6)
    80000550:	00001897          	auipc	a7,0x1
    80000554:	ee288893          	addi	a7,a7,-286 # 80001432 <test_memory+0x132>
    80000558:	00001a17          	auipc	s4,0x1
    8000055c:	c86a0a13          	addi	s4,s4,-890 # 800011de <reg_x27_init+0x6>
    80000560:	41ad563b          	sraw	a2,s10,s10
    80000564:	06b00e13          	li	t3,107
    80000568:	00001a97          	auipc	s5,0x1
    8000056c:	9d5a8a93          	addi	s5,s5,-1579 # 80000f3d <test_end+0x515>
    80000570:	01338733          	add	a4,t2,s3
    80000574:	00af72b3          	and	t0,t5,a0
    80000578:	c5918193          	addi	gp,gp,-935 # 80001b69 <_end+0x459>
    8000057c:	3c700613          	li	a2,967
    80000580:	677aa1a3          	sw	s7,1635(s5)
    80000584:	01ce4cb3          	xor	s9,t3,t3
    80000588:	28400793          	li	a5,644
    8000058c:	00100d93          	li	s11,1
    80000590:	d5f18493          	addi	s1,gp,-673 # 80001c6f <_end+0x55f>
    80000594:	54800093          	li	ra,1352
    80000598:	12f8a723          	sw	a5,302(a7)
    8000059c:	02f91fb3          	mulh	t6,s2,a5
    800005a0:	71500693          	li	a3,1813
    800005a4:	0010c433          	xor	s0,ra,ra
    800005a8:	3c3a4983          	lbu	s3,963(s4)
    800005ac:	a494c803          	lbu	a6,-1463(s1)
    800005b0:	03fd9d93          	slli	s11,s11,0x3f
    800005b4:	fff00113          	li	sp,-1
    800005b8:	00714133          	xor	sp,sp,t2
    800005bc:	fff00313          	li	t1,-1
    800005c0:	002dfbb3          	and	s7,s11,sp
    800005c4:	d4100093          	li	ra,-703
    800005c8:	00001717          	auipc	a4,0x1
    800005cc:	a4b70713          	addi	a4,a4,-1461 # 80001013 <tohost+0x13>
    800005d0:	01b34333          	xor	t1,t1,s11
    800005d4:	9d918e13          	addi	t3,gp,-1575 # 800018e9 <_end+0x1d9>
    800005d8:	d5de1983          	lh	s3,-675(t3)
    800005dc:	007be233          	or	tp,s7,t2
    800005e0:	00100493          	li	s1,1
    800005e4:	02d64d3b          	divw	s10,a2,a3
    800005e8:	03f49493          	slli	s1,s1,0x3f
    800005ec:	02f787bb          	mulw	a5,a5,a5
    800005f0:	44074403          	lbu	s0,1088(a4)
    800005f4:	03434cb3          	div	s9,t1,s4
    800005f8:	b04bf8e3          	bgeu	s7,tp,80000108 <crash_backward>
    800005fc:	c4208f93          	addi	t6,ra,-958
    80000600:	db300513          	li	a0,-589
    80000604:	00000a17          	auipc	s4,0x0
    80000608:	714a0a13          	addi	s4,s4,1812 # 80000d18 <test_end+0x2f0>
    8000060c:	701a1a23          	sh	ra,1812(s4)
    80000610:	e6d00293          	li	t0,-403
    80000614:	006cfeb3          	and	t4,s9,t1
    80000618:	02555c3b          	divuw	s8,a0,t0
    8000061c:	fff00813          	li	a6,-1
    80000620:	00984833          	xor	a6,a6,s1
    80000624:	010c7933          	and	s2,s8,a6
    80000628:	00550ab3          	add	s5,a0,t0
    8000062c:	01bee5b3          	or	a1,t4,s11
    80000630:	cb500613          	li	a2,-843
    80000634:	3fd5e063          	bltu	a1,t4,80000a14 <crash_forward>
    80000638:	009668b3          	or	a7,a2,s1
    8000063c:	aef1bb03          	ld	s6,-1297(gp) # 800019ff <_end+0x2ef>
    80000640:	ac300c93          	li	s9,-1341
    80000644:	419603b3          	sub	t2,a2,s9
    80000648:	3d28e663          	bltu	a7,s2,80000a14 <crash_forward>
    8000064c:	00000313          	li	t1,0
    80000650:	95d00a93          	li	s5,-1699
    80000654:	016b043b          	addw	s0,s6,s6
    80000658:	1d800513          	li	a0,472
    8000065c:	00415233          	srl	tp,sp,tp
    80000660:	000054b3          	srl	s1,zero,zero
    80000664:	00001197          	auipc	gp,0x1
    80000668:	c4318193          	addi	gp,gp,-957 # 800012a7 <reg_x20_output+0x7>
    8000066c:	00000817          	auipc	a6,0x0
    80000670:	7aa80813          	addi	a6,a6,1962 # 80000e16 <test_end+0x3ee>
    80000674:	d9b18a13          	addi	s4,gp,-613 # 80001cab <_end+0x59b>
    80000678:	a2700693          	li	a3,-1497
    8000067c:	00000997          	auipc	s3,0x0
    80000680:	7a798993          	addi	s3,s3,1959 # 80000e23 <test_end+0x3fb>
    80000684:	ab300293          	li	t0,-1357
    80000688:	00001f17          	auipc	t5,0x1
    8000068c:	8c3f0f13          	addi	t5,t5,-1853 # 80000f4b <test_end+0x523>
    80000690:	00000d93          	li	s11,0
    80000694:	02210fb3          	mul	t6,sp,sp
    80000698:	d1b00593          	li	a1,-741
    8000069c:	47700b13          	li	s6,1143
    800006a0:	17d19883          	lh	a7,381(gp) # 8000208d <__global_pointer$+0x17d>
    800006a4:	e3700913          	li	s2,-457
    800006a8:	40badcb3          	sra	s9,s5,a1
    800006ac:	997a1103          	lh	sp,-1641(s4)
    800006b0:	0056ce33          	xor	t3,a3,t0
    800006b4:	11300a93          	li	s5,275
    800006b8:	f7600193          	li	gp,-138
    800006bc:	59d84783          	lbu	a5,1437(a6)
    800006c0:	5a400393          	li	t2,1444
    800006c4:	00a53eb3          	sltu	t4,a0,a0
    800006c8:	59a98da3          	sb	s10,1435(s3)
    800006cc:	b8000293          	li	t0,-1152
    800006d0:	012b6c33          	or	s8,s6,s2
    800006d4:	ff400d13          	li	s10,-12
    800006d8:	00001417          	auipc	s0,0x1
    800006dc:	fa340413          	addi	s0,s0,-93 # 8000167b <test_memory+0x37b>
    800006e0:	00001217          	auipc	tp,0x1
    800006e4:	86520213          	addi	tp,tp,-1947 # 80000f45 <test_end+0x51d>
    800006e8:	6edf1b83          	lh	s7,1773(t5)
    800006ec:	41dede3b          	sraw	t3,t4,t4
    800006f0:	4073873b          	subw	a4,t2,t2
    800006f4:	00100a13          	li	s4,1
    800006f8:	023a86b3          	mul	a3,s5,gp
    800006fc:	31b36c63          	bltu	t1,s11,80000a14 <crash_forward>
    80000700:	901d0613          	addi	a2,s10,-1791
    80000704:	00528fbb          	addw	t6,t0,t0
    80000708:	03fa1a13          	slli	s4,s4,0x3f
    8000070c:	fff00113          	li	sp,-1
    80000710:	4094d0bb          	sraw	ra,s1,s1
    80000714:	00001817          	auipc	a6,0x1
    80000718:	d7d80813          	addi	a6,a6,-643 # 80001491 <test_memory+0x191>
    8000071c:	f6781583          	lh	a1,-153(a6)
    80000720:	fd145483          	lhu	s1,-47(s0)
    80000724:	bbb18893          	addi	a7,gp,-1093 # 80001acb <_end+0x3bb>
    80000728:	01414133          	xor	sp,sp,s4
    8000072c:	9258ac83          	lw	s9,-1755(a7)
    80000730:	ac900693          	li	a3,-1335
    80000734:	002a7b33          	and	s6,s4,sp
    80000738:	00100813          	li	a6,1
    8000073c:	00100513          	li	a0,1
    80000740:	00001197          	auipc	gp,0x1
    80000744:	c2e18193          	addi	gp,gp,-978 # 8000136e <test_memory+0x6e>
    80000748:	00001f97          	auipc	t6,0x1
    8000074c:	c26f8f93          	addi	t6,t6,-986 # 8000136e <test_memory+0x6e>
    80000750:	70b231a3          	sd	a1,1795(tp) # 703 <_start-0x7ffff8fd>
    80000754:	03f51513          	slli	a0,a0,0x3f
    80000758:	3701da83          	lhu	s5,880(gp) # 80002280 <__global_pointer$+0x370>
    8000075c:	69800e13          	li	t3,1688
    80000760:	03f81813          	slli	a6,a6,0x3f
    80000764:	fff00313          	li	t1,-1
    80000768:	fff00c13          	li	s8,-1
    8000076c:	00000897          	auipc	a7,0x0
    80000770:	6e588893          	addi	a7,a7,1765 # 80000e51 <test_end+0x429>
    80000774:	014be9b3          	or	s3,s7,s4
    80000778:	af900293          	li	t0,-1287
    8000077c:	00d6fcb3          	and	s9,a3,a3
    80000780:	38d00b93          	li	s7,909
    80000784:	02ff9123          	sh	a5,34(t6)
    80000788:	01034333          	xor	t1,t1,a6
    8000078c:	00100993          	li	s3,1
    80000790:	b2b00e93          	li	t4,-1237
    80000794:	e1b28d93          	addi	s11,t0,-485
    80000798:	d8c00093          	li	ra,-628
    8000079c:	4ff8b603          	ld	a2,1279(a7)
    800007a0:	03f99993          	slli	s3,s3,0x3f
    800007a4:	021eef3b          	remw	t5,t4,ra
    800007a8:	017e75b3          	and	a1,t3,s7
    800007ac:	01eed71b          	srliw	a4,t4,0x1e
    800007b0:	25d00113          	li	sp,605
    800007b4:	f8a00213          	li	tp,-118
    800007b8:	00ac4c33          	xor	s8,s8,a0
    800007bc:	018f77b3          	and	a5,t5,s8
    800007c0:	fff00493          	li	s1,-1
    800007c4:	00af6933          	or	s2,t5,a0
    800007c8:	0067f3b3          	and	t2,a5,t1
    800007cc:	0134c4b3          	xor	s1,s1,s3
    800007d0:	93278ce3          	beq	a5,s2,80000108 <crash_backward>
    800007d4:	0093f433          	and	s0,t2,s1
    800007d8:	c6400693          	li	a3,-924
    800007dc:	00001b97          	auipc	s7,0x1
    800007e0:	b6ab8b93          	addi	s7,s7,-1174 # 80001346 <test_memory+0x46>
    800007e4:	7c200293          	li	t0,1986
    800007e8:	ed000613          	li	a2,-304
    800007ec:	02c64cbb          	divw	s9,a2,a2
    800007f0:	59600713          	li	a4,1430
    800007f4:	9031eae3          	bltu	gp,gp,80000108 <crash_backward>
    800007f8:	1e5b8883          	lb	a7,485(s7)
    800007fc:	00000d97          	auipc	s11,0x0
    80000800:	6bdd8d93          	addi	s11,s11,1725 # 80000eb9 <test_end+0x491>
    80000804:	0138eb33          	or	s6,a7,s3
    80000808:	00568a3b          	addw	s4,a3,t0
    8000080c:	00e15a9b          	srliw	s5,sp,0xe
    80000810:	00100593          	li	a1,1
    80000814:	cc600f93          	li	t6,-826
    80000818:	03f59593          	slli	a1,a1,0x3f
    8000081c:	004151bb          	srlw	gp,sp,tp
    80000820:	1f640a63          	beq	s0,s6,80000a14 <crash_forward>
    80000824:	12400e93          	li	t4,292
    80000828:	01f71e3b          	sllw	t3,a4,t6
    8000082c:	02b4a6b3          	mulhsu	a3,s1,a1
    80000830:	ad800893          	li	a7,-1320
    80000834:	38012c93          	slti	s9,sp,896
    80000838:	00000f17          	auipc	t5,0x0
    8000083c:	7abf0f13          	addi	t5,t5,1963 # 80000fe3 <test_end+0x5bb>
    80000840:	01de80bb          	addw	ra,t4,t4
    80000844:	fff00613          	li	a2,-1
    80000848:	01188ab3          	add	s5,a7,a7
    8000084c:	56bd88a3          	sb	a1,1393(s11)
    80000850:	00001c17          	auipc	s8,0x1
    80000854:	aa7c0c13          	addi	s8,s8,-1369 # 800012f7 <reg_x30_output+0x7>
    80000858:	c5d18b93          	addi	s7,gp,-931 # 80001b6d <_end+0x45d>
    8000085c:	00b64633          	xor	a2,a2,a1
    80000860:	f6e00113          	li	sp,-146
    80000864:	00001897          	auipc	a7,0x1
    80000868:	a2788893          	addi	a7,a7,-1497 # 8000128b <reg_x17_output+0x3>
    8000086c:	02d6ba33          	mulhu	s4,a3,a3
    80000870:	f3600f93          	li	t6,-202
    80000874:	00000a97          	auipc	s5,0x0
    80000878:	60ea8a93          	addi	s5,s5,1550 # 80000e82 <test_end+0x45a>
    8000087c:	6a0f0e23          	sb	zero,1724(t5)
    80000880:	00215e33          	srl	t3,sp,sp
    80000884:	0106ed33          	or	s10,a3,a6
    80000888:	76df4093          	xori	ra,t5,1901
    8000088c:	010816b3          	sll	a3,a6,a6
    80000890:	ff000a13          	li	s4,-16
    80000894:	01ffbcb3          	sltu	s9,t6,t6
    80000898:	00000f17          	auipc	t5,0x0
    8000089c:	335f0f13          	addi	t5,t5,821 # 80000bcd <test_end+0x1a5>
    800008a0:	919b93a3          	sh	s9,-1785(s7)
    800008a4:	a8a00313          	li	t1,-1398
    800008a8:	9da00693          	li	a3,-1574
    800008ac:	759f25a3          	sw	s9,1867(t5)
    800008b0:	00000817          	auipc	a6,0x0
    800008b4:	73580813          	addi	a6,a6,1845 # 80000fe5 <test_end+0x5bd>
    800008b8:	94818b13          	addi	s6,gp,-1720 # 80001858 <_end+0x148>
    800008bc:	c84a0993          	addi	s3,s4,-892
    800008c0:	94218493          	addi	s1,gp,-1726 # 80001852 <_end+0x142>
    800008c4:	00000917          	auipc	s2,0x0
    800008c8:	72690913          	addi	s2,s2,1830 # 80000fea <test_end+0x5c2>
    800008cc:	c52b1e83          	lh	t4,-942(s6)
    800008d0:	179c1783          	lh	a5,377(s8)
    800008d4:	3fa93b23          	sd	s10,1014(s2)
    800008d8:	0cd00d13          	li	s10,205
    800008dc:	a9668113          	addi	sp,a3,-1386
    800008e0:	00c472b3          	and	t0,s0,a2
    800008e4:	3c88b6a3          	sd	s0,973(a7)
    800008e8:	c4649b23          	sh	t1,-938(s1)
    800008ec:	00b06533          	or	a0,zero,a1
    800008f0:	56400213          	li	tp,1380
    800008f4:	0252ae33          	mulhsu	t3,t0,t0
    800008f8:	39985383          	lhu	t2,921(a6)
    800008fc:	4010dbb3          	sra	s7,ra,ra
    80000900:	00100c13          	li	s8,1
    80000904:	8026c2e3          	blt	a3,sp,80000108 <crash_backward>
    80000908:	db900c93          	li	s9,-583
    8000090c:	59200413          	li	s0,1426
    80000910:	f28c8f93          	addi	t6,s9,-216 # 78a03f28 <_start-0x75fc0d8>
    80000914:	d2800913          	li	s2,-728
    80000918:	03a360bb          	remw	ra,t1,s10
    8000091c:	03fc1c13          	slli	s8,s8,0x3f
    80000920:	fffc8463          	beq	s9,t6,80000108 <crash_backward>
    80000924:	00001197          	auipc	gp,0x1
    80000928:	c2118193          	addi	gp,gp,-991 # 80001545 <test_memory+0x245>
    8000092c:	57eabd83          	ld	s11,1406(s5)
    80000930:	fff00a13          	li	s4,-1
    80000934:	018a4a33          	xor	s4,s4,s8
    80000938:	00827733          	and	a4,tp,s0
    8000093c:	ea41bda3          	sd	tp,-325(gp) # 80001dcb <_end+0x6bb>
    80000940:	e4690793          	addi	a5,s2,-442
    80000944:	fd27d263          	bge	a5,s2,80000108 <crash_backward>
    80000948:	00000e97          	auipc	t4,0x0
    8000094c:	442e8e93          	addi	t4,t4,1090 # 80000d8a <test_end+0x362>
    80000950:	00000d17          	auipc	s10,0x0
    80000954:	4ead0d13          	addi	s10,s10,1258 # 80000e3a <test_end+0x412>
    80000958:	00000097          	auipc	ra,0x0
    8000095c:	29808093          	addi	ra,ra,664 # 80000bf0 <test_end+0x1c8>
    80000960:	00100793          	li	a5,1
    80000964:	732d2303          	lw	t1,1842(s10)
    80000968:	596eb503          	ld	a0,1430(t4)
    8000096c:	014aff33          	and	t5,s5,s4
    80000970:	018f69b3          	or	s3,t5,s8
    80000974:	7e00ba83          	ld	s5,2016(ra)
    80000978:	03f79793          	slli	a5,a5,0x3f
    8000097c:	fff00d93          	li	s11,-1
    80000980:	00fdcdb3          	xor	s11,s11,a5
    80000984:	01bdfcb3          	and	s9,s11,s11
    80000988:	00f2e133          	or	sp,t0,a5
    8000098c:	0040006f          	j	80000990 <reg_dump>

0000000080000990 <reg_dump>:
    80000990:	00001097          	auipc	ra,0x1
    80000994:	d7008093          	addi	ra,ra,-656 # 80001700 <loop_count>
    80000998:	0000a103          	lw	sp,0(ra)
    8000099c:	fff10193          	addi	gp,sp,-1
    800009a0:	0030a023          	sw	gp,0(ra)
    800009a4:	800112e3          	bnez	sp,800001a8 <pseg_0>
    800009a8:	00001097          	auipc	ra,0x1
    800009ac:	85808093          	addi	ra,ra,-1960 # 80001200 <begin_signature>
    800009b0:	0000b023          	sd	zero,0(ra)
    800009b4:	0020b823          	sd	sp,16(ra)
    800009b8:	0240b023          	sd	tp,32(ra)
    800009bc:	0250b423          	sd	t0,40(ra)
    800009c0:	0260b823          	sd	t1,48(ra)
    800009c4:	0270bc23          	sd	t2,56(ra)
    800009c8:	0480b023          	sd	s0,64(ra)
    800009cc:	04a0b823          	sd	a0,80(ra)
    800009d0:	04b0bc23          	sd	a1,88(ra)
    800009d4:	06c0b023          	sd	a2,96(ra)
    800009d8:	06d0b423          	sd	a3,104(ra)
    800009dc:	06e0b823          	sd	a4,112(ra)
    800009e0:	06f0bc23          	sd	a5,120(ra)
    800009e4:	0920b823          	sd	s2,144(ra)
    800009e8:	0930bc23          	sd	s3,152(ra)
    800009ec:	0b40b023          	sd	s4,160(ra)
    800009f0:	0b50b423          	sd	s5,168(ra)
    800009f4:	0b70bc23          	sd	s7,184(ra)
    800009f8:	0d80b023          	sd	s8,192(ra)
    800009fc:	0d90b423          	sd	s9,200(ra)
    80000a00:	0db0bc23          	sd	s11,216(ra)
    80000a04:	0fc0b023          	sd	t3,224(ra)
    80000a08:	0fe0b823          	sd	t5,240(ra)
    80000a0c:	0ff0bc23          	sd	t6,248(ra)
    80000a10:	0180006f          	j	80000a28 <test_end>

0000000080000a14 <crash_forward>:
    80000a14:	0ff0000f          	fence
    80000a18:	00018063          	beqz	gp,80000a18 <crash_forward+0x4>
    80000a1c:	00119193          	slli	gp,gp,0x1
    80000a20:	0011e193          	ori	gp,gp,1
    80000a24:	00000073          	ecall

0000000080000a28 <test_end>:
    80000a28:	0ff0000f          	fence
    80000a2c:	00100193          	li	gp,1
    80000a30:	00000073          	ecall
    80000a34:	c0001073          	unimp
	...

Disassembly of section .tohost:

0000000080001000 <tohost>:
	...

0000000080001040 <fromhost>:
	...
