
test.elf:     file format elf64-littleriscv


Disassembly of section .text.init:

0000000080000000 <_start>:
    80000000:	0580006f          	j	80000058 <reset_vector>

0000000080000004 <trap_vector>:
    80000004:	34202f73          	csrr	t5,mcause
    80000008:	00800f93          	li	t6,8
    8000000c:	05ff0063          	beq	t5,t6,8000004c <write_tohost>
    80000010:	00900f93          	li	t6,9
    80000014:	03ff0c63          	beq	t5,t6,8000004c <write_tohost>
    80000018:	00b00f93          	li	t6,11
    8000001c:	03ff0863          	beq	t5,t6,8000004c <write_tohost>
    80000020:	00000f13          	li	t5,0
    80000024:	000f0463          	beqz	t5,8000002c <trap_vector+0x28>
    80000028:	000f0067          	jr	t5
    8000002c:	34202f73          	csrr	t5,mcause
    80000030:	000f5463          	bgez	t5,80000038 <handle_exception>
    80000034:	0140006f          	j	80000048 <other_exception>

0000000080000038 <handle_exception>:
    80000038:	34102e73          	csrr	t3,mepc
    8000003c:	004e0e13          	addi	t3,t3,4
    80000040:	341e1073          	csrw	mepc,t3
    80000044:	30200073          	mret

0000000080000048 <other_exception>:
    80000048:	5391e193          	ori	gp,gp,1337

000000008000004c <write_tohost>:
    8000004c:	00001f17          	auipc	t5,0x1
    80000050:	fa3f2a23          	sw	gp,-76(t5) # 80001000 <tohost>
    80000054:	ff9ff06f          	j	8000004c <write_tohost>

0000000080000058 <reset_vector>:
    80000058:	f1402573          	csrr	a0,mhartid
    8000005c:	00051063          	bnez	a0,8000005c <reset_vector+0x4>
    80000060:	00000297          	auipc	t0,0x0
    80000064:	01028293          	addi	t0,t0,16 # 80000070 <reset_vector+0x18>
    80000068:	30529073          	csrw	mtvec,t0
    8000006c:	18005073          	csrwi	satp,0
    80000070:	00000297          	auipc	t0,0x0
    80000074:	01c28293          	addi	t0,t0,28 # 8000008c <reset_vector+0x34>
    80000078:	30529073          	csrw	mtvec,t0
    8000007c:	fff00293          	li	t0,-1
    80000080:	3b029073          	csrw	pmpaddr0,t0
    80000084:	01f00293          	li	t0,31
    80000088:	3a029073          	csrw	pmpcfg0,t0
    8000008c:	00000297          	auipc	t0,0x0
    80000090:	01828293          	addi	t0,t0,24 # 800000a4 <reset_vector+0x4c>
    80000094:	30529073          	csrw	mtvec,t0
    80000098:	30205073          	csrwi	medeleg,0
    8000009c:	30305073          	csrwi	mideleg,0
    800000a0:	30405073          	csrwi	mie,0
    800000a4:	00000193          	li	gp,0
    800000a8:	00000297          	auipc	t0,0x0
    800000ac:	f5c28293          	addi	t0,t0,-164 # 80000004 <trap_vector>
    800000b0:	30529073          	csrw	mtvec,t0
    800000b4:	00100513          	li	a0,1
    800000b8:	01f51513          	slli	a0,a0,0x1f
    800000bc:	00055863          	bgez	a0,800000cc <reset_vector+0x74>
    800000c0:	0ff0000f          	fence
    800000c4:	00100193          	li	gp,1
    800000c8:	00000073          	ecall
    800000cc:	00000293          	li	t0,0
    800000d0:	00028e63          	beqz	t0,800000ec <reset_vector+0x94>
    800000d4:	10529073          	csrw	stvec,t0
    800000d8:	0000b2b7          	lui	t0,0xb
    800000dc:	1092829b          	addiw	t0,t0,265
    800000e0:	30229073          	csrw	medeleg,t0
    800000e4:	30202373          	csrr	t1,medeleg
    800000e8:	f66290e3          	bne	t0,t1,80000048 <other_exception>
    800000ec:	30005073          	csrwi	mstatus,0
    800000f0:	00000297          	auipc	t0,0x0
    800000f4:	01428293          	addi	t0,t0,20 # 80000104 <reset_vector+0xac>
    800000f8:	34129073          	csrw	mepc,t0
    800000fc:	f1402573          	csrr	a0,mhartid
    80000100:	30200073          	mret
    80000104:	0180006f          	j	8000011c <test_start>

0000000080000108 <crash_backward>:
    80000108:	0ff0000f          	fence
    8000010c:	00018063          	beqz	gp,8000010c <crash_backward+0x4>
    80000110:	00119193          	slli	gp,gp,0x1
    80000114:	0011e193          	ori	gp,gp,1
    80000118:	00000073          	ecall

000000008000011c <test_start>:
    8000011c:	00001f97          	auipc	t6,0x1
    80000120:	fe4f8f93          	addi	t6,t6,-28 # 80001100 <hidden_data>
    80000124:	000fb003          	ld	zero,0(t6)
    80000128:	008fb083          	ld	ra,8(t6)
    8000012c:	010fb103          	ld	sp,16(t6)
    80000130:	018fb183          	ld	gp,24(t6)
    80000134:	020fb203          	ld	tp,32(t6)
    80000138:	028fb283          	ld	t0,40(t6)
    8000013c:	030fb303          	ld	t1,48(t6)
    80000140:	038fb383          	ld	t2,56(t6)
    80000144:	040fb403          	ld	s0,64(t6)
    80000148:	048fb483          	ld	s1,72(t6)
    8000014c:	050fb503          	ld	a0,80(t6)
    80000150:	058fb583          	ld	a1,88(t6)
    80000154:	060fb603          	ld	a2,96(t6)
    80000158:	068fb683          	ld	a3,104(t6)
    8000015c:	070fb703          	ld	a4,112(t6)
    80000160:	078fb783          	ld	a5,120(t6)
    80000164:	080fb803          	ld	a6,128(t6)
    80000168:	088fb883          	ld	a7,136(t6)
    8000016c:	090fb903          	ld	s2,144(t6)
    80000170:	098fb983          	ld	s3,152(t6)
    80000174:	0a0fba03          	ld	s4,160(t6)
    80000178:	0a8fba83          	ld	s5,168(t6)
    8000017c:	0b0fbb03          	ld	s6,176(t6)
    80000180:	0b8fbb83          	ld	s7,184(t6)
    80000184:	0c0fbc03          	ld	s8,192(t6)
    80000188:	0c8fbc83          	ld	s9,200(t6)
    8000018c:	0d0fbd03          	ld	s10,208(t6)
    80000190:	0d8fbd83          	ld	s11,216(t6)
    80000194:	0e0fbe03          	ld	t3,224(t6)
    80000198:	0e8fbe83          	ld	t4,232(t6)
    8000019c:	0f0fbf03          	ld	t5,240(t6)
    800001a0:	0f8fbf83          	ld	t6,248(t6)
    800001a4:	0040006f          	j	800001a8 <pseg_0>

00000000800001a8 <pseg_0>:
    800001a8:	00001c97          	auipc	s9,0x1
    800001ac:	ee5c8c93          	addi	s9,s9,-283 # 8000108d <fromhost+0x4d>
    800001b0:	00001617          	auipc	a2,0x1
    800001b4:	2d560613          	addi	a2,a2,725 # 80001485 <test_memory+0x185>
    800001b8:	a4118d13          	addi	s10,gp,-1471 # 80001951 <_end+0x241>
    800001bc:	319c9683          	lh	a3,793(s9)
    800001c0:	034a2833          	mulhsu	a6,s4,s4
    800001c4:	02f7fdb3          	remu	s11,a5,a5
    800001c8:	00001697          	auipc	a3,0x1
    800001cc:	39a68693          	addi	a3,a3,922 # 80001562 <test_memory+0x262>
    800001d0:	03ab50bb          	divuw	ra,s6,s10
    800001d4:	d31d27a3          	sw	a7,-721(s10)
    800001d8:	b7e00c93          	li	s9,-1154
    800001dc:	00000313          	li	t1,0
    800001e0:	30d00e93          	li	t4,781
    800001e4:	0267b933          	mulhu	s2,a5,t1
    800001e8:	019cdab3          	srl	s5,s9,s9
    800001ec:	00001997          	auipc	s3,0x1
    800001f0:	42e98993          	addi	s3,s3,1070 # 8000161a <test_memory+0x31a>
    800001f4:	00001c97          	auipc	s9,0x1
    800001f8:	2bec8c93          	addi	s9,s9,702 # 800014b2 <test_memory+0x1b2>
    800001fc:	ec161203          	lh	tp,-319(a2)
    80000200:	00100113          	li	sp,1
    80000204:	00000c13          	li	s8,0
    80000208:	92292f93          	slti	t6,s2,-1758
    8000020c:	ed59c483          	lbu	s1,-299(s3)
    80000210:	7a004663          	bltz	zero,800009bc <crash_forward>
    80000214:	02e77a33          	remu	s4,a4,a4
    80000218:	00001b97          	auipc	s7,0x1
    8000021c:	32cb8b93          	addi	s7,s7,812 # 80001544 <test_memory+0x244>
    80000220:	c0118713          	addi	a4,gp,-1023 # 80001b11 <_end+0x401>
    80000224:	abd18d13          	addi	s10,gp,-1347 # 800019cd <_end+0x2bd>
    80000228:	44200493          	li	s1,1090
    8000022c:	00001e17          	auipc	t3,0x1
    80000230:	486e0e13          	addi	t3,t3,1158 # 800016b2 <test_memory+0x3b2>
    80000234:	1d8c8da3          	sb	s8,475(s9)
    80000238:	039ca633          	mulhsu	a2,s9,s9
    8000023c:	c0300d93          	li	s11,-1021
    80000240:	400000b3          	neg	ra,zero
    80000244:	f4b00993          	li	s3,-181
    80000248:	ed66a403          	lw	s0,-298(a3)
    8000024c:	068b9283          	lh	t0,104(s7)
    80000250:	b43d6b03          	lwu	s6,-1213(s10)
    80000254:	48b00513          	li	a0,1163
    80000258:	03f11113          	slli	sp,sp,0x3f
    8000025c:	fb100813          	li	a6,-79
    80000260:	010dd933          	srl	s2,s11,a6
    80000264:	015453bb          	srlw	t2,s0,s5
    80000268:	01348233          	add	tp,s1,s3
    8000026c:	59800913          	li	s2,1432
    80000270:	00100b93          	li	s7,1
    80000274:	d9be1523          	sh	s11,-630(t3)
    80000278:	00001617          	auipc	a2,0x1
    8000027c:	fb360613          	addi	a2,a2,-77 # 8000122b <reg_x5_output+0x3>
    80000280:	41e45a9b          	sraiw	s5,s0,0x1e
    80000284:	24566d83          	lwu	s11,581(a2)
    80000288:	03fb9b93          	slli	s7,s7,0x3f
    8000028c:	fff00293          	li	t0,-1
    80000290:	7bf90813          	addi	a6,s2,1983
    80000294:	02aec8b3          	div	a7,t4,a0
    80000298:	00001c17          	auipc	s8,0x1
    8000029c:	2cac0c13          	addi	s8,s8,714 # 80001562 <test_memory+0x262>
    800002a0:	00001d17          	auipc	s10,0x1
    800002a4:	10ad0d13          	addi	s10,s10,266 # 800013aa <test_memory+0xaa>
    800002a8:	07cc4083          	lbu	ra,124(s8)
    800002ac:	87f73183          	ld	gp,-1921(a4)
    800002b0:	bed18b13          	addi	s6,gp,-1043 # 80001afd <_end+0x3ed>
    800002b4:	d4818f93          	addi	t6,gp,-696 # 80001c58 <_end+0x548>
    800002b8:	1d1d0da3          	sb	a7,475(s10)
    800002bc:	0172c2b3          	xor	t0,t0,s7
    800002c0:	ba6b21a3          	sw	t1,-1117(s6)
    800002c4:	fff00593          	li	a1,-1
    800002c8:	984fda03          	lhu	s4,-1660(t6)
    800002cc:	0025c5b3          	xor	a1,a1,sp
    800002d0:	0054fcb3          	and	s9,s1,t0
    800002d4:	00b277b3          	and	a5,tp,a1
    800002d8:	2f262e13          	slti	t3,a2,754
    800002dc:	017fe3b3          	or	t2,t6,s7
    800002e0:	002d6f33          	or	t5,s10,sp
    800002e4:	6de7fc63          	bgeu	a5,t5,800009bc <crash_forward>
    800002e8:	5da00913          	li	s2,1498
    800002ec:	029d4fbb          	divw	t6,s10,s1
    800002f0:	02634ab3          	div	s5,t1,t1
    800002f4:	00001997          	auipc	s3,0x1
    800002f8:	1ee98993          	addi	s3,s3,494 # 800014e2 <test_memory+0x1e2>
    800002fc:	40d0823b          	subw	tp,ra,a3
    80000300:	2be90093          	addi	ra,s2,702
    80000304:	00001897          	auipc	a7,0x1
    80000308:	22688893          	addi	a7,a7,550 # 8000152a <test_memory+0x22a>
    8000030c:	1148d303          	lhu	t1,276(a7)
    80000310:	00001c97          	auipc	s9,0x1
    80000314:	c4bc8c93          	addi	s9,s9,-949 # 80000f5b <test_end+0x58b>
    80000318:	00001717          	auipc	a4,0x1
    8000031c:	f6670713          	addi	a4,a4,-154 # 8000127e <reg_x15_output+0x6>
    80000320:	00100593          	li	a1,1
    80000324:	00001917          	auipc	s2,0x1
    80000328:	47690913          	addi	s2,s2,1142 # 8000179a <_end+0x8a>
    8000032c:	17700613          	li	a2,375
    80000330:	ca691423          	sh	t1,-856(s2)
    80000334:	00001d17          	auipc	s10,0x1
    80000338:	c8cd0d13          	addi	s10,s10,-884 # 80000fc0 <test_end+0x5f0>
    8000033c:	d6900b93          	li	s7,-663
    80000340:	cba00a13          	li	s4,-838
    80000344:	00001297          	auipc	t0,0x1
    80000348:	c4a28293          	addi	t0,t0,-950 # 80000f8e <test_end+0x5be>
    8000034c:	00001217          	auipc	tp,0x1
    80000350:	32e20213          	addi	tp,tp,814 # 8000167a <test_memory+0x37a>
    80000354:	02c6043b          	mulw	s0,a2,a2
    80000358:	03f59593          	slli	a1,a1,0x3f
    8000035c:	69300393          	li	t2,1683
    80000360:	511cae03          	lw	t3,1297(s9)
    80000364:	027bc7bb          	divw	a5,s7,t2
    80000368:	00100193          	li	gp,1
    8000036c:	59bd3423          	sd	s11,1416(s10)
    80000370:	43e72683          	lw	a3,1086(a4)
    80000374:	58700c13          	li	s8,1415
    80000378:	4ae2a103          	lw	sp,1198(t0)
    8000037c:	06998483          	lb	s1,105(s3)
    80000380:	ddc20023          	sb	t3,-576(tp) # fffffffffffffdc0 <__global_pointer$+0xffffffff7fffdeb0>
    80000384:	fff00093          	li	ra,-1
    80000388:	00b0c0b3          	xor	ra,ra,a1
    8000038c:	0014ffb3          	and	t6,s1,ra
    80000390:	038a653b          	remw	a0,s4,s8
    80000394:	00bdef33          	or	t5,s11,a1
    80000398:	40b58dbb          	subw	s11,a1,a1
    8000039c:	000d8493          	mv	s1,s11
    800003a0:	8fc00893          	li	a7,-1796
    800003a4:	c0a00c13          	li	s8,-1014
    800003a8:	038c0633          	mul	a2,s8,s8
    800003ac:	b0f18393          	addi	t2,gp,-1265 # 80001a1f <_end+0x30f>
    800003b0:	01bdf6b3          	and	a3,s11,s11
    800003b4:	0e600b93          	li	s7,230
    800003b8:	40318a3b          	subw	s4,gp,gp
    800003bc:	00001c97          	auipc	s9,0x1
    800003c0:	808c8c93          	addi	s9,s9,-2040 # 80000bc4 <test_end+0x1f4>
    800003c4:	00048413          	mv	s0,s1
    800003c8:	00001a97          	auipc	s5,0x1
    800003cc:	3d0a8a93          	addi	s5,s5,976 # 80001798 <_end+0x88>
    800003d0:	00001517          	auipc	a0,0x1
    800003d4:	32450513          	addi	a0,a0,804 # 800016f4 <test_memory+0x3f4>
    800003d8:	00318a33          	add	s4,gp,gp
    800003dc:	017be133          	or	sp,s7,s7
    800003e0:	93018293          	addi	t0,gp,-1744 # 80001840 <_end+0x130>
    800003e4:	00100613          	li	a2,1
    800003e8:	03f19193          	slli	gp,gp,0x3f
    800003ec:	02fbfc3b          	remuw	s8,s7,a5
    800003f0:	90c382a3          	sb	a2,-1787(t2)
    800003f4:	7d4c9d83          	lh	s11,2004(s9)
    800003f8:	c182a203          	lw	tp,-1000(t0)
    800003fc:	40e00d13          	li	s10,1038
    80000400:	fff00e93          	li	t4,-1
    80000404:	003eceb3          	xor	t4,t4,gp
    80000408:	00a554b3          	srl	s1,a0,a0
    8000040c:	c8218213          	addi	tp,gp,-894 # 80001b92 <_end+0x482>
    80000410:	cd300113          	li	sp,-813
    80000414:	41895bbb          	sraw	s7,s2,s8
    80000418:	934209a3          	sb	s4,-1741(tp) # fffffffffffff933 <__global_pointer$+0xffffffff7fffda23>
    8000041c:	44700f93          	li	t6,1095
    80000420:	00b7f433          	and	s0,a5,a1
    80000424:	4f000093          	li	ra,1264
    80000428:	09f00e13          	li	t3,159
    8000042c:	021082bb          	mulw	t0,ra,ra
    80000430:	43100593          	li	a1,1073
    80000434:	00000393          	li	t2,0
    80000438:	33a00493          	li	s1,826
    8000043c:	01d0f833          	and	a6,ra,t4
    80000440:	c18a9123          	sh	s8,-1022(s5)
    80000444:	c2f00413          	li	s0,-977
    80000448:	d5254983          	lbu	s3,-686(a0)
    8000044c:	02738f3b          	mulw	t5,t2,t2
    80000450:	41cd0733          	sub	a4,s10,t3
    80000454:	ed188313          	addi	t1,a7,-303
    80000458:	0084a233          	slt	tp,s1,s0
    8000045c:	40b5dc3b          	sraw	s8,a1,a1
    80000460:	41f10a33          	sub	s4,sp,t6
    80000464:	00386b33          	or	s6,a6,gp
    80000468:	02191993          	slli	s3,s2,0x21
    8000046c:	c9687ee3          	bgeu	a6,s6,80000108 <crash_backward>
    80000470:	44400d93          	li	s11,1092
    80000474:	e9718213          	addi	tp,gp,-361 # 80001da7 <_end+0x697>
    80000478:	81d21b83          	lh	s7,-2019(tp) # fffffffffffff81d <__global_pointer$+0xffffffff7fffd90d>
    8000047c:	c8a18c13          	addi	s8,gp,-886 # 80001b9a <_end+0x48a>
    80000480:	53135e63          	bge	t1,a7,800009bc <crash_forward>
    80000484:	03f5053b          	mulw	a0,a0,t6
    80000488:	1f7a0113          	addi	sp,s4,503
    8000048c:	b1f18413          	addi	s0,gp,-1249 # 80001a2f <_end+0x31f>
    80000490:	52006663          	bltu	zero,zero,800009bc <crash_forward>
    80000494:	2bf00093          	li	ra,703
    80000498:	1cb00f93          	li	t6,459
    8000049c:	00001f17          	auipc	t5,0x1
    800004a0:	fe8f0f13          	addi	t5,t5,-24 # 80001484 <test_memory+0x184>
    800004a4:	43a95813          	srai	a6,s2,0x3a
    800004a8:	46ff8d13          	addi	s10,t6,1135
    800004ac:	80bea213          	slti	tp,t4,-2037
    800004b0:	4fb5ca13          	xori	s4,a1,1275
    800004b4:	d8b18493          	addi	s1,gp,-629 # 80001c9b <_end+0x58b>
    800004b8:	0398613b          	remw	sp,a6,s9
    800004bc:	006343b3          	xor	t2,t1,t1
    800004c0:	aa2c1283          	lh	t0,-1374(s8)
    800004c4:	00001e97          	auipc	t4,0x1
    800004c8:	086e8e93          	addi	t4,t4,134 # 8000154a <test_memory+0x24a>
    800004cc:	00001817          	auipc	a6,0x1
    800004d0:	14a80813          	addi	a6,a6,330 # 80001616 <test_memory+0x316>
    800004d4:	001dd733          	srl	a4,s11,ra
    800004d8:	f25802a3          	sb	t0,-219(a6)
    800004dc:	ea7e9723          	sh	t2,-338(t4)
    800004e0:	0306da93          	srli	s5,a3,0x30
    800004e4:	00001717          	auipc	a4,0x1
    800004e8:	95070713          	addi	a4,a4,-1712 # 80000e34 <test_end+0x464>
    800004ec:	03f61613          	slli	a2,a2,0x3f
    800004f0:	00001517          	auipc	a0,0x1
    800004f4:	e2f50513          	addi	a0,a0,-465 # 8000131f <test_memory+0x1f>
    800004f8:	00001c97          	auipc	s9,0x1
    800004fc:	cc4c8c93          	addi	s9,s9,-828 # 800011bc <reg_x23_init+0x4>
    80000500:	00001817          	auipc	a6,0x1
    80000504:	a1180813          	addi	a6,a6,-1519 # 80000f11 <test_end+0x541>
    80000508:	1bbc86a3          	sb	s11,429(s9)
    8000050c:	0210dfb3          	divu	t6,ra,ra
    80000510:	c5f41e03          	lh	t3,-929(s0)
    80000514:	23f55b03          	lhu	s6,575(a0)
    80000518:	66900a13          	li	s4,1641
    8000051c:	86d00393          	li	t2,-1939
    80000520:	22300993          	li	s3,547
    80000524:	64b827a3          	sw	a1,1615(a6)
    80000528:	40500e93          	li	t4,1029
    8000052c:	ee8f2583          	lw	a1,-280(t5)
    80000530:	00001d17          	auipc	s10,0x1
    80000534:	20cd0d13          	addi	s10,s10,524 # 8000173c <_end+0x2c>
    80000538:	ec6d2c23          	sw	t1,-296(s10)
    8000053c:	98100193          	li	gp,-1663
    80000540:	0119953b          	sllw	a0,s3,a7
    80000544:	5e371823          	sh	gp,1520(a4)
    80000548:	00100413          	li	s0,1
    8000054c:	60400a93          	li	s5,1540
    80000550:	015eadb3          	slt	s11,t4,s5
    80000554:	c2100813          	li	a6,-991
    80000558:	00001717          	auipc	a4,0x1
    8000055c:	d4370713          	addi	a4,a4,-701 # 8000129b <reg_x19_output+0x3>
    80000560:	41571503          	lh	a0,1045(a4)
    80000564:	03600313          	li	t1,54
    80000568:	00001c97          	auipc	s9,0x1
    8000056c:	28bc8c93          	addi	s9,s9,651 # 800017f3 <_end+0xe3>
    80000570:	407a5133          	sra	sp,s4,t2
    80000574:	9af48023          	sb	a5,-1632(s1)
    80000578:	00a51b33          	sll	s6,a0,a0
    8000057c:	3c300093          	li	ra,963
    80000580:	00180f3b          	addw	t5,a6,ra
    80000584:	03f41413          	slli	s0,s0,0x3f
    80000588:	d69cee03          	lwu	t3,-663(s9)
    8000058c:	02619bb3          	mulh	s7,gp,t1
    80000590:	42085213          	srai	tp,a6,0x20
    80000594:	2f598893          	addi	a7,s3,757
    80000598:	00080513          	mv	a0,a6
    8000059c:	20400a93          	li	s5,516
    800005a0:	6c200093          	li	ra,1730
    800005a4:	0294f23b          	remuw	tp,s1,s1
    800005a8:	09900d93          	li	s11,153
    800005ac:	fff00793          	li	a5,-1
    800005b0:	00100e93          	li	t4,1
    800005b4:	0061d113          	srli	sp,gp,0x6
    800005b8:	00001c97          	auipc	s9,0x1
    800005bc:	fa2c8c93          	addi	s9,s9,-94 # 8000155a <test_memory+0x25a>
    800005c0:	00c7c7b3          	xor	a5,a5,a2
    800005c4:	0bbc9623          	sh	s11,172(s9)
    800005c8:	03b0a833          	mulhsu	a6,ra,s11
    800005cc:	21600313          	li	t1,534
    800005d0:	65ba8493          	addi	s1,s5,1627
    800005d4:	3f198463          	beq	s3,a7,800009bc <crash_forward>
    800005d8:	29700f13          	li	t5,663
    800005dc:	0ee00193          	li	gp,238
    800005e0:	b29a84e3          	beq	s5,s1,80000108 <crash_backward>
    800005e4:	fff00593          	li	a1,-1
    800005e8:	00050b93          	mv	s7,a0
    800005ec:	0085c5b3          	xor	a1,a1,s0
    800005f0:	00001a17          	auipc	s4,0x1
    800005f4:	0a2a0a13          	addi	s4,s4,162 # 80001692 <test_memory+0x392>
    800005f8:	dd300a93          	li	s5,-557
    800005fc:	00b47fb3          	and	t6,s0,a1
    80000600:	030318b3          	mulh	a7,t1,a6
    80000604:	03fe9e93          	slli	t4,t4,0x3f
    80000608:	fff00293          	li	t0,-1
    8000060c:	003f7c33          	and	s8,t5,gp
    80000610:	0063573b          	srlw	a4,t1,t1
    80000614:	67100993          	li	s3,1649
    80000618:	e2aa8813          	addi	a6,s5,-470
    8000061c:	0139d4bb          	srlw	s1,s3,s3
    80000620:	39585e63          	bge	a6,s5,800009bc <crash_forward>
    80000624:	00816d33          	or	s10,sp,s0
    80000628:	39fd5a63          	bge	s10,t6,800009bc <crash_forward>
    8000062c:	39756863          	bltu	a0,s7,800009bc <crash_forward>
    80000630:	02a2dabb          	divuw	s5,t0,a0
    80000634:	92e00d93          	li	s11,-1746
    80000638:	3918c263          	blt	a7,a7,800009bc <crash_forward>
    8000063c:	00001a97          	auipc	s5,0x1
    80000640:	d75a8a93          	addi	s5,s5,-651 # 800013b1 <test_memory+0xb1>
    80000644:	7f400493          	li	s1,2036
    80000648:	a5e00d13          	li	s10,-1442
    8000064c:	ec0a1b03          	lh	s6,-320(s4)
    80000650:	aa001ce3          	bnez	zero,80000108 <crash_backward>
    80000654:	2f3aa583          	lw	a1,755(s5)
    80000658:	01d2c2b3          	xor	t0,t0,t4
    8000065c:	00100413          	li	s0,1
    80000660:	03f41413          	slli	s0,s0,0x3f
    80000664:	00fe7933          	and	s2,t3,a5
    80000668:	fff00c93          	li	s9,-1
    8000066c:	00100313          	li	t1,1
    80000670:	00c966b3          	or	a3,s2,a2
    80000674:	00001217          	auipc	tp,0x1
    80000678:	f6a20213          	addi	tp,tp,-150 # 800015de <test_memory+0x2de>
    8000067c:	b9100813          	li	a6,-1135
    80000680:	03f31313          	slli	t1,t1,0x3f
    80000684:	f6b23123          	sd	a1,-158(tp) # ffffffffffffff62 <__global_pointer$+0xffffffff7fffe052>
    80000688:	03ad68bb          	remw	a7,s10,s10
    8000068c:	008cccb3          	xor	s9,s9,s0
    80000690:	fff00f13          	li	t5,-1
    80000694:	46000b13          	li	s6,1120
    80000698:	32d97263          	bgeu	s2,a3,800009bc <crash_forward>
    8000069c:	010d953b          	sllw	a0,s11,a6
    800006a0:	006f4f33          	xor	t5,t5,t1
    800006a4:	01ef7c33          	and	s8,t5,t5
    800006a8:	00001a17          	auipc	s4,0x1
    800006ac:	f3ca0a13          	addi	s4,s4,-196 # 800015e4 <test_memory+0x2e4>
    800006b0:	df0a6a83          	lwu	s5,-528(s4)
    800006b4:	005873b3          	and	t2,a6,t0
    800006b8:	07c00193          	li	gp,124
    800006bc:	09e00093          	li	ra,158
    800006c0:	0197f9b3          	and	s3,a5,s9
    800006c4:	016b15bb          	sllw	a1,s6,s6
    800006c8:	006e6733          	or	a4,t3,t1
    800006cc:	01d3ee33          	or	t3,t2,t4
    800006d0:	00118fbb          	addw	t6,gp,ra
    800006d4:	5d800913          	li	s2,1496
    800006d8:	50848b93          	addi	s7,s1,1288
    800006dc:	032946bb          	divw	a3,s2,s2
    800006e0:	0e500813          	li	a6,229
    800006e4:	00000f17          	auipc	t5,0x0
    800006e8:	75cf0f13          	addi	t5,t5,1884 # 80000e40 <test_end+0x470>
    800006ec:	038e9713          	slli	a4,t4,0x38
    800006f0:	00001b17          	auipc	s6,0x1
    800006f4:	949b0b13          	addi	s6,s6,-1719 # 80001039 <tohost+0x39>
    800006f8:	562f0f83          	lb	t6,1378(t5)
    800006fc:	039651bb          	divuw	gp,a2,s9
    80000700:	2cc5e893          	ori	a7,a1,716
    80000704:	00fcfa33          	and	s4,s9,a5
    80000708:	59db1783          	lh	a5,1437(s6)
    8000070c:	00635633          	srl	a2,t1,t1
    80000710:	5799a313          	slti	t1,s3,1401
    80000714:	00001d97          	auipc	s11,0x1
    80000718:	bffd8d93          	addi	s11,s11,-1025 # 80001313 <test_memory+0x13>
    8000071c:	0089e133          	or	sp,s3,s0
    80000720:	030850b3          	divu	ra,a6,a6
    80000724:	00100513          	li	a0,1
    80000728:	03f51513          	slli	a0,a0,0x3f
    8000072c:	fff00213          	li	tp,-1
    80000730:	9cd6ece3          	bltu	a3,a3,80000108 <crash_backward>
    80000734:	01ef4433          	xor	s0,t5,t5
    80000738:	ae200e13          	li	t3,-1310
    8000073c:	00001917          	auipc	s2,0x1
    80000740:	d7e90913          	addi	s2,s2,-642 # 800014ba <test_memory+0x1ba>
    80000744:	00001897          	auipc	a7,0x1
    80000748:	8a488893          	addi	a7,a7,-1884 # 80000fe8 <test_end+0x618>
    8000074c:	36100713          	li	a4,865
    80000750:	00000f93          	li	t6,0
    80000754:	c3e18313          	addi	t1,gp,-962 # 80001b4e <_end+0x43e>
    80000758:	ca200693          	li	a3,-862
    8000075c:	02870113          	addi	sp,a4,40
    80000760:	6cf8b823          	sd	a5,1744(a7)
    80000764:	00a24233          	xor	tp,tp,a0
    80000768:	41ce5b33          	sra	s6,t3,t3
    8000076c:	97718493          	addi	s1,gp,-1673 # 80001887 <_end+0x177>
    80000770:	0073fa33          	and	s4,t2,t2
    80000774:	b23494a3          	sh	gp,-1239(s1)
    80000778:	004d7c33          	and	s8,s10,tp
    8000077c:	00000813          	li	a6,0
    80000780:	ef696783          	lwu	a5,-266(s2)
    80000784:	015daa83          	lw	s5,21(s11)
    80000788:	00ac65b3          	or	a1,s8,a0
    8000078c:	230fe863          	bltu	t6,a6,800009bc <crash_forward>
    80000790:	a7800993          	li	s3,-1416
    80000794:	01fd51b3          	srl	gp,s10,t6
    80000798:	00001f17          	auipc	t5,0x1
    8000079c:	f39f0f13          	addi	t5,t5,-199 # 800016d1 <test_memory+0x3d1>
    800007a0:	00001b97          	auipc	s7,0x1
    800007a4:	cbcb8b93          	addi	s7,s7,-836 # 8000145c <test_memory+0x15c>
    800007a8:	00001417          	auipc	s0,0x1
    800007ac:	b4140413          	addi	s0,s0,-1215 # 800012e9 <reg_x29_output+0x1>
    800007b0:	22fbcd03          	lbu	s10,559(s7)
    800007b4:	c67f0aa3          	sb	t2,-907(t5)
    800007b8:	92636083          	lwu	ra,-1754(t1)
    800007bc:	940066e3          	bltu	zero,zero,80000108 <crash_backward>
    800007c0:	03369eb3          	mulh	t4,a3,s3
    800007c4:	1ee14c63          	blt	sp,a4,800009bc <crash_forward>
    800007c8:	00000297          	auipc	t0,0x0
    800007cc:	7a828293          	addi	t0,t0,1960 # 80000f70 <test_end+0x5a0>
    800007d0:	413421a3          	sw	s3,1027(s0)
    800007d4:	97318c93          	addi	s9,gp,-1677 # 80001883 <_end+0x173>
    800007d8:	5b02d603          	lhu	a2,1456(t0)
    800007dc:	c9cc9ea3          	sh	t3,-867(s9)
    800007e0:	00100993          	li	s3,1
    800007e4:	00001617          	auipc	a2,0x1
    800007e8:	af260613          	addi	a2,a2,-1294 # 800012d6 <reg_x26_output+0x6>
    800007ec:	1ad60e03          	lb	t3,429(a2)
    800007f0:	2aa00d93          	li	s11,682
    800007f4:	00001717          	auipc	a4,0x1
    800007f8:	96370713          	addi	a4,a4,-1693 # 80001157 <reg_x10_init+0x7>
    800007fc:	03080433          	mul	s0,a6,a6
    80000800:	00000a97          	auipc	s5,0x0
    80000804:	799a8a93          	addi	s5,s5,1945 # 80000f99 <test_end+0x5c9>
    80000808:	00001b17          	auipc	s6,0x1
    8000080c:	9dcb0b13          	addi	s6,s6,-1572 # 800011e4 <reg_x28_init+0x4>
    80000810:	52f70fa3          	sb	a5,1343(a4)
    80000814:	000d8f93          	mv	t6,s11
    80000818:	00100593          	li	a1,1
    8000081c:	000f8493          	mv	s1,t6
    80000820:	00001717          	auipc	a4,0x1
    80000824:	a6670713          	addi	a4,a4,-1434 # 80001286 <reg_x16_output+0x6>
    80000828:	e7c00513          	li	a0,-388
    8000082c:	24f00b93          	li	s7,591
    80000830:	00100113          	li	sp,1
    80000834:	00000417          	auipc	s0,0x0
    80000838:	3a840413          	addi	s0,s0,936 # 80000bdc <test_end+0x20c>
    8000083c:	92800793          	li	a5,-1752
    80000840:	03f11113          	slli	sp,sp,0x3f
    80000844:	fff00693          	li	a3,-1
    80000848:	283b0ea3          	sb	gp,669(s6)
    8000084c:	03f59593          	slli	a1,a1,0x3f
    80000850:	03f99993          	slli	s3,s3,0x3f
    80000854:	36272e03          	lw	t3,866(a4)
    80000858:	fff00293          	li	t0,-1
    8000085c:	02fbea33          	rem	s4,s7,a5
    80000860:	149fce63          	blt	t6,s1,800009bc <crash_forward>
    80000864:	00b2c2b3          	xor	t0,t0,a1
    80000868:	01bd983b          	sllw	a6,s11,s11
    8000086c:	7ef43a23          	sd	a5,2036(s0)
    80000870:	fff00313          	li	t1,-1
    80000874:	02a53633          	mulhu	a2,a0,a0
    80000878:	00f78b33          	add	s6,a5,a5
    8000087c:	d0700193          	li	gp,-761
    80000880:	003570b3          	and	ra,a0,gp
    80000884:	0026c6b3          	xor	a3,a3,sp
    80000888:	1ac00793          	li	a5,428
    8000088c:	00008493          	mv	s1,ra
    80000890:	0054fd33          	and	s10,s1,t0
    80000894:	00001f97          	auipc	t6,0x1
    80000898:	ce4f8f93          	addi	t6,t6,-796 # 80001578 <test_memory+0x278>
    8000089c:	00001c17          	auipc	s8,0x1
    800008a0:	8c8c0c13          	addi	s8,s8,-1848 # 80001164 <reg_x12_init+0x4>
    800008a4:	b9b18a13          	addi	s4,gp,-1125 # 80001aab <_end+0x39b>
    800008a8:	01334333          	xor	t1,t1,s3
    800008ac:	00d07f33          	and	t5,zero,a3
    800008b0:	00048193          	mv	gp,s1
    800008b4:	00001817          	auipc	a6,0x1
    800008b8:	de780813          	addi	a6,a6,-537 # 8000169b <test_memory+0x39b>
    800008bc:	006af3b3          	and	t2,s5,t1
    800008c0:	013be8b3          	or	a7,s7,s3
    800008c4:	ae518513          	addi	a0,gp,-1307 # 800019f5 <_end+0x2e5>
    800008c8:	c9450b83          	lb	s7,-876(a0)
    800008cc:	03eb573b          	divuw	a4,s6,t5
    800008d0:	1ae00d93          	li	s11,430
    800008d4:	29600b13          	li	s6,662
    800008d8:	002e6cb3          	or	s9,t3,sp
    800008dc:	ea618613          	addi	a2,gp,-346 # 80001db6 <_end+0x6a6>
    800008e0:	62800713          	li	a4,1576
    800008e4:	41b78e33          	sub	t3,a5,s11
    800008e8:	b5ba24a3          	sw	s11,-1207(s4)
    800008ec:	d3100193          	li	gp,-719
    800008f0:	88300993          	li	s3,-1917
    800008f4:	4a3c0203          	lb	tp,1187(s8)
    800008f8:	88062d23          	sw	zero,-1894(a2)
    800008fc:	76000493          	li	s1,1888
    80000900:	c33fa313          	slti	t1,t6,-973
    80000904:	6e100793          	li	a5,1761
    80000908:	81ece0e3          	bltu	s9,t5,80000108 <crash_backward>
    8000090c:	00b0eeb3          	or	t4,ra,a1
    80000910:	415cd3b3          	sra	t2,s9,s5
    80000914:	120fb083          	ld	ra,288(t6)
    80000918:	4f9ac903          	lbu	s2,1273(s5)
    8000091c:	e93815a3          	sh	s3,-373(a6)
    80000920:	02f4a533          	mulhsu	a0,s1,a5
    80000924:	416b043b          	subw	s0,s6,s6
    80000928:	00371bbb          	sllw	s7,a4,gp
    8000092c:	0339f8b3          	remu	a7,s3,s3
    80000930:	0040006f          	j	80000934 <reg_dump>

0000000080000934 <reg_dump>:
    80000934:	00001097          	auipc	ra,0x1
    80000938:	dcc08093          	addi	ra,ra,-564 # 80001700 <loop_count>
    8000093c:	0000a103          	lw	sp,0(ra)
    80000940:	fff10193          	addi	gp,sp,-1
    80000944:	0030a023          	sw	gp,0(ra)
    80000948:	860110e3          	bnez	sp,800001a8 <pseg_0>
    8000094c:	00001097          	auipc	ra,0x1
    80000950:	8b408093          	addi	ra,ra,-1868 # 80001200 <begin_signature>
    80000954:	0000b023          	sd	zero,0(ra)
    80000958:	0020b823          	sd	sp,16(ra)
    8000095c:	0030bc23          	sd	gp,24(ra)
    80000960:	0240b023          	sd	tp,32(ra)
    80000964:	0250b423          	sd	t0,40(ra)
    80000968:	0260b823          	sd	t1,48(ra)
    8000096c:	0270bc23          	sd	t2,56(ra)
    80000970:	0480b023          	sd	s0,64(ra)
    80000974:	0490b423          	sd	s1,72(ra)
    80000978:	04a0b823          	sd	a0,80(ra)
    8000097c:	04b0bc23          	sd	a1,88(ra)
    80000980:	06d0b423          	sd	a3,104(ra)
    80000984:	06e0b823          	sd	a4,112(ra)
    80000988:	06f0bc23          	sd	a5,120(ra)
    8000098c:	0910b423          	sd	a7,136(ra)
    80000990:	0920b823          	sd	s2,144(ra)
    80000994:	0930bc23          	sd	s3,152(ra)
    80000998:	0b60b823          	sd	s6,176(ra)
    8000099c:	0b70bc23          	sd	s7,184(ra)
    800009a0:	0d90b423          	sd	s9,200(ra)
    800009a4:	0da0b823          	sd	s10,208(ra)
    800009a8:	0db0bc23          	sd	s11,216(ra)
    800009ac:	0fc0b023          	sd	t3,224(ra)
    800009b0:	0fd0b423          	sd	t4,232(ra)
    800009b4:	0fe0b823          	sd	t5,240(ra)
    800009b8:	0180006f          	j	800009d0 <test_end>

00000000800009bc <crash_forward>:
    800009bc:	0ff0000f          	fence
    800009c0:	00018063          	beqz	gp,800009c0 <crash_forward+0x4>
    800009c4:	00119193          	slli	gp,gp,0x1
    800009c8:	0011e193          	ori	gp,gp,1
    800009cc:	00000073          	ecall

00000000800009d0 <test_end>:
    800009d0:	0ff0000f          	fence
    800009d4:	00100193          	li	gp,1
    800009d8:	00000073          	ecall
    800009dc:	c0001073          	unimp
	...

Disassembly of section .tohost:

0000000080001000 <tohost>:
	...

0000000080001040 <fromhost>:
	...
