
test.elf:     file format elf64-littleriscv


Disassembly of section .text.init:

0000000080000000 <_start>:
    80000000:	0580006f          	j	80000058 <reset_vector>

0000000080000004 <trap_vector>:
    80000004:	34202f73          	csrr	t5,mcause
    80000008:	00800f93          	li	t6,8
    8000000c:	05ff0063          	beq	t5,t6,8000004c <write_tohost>
    80000010:	00900f93          	li	t6,9
    80000014:	03ff0c63          	beq	t5,t6,8000004c <write_tohost>
    80000018:	00b00f93          	li	t6,11
    8000001c:	03ff0863          	beq	t5,t6,8000004c <write_tohost>
    80000020:	00000f13          	li	t5,0
    80000024:	000f0463          	beqz	t5,8000002c <trap_vector+0x28>
    80000028:	000f0067          	jr	t5
    8000002c:	34202f73          	csrr	t5,mcause
    80000030:	000f5463          	bgez	t5,80000038 <handle_exception>
    80000034:	0140006f          	j	80000048 <other_exception>

0000000080000038 <handle_exception>:
    80000038:	34102e73          	csrr	t3,mepc
    8000003c:	004e0e13          	addi	t3,t3,4
    80000040:	341e1073          	csrw	mepc,t3
    80000044:	30200073          	mret

0000000080000048 <other_exception>:
    80000048:	5391e193          	ori	gp,gp,1337

000000008000004c <write_tohost>:
    8000004c:	00001f17          	auipc	t5,0x1
    80000050:	fa3f2a23          	sw	gp,-76(t5) # 80001000 <tohost>
    80000054:	ff9ff06f          	j	8000004c <write_tohost>

0000000080000058 <reset_vector>:
    80000058:	f1402573          	csrr	a0,mhartid
    8000005c:	00051063          	bnez	a0,8000005c <reset_vector+0x4>
    80000060:	00000297          	auipc	t0,0x0
    80000064:	01028293          	addi	t0,t0,16 # 80000070 <reset_vector+0x18>
    80000068:	30529073          	csrw	mtvec,t0
    8000006c:	18005073          	csrwi	satp,0
    80000070:	00000297          	auipc	t0,0x0
    80000074:	01c28293          	addi	t0,t0,28 # 8000008c <reset_vector+0x34>
    80000078:	30529073          	csrw	mtvec,t0
    8000007c:	fff00293          	li	t0,-1
    80000080:	3b029073          	csrw	pmpaddr0,t0
    80000084:	01f00293          	li	t0,31
    80000088:	3a029073          	csrw	pmpcfg0,t0
    8000008c:	00000297          	auipc	t0,0x0
    80000090:	01828293          	addi	t0,t0,24 # 800000a4 <reset_vector+0x4c>
    80000094:	30529073          	csrw	mtvec,t0
    80000098:	30205073          	csrwi	medeleg,0
    8000009c:	30305073          	csrwi	mideleg,0
    800000a0:	30405073          	csrwi	mie,0
    800000a4:	00000193          	li	gp,0
    800000a8:	00000297          	auipc	t0,0x0
    800000ac:	f5c28293          	addi	t0,t0,-164 # 80000004 <trap_vector>
    800000b0:	30529073          	csrw	mtvec,t0
    800000b4:	00100513          	li	a0,1
    800000b8:	01f51513          	slli	a0,a0,0x1f
    800000bc:	00055863          	bgez	a0,800000cc <reset_vector+0x74>
    800000c0:	0ff0000f          	fence
    800000c4:	00100193          	li	gp,1
    800000c8:	00000073          	ecall
    800000cc:	00000293          	li	t0,0
    800000d0:	00028e63          	beqz	t0,800000ec <reset_vector+0x94>
    800000d4:	10529073          	csrw	stvec,t0
    800000d8:	0000b2b7          	lui	t0,0xb
    800000dc:	1092829b          	addiw	t0,t0,265
    800000e0:	30229073          	csrw	medeleg,t0
    800000e4:	30202373          	csrr	t1,medeleg
    800000e8:	f66290e3          	bne	t0,t1,80000048 <other_exception>
    800000ec:	30005073          	csrwi	mstatus,0
    800000f0:	00000297          	auipc	t0,0x0
    800000f4:	01428293          	addi	t0,t0,20 # 80000104 <reset_vector+0xac>
    800000f8:	34129073          	csrw	mepc,t0
    800000fc:	f1402573          	csrr	a0,mhartid
    80000100:	30200073          	mret
    80000104:	0180006f          	j	8000011c <test_start>

0000000080000108 <crash_backward>:
    80000108:	0ff0000f          	fence
    8000010c:	00018063          	beqz	gp,8000010c <crash_backward+0x4>
    80000110:	00119193          	slli	gp,gp,0x1
    80000114:	0011e193          	ori	gp,gp,1
    80000118:	00000073          	ecall

000000008000011c <test_start>:
    8000011c:	00001f97          	auipc	t6,0x1
    80000120:	fe4f8f93          	addi	t6,t6,-28 # 80001100 <hidden_data>
    80000124:	000fb003          	ld	zero,0(t6)
    80000128:	008fb083          	ld	ra,8(t6)
    8000012c:	010fb103          	ld	sp,16(t6)
    80000130:	018fb183          	ld	gp,24(t6)
    80000134:	020fb203          	ld	tp,32(t6)
    80000138:	028fb283          	ld	t0,40(t6)
    8000013c:	030fb303          	ld	t1,48(t6)
    80000140:	038fb383          	ld	t2,56(t6)
    80000144:	040fb403          	ld	s0,64(t6)
    80000148:	048fb483          	ld	s1,72(t6)
    8000014c:	050fb503          	ld	a0,80(t6)
    80000150:	058fb583          	ld	a1,88(t6)
    80000154:	060fb603          	ld	a2,96(t6)
    80000158:	068fb683          	ld	a3,104(t6)
    8000015c:	070fb703          	ld	a4,112(t6)
    80000160:	078fb783          	ld	a5,120(t6)
    80000164:	080fb803          	ld	a6,128(t6)
    80000168:	088fb883          	ld	a7,136(t6)
    8000016c:	090fb903          	ld	s2,144(t6)
    80000170:	098fb983          	ld	s3,152(t6)
    80000174:	0a0fba03          	ld	s4,160(t6)
    80000178:	0a8fba83          	ld	s5,168(t6)
    8000017c:	0b0fbb03          	ld	s6,176(t6)
    80000180:	0b8fbb83          	ld	s7,184(t6)
    80000184:	0c0fbc03          	ld	s8,192(t6)
    80000188:	0c8fbc83          	ld	s9,200(t6)
    8000018c:	0d0fbd03          	ld	s10,208(t6)
    80000190:	0d8fbd83          	ld	s11,216(t6)
    80000194:	0e0fbe03          	ld	t3,224(t6)
    80000198:	0e8fbe83          	ld	t4,232(t6)
    8000019c:	0f0fbf03          	ld	t5,240(t6)
    800001a0:	0f8fbf83          	ld	t6,248(t6)
    800001a4:	0040006f          	j	800001a8 <pseg_0>

00000000800001a8 <pseg_0>:
    800001a8:	00001917          	auipc	s2,0x1
    800001ac:	2eb90913          	addi	s2,s2,747 # 80001493 <test_memory+0x193>
    800001b0:	02ed74b3          	remu	s1,s10,a4
    800001b4:	7f800413          	li	s0,2040
    800001b8:	ebb18593          	addi	a1,gp,-325 # 80001dcb <_end+0x6bb>
    800001bc:	b2018313          	addi	t1,gp,-1248 # 80001a30 <_end+0x320>
    800001c0:	cad00e13          	li	t3,-851
    800001c4:	9d518d13          	addi	s10,gp,-1579 # 800018e5 <_end+0x1d5>
    800001c8:	01089b1b          	slliw	s6,a7,0x10
    800001cc:	02d5a833          	mulhsu	a6,a1,a3
    800001d0:	a2d18693          	addi	a3,gp,-1491 # 8000193d <_end+0x22d>
    800001d4:	18500093          	li	ra,389
    800001d8:	f0600193          	li	gp,-250
    800001dc:	87458123          	sb	s4,-1950(a1)
    800001e0:	01ce2ab3          	slt	s5,t3,t3
    800001e4:	9c46b5a3          	sd	tp,-1589(a3)
    800001e8:	40145533          	sra	a0,s0,ra
    800001ec:	d5100713          	li	a4,-687
    800001f0:	27800a13          	li	s4,632
    800001f4:	a25d1783          	lh	a5,-1499(s10)
    800001f8:	b4918093          	addi	ra,gp,-1207 # 80001a59 <_end+0x349>
    800001fc:	46800613          	li	a2,1128
    80000200:	02c73233          	mulhu	tp,a4,a2
    80000204:	028463b3          	rem	t2,s0,s0
    80000208:	44300693          	li	a3,1091
    8000020c:	c470b503          	ld	a0,-953(ra)
    80000210:	00d6dab3          	srl	s5,a3,a3
    80000214:	00001e17          	auipc	t3,0x1
    80000218:	2dbe0e13          	addi	t3,t3,731 # 800014ef <test_memory+0x1ef>
    8000021c:	14d95883          	lhu	a7,333(s2)
    80000220:	00100f93          	li	t6,1
    80000224:	00001297          	auipc	t0,0x1
    80000228:	12228293          	addi	t0,t0,290 # 80001346 <test_memory+0x46>
    8000022c:	0dde5783          	lhu	a5,221(t3)
    80000230:	03ff9f93          	slli	t6,t6,0x3f
    80000234:	c1918c13          	addi	s8,gp,-999 # 80001b29 <_end+0x419>
    80000238:	0141ecb3          	or	s9,gp,s4
    8000023c:	fff00b93          	li	s7,-1
    80000240:	0ac29523          	sh	a2,170(t0)
    80000244:	9c034e83          	lbu	t4,-1600(t1)
    80000248:	a49c00a3          	sb	s1,-1471(s8)
    8000024c:	8d300d93          	li	s11,-1837
    80000250:	72004e63          	bltz	zero,8000098c <crash_forward>
    80000254:	00100593          	li	a1,1
    80000258:	01fbcbb3          	xor	s7,s7,t6
    8000025c:	00100793          	li	a5,1
    80000260:	03f79793          	slli	a5,a5,0x3f
    80000264:	03e154bb          	divuw	s1,sp,t5
    80000268:	3c200393          	li	t2,962
    8000026c:	01bdd9bb          	srlw	s3,s11,s11
    80000270:	03f59593          	slli	a1,a1,0x3f
    80000274:	02420533          	mul	a0,tp,tp
    80000278:	fff00213          	li	tp,-1
    8000027c:	0273dab3          	divu	s5,t2,t2
    80000280:	00f24233          	xor	tp,tp,a5
    80000284:	01d15d33          	srl	s10,sp,t4
    80000288:	01777f33          	and	t5,a4,s7
    8000028c:	41b60733          	sub	a4,a2,s11
    80000290:	004970b3          	and	ra,s2,tp
    80000294:	43400a13          	li	s4,1076
    80000298:	9c218513          	addi	a0,gp,-1598 # 800018d2 <_end+0x1c2>
    8000029c:	00100893          	li	a7,1
    800002a0:	02f7fd33          	remu	s10,a5,a5
    800002a4:	00d3529b          	srliw	t0,t1,0xd
    800002a8:	ad754d83          	lbu	s11,-1321(a0)
    800002ac:	00f2e633          	or	a2,t0,a5
    800002b0:	01ef2eb3          	slt	t4,t5,t5
    800002b4:	03f89893          	slli	a7,a7,0x3f
    800002b8:	014a4733          	xor	a4,s4,s4
    800002bc:	fff00413          	li	s0,-1
    800002c0:	00100993          	li	s3,1
    800002c4:	01ff6133          	or	sp,t5,t6
    800002c8:	00001197          	auipc	gp,0x1
    800002cc:	e9618193          	addi	gp,gp,-362 # 8000115e <reg_x11_init+0x6>
    800002d0:	5661c383          	lbu	t2,1382(gp) # 80002476 <__global_pointer$+0x566>
    800002d4:	e3e16ae3          	bltu	sp,t5,80000108 <crash_backward>
    800002d8:	03f99993          	slli	s3,s3,0x3f
    800002dc:	a0300c13          	li	s8,-1533
    800002e0:	000f0113          	mv	sp,t5
    800002e4:	fff00693          	li	a3,-1
    800002e8:	00b44433          	xor	s0,s0,a1
    800002ec:	008cf833          	and	a6,s9,s0
    800002f0:	00001e97          	auipc	t4,0x1
    800002f4:	44fe8e93          	addi	t4,t4,1103 # 8000173f <_end+0x2f>
    800002f8:	fff00313          	li	t1,-1
    800002fc:	00010513          	mv	a0,sp
    80000300:	e0a164e3          	bltu	sp,a0,80000108 <crash_backward>
    80000304:	0116c6b3          	xor	a3,a3,a7
    80000308:	0223723b          	remuw	tp,t1,sp
    8000030c:	e4600513          	li	a0,-442
    80000310:	69300f13          	li	t5,1683
    80000314:	01334333          	xor	t1,t1,s3
    80000318:	01ef13b3          	sll	t2,t5,t5
    8000031c:	00b86b33          	or	s6,a6,a1
    80000320:	67680663          	beq	a6,s6,8000098c <crash_forward>
    80000324:	01294733          	xor	a4,s2,s2
    80000328:	00100a13          	li	s4,1
    8000032c:	00001197          	auipc	gp,0x1
    80000330:	e9618193          	addi	gp,gp,-362 # 800011c2 <reg_x24_init+0x2>
    80000334:	c7718f93          	addi	t6,gp,-905 # 80001b87 <_end+0x477>
    80000338:	418c0ab3          	sub	s5,s8,s8
    8000033c:	3f31c283          	lbu	t0,1011(gp) # 80002303 <__global_pointer$+0x3f3>
    80000340:	6fe00213          	li	tp,1790
    80000344:	03fa1a13          	slli	s4,s4,0x3f
    80000348:	00de7e33          	and	t3,t3,a3
    8000034c:	02455bb3          	divu	s7,a0,tp
    80000350:	99ef82a3          	sb	t5,-1659(t6)
    80000354:	bed00713          	li	a4,-1043
    80000358:	004a85bb          	addw	a1,s5,tp
    8000035c:	00100b13          	li	s6,1
    80000360:	fff00613          	li	a2,-1
    80000364:	f3e00f13          	li	t5,-194
    80000368:	01ef143b          	sllw	s0,t5,t5
    8000036c:	03fb1b13          	slli	s6,s6,0x3f
    80000370:	01464633          	xor	a2,a2,s4
    80000374:	fff00393          	li	t2,-1
    80000378:	011e6933          	or	s2,t3,a7
    8000037c:	e8bed083          	lhu	ra,-373(t4)
    80000380:	0210dd33          	divu	s10,ra,ra
    80000384:	006cf4b3          	and	s1,s9,t1
    80000388:	02e47533          	remu	a0,s0,a4
    8000038c:	00100413          	li	s0,1
    80000390:	00cf7db3          	and	s11,t5,a2
    80000394:	0135ecb3          	or	s9,a1,s3
    80000398:	02844bb3          	div	s7,s0,s0
    8000039c:	00a57ab3          	and	s5,a0,a0
    800003a0:	0163c3b3          	xor	t2,t2,s6
    800003a4:	03344d3b          	divw	s10,s0,s3
    800003a8:	5f94f263          	bgeu	s1,s9,8000098c <crash_forward>
    800003ac:	dec00113          	li	sp,-532
    800003b0:	007ef833          	and	a6,t4,t2
    800003b4:	00000893          	li	a7,0
    800003b8:	03741a93          	slli	s5,s0,0x37
    800003bc:	03f41413          	slli	s0,s0,0x3f
    800003c0:	fff00913          	li	s2,-1
    800003c4:	022751b3          	divu	gp,a4,sp
    800003c8:	0ca00993          	li	s3,202
    800003cc:	abe18a93          	addi	s5,gp,-1346 # 800019ce <_end+0x2be>
    800003d0:	da800493          	li	s1,-600
    800003d4:	01686c33          	or	s8,a6,s6
    800003d8:	5b887a63          	bgeu	a6,s8,8000098c <crash_forward>
    800003dc:	30b00c93          	li	s9,779
    800003e0:	00001297          	auipc	t0,0x1
    800003e4:	34b28293          	addi	t0,t0,843 # 8000172b <_end+0x1b>
    800003e8:	02a6f73b          	remuw	a4,a3,a0
    800003ec:	b9eae503          	lwu	a0,-1122(s5)
    800003f0:	d9248b93          	addi	s7,s1,-622
    800003f4:	aa700113          	li	sp,-1369
    800003f8:	011a1333          	sll	t1,s4,a7
    800003fc:	cc100593          	li	a1,-831
    80000400:	022161b3          	rem	gp,sp,sp
    80000404:	01998d3b          	addw	s10,s3,s9
    80000408:	fbd29e03          	lh	t3,-67(t0)
    8000040c:	0294b233          	mulhu	tp,s1,s1
    80000410:	01a7f3b3          	and	t2,a5,s10
    80000414:	24400a93          	li	s5,580
    80000418:	00619d33          	sll	s10,gp,t1
    8000041c:	d0b00313          	li	t1,-757
    80000420:	90018813          	addi	a6,gp,-1792 # 80001810 <_end+0x100>
    80000424:	18200513          	li	a0,386
    80000428:	00000693          	li	a3,0
    8000042c:	00aad733          	srl	a4,s5,a0
    80000430:	54739e63          	bne	t2,t2,8000098c <crash_forward>
    80000434:	000c0c93          	mv	s9,s8
    80000438:	0052b1b3          	sltu	gp,t0,t0
    8000043c:	00001b17          	auipc	s6,0x1
    80000440:	0e4b0b13          	addi	s6,s6,228 # 80001520 <test_memory+0x220>
    80000444:	00894933          	xor	s2,s2,s0
    80000448:	ec885c03          	lhu	s8,-312(a6)
    8000044c:	77600213          	li	tp,1910
    80000450:	fe330993          	addi	s3,t1,-29
    80000454:	88900f13          	li	t5,-1911
    80000458:	1bbb2e23          	sw	s11,444(s6)
    8000045c:	0127d73b          	srlw	a4,a5,s2
    80000460:	d4c00193          	li	gp,-692
    80000464:	000c8113          	mv	sp,s9
    80000468:	00423d33          	sltu	s10,tp,tp
    8000046c:	0121ffb3          	and	t6,gp,s2
    80000470:	0394c533          	div	a0,s1,s9
    80000474:	c82ccae3          	blt	s9,sp,80000108 <crash_backward>
    80000478:	0141e7b3          	or	a5,gp,s4
    8000047c:	00836eb3          	or	t4,t1,s0
    80000480:	00100e13          	li	t3,1
    80000484:	c9dfc2e3          	blt	t6,t4,80000108 <crash_backward>
    80000488:	8aa00893          	li	a7,-1878
    8000048c:	03fe1e13          	slli	t3,t3,0x3f
    80000490:	fff00393          	li	t2,-1
    80000494:	0111f6b3          	and	a3,gp,a7
    80000498:	01c3c3b3          	xor	t2,t2,t3
    8000049c:	c6fdc6e3          	blt	s11,a5,80000108 <crash_backward>
    800004a0:	401f5db3          	sra	s11,t5,ra
    800004a4:	b6918993          	addi	s3,gp,-1175 # 80001a79 <_end+0x369>
    800004a8:	c7bdc0e3          	blt	s11,s11,80000108 <crash_backward>
    800004ac:	0010aa33          	slt	s4,ra,ra
    800004b0:	07600893          	li	a7,118
    800004b4:	33600513          	li	a0,822
    800004b8:	01bfdd33          	srl	s10,t6,s11
    800004bc:	0078f2b3          	and	t0,a7,t2
    800004c0:	00001b97          	auipc	s7,0x1
    800004c4:	c91b8b93          	addi	s7,s7,-879 # 80001151 <reg_x10_init+0x1>
    800004c8:	2c250c93          	addi	s9,a0,706
    800004cc:	00100e93          	li	t4,1
    800004d0:	011897bb          	sllw	a5,a7,a7
    800004d4:	03fe9e93          	slli	t4,t4,0x3f
    800004d8:	ffc00d93          	li	s11,-4
    800004dc:	03e5c0bb          	divw	ra,a1,t5
    800004e0:	01ca6ab3          	or	s5,s4,t3
    800004e4:	c352f2e3          	bgeu	t0,s5,80000108 <crash_backward>
    800004e8:	00a00493          	li	s1,10
    800004ec:	c4f9a203          	lw	tp,-945(s3)
    800004f0:	32948113          	addi	sp,s1,809
    800004f4:	d0318613          	addi	a2,gp,-765 # 80001c13 <_end+0x503>
    800004f8:	7239fa13          	andi	s4,s3,1827
    800004fc:	84500f93          	li	t6,-1979
    80000500:	92418b13          	addi	s6,gp,-1756 # 80001834 <_end+0x124>
    80000504:	86000413          	li	s0,-1952
    80000508:	bfbd8d13          	addi	s10,s11,-1029
    8000050c:	fff00713          	li	a4,-1
    80000510:	3a2b8303          	lb	t1,930(s7)
    80000514:	83166803          	lwu	a6,-1999(a2)
    80000518:	79500f13          	li	t5,1941
    8000051c:	00100113          	li	sp,1
    80000520:	01d74733          	xor	a4,a4,t4
    80000524:	00e67933          	and	s2,a2,a4
    80000528:	008fec33          	or	s8,t6,s0
    8000052c:	00000c97          	auipc	s9,0x0
    80000530:	7bdc8c93          	addi	s9,s9,1981 # 80000ce9 <test_end+0x349>
    80000534:	01d966b3          	or	a3,s2,t4
    80000538:	7f3ca303          	lw	t1,2035(s9)
    8000053c:	a4018393          	addi	t2,gp,-1472 # 80001950 <_end+0x240>
    80000540:	00001a17          	auipc	s4,0x1
    80000544:	0e9a0a13          	addi	s4,s4,233 # 80001629 <test_memory+0x329>
    80000548:	c6138883          	lb	a7,-927(t2)
    8000054c:	db5a5e03          	lhu	t3,-587(s4)
    80000550:	24c00613          	li	a2,588
    80000554:	00001797          	auipc	a5,0x1
    80000558:	c1e78793          	addi	a5,a5,-994 # 80001172 <reg_x14_init+0x2>
    8000055c:	00c65cbb          	srlw	s9,a2,a2
    80000560:	3bbf0813          	addi	a6,t5,955
    80000564:	430f5463          	bge	t5,a6,8000098c <crash_forward>
    80000568:	df4b3183          	ld	gp,-524(s6)
    8000056c:	00100c13          	li	s8,1
    80000570:	b9bd5ce3          	bge	s10,s11,80000108 <crash_backward>
    80000574:	03fc1c13          	slli	s8,s8,0x3f
    80000578:	03f11113          	slli	sp,sp,0x3f
    8000057c:	4067b203          	ld	tp,1030(a5)
    80000580:	fff00513          	li	a0,-1
    80000584:	fff00593          	li	a1,-1
    80000588:	01854533          	xor	a0,a0,s8
    8000058c:	41c1d2b3          	sra	t0,gp,t3
    80000590:	000da333          	sltz	t1,s11
    80000594:	00100213          	li	tp,1
    80000598:	02e737b3          	mulhu	a5,a4,a4
    8000059c:	03f21213          	slli	tp,tp,0x3f
    800005a0:	c2b18d93          	addi	s11,gp,-981 # 80001b3b <_end+0x42b>
    800005a4:	a1600493          	li	s1,-1514
    800005a8:	0025c5b3          	xor	a1,a1,sp
    800005ac:	48f00793          	li	a5,1167
    800005b0:	00500313          	li	t1,5
    800005b4:	b1100b13          	li	s6,-1263
    800005b8:	41635f3b          	sraw	t5,t1,s6
    800005bc:	21400d13          	li	s10,532
    800005c0:	fff00a13          	li	s4,-1
    800005c4:	71300193          	li	gp,1811
    800005c8:	003490bb          	sllw	ra,s1,gp
    800005cc:	00b3f9b3          	and	s3,t2,a1
    800005d0:	03ad52bb          	divuw	t0,s10,s10
    800005d4:	004a4a33          	xor	s4,s4,tp
    800005d8:	00001897          	auipc	a7,0x1
    800005dc:	8d888893          	addi	a7,a7,-1832 # 80000eb0 <test_end+0x510>
    800005e0:	aabd95a3          	sh	a1,-1365(s11)
    800005e4:	00001917          	auipc	s2,0x1
    800005e8:	8ff90913          	addi	s2,s2,-1793 # 80000ee3 <test_end+0x543>
    800005ec:	014c73b3          	and	t2,s8,s4
    800005f0:	037bdab3          	divu	s5,s7,s7
    800005f4:	0041ee33          	or	t3,gp,tp
    800005f8:	00a55ebb          	srlw	t4,a0,a0
    800005fc:	74100693          	li	a3,1857
    80000600:	00a5f433          	and	s0,a1,a0
    80000604:	40d7883b          	subw	a6,a5,a3
    80000608:	00000717          	auipc	a4,0x0
    8000060c:	77b70713          	addi	a4,a4,1915 # 80000d83 <test_end+0x3e3>
    80000610:	90518b13          	addi	s6,gp,-1787 # 80001815 <_end+0x105>
    80000614:	6ca880a3          	sb	a0,1729(a7)
    80000618:	00000693          	li	a3,0
    8000061c:	6ba00f13          	li	t5,1722
    80000620:	0185efb3          	or	t6,a1,s8
    80000624:	cc318d13          	addi	s10,gp,-829 # 80001bd3 <_end+0x4c3>
    80000628:	dc7b1303          	lh	t1,-569(s6)
    8000062c:	03189eb3          	mulh	t4,a7,a7
    80000630:	35c3fe63          	bgeu	t2,t3,8000098c <crash_forward>
    80000634:	00000793          	li	a5,0
    80000638:	58d71ba3          	sh	a3,1431(a4)
    8000063c:	00000c97          	auipc	s9,0x0
    80000640:	728c8c93          	addi	s9,s9,1832 # 80000d64 <test_end+0x3c4>
    80000644:	43593183          	ld	gp,1077(s2)
    80000648:	00256bb3          	or	s7,a0,sp
    8000064c:	89f00d93          	li	s11,-1889
    80000650:	86ad32a3          	sd	a0,-1947(s10)
    80000654:	02da32b3          	mulhu	t0,s4,a3
    80000658:	80900093          	li	ra,-2039
    8000065c:	773cc603          	lbu	a2,1907(s9)
    80000660:	021f64bb          	remw	s1,t5,ra
    80000664:	333be463          	bltu	s7,s3,8000098c <crash_forward>
    80000668:	fb800a93          	li	s5,-72
    8000066c:	015df833          	and	a6,s11,s5
    80000670:	0273fa3b          	remuw	s4,t2,t2
    80000674:	00000897          	auipc	a7,0x0
    80000678:	58188893          	addi	a7,a7,1409 # 80000bf5 <test_end+0x255>
    8000067c:	010825b3          	slt	a1,a6,a6
    80000680:	5d900293          	li	t0,1497
    80000684:	973f0d1b          	addiw	s10,t5,-1677
    80000688:	b8500913          	li	s2,-1147
    8000068c:	6c300113          	li	sp,1731
    80000690:	00000693          	li	a3,0
    80000694:	af100413          	li	s0,-1295
    80000698:	7d78aa83          	lw	s5,2007(a7)
    8000069c:	f1640613          	addi	a2,s0,-234
    800006a0:	cb600a13          	li	s4,-842
    800006a4:	00000717          	auipc	a4,0x0
    800006a8:	5bf70713          	addi	a4,a4,1471 # 80000c63 <test_end+0x2c3>
    800006ac:	00b5ff33          	and	t5,a1,a1
    800006b0:	02528b33          	mul	s6,t0,t0
    800006b4:	41ff81bb          	subw	gp,t6,t6
    800006b8:	51d00d13          	li	s10,1309
    800006bc:	a4c00c13          	li	s8,-1460
    800006c0:	c6618a93          	addi	s5,gp,-922 # 80001b76 <_end+0x466>
    800006c4:	784710a3          	sh	tp,1921(a4)
    800006c8:	718d0893          	addi	a7,s10,1816
    800006cc:	56500213          	li	tp,1381
    800006d0:	43e00093          	li	ra,1086
    800006d4:	897a9023          	sh	s7,-1920(s5)
    800006d8:	006c0bb3          	add	s7,s8,t1
    800006dc:	4a800f13          	li	t5,1192
    800006e0:	00000393          	li	t2,0
    800006e4:	038c4fbb          	divw	t6,s8,s8
    800006e8:	00cdf833          	and	a6,s11,a2
    800006ec:	034a45b3          	div	a1,s4,s4
    800006f0:	bfe00993          	li	s3,-1026
    800006f4:	40410cb3          	sub	s9,sp,tp
    800006f8:	ac600713          	li	a4,-1338
    800006fc:	03308ebb          	mulw	t4,ra,s3
    80000700:	26d00b13          	li	s6,621
    80000704:	33400313          	li	t1,820
    80000708:	40d0d1bb          	sraw	gp,ra,a3
    8000070c:	01295533          	srl	a0,s2,s2
    80000710:	00630e33          	add	t3,t1,t1
    80000714:	03670abb          	mulw	s5,a4,s6
    80000718:	00e74b33          	xor	s6,a4,a4
    8000071c:	b9718913          	addi	s2,gp,-1129 # 80001aa7 <_end+0x397>
    80000720:	68100e93          	li	t4,1665
    80000724:	031db233          	mulhu	tp,s11,a7
    80000728:	40f0083b          	negw	a6,a5
    8000072c:	34e00a93          	li	s5,846
    80000730:	00001517          	auipc	a0,0x1
    80000734:	96950513          	addi	a0,a0,-1687 # 80001099 <fromhost+0x59>
    80000738:	bd900713          	li	a4,-1063
    8000073c:	03ef72bb          	remuw	t0,t5,t5
    80000740:	27951ea3          	sh	s9,637(a0)
    80000744:	026339b3          	mulhu	s3,t1,t1
    80000748:	01dedcbb          	srlw	s9,t4,t4
    8000074c:	00eaaa33          	slt	s4,s5,a4
    80000750:	00100893          	li	a7,1
    80000754:	9a001ae3          	bnez	zero,80000108 <crash_backward>
    80000758:	0308733b          	remuw	t1,a6,a6
    8000075c:	02424bb3          	div	s7,tp,tp
    80000760:	9a76c4e3          	blt	a3,t2,80000108 <crash_backward>
    80000764:	bb6c0493          	addi	s1,s8,-1098
    80000768:	00100813          	li	a6,1
    8000076c:	0f200d13          	li	s10,242
    80000770:	00100a93          	li	s5,1
    80000774:	03de8bbb          	mulw	s7,t4,t4
    80000778:	86991083          	lh	ra,-1943(s2)
    8000077c:	01455533          	srl	a0,a0,s4
    80000780:	d3918313          	addi	t1,gp,-711 # 80001c49 <_end+0x539>
    80000784:	03f81813          	slli	a6,a6,0x3f
    80000788:	00001b17          	auipc	s6,0x1
    8000078c:	bd7b0b13          	addi	s6,s6,-1065 # 8000135f <test_memory+0x5f>
    80000790:	40215733          	sra	a4,sp,sp
    80000794:	dd700c93          	li	s9,-553
    80000798:	30db2203          	lw	tp,781(s6)
    8000079c:	00000c13          	li	s8,0
    800007a0:	00000b93          	li	s7,0
    800007a4:	16d00493          	li	s1,365
    800007a8:	40100593          	li	a1,1025
    800007ac:	039ce2b3          	rem	t0,s9,s9
    800007b0:	cd200d93          	li	s11,-814
    800007b4:	03bde7bb          	remw	a5,s11,s11
    800007b8:	fff00f13          	li	t5,-1
    800007bc:	cb400093          	li	ra,-844
    800007c0:	aa336683          	lwu	a3,-1373(t1)
    800007c4:	03fa9a93          	slli	s5,s5,0x3f
    800007c8:	0214e43b          	remw	s0,s1,ra
    800007cc:	00bd01b3          	add	gp,s10,a1
    800007d0:	010f4f33          	xor	t5,t5,a6
    800007d4:	03f89893          	slli	a7,a7,0x3f
    800007d8:	01e57eb3          	and	t4,a0,t5
    800007dc:	010ae9b3          	or	s3,s5,a6
    800007e0:	1b3e8663          	beq	t4,s3,8000098c <crash_forward>
    800007e4:	fff00393          	li	t2,-1
    800007e8:	fff00e13          	li	t3,-1
    800007ec:	0153c3b3          	xor	t2,t2,s5
    800007f0:	0075f633          	and	a2,a1,t2
    800007f4:	011e4e33          	xor	t3,t3,a7
    800007f8:	01c8ffb3          	and	t6,a7,t3
    800007fc:	0158ea33          	or	s4,a7,s5
    80000800:	18ca5663          	bge	s4,a2,8000098c <crash_forward>
    80000804:	011fe133          	or	sp,t6,a7
    80000808:	182f8263          	beq	t6,sp,8000098c <crash_forward>
    8000080c:	413c56b3          	sra	a3,s8,s3
    80000810:	02bf0233          	mul	tp,t5,a1
    80000814:	00001e97          	auipc	t4,0x1
    80000818:	8f2e8e93          	addi	t4,t4,-1806 # 80001106 <hidden_data+0x6>
    8000081c:	3ade8323          	sb	a3,934(t4)
    80000820:	ab318413          	addi	s0,gp,-1357 # 800019c3 <_end+0x2b3>
    80000824:	f0d18713          	addi	a4,gp,-243 # 80001e1d <_end+0x70d>
    80000828:	91a18a93          	addi	s5,gp,-1766 # 8000182a <_end+0x11a>
    8000082c:	e94abb23          	sd	s4,-362(s5)
    80000830:	00001e17          	auipc	t3,0x1
    80000834:	8b9e0e13          	addi	t3,t3,-1863 # 800010e9 <fromhost+0xa9>
    80000838:	9eb40783          	lb	a5,-1557(s0)
    8000083c:	00100113          	li	sp,1
    80000840:	77700b93          	li	s7,1911
    80000844:	86171ea3          	sh	ra,-1923(a4)
    80000848:	03f11113          	slli	sp,sp,0x3f
    8000084c:	00000b17          	auipc	s6,0x0
    80000850:	5b7b0b13          	addi	s6,s6,1463 # 80000e03 <test_end+0x463>
    80000854:	cf518613          	addi	a2,gp,-779 # 80001c05 <_end+0x4f5>
    80000858:	e5000d13          	li	s10,-432
    8000085c:	01ad1533          	sll	a0,s10,s10
    80000860:	a29631a3          	sd	s1,-1501(a2)
    80000864:	1c100f93          	li	t6,449
    80000868:	c0c4c193          	xori	gp,s1,-1012
    8000086c:	1d7b8f13          	addi	t5,s7,471
    80000870:	c7b00c13          	li	s8,-901
    80000874:	038fc933          	div	s2,t6,s8
    80000878:	6ddb2083          	lw	ra,1757(s6)
    8000087c:	008fd49b          	srliw	s1,t6,0x8
    80000880:	fff00c93          	li	s9,-1
    80000884:	002cccb3          	xor	s9,s9,sp
    80000888:	421e5803          	lhu	a6,1057(t3)
    8000088c:	01937333          	and	t1,t1,s9
    80000890:	00001b97          	auipc	s7,0x1
    80000894:	899b8b93          	addi	s7,s7,-1895 # 80001129 <reg_x5_init+0x1>
    80000898:	00633733          	sltu	a4,t1,t1
    8000089c:	2d500393          	li	t2,725
    800008a0:	4a400493          	li	s1,1188
    800008a4:	ad000e13          	li	t3,-1328
    800008a8:	4cc00a13          	li	s4,1228
    800008ac:	70700e93          	li	t4,1799
    800008b0:	02f75913          	srli	s2,a4,0x2f
    800008b4:	002365b3          	or	a1,t1,sp
    800008b8:	01448fb3          	add	t6,s1,s4
    800008bc:	f3218513          	addi	a0,gp,-206 # 80001e42 <_end+0x732>
    800008c0:	8b252783          	lw	a5,-1870(a0)
    800008c4:	00100613          	li	a2,1
    800008c8:	007382bb          	addw	t0,t2,t2
    800008cc:	4a2bafa3          	sw	sp,1215(s7)
    800008d0:	0a65ee63          	bltu	a1,t1,8000098c <crash_forward>
    800008d4:	01ce0b33          	add	s6,t3,t3
    800008d8:	03f61613          	slli	a2,a2,0x3f
    800008dc:	4eae8f13          	addi	t5,t4,1258
    800008e0:	fff00a93          	li	s5,-1
    800008e4:	83df62e3          	bltu	t5,t4,80000108 <crash_backward>
    800008e8:	00cacab3          	xor	s5,s5,a2
    800008ec:	0157fc33          	and	s8,a5,s5
    800008f0:	00cc61b3          	or	gp,s8,a2
    800008f4:	0040006f          	j	800008f8 <reg_dump>

00000000800008f8 <reg_dump>:
    800008f8:	00001097          	auipc	ra,0x1
    800008fc:	e0808093          	addi	ra,ra,-504 # 80001700 <loop_count>
    80000900:	0000a103          	lw	sp,0(ra)
    80000904:	fff10193          	addi	gp,sp,-1
    80000908:	0030a023          	sw	gp,0(ra)
    8000090c:	88011ee3          	bnez	sp,800001a8 <pseg_0>
    80000910:	00001097          	auipc	ra,0x1
    80000914:	8f008093          	addi	ra,ra,-1808 # 80001200 <begin_signature>
    80000918:	0000b023          	sd	zero,0(ra)
    8000091c:	0020b823          	sd	sp,16(ra)
    80000920:	0030bc23          	sd	gp,24(ra)
    80000924:	0240b023          	sd	tp,32(ra)
    80000928:	0250b423          	sd	t0,40(ra)
    8000092c:	0260b823          	sd	t1,48(ra)
    80000930:	0270bc23          	sd	t2,56(ra)
    80000934:	0490b423          	sd	s1,72(ra)
    80000938:	04b0bc23          	sd	a1,88(ra)
    8000093c:	06c0b023          	sd	a2,96(ra)
    80000940:	06d0b423          	sd	a3,104(ra)
    80000944:	06e0b823          	sd	a4,112(ra)
    80000948:	06f0bc23          	sd	a5,120(ra)
    8000094c:	0900b023          	sd	a6,128(ra)
    80000950:	0910b423          	sd	a7,136(ra)
    80000954:	0920b823          	sd	s2,144(ra)
    80000958:	0930bc23          	sd	s3,152(ra)
    8000095c:	0b40b023          	sd	s4,160(ra)
    80000960:	0b50b423          	sd	s5,168(ra)
    80000964:	0b60b823          	sd	s6,176(ra)
    80000968:	0d80b023          	sd	s8,192(ra)
    8000096c:	0d90b423          	sd	s9,200(ra)
    80000970:	0da0b823          	sd	s10,208(ra)
    80000974:	0db0bc23          	sd	s11,216(ra)
    80000978:	0fc0b023          	sd	t3,224(ra)
    8000097c:	0fd0b423          	sd	t4,232(ra)
    80000980:	0fe0b823          	sd	t5,240(ra)
    80000984:	0ff0bc23          	sd	t6,248(ra)
    80000988:	0180006f          	j	800009a0 <test_end>

000000008000098c <crash_forward>:
    8000098c:	0ff0000f          	fence
    80000990:	00018063          	beqz	gp,80000990 <crash_forward+0x4>
    80000994:	00119193          	slli	gp,gp,0x1
    80000998:	0011e193          	ori	gp,gp,1
    8000099c:	00000073          	ecall

00000000800009a0 <test_end>:
    800009a0:	0ff0000f          	fence
    800009a4:	00100193          	li	gp,1
    800009a8:	00000073          	ecall
    800009ac:	c0001073          	unimp
	...

Disassembly of section .tohost:

0000000080001000 <tohost>:
	...

0000000080001040 <fromhost>:
	...
