
test.elf:     file format elf64-littleriscv


Disassembly of section .text.init:

0000000080000000 <_start>:
    80000000:	0580006f          	j	80000058 <reset_vector>

0000000080000004 <trap_vector>:
    80000004:	34202f73          	csrr	t5,mcause
    80000008:	00800f93          	li	t6,8
    8000000c:	05ff0063          	beq	t5,t6,8000004c <write_tohost>
    80000010:	00900f93          	li	t6,9
    80000014:	03ff0c63          	beq	t5,t6,8000004c <write_tohost>
    80000018:	00b00f93          	li	t6,11
    8000001c:	03ff0863          	beq	t5,t6,8000004c <write_tohost>
    80000020:	00000f13          	li	t5,0
    80000024:	000f0463          	beqz	t5,8000002c <trap_vector+0x28>
    80000028:	000f0067          	jr	t5
    8000002c:	34202f73          	csrr	t5,mcause
    80000030:	000f5463          	bgez	t5,80000038 <handle_exception>
    80000034:	0140006f          	j	80000048 <other_exception>

0000000080000038 <handle_exception>:
    80000038:	34102e73          	csrr	t3,mepc
    8000003c:	004e0e13          	addi	t3,t3,4
    80000040:	341e1073          	csrw	mepc,t3
    80000044:	30200073          	mret

0000000080000048 <other_exception>:
    80000048:	5391e193          	ori	gp,gp,1337

000000008000004c <write_tohost>:
    8000004c:	00001f17          	auipc	t5,0x1
    80000050:	fa3f2a23          	sw	gp,-76(t5) # 80001000 <tohost>
    80000054:	ff9ff06f          	j	8000004c <write_tohost>

0000000080000058 <reset_vector>:
    80000058:	f1402573          	csrr	a0,mhartid
    8000005c:	00051063          	bnez	a0,8000005c <reset_vector+0x4>
    80000060:	00000297          	auipc	t0,0x0
    80000064:	01028293          	addi	t0,t0,16 # 80000070 <reset_vector+0x18>
    80000068:	30529073          	csrw	mtvec,t0
    8000006c:	18005073          	csrwi	satp,0
    80000070:	00000297          	auipc	t0,0x0
    80000074:	01c28293          	addi	t0,t0,28 # 8000008c <reset_vector+0x34>
    80000078:	30529073          	csrw	mtvec,t0
    8000007c:	fff00293          	li	t0,-1
    80000080:	3b029073          	csrw	pmpaddr0,t0
    80000084:	01f00293          	li	t0,31
    80000088:	3a029073          	csrw	pmpcfg0,t0
    8000008c:	00000297          	auipc	t0,0x0
    80000090:	01828293          	addi	t0,t0,24 # 800000a4 <reset_vector+0x4c>
    80000094:	30529073          	csrw	mtvec,t0
    80000098:	30205073          	csrwi	medeleg,0
    8000009c:	30305073          	csrwi	mideleg,0
    800000a0:	30405073          	csrwi	mie,0
    800000a4:	00000193          	li	gp,0
    800000a8:	00000297          	auipc	t0,0x0
    800000ac:	f5c28293          	addi	t0,t0,-164 # 80000004 <trap_vector>
    800000b0:	30529073          	csrw	mtvec,t0
    800000b4:	00100513          	li	a0,1
    800000b8:	01f51513          	slli	a0,a0,0x1f
    800000bc:	00055863          	bgez	a0,800000cc <reset_vector+0x74>
    800000c0:	0ff0000f          	fence
    800000c4:	00100193          	li	gp,1
    800000c8:	00000073          	ecall
    800000cc:	00000293          	li	t0,0
    800000d0:	00028e63          	beqz	t0,800000ec <reset_vector+0x94>
    800000d4:	10529073          	csrw	stvec,t0
    800000d8:	0000b2b7          	lui	t0,0xb
    800000dc:	1092829b          	addiw	t0,t0,265
    800000e0:	30229073          	csrw	medeleg,t0
    800000e4:	30202373          	csrr	t1,medeleg
    800000e8:	f66290e3          	bne	t0,t1,80000048 <other_exception>
    800000ec:	30005073          	csrwi	mstatus,0
    800000f0:	00000297          	auipc	t0,0x0
    800000f4:	01428293          	addi	t0,t0,20 # 80000104 <reset_vector+0xac>
    800000f8:	34129073          	csrw	mepc,t0
    800000fc:	f1402573          	csrr	a0,mhartid
    80000100:	30200073          	mret
    80000104:	0180006f          	j	8000011c <test_start>

0000000080000108 <crash_backward>:
    80000108:	0ff0000f          	fence
    8000010c:	00018063          	beqz	gp,8000010c <crash_backward+0x4>
    80000110:	00119193          	slli	gp,gp,0x1
    80000114:	0011e193          	ori	gp,gp,1
    80000118:	00000073          	ecall

000000008000011c <test_start>:
    8000011c:	00001f97          	auipc	t6,0x1
    80000120:	fe4f8f93          	addi	t6,t6,-28 # 80001100 <hidden_data>
    80000124:	000fb003          	ld	zero,0(t6)
    80000128:	008fb083          	ld	ra,8(t6)
    8000012c:	010fb103          	ld	sp,16(t6)
    80000130:	018fb183          	ld	gp,24(t6)
    80000134:	020fb203          	ld	tp,32(t6)
    80000138:	028fb283          	ld	t0,40(t6)
    8000013c:	030fb303          	ld	t1,48(t6)
    80000140:	038fb383          	ld	t2,56(t6)
    80000144:	040fb403          	ld	s0,64(t6)
    80000148:	048fb483          	ld	s1,72(t6)
    8000014c:	050fb503          	ld	a0,80(t6)
    80000150:	058fb583          	ld	a1,88(t6)
    80000154:	060fb603          	ld	a2,96(t6)
    80000158:	068fb683          	ld	a3,104(t6)
    8000015c:	070fb703          	ld	a4,112(t6)
    80000160:	078fb783          	ld	a5,120(t6)
    80000164:	080fb803          	ld	a6,128(t6)
    80000168:	088fb883          	ld	a7,136(t6)
    8000016c:	090fb903          	ld	s2,144(t6)
    80000170:	098fb983          	ld	s3,152(t6)
    80000174:	0a0fba03          	ld	s4,160(t6)
    80000178:	0a8fba83          	ld	s5,168(t6)
    8000017c:	0b0fbb03          	ld	s6,176(t6)
    80000180:	0b8fbb83          	ld	s7,184(t6)
    80000184:	0c0fbc03          	ld	s8,192(t6)
    80000188:	0c8fbc83          	ld	s9,200(t6)
    8000018c:	0d0fbd03          	ld	s10,208(t6)
    80000190:	0d8fbd83          	ld	s11,216(t6)
    80000194:	0e0fbe03          	ld	t3,224(t6)
    80000198:	0e8fbe83          	ld	t4,232(t6)
    8000019c:	0f0fbf03          	ld	t5,240(t6)
    800001a0:	0f8fbf83          	ld	t6,248(t6)
    800001a4:	0040006f          	j	800001a8 <pseg_0>

00000000800001a8 <pseg_0>:
    800001a8:	00001b97          	auipc	s7,0x1
    800001ac:	eefb8b93          	addi	s7,s7,-273 # 80001097 <fromhost+0x57>
    800001b0:	be500a93          	li	s5,-1051
    800001b4:	ae700693          	li	a3,-1305
    800001b8:	40f8d11b          	sraiw	sp,a7,0xf
    800001bc:	403bd203          	lhu	tp,1027(s7)
    800001c0:	02d69eb3          	mulh	t4,a3,a3
    800001c4:	0073c933          	xor	s2,t2,t2
    800001c8:	40210d33          	sub	s10,sp,sp
    800001cc:	008bde1b          	srliw	t3,s7,0x8
    800001d0:	40180b33          	sub	s6,a6,ra
    800001d4:	01de8cb3          	add	s9,t4,t4
    800001d8:	406dd633          	sra	a2,s11,t1
    800001dc:	b8f00c13          	li	s8,-1137
    800001e0:	af4a8513          	addi	a0,s5,-1292
    800001e4:	000c8f93          	mv	t6,s9
    800001e8:	e8c18b13          	addi	s6,gp,-372 # 80001d9c <_end+0x68c>
    800001ec:	417bd0bb          	sraw	ra,s7,s7
    800001f0:	0026931b          	slliw	t1,a3,0x2
    800001f4:	00001b97          	auipc	s7,0x1
    800001f8:	bc3b8b93          	addi	s7,s7,-1085 # 80000db7 <test_end+0x453>
    800001fc:	a2018d93          	addi	s11,gp,-1504 # 80001930 <_end+0x220>
    80000200:	74aac863          	blt	s5,a0,80000950 <crash_forward>
    80000204:	60800393          	li	t2,1544
    80000208:	1a300d13          	li	s10,419
    8000020c:	01ef64b3          	or	s1,t5,t5
    80000210:	0324e83b          	remw	a6,s1,s2
    80000214:	bd700213          	li	tp,-1065
    80000218:	012952b3          	srl	t0,s2,s2
    8000021c:	ea100893          	li	a7,-351
    80000220:	05100613          	li	a2,81
    80000224:	53554713          	xori	a4,a0,1333
    80000228:	000f8413          	mv	s0,t6
    8000022c:	0242093b          	mulw	s2,tp,tp
    80000230:	02cd5e3b          	divuw	t3,s10,a2
    80000234:	acb00d13          	li	s10,-1333
    80000238:	00b26833          	or	a6,tp,a1
    8000023c:	015bdf1b          	srliw	t5,s7,0x15
    80000240:	0318e1b3          	rem	gp,a7,a7
    80000244:	038c32b3          	mulhu	t0,s8,s8
    80000248:	18e38593          	addi	a1,t2,398
    8000024c:	024e5693          	srli	a3,t3,0x24
    80000250:	c6100a13          	li	s4,-927
    80000254:	03fca7b3          	mulhsu	a5,s9,t6
    80000258:	ef400713          	li	a4,-268
    8000025c:	014c59b3          	srl	s3,s8,s4
    80000260:	00001a17          	auipc	s4,0x1
    80000264:	e9ca0a13          	addi	s4,s4,-356 # 800010fc <fromhost+0xbc>
    80000268:	4a2a3e23          	sd	sp,1212(s4)
    8000026c:	f7d00493          	li	s1,-131
    80000270:	6e8f9063          	bne	t6,s0,80000950 <crash_forward>
    80000274:	01500913          	li	s2,21
    80000278:	b7f18393          	addi	t2,gp,-1153 # 80001a8f <_end+0x37f>
    8000027c:	028dd1bb          	divuw	gp,s11,s0
    80000280:	012e16b3          	sll	a3,t3,s2
    80000284:	e2e00513          	li	a0,-466
    80000288:	15500093          	li	ra,341
    8000028c:	01a2063b          	addw	a2,tp,s10
    80000290:	ad300293          	li	t0,-1325
    80000294:	02e70ab3          	mul	s5,a4,a4
    80000298:	7bf00413          	li	s0,1983
    8000029c:	030146b3          	div	a3,sp,a6
    800002a0:	0324a233          	mulhsu	tp,s1,s2
    800002a4:	8eeb1c83          	lh	s9,-1810(s6)
    800002a8:	00157333          	and	t1,a0,ra
    800002ac:	27700613          	li	a2,631
    800002b0:	14100593          	li	a1,321
    800002b4:	b9b18e93          	addi	t4,gp,-1125 # 80001aab <_end+0x39b>
    800002b8:	f3d28793          	addi	a5,t0,-195
    800002bc:	03bdc833          	div	a6,s11,s11
    800002c0:	83f00513          	li	a0,-1985
    800002c4:	01b59c3b          	sllw	s8,a1,s11
    800002c8:	42c55713          	srai	a4,a0,0x2c
    800002cc:	00001097          	auipc	ra,0x1
    800002d0:	1ef08093          	addi	ra,ra,495 # 800014bb <test_memory+0x1bb>
    800002d4:	6657fe63          	bgeu	a5,t0,80000950 <crash_forward>
    800002d8:	f8900a93          	li	s5,-119
    800002dc:	bb500993          	li	s3,-1099
    800002e0:	00001697          	auipc	a3,0x1
    800002e4:	49468693          	addi	a3,a3,1172 # 80001774 <_end+0x64>
    800002e8:	01509203          	lh	tp,21(ra)
    800002ec:	ff1d0e13          	addi	t3,s10,-15
    800002f0:	00001b17          	auipc	s6,0x1
    800002f4:	a97b0b13          	addi	s6,s6,-1385 # 80000d87 <test_end+0x423>
    800002f8:	8e100913          	li	s2,-1823
    800002fc:	be3399a3          	sh	gp,-1037(t2)
    80000300:	00001217          	auipc	tp,0x1
    80000304:	41220213          	addi	tp,tp,1042 # 80001712 <_end+0x2>
    80000308:	be36c803          	lbu	a6,-1053(a3)
    8000030c:	dfcd4ee3          	blt	s10,t3,80000108 <crash_backward>
    80000310:	86cea4a3          	sw	a2,-1943(t4)
    80000314:	02c451bb          	divuw	gp,s0,a2
    80000318:	a20daa23          	sw	zero,-1484(s11)
    8000031c:	db425083          	lhu	ra,-588(tp) # fffffffffffffdb4 <__global_pointer$+0xffffffff7fffdea4>
    80000320:	55bbd103          	lhu	sp,1371(s7)
    80000324:	77100393          	li	t2,1905
    80000328:	0135ea33          	or	s4,a1,s3
    8000032c:	a0e00693          	li	a3,-1522
    80000330:	41ac5213          	srai	tp,s8,0x1a
    80000334:	00001d97          	auipc	s11,0x1
    80000338:	ea6d8d93          	addi	s11,s11,-346 # 800011da <reg_x27_init+0x2>
    8000033c:	00001f97          	auipc	t6,0x1
    80000340:	03af8f93          	addi	t6,t6,58 # 80001376 <test_memory+0x76>
    80000344:	350dad23          	sw	a6,858(s11)
    80000348:	cfc18093          	addi	ra,gp,-772 # 80001c0c <_end+0x4fc>
    8000034c:	02528bb3          	mul	s7,t0,t0
    80000350:	015aecb3          	or	s9,s5,s5
    80000354:	a0818a13          	addi	s4,gp,-1528 # 80001918 <_end+0x208>
    80000358:	f9200d13          	li	s10,-110
    8000035c:	cb5a4403          	lbu	s0,-843(s4)
    80000360:	01800e93          	li	t4,24
    80000364:	a6718713          	addi	a4,gp,-1433 # 80001977 <_end+0x267>
    80000368:	02d6d833          	divu	a6,a3,a3
    8000036c:	d8518593          	addi	a1,gp,-635 # 80001c95 <_end+0x585>
    80000370:	e4700f13          	li	t5,-441
    80000374:	03ef08b3          	mul	a7,t5,t5
    80000378:	fb0faf23          	sw	a6,-66(t6)
    8000037c:	9ba58823          	sb	s10,-1616(a1)
    80000380:	8d700793          	li	a5,-1833
    80000384:	03a3ee33          	rem	t3,t2,s10
    80000388:	012534b3          	sltu	s1,a0,s2
    8000038c:	37de8113          	addi	sp,t4,893
    80000390:	c5200293          	li	t0,-942
    80000394:	b4670603          	lb	a2,-1210(a4)
    80000398:	a380e983          	lwu	s3,-1480(ra)
    8000039c:	5adb6303          	lwu	t1,1453(s6)
    800003a0:	00578c33          	add	s8,a5,t0
    800003a4:	ed900b13          	li	s6,-295
    800003a8:	00001597          	auipc	a1,0x1
    800003ac:	df958593          	addi	a1,a1,-519 # 800011a1 <reg_x20_init+0x1>
    800003b0:	00001c97          	auipc	s9,0x1
    800003b4:	c13c8c93          	addi	s9,s9,-1005 # 80000fc3 <test_end+0x65f>
    800003b8:	487c8423          	sb	t2,1160(s9)
    800003bc:	023c5ebb          	divuw	t4,s8,gp
    800003c0:	99500293          	li	t0,-1643
    800003c4:	038c09b3          	mul	s3,s8,s8
    800003c8:	0261a1b3          	mulhsu	gp,gp,t1
    800003cc:	f9f00a13          	li	s4,-97
    800003d0:	5f100913          	li	s2,1521
    800003d4:	03291433          	mulh	s0,s2,s2
    800003d8:	96118813          	addi	a6,gp,-1695 # 80001871 <_end+0x161>
    800003dc:	a4da0313          	addi	t1,s4,-1459
    800003e0:	f5d00e13          	li	t3,-163
    800003e4:	00001697          	auipc	a3,0x1
    800003e8:	2b068693          	addi	a3,a3,688 # 80001694 <test_memory+0x394>
    800003ec:	01cb2bb3          	slt	s7,s6,t3
    800003f0:	30400d13          	li	s10,772
    800003f4:	51ed0893          	addi	a7,s10,1310
    800003f8:	81b00393          	li	t2,-2021
    800003fc:	00739233          	sll	tp,t2,t2
    80000400:	00001497          	auipc	s1,0x1
    80000404:	f4e48493          	addi	s1,s1,-178 # 8000134e <test_memory+0x4e>
    80000408:	d9a00f93          	li	t6,-614
    8000040c:	ab185503          	lhu	a0,-1359(a6)
    80000410:	41f2d7bb          	sraw	a5,t0,t6
    80000414:	1bd49b23          	sh	t4,438(s1)
    80000418:	e6c6a703          	lw	a4,-404(a3)
    8000041c:	00100a93          	li	s5,1
    80000420:	03fa9a93          	slli	s5,s5,0x3f
    80000424:	fff00c13          	li	s8,-1
    80000428:	4f959f03          	lh	t5,1273(a1)
    8000042c:	015c4c33          	xor	s8,s8,s5
    80000430:	01817db3          	and	s11,sp,s8
    80000434:	0159e0b3          	or	ra,s3,s5
    80000438:	014a013b          	addw	sp,s4,s4
    8000043c:	c0d18b93          	addi	s7,gp,-1011 # 80001b1d <_end+0x40d>
    80000440:	48200193          	li	gp,1154
    80000444:	96eb4893          	xori	a7,s6,-1682
    80000448:	74d00313          	li	t1,1869
    8000044c:	ede00e93          	li	t4,-290
    80000450:	028c65bb          	remw	a1,s8,s0
    80000454:	0ef00293          	li	t0,239
    80000458:	00100613          	li	a2,1
    8000045c:	ea500393          	li	t2,-347
    80000460:	03d254bb          	divuw	s1,tp,t4
    80000464:	cb18e2e3          	bltu	a7,a7,80000108 <crash_backward>
    80000468:	4f000693          	li	a3,1264
    8000046c:	38a00d93          	li	s11,906
    80000470:	5a818513          	addi	a0,gp,1448 # 800024b8 <__global_pointer$+0x5a8>
    80000474:	41a0571b          	sraiw	a4,zero,0x1a
    80000478:	41dedb33          	sra	s6,t4,t4
    8000047c:	41800813          	li	a6,1048
    80000480:	be738113          	addi	sp,t2,-1049
    80000484:	825bdf03          	lhu	t5,-2011(s7)
    80000488:	02d6ed3b          	remw	s10,a3,a3
    8000048c:	0031f933          	and	s2,gp,gp
    80000490:	0252d233          	divu	tp,t0,t0
    80000494:	00001c97          	auipc	s9,0x1
    80000498:	e79c8c93          	addi	s9,s9,-391 # 8000130d <test_memory+0xd>
    8000049c:	03f61613          	slli	a2,a2,0x3f
    800004a0:	d3200a13          	li	s4,-718
    800004a4:	02f287b3          	mul	a5,t0,a5
    800004a8:	c6a1d0e3          	bge	gp,a0,80000108 <crash_backward>
    800004ac:	26fc9983          	lh	s3,623(s9)
    800004b0:	fff00f93          	li	t6,-1
    800004b4:	41430e3b          	subw	t3,t1,s4
    800004b8:	00cfcfb3          	xor	t6,t6,a2
    800004bc:	010daab3          	slt	s5,s11,a6
    800004c0:	01f2fc33          	and	s8,t0,t6
    800004c4:	00cc6433          	or	s0,s8,a2
    800004c8:	488c0463          	beq	s8,s0,80000950 <crash_forward>
    800004cc:	9f718d13          	addi	s10,gp,-1545 # 80001907 <_end+0x1f7>
    800004d0:	da000913          	li	s2,-608
    800004d4:	02f40f33          	mul	t5,s0,a5
    800004d8:	d3900b93          	li	s7,-711
    800004dc:	5ea00f93          	li	t6,1514
    800004e0:	032972bb          	remuw	t0,s2,s2
    800004e4:	85b67693          	andi	a3,a2,-1957
    800004e8:	bb1d3e03          	ld	t3,-1103(s10)
    800004ec:	03ff9733          	mulh	a4,t6,t6
    800004f0:	01ad72b3          	and	t0,s10,s10
    800004f4:	a1db8613          	addi	a2,s7,-1507
    800004f8:	00100313          	li	t1,1
    800004fc:	51000e13          	li	t3,1296
    80000500:	86800693          	li	a3,-1944
    80000504:	40de093b          	subw	s2,t3,a3
    80000508:	03c074b3          	remu	s1,zero,t3
    8000050c:	00100a13          	li	s4,1
    80000510:	becbcce3          	blt	s7,a2,80000108 <crash_backward>
    80000514:	0010e233          	or	tp,ra,ra
    80000518:	0217ddbb          	divuw	s11,a5,ra
    8000051c:	7c800c93          	li	s9,1992
    80000520:	00000113          	li	sp,0
    80000524:	03fa1a13          	slli	s4,s4,0x3f
    80000528:	fff00413          	li	s0,-1
    8000052c:	03f31313          	slli	t1,t1,0x3f
    80000530:	01444433          	xor	s0,s0,s4
    80000534:	00837833          	and	a6,t1,s0
    80000538:	fff00893          	li	a7,-1
    8000053c:	c71c8b13          	addi	s6,s9,-911
    80000540:	00001b17          	auipc	s6,0x1
    80000544:	01db0b13          	addi	s6,s6,29 # 8000155d <test_memory+0x25d>
    80000548:	65000d93          	li	s11,1616
    8000054c:	93000693          	li	a3,-1744
    80000550:	00000193          	li	gp,0
    80000554:	027833b3          	mulhu	t2,a6,t2
    80000558:	0146e7b3          	or	a5,a3,s4
    8000055c:	00001e97          	auipc	t4,0x1
    80000560:	943e8e93          	addi	t4,t4,-1725 # 80000e9f <test_end+0x53b>
    80000564:	00001097          	auipc	ra,0x1
    80000568:	a3f08093          	addi	ra,ra,-1473 # 80000fa3 <test_end+0x63f>
    8000056c:	b8311ee3          	bne	sp,gp,80000108 <crash_backward>
    80000570:	9ab18913          	addi	s2,gp,-1621 # 800018bb <_end+0x1ab>
    80000574:	000e8493          	mv	s1,t4
    80000578:	0068c8b3          	xor	a7,a7,t1
    8000057c:	00048613          	mv	a2,s1
    80000580:	02d6be33          	mulhu	t3,a3,a3
    80000584:	00001f17          	auipc	t5,0x1
    80000588:	869f0f13          	addi	t5,t5,-1943 # 80000ded <test_end+0x489>
    8000058c:	6490da83          	lhu	s5,1609(ra)
    80000590:	d6192203          	lw	tp,-671(s2)
    80000594:	00001397          	auipc	t2,0x1
    80000598:	e8f38393          	addi	t2,t2,-369 # 80001423 <test_memory+0x123>
    8000059c:	b6c496e3          	bne	s1,a2,80000108 <crash_backward>
    800005a0:	e43b3703          	ld	a4,-445(s6)
    800005a4:	0052cab3          	xor	s5,t0,t0
    800005a8:	66500693          	li	a3,1637
    800005ac:	0dd3ae03          	lw	t3,221(t2)
    800005b0:	0112f533          	and	a0,t0,a7
    800005b4:	09800093          	li	ra,152
    800005b8:	4f668193          	addi	gp,a3,1270
    800005bc:	019fc5b3          	xor	a1,t6,s9
    800005c0:	006dec33          	or	s8,s11,t1
    800005c4:	b436d2e3          	bge	a3,gp,80000108 <crash_backward>
    800005c8:	5d1f17a3          	sh	a7,1487(t5)
    800005cc:	00100493          	li	s1,1
    800005d0:	8be00293          	li	t0,-1858
    800005d4:	03f49493          	slli	s1,s1,0x3f
    800005d8:	00001f97          	auipc	t6,0x1
    800005dc:	884f8f93          	addi	t6,t6,-1916 # 80000e5c <test_end+0x4f8>
    800005e0:	40f788bb          	subw	a7,a5,a5
    800005e4:	5c100d13          	li	s10,1473
    800005e8:	fd700593          	li	a1,-41
    800005ec:	00100313          	li	t1,1
    800005f0:	00001a17          	auipc	s4,0x1
    800005f4:	0d3a0a13          	addi	s4,s4,211 # 800016c3 <test_memory+0x3c3>
    800005f8:	018877b3          	and	a5,a6,s8
    800005fc:	fff00b13          	li	s6,-1
    80000600:	51fec983          	lbu	s3,1311(t4)
    80000604:	009b4b33          	xor	s6,s6,s1
    80000608:	00100c93          	li	s9,1
    8000060c:	02b5873b          	mulw	a4,a1,a1
    80000610:	405d8bb3          	sub	s7,s11,t0
    80000614:	00000e97          	auipc	t4,0x0
    80000618:	6bde8e93          	addi	t4,t4,1725 # 80000cd1 <test_end+0x36d>
    8000061c:	03d9d9b3          	divu	s3,s3,t4
    80000620:	ed1a5803          	lhu	a6,-303(s4)
    80000624:	01a0d13b          	srlw	sp,ra,s10
    80000628:	0e500593          	li	a1,229
    8000062c:	5d4fe903          	lwu	s2,1492(t6)
    80000630:	a8f18713          	addi	a4,gp,-1393 # 8000199f <_end+0x28f>
    80000634:	02b59433          	mulh	s0,a1,a1
    80000638:	01647233          	and	tp,s0,s6
    8000063c:	03f31313          	slli	t1,t1,0x3f
    80000640:	4348df13          	srai	t5,a7,0x34
    80000644:	fff00193          	li	gp,-1
    80000648:	b9173503          	ld	a0,-1135(a4)
    8000064c:	009f6633          	or	a2,t5,s1
    80000650:	aa466ce3          	bltu	a2,tp,80000108 <crash_backward>
    80000654:	0de00993          	li	s3,222
    80000658:	25a00613          	li	a2,602
    8000065c:	03fc9c93          	slli	s9,s9,0x3f
    80000660:	020c5bbb          	divuw	s7,s8,zero
    80000664:	00001797          	auipc	a5,0x1
    80000668:	88c78793          	addi	a5,a5,-1908 # 80000ef0 <test_end+0x58c>
    8000066c:	00100a13          	li	s4,1
    80000670:	a5100293          	li	t0,-1455
    80000674:	08e00d93          	li	s11,142
    80000678:	695ed883          	lhu	a7,1685(t4)
    8000067c:	47079823          	sh	a6,1136(a5)
    80000680:	ab818093          	addi	ra,gp,-1352 # 800019c8 <_end+0x2b8>
    80000684:	a900e803          	lwu	a6,-1392(ra)
    80000688:	0294f933          	remu	s2,s1,s1
    8000068c:	f1d80f13          	addi	t5,a6,-227
    80000690:	00000717          	auipc	a4,0x0
    80000694:	76d70713          	addi	a4,a4,1901 # 80000dfd <test_end+0x499>
    80000698:	1d198b13          	addi	s6,s3,465
    8000069c:	01e9cbb3          	xor	s7,s3,t5
    800006a0:	403158bb          	sraw	a7,sp,gp
    800006a4:	03fa1a13          	slli	s4,s4,0x3f
    800006a8:	fff00f93          	li	t6,-1
    800006ac:	73c739a3          	sd	t3,1843(a4)
    800006b0:	fff00393          	li	t2,-1
    800006b4:	72500413          	li	s0,1829
    800006b8:	0193c3b3          	xor	t2,t2,s9
    800006bc:	0061c1b3          	xor	gp,gp,t1
    800006c0:	0286553b          	divuw	a0,a2,s0
    800006c4:	0036fc33          	and	s8,a3,gp
    800006c8:	b5200793          	li	a5,-1198
    800006cc:	293b4263          	blt	s6,s3,80000950 <crash_forward>
    800006d0:	014fcfb3          	xor	t6,t6,s4
    800006d4:	58f00e93          	li	t4,1423
    800006d8:	03bdd233          	divu	tp,s11,s11
    800006dc:	87e28d13          	addi	s10,t0,-1922
    800006e0:	01fd7133          	and	sp,s10,t6
    800006e4:	01d795bb          	sllw	a1,a5,t4
    800006e8:	006c66b3          	or	a3,s8,t1
    800006ec:	014ce4b3          	or	s1,s9,s4
    800006f0:	a0dc7ce3          	bgeu	s8,a3,80000108 <crash_backward>
    800006f4:	00757ab3          	and	s5,a0,t2
    800006f8:	019aee33          	or	t3,s5,s9
    800006fc:	25caca63          	blt	s5,t3,80000950 <crash_forward>
    80000700:	43f00c93          	li	s9,1087
    80000704:	00100a13          	li	s4,1
    80000708:	00001917          	auipc	s2,0x1
    8000070c:	e2590913          	addi	s2,s2,-475 # 8000152d <test_memory+0x22d>
    80000710:	019c913b          	sllw	sp,s9,s9
    80000714:	00100c13          	li	s8,1
    80000718:	019c96b3          	sll	a3,s9,s9
    8000071c:	03fc1c13          	slli	s8,s8,0x3f
    80000720:	fff00d93          	li	s11,-1
    80000724:	00000217          	auipc	tp,0x0
    80000728:	6eb20213          	addi	tp,tp,1771 # 80000e0f <test_end+0x4ab>
    8000072c:	018dcdb3          	xor	s11,s11,s8
    80000730:	d2a18493          	addi	s1,gp,-726 # 80001c3a <_end+0x52a>
    80000734:	a6600093          	li	ra,-1434
    80000738:	01bdff33          	and	t5,s11,s11
    8000073c:	0210c9b3          	div	s3,ra,ra
    80000740:	a704db03          	lhu	s6,-1424(s1)
    80000744:	d7618d13          	addi	s10,gp,-650 # 80001c86 <_end+0x576>
    80000748:	00100593          	li	a1,1
    8000074c:	00001717          	auipc	a4,0x1
    80000750:	ba870713          	addi	a4,a4,-1112 # 800012f4 <reg_x30_output+0x4>
    80000754:	1d076303          	lwu	t1,464(a4)
    80000758:	0188e633          	or	a2,a7,s8
    8000075c:	03f59593          	slli	a1,a1,0x3f
    80000760:	03fa1a13          	slli	s4,s4,0x3f
    80000764:	fff00b93          	li	s7,-1
    80000768:	16191183          	lh	gp,353(s2)
    8000076c:	014bcbb3          	xor	s7,s7,s4
    80000770:	fff00e13          	li	t3,-1
    80000774:	00be4e33          	xor	t3,t3,a1
    80000778:	0cbe0513          	addi	a0,t3,203
    8000077c:	a3918293          	addi	t0,gp,-1479 # 80001949 <_end+0x239>
    80000780:	b7f2a9a3          	sw	t6,-1165(t0)
    80000784:	017bfab3          	and	s5,s7,s7
    80000788:	014ae433          	or	s0,s5,s4
    8000078c:	5af25803          	lhu	a6,1455(tp) # 5af <_start-0x7ffffa51>
    80000790:	832d3e83          	ld	t4,-1998(s10)
    80000794:	01ca77b3          	and	a5,s4,t3
    80000798:	00b468b3          	or	a7,s0,a1
    8000079c:	1b17fa63          	bgeu	a5,a7,80000950 <crash_forward>
    800007a0:	f470a413          	slti	s0,ra,-185
    800007a4:	66800c13          	li	s8,1640
    800007a8:	01ad64b3          	or	s1,s10,s10
    800007ac:	00000393          	li	t2,0
    800007b0:	03dea133          	mulhsu	sp,t4,t4
    800007b4:	41ae8cbb          	subw	s9,t4,s10
    800007b8:	00000e13          	li	t3,0
    800007bc:	01297db3          	and	s11,s2,s2
    800007c0:	d7f00993          	li	s3,-641
    800007c4:	10600513          	li	a0,262
    800007c8:	195c0c9b          	addiw	s9,s8,405
    800007cc:	40618fb3          	sub	t6,gp,t1
    800007d0:	00000b97          	auipc	s7,0x0
    800007d4:	5e0b8b93          	addi	s7,s7,1504 # 80000db0 <test_end+0x44c>
    800007d8:	00a51d33          	sll	s10,a0,a0
    800007dc:	af518593          	addi	a1,gp,-1291 # 80001a05 <_end+0x2f5>
    800007e0:	00001417          	auipc	s0,0x1
    800007e4:	edd40413          	addi	s0,s0,-291 # 800016bd <test_memory+0x3bd>
    800007e8:	00001917          	auipc	s2,0x1
    800007ec:	a4d90913          	addi	s2,s2,-1459 # 80001235 <reg_x6_output+0x5>
    800007f0:	1d300313          	li	t1,467
    800007f4:	d0518b13          	addi	s6,gp,-763 # 80001c15 <_end+0x505>
    800007f8:	95f58123          	sb	t6,-1726(a1)
    800007fc:	c4f40aa3          	sb	a5,-939(s0)
    80000800:	a5000713          	li	a4,-1456
    80000804:	91c3e2e3          	bltu	t2,t3,80000108 <crash_backward>
    80000808:	a4bb3203          	ld	tp,-1461(s6)
    8000080c:	40e98633          	sub	a2,s3,a4
    80000810:	39b93a83          	ld	s5,923(s2)
    80000814:	02213933          	mulhu	s2,sp,sp
    80000818:	d3618993          	addi	s3,gp,-714 # 80001c46 <_end+0x536>
    8000081c:	00100213          	li	tp,1
    80000820:	00050a93          	mv	s5,a0
    80000824:	01d19593          	slli	a1,gp,0x1d
    80000828:	51b00493          	li	s1,1307
    8000082c:	00100f13          	li	t5,1
    80000830:	03f21213          	slli	tp,tp,0x3f
    80000834:	03ff1f13          	slli	t5,t5,0x3f
    80000838:	00100093          	li	ra,1
    8000083c:	ca700293          	li	t0,-857
    80000840:	005c1ebb          	sllw	t4,s8,t0
    80000844:	00000d17          	auipc	s10,0x0
    80000848:	65cd0d13          	addi	s10,s10,1628 # 80000ea0 <test_end+0x53c>
    8000084c:	00000697          	auipc	a3,0x0
    80000850:	7c568693          	addi	a3,a3,1989 # 80001011 <tohost+0x11>
    80000854:	fff00413          	li	s0,-1
    80000858:	03f09093          	slli	ra,ra,0x3f
    8000085c:	94a9b503          	ld	a0,-1718(s3)
    80000860:	0318be33          	mulhu	t3,a7,a7
    80000864:	44400113          	li	sp,1092
    80000868:	00444433          	xor	s0,s0,tp
    8000086c:	000a8713          	mv	a4,s5
    80000870:	478d1623          	sh	s8,1132(s10)
    80000874:	4fc6bba3          	sd	t3,1271(a3)
    80000878:	62530893          	addi	a7,t1,1573
    8000087c:	fff00393          	li	t2,-1
    80000880:	5bebda03          	lhu	s4,1470(s7)
    80000884:	891352e3          	bge	t1,a7,80000108 <crash_backward>
    80000888:	fff00193          	li	gp,-1
    8000088c:	02248dbb          	mulw	s11,s1,sp
    80000890:	0081ffb3          	and	t6,gp,s0
    80000894:	01e1c1b3          	xor	gp,gp,t5
    80000898:	00a99893          	slli	a7,s3,0xa
    8000089c:	00446cb3          	or	s9,s0,tp
    800008a0:	0b9f8863          	beq	t6,s9,80000950 <crash_forward>
    800008a4:	00307833          	and	a6,zero,gp
    800008a8:	0013c3b3          	xor	t2,t2,ra
    800008ac:	007df633          	and	a2,s11,t2
    800008b0:	01e867b3          	or	a5,a6,t5
    800008b4:	8507eae3          	bltu	a5,a6,80000108 <crash_backward>
    800008b8:	00166b33          	or	s6,a2,ra
    800008bc:	0040006f          	j	800008c0 <reg_dump>

00000000800008c0 <reg_dump>:
    800008c0:	00001097          	auipc	ra,0x1
    800008c4:	e4008093          	addi	ra,ra,-448 # 80001700 <loop_count>
    800008c8:	0000a103          	lw	sp,0(ra)
    800008cc:	fff10193          	addi	gp,sp,-1
    800008d0:	0030a023          	sw	gp,0(ra)
    800008d4:	8c011ae3          	bnez	sp,800001a8 <pseg_0>
    800008d8:	00001097          	auipc	ra,0x1
    800008dc:	92808093          	addi	ra,ra,-1752 # 80001200 <begin_signature>
    800008e0:	0000b023          	sd	zero,0(ra)
    800008e4:	0020b823          	sd	sp,16(ra)
    800008e8:	0030bc23          	sd	gp,24(ra)
    800008ec:	0240b023          	sd	tp,32(ra)
    800008f0:	0250b423          	sd	t0,40(ra)
    800008f4:	0260b823          	sd	t1,48(ra)
    800008f8:	0270bc23          	sd	t2,56(ra)
    800008fc:	0480b023          	sd	s0,64(ra)
    80000900:	0490b423          	sd	s1,72(ra)
    80000904:	04a0b823          	sd	a0,80(ra)
    80000908:	04b0bc23          	sd	a1,88(ra)
    8000090c:	06c0b023          	sd	a2,96(ra)
    80000910:	06e0b823          	sd	a4,112(ra)
    80000914:	06f0bc23          	sd	a5,120(ra)
    80000918:	0900b023          	sd	a6,128(ra)
    8000091c:	0910b423          	sd	a7,136(ra)
    80000920:	0920b823          	sd	s2,144(ra)
    80000924:	0b40b023          	sd	s4,160(ra)
    80000928:	0b50b423          	sd	s5,168(ra)
    8000092c:	0b60b823          	sd	s6,176(ra)
    80000930:	0d80b023          	sd	s8,192(ra)
    80000934:	0d90b423          	sd	s9,200(ra)
    80000938:	0db0bc23          	sd	s11,216(ra)
    8000093c:	0fc0b023          	sd	t3,224(ra)
    80000940:	0fd0b423          	sd	t4,232(ra)
    80000944:	0fe0b823          	sd	t5,240(ra)
    80000948:	0ff0bc23          	sd	t6,248(ra)
    8000094c:	0180006f          	j	80000964 <test_end>

0000000080000950 <crash_forward>:
    80000950:	0ff0000f          	fence
    80000954:	00018063          	beqz	gp,80000954 <crash_forward+0x4>
    80000958:	00119193          	slli	gp,gp,0x1
    8000095c:	0011e193          	ori	gp,gp,1
    80000960:	00000073          	ecall

0000000080000964 <test_end>:
    80000964:	0ff0000f          	fence
    80000968:	00100193          	li	gp,1
    8000096c:	00000073          	ecall
    80000970:	c0001073          	unimp
	...

Disassembly of section .tohost:

0000000080001000 <tohost>:
	...

0000000080001040 <fromhost>:
	...
