
test.elf:     file format elf64-littleriscv


Disassembly of section .text.init:

0000000080000000 <_start>:
    80000000:	0580006f          	j	80000058 <reset_vector>

0000000080000004 <trap_vector>:
    80000004:	34202f73          	csrr	t5,mcause
    80000008:	00800f93          	li	t6,8
    8000000c:	05ff0063          	beq	t5,t6,8000004c <write_tohost>
    80000010:	00900f93          	li	t6,9
    80000014:	03ff0c63          	beq	t5,t6,8000004c <write_tohost>
    80000018:	00b00f93          	li	t6,11
    8000001c:	03ff0863          	beq	t5,t6,8000004c <write_tohost>
    80000020:	00000f13          	li	t5,0
    80000024:	000f0463          	beqz	t5,8000002c <trap_vector+0x28>
    80000028:	000f0067          	jr	t5
    8000002c:	34202f73          	csrr	t5,mcause
    80000030:	000f5463          	bgez	t5,80000038 <handle_exception>
    80000034:	0140006f          	j	80000048 <other_exception>

0000000080000038 <handle_exception>:
    80000038:	34102e73          	csrr	t3,mepc
    8000003c:	004e0e13          	addi	t3,t3,4
    80000040:	341e1073          	csrw	mepc,t3
    80000044:	30200073          	mret

0000000080000048 <other_exception>:
    80000048:	5391e193          	ori	gp,gp,1337

000000008000004c <write_tohost>:
    8000004c:	00001f17          	auipc	t5,0x1
    80000050:	fa3f2a23          	sw	gp,-76(t5) # 80001000 <tohost>
    80000054:	ff9ff06f          	j	8000004c <write_tohost>

0000000080000058 <reset_vector>:
    80000058:	f1402573          	csrr	a0,mhartid
    8000005c:	00051063          	bnez	a0,8000005c <reset_vector+0x4>
    80000060:	00000297          	auipc	t0,0x0
    80000064:	01028293          	addi	t0,t0,16 # 80000070 <reset_vector+0x18>
    80000068:	30529073          	csrw	mtvec,t0
    8000006c:	18005073          	csrwi	satp,0
    80000070:	00000297          	auipc	t0,0x0
    80000074:	01c28293          	addi	t0,t0,28 # 8000008c <reset_vector+0x34>
    80000078:	30529073          	csrw	mtvec,t0
    8000007c:	fff00293          	li	t0,-1
    80000080:	3b029073          	csrw	pmpaddr0,t0
    80000084:	01f00293          	li	t0,31
    80000088:	3a029073          	csrw	pmpcfg0,t0
    8000008c:	00000297          	auipc	t0,0x0
    80000090:	01828293          	addi	t0,t0,24 # 800000a4 <reset_vector+0x4c>
    80000094:	30529073          	csrw	mtvec,t0
    80000098:	30205073          	csrwi	medeleg,0
    8000009c:	30305073          	csrwi	mideleg,0
    800000a0:	30405073          	csrwi	mie,0
    800000a4:	00000193          	li	gp,0
    800000a8:	00000297          	auipc	t0,0x0
    800000ac:	f5c28293          	addi	t0,t0,-164 # 80000004 <trap_vector>
    800000b0:	30529073          	csrw	mtvec,t0
    800000b4:	00100513          	li	a0,1
    800000b8:	01f51513          	slli	a0,a0,0x1f
    800000bc:	00055863          	bgez	a0,800000cc <reset_vector+0x74>
    800000c0:	0ff0000f          	fence
    800000c4:	00100193          	li	gp,1
    800000c8:	00000073          	ecall
    800000cc:	00000293          	li	t0,0
    800000d0:	00028e63          	beqz	t0,800000ec <reset_vector+0x94>
    800000d4:	10529073          	csrw	stvec,t0
    800000d8:	0000b2b7          	lui	t0,0xb
    800000dc:	1092829b          	addiw	t0,t0,265
    800000e0:	30229073          	csrw	medeleg,t0
    800000e4:	30202373          	csrr	t1,medeleg
    800000e8:	f66290e3          	bne	t0,t1,80000048 <other_exception>
    800000ec:	30005073          	csrwi	mstatus,0
    800000f0:	00000297          	auipc	t0,0x0
    800000f4:	01428293          	addi	t0,t0,20 # 80000104 <reset_vector+0xac>
    800000f8:	34129073          	csrw	mepc,t0
    800000fc:	f1402573          	csrr	a0,mhartid
    80000100:	30200073          	mret
    80000104:	0180006f          	j	8000011c <test_start>

0000000080000108 <crash_backward>:
    80000108:	0ff0000f          	fence
    8000010c:	00018063          	beqz	gp,8000010c <crash_backward+0x4>
    80000110:	00119193          	slli	gp,gp,0x1
    80000114:	0011e193          	ori	gp,gp,1
    80000118:	00000073          	ecall

000000008000011c <test_start>:
    8000011c:	00001f97          	auipc	t6,0x1
    80000120:	fe4f8f93          	addi	t6,t6,-28 # 80001100 <hidden_data>
    80000124:	000fb003          	ld	zero,0(t6)
    80000128:	008fb083          	ld	ra,8(t6)
    8000012c:	010fb103          	ld	sp,16(t6)
    80000130:	018fb183          	ld	gp,24(t6)
    80000134:	020fb203          	ld	tp,32(t6)
    80000138:	028fb283          	ld	t0,40(t6)
    8000013c:	030fb303          	ld	t1,48(t6)
    80000140:	038fb383          	ld	t2,56(t6)
    80000144:	040fb403          	ld	s0,64(t6)
    80000148:	048fb483          	ld	s1,72(t6)
    8000014c:	050fb503          	ld	a0,80(t6)
    80000150:	058fb583          	ld	a1,88(t6)
    80000154:	060fb603          	ld	a2,96(t6)
    80000158:	068fb683          	ld	a3,104(t6)
    8000015c:	070fb703          	ld	a4,112(t6)
    80000160:	078fb783          	ld	a5,120(t6)
    80000164:	080fb803          	ld	a6,128(t6)
    80000168:	088fb883          	ld	a7,136(t6)
    8000016c:	090fb903          	ld	s2,144(t6)
    80000170:	098fb983          	ld	s3,152(t6)
    80000174:	0a0fba03          	ld	s4,160(t6)
    80000178:	0a8fba83          	ld	s5,168(t6)
    8000017c:	0b0fbb03          	ld	s6,176(t6)
    80000180:	0b8fbb83          	ld	s7,184(t6)
    80000184:	0c0fbc03          	ld	s8,192(t6)
    80000188:	0c8fbc83          	ld	s9,200(t6)
    8000018c:	0d0fbd03          	ld	s10,208(t6)
    80000190:	0d8fbd83          	ld	s11,216(t6)
    80000194:	0e0fbe03          	ld	t3,224(t6)
    80000198:	0e8fbe83          	ld	t4,232(t6)
    8000019c:	0f0fbf03          	ld	t5,240(t6)
    800001a0:	0f8fbf83          	ld	t6,248(t6)
    800001a4:	0040006f          	j	800001a8 <pseg_0>

00000000800001a8 <pseg_0>:
    800001a8:	7f72f713          	andi	a4,t0,2039
    800001ac:	29700593          	li	a1,663
    800001b0:	e8600913          	li	s2,-378
    800001b4:	00001717          	auipc	a4,0x1
    800001b8:	a6b70713          	addi	a4,a4,-1429 # 80000c1f <test_end+0x2df>
    800001bc:	00001b97          	auipc	s7,0x1
    800001c0:	c38b8b93          	addi	s7,s7,-968 # 80000df4 <test_end+0x4b4>
    800001c4:	0133d2b3          	srl	t0,t2,s3
    800001c8:	782714a3          	sh	sp,1929(a4)
    800001cc:	00100e93          	li	t4,1
    800001d0:	ab018f13          	addi	t5,gp,-1360 # 800019c0 <_end+0x2b0>
    800001d4:	00001e17          	auipc	t3,0x1
    800001d8:	60be0e13          	addi	t3,t3,1547 # 800017df <_end+0xcf>
    800001dc:	00001d17          	auipc	s10,0x1
    800001e0:	46cd0d13          	addi	s10,s10,1132 # 80001648 <test_memory+0x348>
    800001e4:	00001097          	auipc	ra,0x1
    800001e8:	e4108093          	addi	ra,ra,-447 # 80001025 <tohost+0x25>
    800001ec:	4d10b9a3          	sd	a7,1235(ra)
    800001f0:	aa900613          	li	a2,-1367
    800001f4:	72b00293          	li	t0,1835
    800001f8:	86200893          	li	a7,-1950
    800001fc:	03290b33          	mul	s6,s2,s2
    80000200:	e0418d93          	addi	s11,gp,-508 # 80001d14 <_end+0x604>
    80000204:	0115a333          	slt	t1,a1,a7
    80000208:	03fe9e93          	slli	t4,t4,0x3f
    8000020c:	00001097          	auipc	ra,0x1
    80000210:	98208093          	addi	ra,ra,-1662 # 80000b8e <test_end+0x24e>
    80000214:	98ada023          	sw	a0,-1664(s11)
    80000218:	2ac28713          	addi	a4,t0,684
    8000021c:	7ec09523          	sh	a2,2026(ra)
    80000220:	fff00f93          	li	t6,-1
    80000224:	cfde2203          	lw	tp,-771(t3)
    80000228:	ee0010e3          	bnez	zero,80000108 <crash_backward>
    8000022c:	5b0ba483          	lw	s1,1456(s7)
    80000230:	cd4f6183          	lwu	gp,-812(t5)
    80000234:	afe18c93          	addi	s9,gp,-1282 # 80001a0e <_end+0x2fe>
    80000238:	40985833          	sra	a6,a6,s1
    8000023c:	00001697          	auipc	a3,0x1
    80000240:	0ac68693          	addi	a3,a3,172 # 800012e8 <reg_x29_output>
    80000244:	62a2ed93          	ori	s11,t0,1578
    80000248:	ec5760e3          	bltu	a4,t0,80000108 <crash_backward>
    8000024c:	82400393          	li	t2,-2012
    80000250:	2b500313          	li	t1,693
    80000254:	00001097          	auipc	ra,0x1
    80000258:	fba08093          	addi	ra,ra,-70 # 8000120e <reg_x1_output+0x6>
    8000025c:	00001597          	auipc	a1,0x1
    80000260:	c0558593          	addi	a1,a1,-1019 # 80000e61 <test_end+0x521>
    80000264:	0346db13          	srli	s6,a3,0x34
    80000268:	6875a903          	lw	s2,1671(a1)
    8000026c:	958cbd23          	sd	s8,-1702(s9)
    80000270:	01688833          	add	a6,a7,s6
    80000274:	01dfcfb3          	xor	t6,t6,t4
    80000278:	d54d1d23          	sh	s4,-678(s10)
    8000027c:	01f377b3          	and	a5,t1,t6
    80000280:	5c700213          	li	tp,1479
    80000284:	cd200f13          	li	t5,-814
    80000288:	024251bb          	divuw	gp,tp,tp
    8000028c:	35669c03          	lh	s8,854(a3)
    80000290:	42f0b923          	sd	a5,1074(ra)
    80000294:	403008b3          	neg	a7,gp
    80000298:	00001b97          	auipc	s7,0x1
    8000029c:	490b8b93          	addi	s7,s7,1168 # 80001728 <_end+0x18>
    800002a0:	01081dbb          	sllw	s11,a6,a6
    800002a4:	01e35e3b          	srlw	t3,t1,t5
    800002a8:	f0f00593          	li	a1,-241
    800002ac:	00c62533          	slt	a0,a2,a2
    800002b0:	02a55cbb          	divuw	s9,a0,a0
    800002b4:	d2700193          	li	gp,-729
    800002b8:	00100e13          	li	t3,1
    800002bc:	02b5bc33          	mulhu	s8,a1,a1
    800002c0:	9ba18d13          	addi	s10,gp,-1606 # 800018ca <_end+0x1ba>
    800002c4:	49800113          	li	sp,1176
    800002c8:	400e5b1b          	sraiw	s6,t3,0x0
    800002cc:	aa118c93          	addi	s9,gp,-1375 # 800019b1 <_end+0x2a1>
    800002d0:	5b100a13          	li	s4,1457
    800002d4:	00909593          	slli	a1,ra,0x9
    800002d8:	e0ed1803          	lh	a6,-498(s10)
    800002dc:	00001517          	auipc	a0,0x1
    800002e0:	3ec50513          	addi	a0,a0,1004 # 800016c8 <test_memory+0x3c8>
    800002e4:	5d800893          	li	a7,1496
    800002e8:	0223dab3          	divu	s5,t2,sp
    800002ec:	01d7e433          	or	s0,a5,t4
    800002f0:	eac52603          	lw	a2,-340(a0)
    800002f4:	fd4b8123          	sb	s4,-62(s7)
    800002f8:	00001917          	auipc	s2,0x1
    800002fc:	10e90913          	addi	s2,s2,270 # 80001406 <test_memory+0x106>
    80000300:	da500513          	li	a0,-603
    80000304:	83300b13          	li	s6,-1997
    80000308:	60a88693          	addi	a3,a7,1546
    8000030c:	2bf94203          	lbu	tp,703(s2)
    80000310:	02a51133          	mulh	sp,a0,a0
    80000314:	60d8dc63          	bge	a7,a3,8000092c <crash_forward>
    80000318:	0231e4b3          	rem	s1,gp,gp
    8000031c:	78600393          	li	t2,1926
    80000320:	d3000d13          	li	s10,-720
    80000324:	a99c9c03          	lh	s8,-1383(s9)
    80000328:	7fd00213          	li	tp,2045
    8000032c:	03fe1e13          	slli	t3,t3,0x3f
    80000330:	3a000613          	li	a2,928
    80000334:	027570bb          	remuw	ra,a0,t2
    80000338:	01ad5833          	srl	a6,s10,s10
    8000033c:	034a69b3          	rem	s3,s4,s4
    80000340:	00100913          	li	s2,1
    80000344:	69200a93          	li	s5,1682
    80000348:	fff00313          	li	t1,-1
    8000034c:	0356073b          	mulw	a4,a2,s5
    80000350:	03f91913          	slli	s2,s2,0x3f
    80000354:	40fa56bb          	sraw	a3,s4,a5
    80000358:	01c34333          	xor	t1,t1,t3
    8000035c:	024252b3          	divu	t0,tp,tp
    80000360:	fff00413          	li	s0,-1
    80000364:	63100b93          	li	s7,1585
    80000368:	4010dcbb          	sraw	s9,ra,ra
    8000036c:	c0400493          	li	s1,-1020
    80000370:	ca6b0593          	addi	a1,s6,-858
    80000374:	d965dae3          	bge	a1,s6,80000108 <crash_backward>
    80000378:	01244433          	xor	s0,s0,s2
    8000037c:	0087feb3          	and	t4,a5,s0
    80000380:	00100213          	li	tp,1
    80000384:	96300c93          	li	s9,-1693
    80000388:	03f21213          	slli	tp,tp,0x3f
    8000038c:	419c86b3          	sub	a3,s9,s9
    80000390:	6de00593          	li	a1,1758
    80000394:	45c00813          	li	a6,1116
    80000398:	0063fdb3          	and	s11,t2,t1
    8000039c:	76600d13          	li	s10,1894
    800003a0:	01a879b3          	and	s3,a6,s10
    800003a4:	fff00093          	li	ra,-1
    800003a8:	030a13b3          	mulh	t2,s4,a6
    800003ac:	c8518a93          	addi	s5,gp,-891 # 80001b95 <_end+0x485>
    800003b0:	010813bb          	sllw	t2,a6,a6
    800003b4:	0120e7b3          	or	a5,ra,s2
    800003b8:	01cd6f33          	or	t5,s10,t3
    800003bc:	80bab883          	ld	a7,-2037(s5)
    800003c0:	e2b00693          	li	a3,-469
    800003c4:	00d5dcb3          	srl	s9,a1,a3
    800003c8:	f2048613          	addi	a2,s1,-224
    800003cc:	bab18513          	addi	a0,gp,-1109 # 80001abb <_end+0x3ab>
    800003d0:	c0755103          	lhu	sp,-1017(a0)
    800003d4:	91b00593          	li	a1,-1765
    800003d8:	90d18393          	addi	t2,gp,-1779 # 8000181d <_end+0x10d>
    800003dc:	54965863          	bge	a2,s1,8000092c <crash_forward>
    800003e0:	91718793          	addi	a5,gp,-1769 # 80001827 <_end+0x117>
    800003e4:	035aadb3          	mulhsu	s11,s5,s5
    800003e8:	b017be83          	ld	t4,-1279(a5)
    800003ec:	75700613          	li	a2,1879
    800003f0:	037bdfbb          	divuw	t6,s7,s7
    800003f4:	d2b3b883          	ld	a7,-725(t2)
    800003f8:	00c64433          	xor	s0,a2,a2
    800003fc:	0040c0b3          	xor	ra,ra,tp
    80000400:	00001717          	auipc	a4,0x1
    80000404:	30470713          	addi	a4,a4,772 # 80001704 <loop_count+0x4>
    80000408:	02d3c333          	div	t1,t2,a3
    8000040c:	ec500113          	li	sp,-315
    80000410:	00001917          	auipc	s2,0x1
    80000414:	cdc90913          	addi	s2,s2,-804 # 800010ec <fromhost+0xac>
    80000418:	03dee6bb          	remw	a3,t4,t4
    8000041c:	3cc93483          	ld	s1,972(s2)
    80000420:	c0075c03          	lhu	s8,-1024(a4)
    80000424:	001e7a33          	and	s4,t3,ra
    80000428:	00001997          	auipc	s3,0x1
    8000042c:	3a798993          	addi	s3,s3,935 # 800017cf <_end+0xbf>
    80000430:	02213e33          	mulhu	t3,sp,sp
    80000434:	54200813          	li	a6,1346
    80000438:	00fc6533          	or	a0,s8,a5
    8000043c:	08400f13          	li	t5,132
    80000440:	0042e2b3          	or	t0,t0,tp
    80000444:	022161b3          	rem	gp,sp,sp
    80000448:	00001c97          	auipc	s9,0x1
    8000044c:	2b5c8c93          	addi	s9,s9,693 # 800016fd <test_memory+0x3fd>
    80000450:	ca5a0ce3          	beq	s4,t0,80000108 <crash_backward>
    80000454:	03e5eab3          	rem	s5,a1,t5
    80000458:	01087b33          	and	s6,a6,a6
    8000045c:	d62c93a3          	sh	sp,-665(s9)
    80000460:	c9198d03          	lb	s10,-879(s3)
    80000464:	26f00093          	li	ra,623
    80000468:	15d00113          	li	sp,349
    8000046c:	b1a00e13          	li	t3,-1254
    80000470:	02b5e633          	rem	a2,a1,a1
    80000474:	67b00713          	li	a4,1659
    80000478:	00001197          	auipc	gp,0x1
    8000047c:	9f918193          	addi	gp,gp,-1543 # 80000e71 <test_end+0x531>
    80000480:	cc200c13          	li	s8,-830
    80000484:	4da18e83          	lb	t4,1242(gp) # 800023ea <__global_pointer$+0x4da>
    80000488:	10a70993          	addi	s3,a4,266
    8000048c:	00001e97          	auipc	t4,0x1
    80000490:	c29e8e93          	addi	t4,t4,-983 # 800010b5 <fromhost+0x75>
    80000494:	bb100413          	li	s0,-1103
    80000498:	418c0ab3          	sub	s5,s8,s8
    8000049c:	008428b3          	slt	a7,s0,s0
    800004a0:	f4600813          	li	a6,-186
    800004a4:	48e9c463          	blt	s3,a4,8000092c <crash_forward>
    800004a8:	00000593          	li	a1,0
    800004ac:	01f00f93          	li	t6,31
    800004b0:	00000213          	li	tp,0
    800004b4:	bf400c93          	li	s9,-1036
    800004b8:	b4700d93          	li	s11,-1209
    800004bc:	fbb00413          	li	s0,-69
    800004c0:	01bd9a3b          	sllw	s4,s11,s11
    800004c4:	335ed603          	lhu	a2,821(t4)
    800004c8:	00001517          	auipc	a0,0x1
    800004cc:	d4a50513          	addi	a0,a0,-694 # 80001212 <reg_x2_output+0x2>
    800004d0:	00840c33          	add	s8,s0,s0
    800004d4:	00001b17          	auipc	s6,0x1
    800004d8:	b2bb0b13          	addi	s6,s6,-1237 # 80000fff <test_end+0x6bf>
    800004dc:	c245e6e3          	bltu	a1,tp,80000108 <crash_backward>
    800004e0:	98118393          	addi	t2,gp,-1663 # 80001891 <_end+0x181>
    800004e4:	030e0d33          	mul	s10,t3,a6
    800004e8:	b7500913          	li	s2,-1163
    800004ec:	ca03c303          	lbu	t1,-864(t2)
    800004f0:	0190a4b3          	slt	s1,ra,s9
    800004f4:	00001697          	auipc	a3,0x1
    800004f8:	24468693          	addi	a3,a3,580 # 80001738 <_end+0x28>
    800004fc:	00700f3b          	addw	t5,zero,t2
    80000500:	e616a423          	sw	ra,-408(a3)
    80000504:	41ff81bb          	subw	gp,t6,t6
    80000508:	670b30a3          	sd	a6,1633(s6)
    8000050c:	01f147b3          	xor	a5,sp,t6
    80000510:	25053b23          	sd	a6,598(a0)
    80000514:	8a000b93          	li	s7,-1888
    80000518:	037912b3          	mulh	t0,s2,s7
    8000051c:	00100813          	li	a6,1
    80000520:	69d00993          	li	s3,1693
    80000524:	73800513          	li	a0,1848
    80000528:	9ca18113          	addi	sp,gp,-1590 # 800018da <_end+0x1ca>
    8000052c:	035af933          	remu	s2,s5,s5
    80000530:	45323b13          	sltiu	s6,tp,1107
    80000534:	00100613          	li	a2,1
    80000538:	c6218f93          	addi	t6,gp,-926 # 80001b72 <_end+0x462>
    8000053c:	00001917          	auipc	s2,0x1
    80000540:	12990913          	addi	s2,s2,297 # 80001665 <test_memory+0x365>
    80000544:	00001717          	auipc	a4,0x1
    80000548:	a5070713          	addi	a4,a4,-1456 # 80000f94 <test_end+0x654>
    8000054c:	02fb76bb          	remuw	a3,s6,a5
    80000550:	00001417          	auipc	s0,0x1
    80000554:	ed540413          	addi	s0,s0,-299 # 80001425 <test_memory+0x125>
    80000558:	03d3d893          	srli	a7,t2,0x3d
    8000055c:	08b00213          	li	tp,139
    80000560:	55571c23          	sh	s5,1368(a4)
    80000564:	038c5ebb          	divuw	t4,s8,s8
    80000568:	00001497          	auipc	s1,0x1
    8000056c:	08348493          	addi	s1,s1,131 # 800015eb <test_memory+0x2eb>
    80000570:	c5912b23          	sw	s9,-938(sp)
    80000574:	00001197          	auipc	gp,0x1
    80000578:	91518193          	addi	gp,gp,-1771 # 80000e89 <test_end+0x549>
    8000057c:	ef040323          	sb	a6,-282(s0)
    80000580:	e9c48aa3          	sb	t3,-363(s1)
    80000584:	02427d3b          	remuw	s10,tp,tp
    80000588:	4e51afa3          	sw	t0,1279(gp) # 8000240f <__global_pointer$+0x4ff>
    8000058c:	024207b3          	mul	a5,tp,tp
    80000590:	910fd083          	lhu	ra,-1776(t6)
    80000594:	fa000593          	li	a1,-96
    80000598:	00d6cc33          	xor	s8,a3,a3
    8000059c:	2e100893          	li	a7,737
    800005a0:	ab058393          	addi	t2,a1,-1360
    800005a4:	03f81813          	slli	a6,a6,0x3f
    800005a8:	bf100a13          	li	s4,-1039
    800005ac:	9f500693          	li	a3,-1547
    800005b0:	d2918d13          	addi	s10,gp,-727 # 80001c39 <_end+0x529>
    800005b4:	957a0313          	addi	t1,s4,-1705
    800005b8:	00001717          	auipc	a4,0x1
    800005bc:	90e70713          	addi	a4,a4,-1778 # 80000ec6 <test_end+0x586>
    800005c0:	8b9d1203          	lh	tp,-1863(s10)
    800005c4:	a0200193          	li	gp,-1534
    800005c8:	0314b433          	mulhu	s0,s1,a7
    800005cc:	02a9c2b3          	div	t0,s3,a0
    800005d0:	00001597          	auipc	a1,0x1
    800005d4:	a5958593          	addi	a1,a1,-1447 # 80001029 <tohost+0x29>
    800005d8:	f1b919a3          	sh	s11,-237(s2)
    800005dc:	00d88b33          	add	s6,a7,a3
    800005e0:	03f61613          	slli	a2,a2,0x3f
    800005e4:	1c400513          	li	a0,452
    800005e8:	00001297          	auipc	t0,0x1
    800005ec:	eec28293          	addi	t0,t0,-276 # 800014d4 <test_memory+0x1d4>
    800005f0:	2ac00393          	li	t2,684
    800005f4:	00001c17          	auipc	s8,0x1
    800005f8:	846c0c13          	addi	s8,s8,-1978 # 80000e3a <test_end+0x4fa>
    800005fc:	fff00d93          	li	s11,-1
    80000600:	ccc18493          	addi	s1,gp,-820 # 80001bdc <_end+0x4cc>
    80000604:	417b8fbb          	subw	t6,s7,s7
    80000608:	bc900213          	li	tp,-1079
    8000060c:	45b5ed03          	lwu	s10,1115(a1)
    80000610:	00100313          	li	t1,1
    80000614:	516c2f23          	sw	s6,1310(s8)
    80000618:	02a2d983          	lhu	s3,42(t0)
    8000061c:	02457433          	remu	s0,a0,tp
    80000620:	bb918293          	addi	t0,gp,-1095 # 80001ac9 <_end+0x3b9>
    80000624:	017769b3          	or	s3,a4,s7
    80000628:	000e0e93          	mv	t4,t3
    8000062c:	000e8093          	mv	ra,t4
    80000630:	00001697          	auipc	a3,0x1
    80000634:	d4568693          	addi	a3,a3,-699 # 80001375 <test_memory+0x75>
    80000638:	03f31313          	slli	t1,t1,0x3f
    8000063c:	00001217          	auipc	tp,0x1
    80000640:	ca820213          	addi	tp,tp,-856 # 800012e4 <reg_x28_output+0x4>
    80000644:	e10a4593          	xori	a1,s4,-496
    80000648:	417d549b          	sraiw	s1,s10,0x17
    8000064c:	0273c13b          	divw	sp,t2,t2
    80000650:	72700513          	li	a0,1831
    80000654:	29424983          	lbu	s3,660(tp) # 294 <_start-0x7ffffd6c>
    80000658:	49672783          	lw	a5,1174(a4)
    8000065c:	010dcdb3          	xor	s11,s11,a6
    80000660:	fcb6aa03          	lw	s4,-53(a3)
    80000664:	fff00913          	li	s2,-1
    80000668:	01bb7cb3          	and	s9,s6,s11
    8000066c:	010dee33          	or	t3,s11,a6
    80000670:	00694933          	xor	s2,s2,t1
    80000674:	02a53433          	mulhu	s0,a0,a0
    80000678:	fff00b93          	li	s7,-1
    8000067c:	66e00d13          	li	s10,1646
    80000680:	bfb2afa3          	sw	s11,-1025(t0)
    80000684:	3b900113          	li	sp,953
    80000688:	03ad0fbb          	mulw	t6,s10,s10
    8000068c:	00cbcbb3          	xor	s7,s7,a2
    80000690:	000074b3          	and	s1,zero,zero
    80000694:	28006c63          	bltu	zero,zero,8000092c <crash_forward>
    80000698:	78900293          	li	t0,1929
    8000069c:	00c62eb3          	slt	t4,a2,a2
    800006a0:	017eff33          	and	t5,t4,s7
    800006a4:	005210b3          	sll	ra,tp,t0
    800006a8:	c0818213          	addi	tp,gp,-1016 # 80001b18 <_end+0x408>
    800006ac:	00000693          	li	a3,0
    800006b0:	40f2519b          	sraiw	gp,tp,0xf
    800006b4:	0052c533          	xor	a0,t0,t0
    800006b8:	00c36ab3          	or	s5,t1,a2
    800006bc:	00b45433          	srl	s0,s0,a1
    800006c0:	01fd8d3b          	addw	s10,s11,t6
    800006c4:	41ff8a33          	sub	s4,t6,t6
    800006c8:	78f00393          	li	t2,1935
    800006cc:	00000993          	li	s3,0
    800006d0:	0308e0b3          	rem	ra,a7,a6
    800006d4:	255f0c63          	beq	t5,s5,8000092c <crash_forward>
    800006d8:	bbb18193          	addi	gp,gp,-1093 # 80001acb <_end+0x3bb>
    800006dc:	a336c6e3          	blt	a3,s3,80000108 <crash_backward>
    800006e0:	a3ccc4e3          	blt	s9,t3,80000108 <crash_backward>
    800006e4:	00001497          	auipc	s1,0x1
    800006e8:	86348493          	addi	s1,s1,-1949 # 80000f47 <test_end+0x607>
    800006ec:	3f54ee83          	lwu	t4,1013(s1)
    800006f0:	97820783          	lb	a5,-1672(tp) # fffffffffffff978 <__global_pointer$+0xffffffff7fffda68>
    800006f4:	012ffb33          	and	s6,t6,s2
    800006f8:	00001c17          	auipc	s8,0x1
    800006fc:	e5ec0c13          	addi	s8,s8,-418 # 80001556 <test_memory+0x256>
    80000700:	02529fb3          	mulh	t6,t0,t0
    80000704:	00717733          	and	a4,sp,t2
    80000708:	92c19da3          	sh	a2,-1733(gp) # 8000184b <_end+0x13b>
    8000070c:	0063e8b3          	or	a7,t2,t1
    80000710:	211b0e63          	beq	s6,a7,8000092c <crash_forward>
    80000714:	e34c2323          	sw	s4,-474(s8)
    80000718:	03ad45bb          	divw	a1,s10,s10
    8000071c:	01083233          	sltu	tp,a6,a6
    80000720:	0100d99b          	srliw	s3,ra,0x10
    80000724:	00000e97          	auipc	t4,0x0
    80000728:	483e8e93          	addi	t4,t4,1155 # 80000ba7 <test_end+0x267>
    8000072c:	01285333          	srl	t1,a6,s2
    80000730:	f9600693          	li	a3,-106
    80000734:	01cdaab3          	slt	s5,s11,t3
    80000738:	5dd00813          	li	a6,1501
    8000073c:	03c58c33          	mul	s8,a1,t3
    80000740:	97918a13          	addi	s4,gp,-1671 # 80001889 <_end+0x179>
    80000744:	017bab33          	slt	s6,s7,s7
    80000748:	8dc00213          	li	tp,-1828
    8000074c:	024209b3          	mul	s3,tp,tp
    80000750:	7d200613          	li	a2,2002
    80000754:	0308673b          	remw	a4,a6,a6
    80000758:	010832b3          	sltu	t0,a6,a6
    8000075c:	c0f18793          	addi	a5,gp,-1009 # 80001b1f <_end+0x40f>
    80000760:	b1d7cb83          	lbu	s7,-1251(a5)
    80000764:	02c00b93          	li	s7,44
    80000768:	02b2d133          	divu	sp,t0,a1
    8000076c:	de3a0d83          	lb	s11,-541(s4)
    80000770:	c1018093          	addi	ra,gp,-1008 # 80001b20 <_end+0x410>
    80000774:	70700813          	li	a6,1799
    80000778:	00b5f1b3          	and	gp,a1,a1
    8000077c:	40bbdf3b          	sraw	t5,s7,a1
    80000780:	c5800c93          	li	s9,-936
    80000784:	00100a93          	li	s5,1
    80000788:	417bd2bb          	sraw	t0,s7,s7
    8000078c:	d9e00493          	li	s1,-610
    80000790:	761eed03          	lwu	s10,1889(t4)
    80000794:	409653bb          	sraw	t2,a2,s1
    80000798:	9700b883          	ld	a7,-1680(ra)
    8000079c:	02d6f933          	remu	s2,a3,a3
    800007a0:	fd600593          	li	a1,-42
    800007a4:	00bc9e3b          	sllw	t3,s9,a1
    800007a8:	2ab80793          	addi	a5,a6,683
    800007ac:	00001c17          	auipc	s8,0x1
    800007b0:	bb0c0c13          	addi	s8,s8,-1104 # 8000135c <test_memory+0x5c>
    800007b4:	1a2c4703          	lbu	a4,418(s8)
    800007b8:	03fa9a93          	slli	s5,s5,0x3f
    800007bc:	12800f93          	li	t6,296
    800007c0:	94f874e3          	bgeu	a6,a5,80000108 <crash_backward>
    800007c4:	fff00213          	li	tp,-1
    800007c8:	07700513          	li	a0,119
    800007cc:	01524233          	xor	tp,tp,s5
    800007d0:	40afd43b          	sraw	s0,t6,a0
    800007d4:	00487333          	and	t1,a6,tp
    800007d8:	015369b3          	or	s3,t1,s5
    800007dc:	933306e3          	beq	t1,s3,80000108 <crash_backward>
    800007e0:	03d7cfbb          	divw	t6,a5,t4
    800007e4:	00000097          	auipc	ra,0x0
    800007e8:	64c08093          	addi	ra,ra,1612 # 80000e30 <test_end+0x4f0>
    800007ec:	69609903          	lh	s2,1686(ra)
    800007f0:	fe600193          	li	gp,-26
    800007f4:	0031d733          	srl	a4,gp,gp
    800007f8:	efa00213          	li	tp,-262
    800007fc:	018c15b3          	sll	a1,s8,s8
    80000800:	b8818b13          	addi	s6,gp,-1144 # 80001a98 <_end+0x388>
    80000804:	00001d17          	auipc	s10,0x1
    80000808:	e36d0d13          	addi	s10,s10,-458 # 8000163a <test_memory+0x33a>
    8000080c:	6fc00e93          	li	t4,1788
    80000810:	bc600293          	li	t0,-1082
    80000814:	a04b0a03          	lb	s4,-1532(s6)
    80000818:	48400e13          	li	t3,1156
    8000081c:	b4e00893          	li	a7,-1202
    80000820:	63d00993          	li	s3,1597
    80000824:	a3618713          	addi	a4,gp,-1482 # 80001946 <_end+0x236>
    80000828:	2e500513          	li	a0,741
    8000082c:	dfad1683          	lh	a3,-518(s10)
    80000830:	63600d93          	li	s11,1590
    80000834:	44b98493          	addi	s1,s3,1099
    80000838:	ea100a93          	li	s5,-351
    8000083c:	00018a13          	mv	s4,gp
    80000840:	97000193          	li	gp,-1680
    80000844:	aa318b93          	addi	s7,gp,-1373 # 800019b3 <_end+0x2a3>
    80000848:	fd800793          	li	a5,-40
    8000084c:	40ae53bb          	sraw	t2,t3,a0
    80000850:	0352a333          	mulhsu	t1,t0,s5
    80000854:	a9e71123          	sh	t5,-1406(a4)
    80000858:	03127c3b          	remuw	s8,tp,a7
    8000085c:	088e8113          	addi	sp,t4,136
    80000860:	00fd963b          	sllw	a2,s11,a5
    80000864:	ea318f93          	addi	t6,gp,-349 # 80001db3 <_end+0x6a3>
    80000868:	00000097          	auipc	ra,0x0
    8000086c:	66908093          	addi	ra,ra,1641 # 80000ed1 <test_end+0x591>
    80000870:	000a0b13          	mv	s6,s4
    80000874:	5c30e903          	lwu	s2,1475(ra)
    80000878:	89d148e3          	blt	sp,t4,80000108 <crash_backward>
    8000087c:	007b5433          	srl	s0,s6,t2
    80000880:	00000f13          	li	t5,0
    80000884:	00000c93          	li	s9,0
    80000888:	0b9f1263          	bne	t5,s9,8000092c <crash_forward>
    8000088c:	d2dbd803          	lhu	a6,-723(s7)
    80000890:	876a6ce3          	bltu	s4,s6,80000108 <crash_backward>
    80000894:	0040006f          	j	80000898 <reg_dump>

0000000080000898 <reg_dump>:
    80000898:	00001097          	auipc	ra,0x1
    8000089c:	e6808093          	addi	ra,ra,-408 # 80001700 <loop_count>
    800008a0:	0000a103          	lw	sp,0(ra)
    800008a4:	fff10193          	addi	gp,sp,-1
    800008a8:	0030a023          	sw	gp,0(ra)
    800008ac:	8e011ee3          	bnez	sp,800001a8 <pseg_0>
    800008b0:	00001097          	auipc	ra,0x1
    800008b4:	95008093          	addi	ra,ra,-1712 # 80001200 <begin_signature>
    800008b8:	0000b023          	sd	zero,0(ra)
    800008bc:	0020b823          	sd	sp,16(ra)
    800008c0:	0030bc23          	sd	gp,24(ra)
    800008c4:	0240b023          	sd	tp,32(ra)
    800008c8:	0250b423          	sd	t0,40(ra)
    800008cc:	0260b823          	sd	t1,48(ra)
    800008d0:	0270bc23          	sd	t2,56(ra)
    800008d4:	0480b023          	sd	s0,64(ra)
    800008d8:	0490b423          	sd	s1,72(ra)
    800008dc:	04a0b823          	sd	a0,80(ra)
    800008e0:	04b0bc23          	sd	a1,88(ra)
    800008e4:	06c0b023          	sd	a2,96(ra)
    800008e8:	06d0b423          	sd	a3,104(ra)
    800008ec:	06f0bc23          	sd	a5,120(ra)
    800008f0:	0900b023          	sd	a6,128(ra)
    800008f4:	0910b423          	sd	a7,136(ra)
    800008f8:	0920b823          	sd	s2,144(ra)
    800008fc:	0930bc23          	sd	s3,152(ra)
    80000900:	0b40b023          	sd	s4,160(ra)
    80000904:	0b50b423          	sd	s5,168(ra)
    80000908:	0b60b823          	sd	s6,176(ra)
    8000090c:	0d80b023          	sd	s8,192(ra)
    80000910:	0d90b423          	sd	s9,200(ra)
    80000914:	0db0bc23          	sd	s11,216(ra)
    80000918:	0fc0b023          	sd	t3,224(ra)
    8000091c:	0fd0b423          	sd	t4,232(ra)
    80000920:	0fe0b823          	sd	t5,240(ra)
    80000924:	0ff0bc23          	sd	t6,248(ra)
    80000928:	0180006f          	j	80000940 <test_end>

000000008000092c <crash_forward>:
    8000092c:	0ff0000f          	fence
    80000930:	00018063          	beqz	gp,80000930 <crash_forward+0x4>
    80000934:	00119193          	slli	gp,gp,0x1
    80000938:	0011e193          	ori	gp,gp,1
    8000093c:	00000073          	ecall

0000000080000940 <test_end>:
    80000940:	0ff0000f          	fence
    80000944:	00100193          	li	gp,1
    80000948:	00000073          	ecall
    8000094c:	c0001073          	unimp
	...

Disassembly of section .tohost:

0000000080001000 <tohost>:
	...

0000000080001040 <fromhost>:
	...
