
test.elf:     file format elf64-littleriscv


Disassembly of section .text.init:

0000000080000000 <_start>:
    80000000:	0580006f          	j	80000058 <reset_vector>

0000000080000004 <trap_vector>:
    80000004:	34202f73          	csrr	t5,mcause
    80000008:	00800f93          	li	t6,8
    8000000c:	05ff0063          	beq	t5,t6,8000004c <write_tohost>
    80000010:	00900f93          	li	t6,9
    80000014:	03ff0c63          	beq	t5,t6,8000004c <write_tohost>
    80000018:	00b00f93          	li	t6,11
    8000001c:	03ff0863          	beq	t5,t6,8000004c <write_tohost>
    80000020:	00000f13          	li	t5,0
    80000024:	000f0463          	beqz	t5,8000002c <trap_vector+0x28>
    80000028:	000f0067          	jr	t5
    8000002c:	34202f73          	csrr	t5,mcause
    80000030:	000f5463          	bgez	t5,80000038 <handle_exception>
    80000034:	0140006f          	j	80000048 <other_exception>

0000000080000038 <handle_exception>:
    80000038:	34102e73          	csrr	t3,mepc
    8000003c:	004e0e13          	addi	t3,t3,4
    80000040:	341e1073          	csrw	mepc,t3
    80000044:	30200073          	mret

0000000080000048 <other_exception>:
    80000048:	5391e193          	ori	gp,gp,1337

000000008000004c <write_tohost>:
    8000004c:	00001f17          	auipc	t5,0x1
    80000050:	fa3f2a23          	sw	gp,-76(t5) # 80001000 <tohost>
    80000054:	ff9ff06f          	j	8000004c <write_tohost>

0000000080000058 <reset_vector>:
    80000058:	f1402573          	csrr	a0,mhartid
    8000005c:	00051063          	bnez	a0,8000005c <reset_vector+0x4>
    80000060:	00000297          	auipc	t0,0x0
    80000064:	01028293          	addi	t0,t0,16 # 80000070 <reset_vector+0x18>
    80000068:	30529073          	csrw	mtvec,t0
    8000006c:	18005073          	csrwi	satp,0
    80000070:	00000297          	auipc	t0,0x0
    80000074:	01c28293          	addi	t0,t0,28 # 8000008c <reset_vector+0x34>
    80000078:	30529073          	csrw	mtvec,t0
    8000007c:	fff00293          	li	t0,-1
    80000080:	3b029073          	csrw	pmpaddr0,t0
    80000084:	01f00293          	li	t0,31
    80000088:	3a029073          	csrw	pmpcfg0,t0
    8000008c:	00000297          	auipc	t0,0x0
    80000090:	01828293          	addi	t0,t0,24 # 800000a4 <reset_vector+0x4c>
    80000094:	30529073          	csrw	mtvec,t0
    80000098:	30205073          	csrwi	medeleg,0
    8000009c:	30305073          	csrwi	mideleg,0
    800000a0:	30405073          	csrwi	mie,0
    800000a4:	00000193          	li	gp,0
    800000a8:	00000297          	auipc	t0,0x0
    800000ac:	f5c28293          	addi	t0,t0,-164 # 80000004 <trap_vector>
    800000b0:	30529073          	csrw	mtvec,t0
    800000b4:	00100513          	li	a0,1
    800000b8:	01f51513          	slli	a0,a0,0x1f
    800000bc:	00055863          	bgez	a0,800000cc <reset_vector+0x74>
    800000c0:	0ff0000f          	fence
    800000c4:	00100193          	li	gp,1
    800000c8:	00000073          	ecall
    800000cc:	00000293          	li	t0,0
    800000d0:	00028e63          	beqz	t0,800000ec <reset_vector+0x94>
    800000d4:	10529073          	csrw	stvec,t0
    800000d8:	0000b2b7          	lui	t0,0xb
    800000dc:	1092829b          	addiw	t0,t0,265
    800000e0:	30229073          	csrw	medeleg,t0
    800000e4:	30202373          	csrr	t1,medeleg
    800000e8:	f66290e3          	bne	t0,t1,80000048 <other_exception>
    800000ec:	30005073          	csrwi	mstatus,0
    800000f0:	00000297          	auipc	t0,0x0
    800000f4:	01428293          	addi	t0,t0,20 # 80000104 <reset_vector+0xac>
    800000f8:	34129073          	csrw	mepc,t0
    800000fc:	f1402573          	csrr	a0,mhartid
    80000100:	30200073          	mret
    80000104:	0180006f          	j	8000011c <test_start>

0000000080000108 <crash_backward>:
    80000108:	0ff0000f          	fence
    8000010c:	00018063          	beqz	gp,8000010c <crash_backward+0x4>
    80000110:	00119193          	slli	gp,gp,0x1
    80000114:	0011e193          	ori	gp,gp,1
    80000118:	00000073          	ecall

000000008000011c <test_start>:
    8000011c:	00001f97          	auipc	t6,0x1
    80000120:	fe4f8f93          	addi	t6,t6,-28 # 80001100 <hidden_data>
    80000124:	000fb003          	ld	zero,0(t6)
    80000128:	008fb083          	ld	ra,8(t6)
    8000012c:	010fb103          	ld	sp,16(t6)
    80000130:	018fb183          	ld	gp,24(t6)
    80000134:	020fb203          	ld	tp,32(t6)
    80000138:	028fb283          	ld	t0,40(t6)
    8000013c:	030fb303          	ld	t1,48(t6)
    80000140:	038fb383          	ld	t2,56(t6)
    80000144:	040fb403          	ld	s0,64(t6)
    80000148:	048fb483          	ld	s1,72(t6)
    8000014c:	050fb503          	ld	a0,80(t6)
    80000150:	058fb583          	ld	a1,88(t6)
    80000154:	060fb603          	ld	a2,96(t6)
    80000158:	068fb683          	ld	a3,104(t6)
    8000015c:	070fb703          	ld	a4,112(t6)
    80000160:	078fb783          	ld	a5,120(t6)
    80000164:	080fb803          	ld	a6,128(t6)
    80000168:	088fb883          	ld	a7,136(t6)
    8000016c:	090fb903          	ld	s2,144(t6)
    80000170:	098fb983          	ld	s3,152(t6)
    80000174:	0a0fba03          	ld	s4,160(t6)
    80000178:	0a8fba83          	ld	s5,168(t6)
    8000017c:	0b0fbb03          	ld	s6,176(t6)
    80000180:	0b8fbb83          	ld	s7,184(t6)
    80000184:	0c0fbc03          	ld	s8,192(t6)
    80000188:	0c8fbc83          	ld	s9,200(t6)
    8000018c:	0d0fbd03          	ld	s10,208(t6)
    80000190:	0d8fbd83          	ld	s11,216(t6)
    80000194:	0e0fbe03          	ld	t3,224(t6)
    80000198:	0e8fbe83          	ld	t4,232(t6)
    8000019c:	0f0fbf03          	ld	t5,240(t6)
    800001a0:	0f8fbf83          	ld	t6,248(t6)
    800001a4:	0040006f          	j	800001a8 <pseg_0>

00000000800001a8 <pseg_0>:
    800001a8:	01e8d61b          	srliw	a2,a7,0x1e
    800001ac:	034fd733          	divu	a4,t6,s4
    800001b0:	00000793          	li	a5,0
    800001b4:	d6818293          	addi	t0,gp,-664 # 80001c78 <_end+0x568>
    800001b8:	00100213          	li	tp,1
    800001bc:	03138333          	mul	t1,t2,a7
    800001c0:	00000913          	li	s2,0
    800001c4:	23300993          	li	s3,563
    800001c8:	7aa00b13          	li	s6,1962
    800001cc:	00100493          	li	s1,1
    800001d0:	08900413          	li	s0,137
    800001d4:	1e700a13          	li	s4,487
    800001d8:	00001197          	auipc	gp,0x1
    800001dc:	21218193          	addi	gp,gp,530 # 800013ea <test_memory+0xea>
    800001e0:	07ca0693          	addi	a3,s4,124
    800001e4:	55200b93          	li	s7,1362
    800001e8:	4dc00793          	li	a5,1244
    800001ec:	33900913          	li	s2,825
    800001f0:	a3018f13          	addi	t5,gp,-1488 # 80001940 <_end+0x230>
    800001f4:	735b8a93          	addi	s5,s7,1845
    800001f8:	008b1e33          	sll	t3,s6,s0
    800001fc:	f2b1cd83          	lbu	s11,-213(gp) # 80001e3b <_end+0x72b>
    80000200:	03f21213          	slli	tp,tp,0x3f
    80000204:	9c2f3823          	sd	sp,-1584(t5)
    80000208:	8a02b583          	ld	a1,-1888(t0)
    8000020c:	03f49493          	slli	s1,s1,0x3f
    80000210:	01278a3b          	addw	s4,a5,s2
    80000214:	63a00393          	li	t2,1594
    80000218:	d8800e93          	li	t4,-632
    8000021c:	03d99c33          	mulh	s8,s3,t4
    80000220:	fff00813          	li	a6,-1
    80000224:	40738d3b          	subw	s10,t2,t2
    80000228:	fff00f93          	li	t6,-1
    8000022c:	00984833          	xor	a6,a6,s1
    80000230:	010d78b3          	and	a7,s10,a6
    80000234:	0098ecb3          	or	s9,a7,s1
    80000238:	004fcfb3          	xor	t6,t6,tp
    8000023c:	01fa70b3          	and	ra,s4,t6
    80000240:	004e6533          	or	a0,t3,tp
    80000244:	78a08863          	beq	ra,a0,800009d4 <crash_forward>
    80000248:	03087f33          	remu	t5,a6,a6
    8000024c:	01ad02bb          	addw	t0,s10,s10
    80000250:	f0c18513          	addi	a0,gp,-244 # 80001e1c <_end+0x70c>
    80000254:	00001617          	auipc	a2,0x1
    80000258:	0b660613          	addi	a2,a2,182 # 8000130a <test_memory+0xa>
    8000025c:	80800493          	li	s1,-2040
    80000260:	416b03bb          	subw	t2,s6,s6
    80000264:	d2d00413          	li	s0,-723
    80000268:	4c200c93          	li	s9,1218
    8000026c:	ec800c13          	li	s8,-312
    80000270:	038419b3          	mulh	s3,s0,s8
    80000274:	02427db3          	remu	s11,tp,tp
    80000278:	31800e13          	li	t3,792
    8000027c:	7d6c8d13          	addi	s10,s9,2006
    80000280:	72a50a13          	addi	s4,a0,1834
    80000284:	00001917          	auipc	s2,0x1
    80000288:	cc990913          	addi	s2,s2,-823 # 80000f4d <test_end+0x565>
    8000028c:	41de5ebb          	sraw	t4,t3,t4
    80000290:	82e51a83          	lh	s5,-2002(a0)
    80000294:	03c481bb          	mulw	gp,s1,t3
    80000298:	00000413          	li	s0,0
    8000029c:	b9500c13          	li	s8,-1131
    800002a0:	8c100993          	li	s3,-1855
    800002a4:	06f00393          	li	t2,111
    800002a8:	03167b33          	remu	s6,a2,a7
    800002ac:	0339debb          	divuw	t4,s3,s3
    800002b0:	018c7db3          	and	s11,s8,s8
    800002b4:	00100713          	li	a4,1
    800002b8:	00538a13          	addi	s4,t2,5
    800002bc:	35a5af13          	slti	t5,a1,858
    800002c0:	e40014e3          	bnez	zero,80000108 <crash_backward>
    800002c4:	009490b3          	sll	ra,s1,s1
    800002c8:	00000293          	li	t0,0
    800002cc:	03f71713          	slli	a4,a4,0x3f
    800002d0:	92c00993          	li	s3,-1748
    800002d4:	e3900e13          	li	t3,-455
    800002d8:	03ce6dbb          	remw	s11,t3,t3
    800002dc:	9f600f93          	li	t6,-1546
    800002e0:	00001217          	auipc	tp,0x1
    800002e4:	03520213          	addi	tp,tp,53 # 80001315 <test_memory+0x15>
    800002e8:	00001f17          	auipc	t5,0x1
    800002ec:	3adf0f13          	addi	t5,t5,941 # 80001695 <test_memory+0x395>
    800002f0:	7d69f193          	andi	gp,s3,2006
    800002f4:	00060c13          	mv	s8,a2
    800002f8:	c8b18593          	addi	a1,gp,-885 # 80001b9b <_end+0x48b>
    800002fc:	b3018393          	addi	t2,gp,-1232 # 80001a40 <_end+0x330>
    80000300:	01ce0133          	add	sp,t3,t3
    80000304:	48000a93          	li	s5,1152
    80000308:	b0d597a3          	sh	a3,-1265(a1)
    8000030c:	e77f8493          	addi	s1,t6,-393
    80000310:	6c9fc263          	blt	t6,s1,800009d4 <crash_forward>
    80000314:	00080093          	mv	ra,a6
    80000318:	014f0b23          	sb	s4,22(t5)
    8000031c:	9ab18c93          	addi	s9,gp,-1621 # 800018bb <_end+0x1ab>
    80000320:	41ffdd3b          	sraw	s10,t6,t6
    80000324:	00008593          	mv	a1,ra
    80000328:	6a544663          	blt	s0,t0,800009d4 <crash_forward>
    8000032c:	01598533          	add	a0,s3,s5
    80000330:	00001797          	auipc	a5,0x1
    80000334:	99878793          	addi	a5,a5,-1640 # 80000cc8 <test_end+0x2e0>
    80000338:	fff00313          	li	t1,-1
    8000033c:	fb400293          	li	t0,-76
    80000340:	00090d13          	mv	s10,s2
    80000344:	014a1abb          	sllw	s5,s4,s4
    80000348:	06d239a3          	sd	a3,115(tp) # 73 <_start-0x7fffff8d>
    8000034c:	08461803          	lh	a6,132(a2)
    80000350:	000b8993          	mv	s3,s7
    80000354:	46400413          	li	s0,1124
    80000358:	00098493          	mv	s1,s3
    8000035c:	dab096e3          	bne	ra,a1,80000108 <crash_backward>
    80000360:	000d0513          	mv	a0,s10
    80000364:	00001617          	auipc	a2,0x1
    80000368:	26760613          	addi	a2,a2,615 # 800015cb <test_memory+0x2cb>
    8000036c:	00001a97          	auipc	s5,0x1
    80000370:	df9a8a93          	addi	s5,s5,-519 # 80001165 <reg_x12_init+0x5>
    80000374:	b0dc8a23          	sb	a3,-1260(s9)
    80000378:	9883ba03          	ld	s4,-1656(t2)
    8000037c:	00000093          	li	ra,0
    80000380:	02846fbb          	remw	t6,s0,s0
    80000384:	00000513          	li	a0,0
    80000388:	00001c97          	auipc	s9,0x1
    8000038c:	b90c8c93          	addi	s9,s9,-1136 # 80000f18 <test_end+0x530>
    80000390:	02644eb3          	div	t4,s0,t1
    80000394:	00000813          	li	a6,0
    80000398:	6299ce63          	blt	s3,s1,800009d4 <crash_forward>
    8000039c:	361ad203          	lhu	tp,865(s5)
    800003a0:	d4862ea3          	sw	s0,-675(a2)
    800003a4:	efb00393          	li	t2,-261
    800003a8:	2ae00193          	li	gp,686
    800003ac:	000c0b13          	mv	s6,s8
    800003b0:	d56c6ce3          	bltu	s8,s6,80000108 <crash_backward>
    800003b4:	00001a17          	auipc	s4,0x1
    800003b8:	1d9a0a13          	addi	s4,s4,473 # 8000158d <test_memory+0x28d>
    800003bc:	d60a1da3          	sh	zero,-645(s4)
    800003c0:	58bcc403          	lbu	s0,1419(s9)
    800003c4:	f3100493          	li	s1,-207
    800003c8:	00e34333          	xor	t1,t1,a4
    800003cc:	00000593          	li	a1,0
    800003d0:	92d00e13          	li	t3,-1747
    800003d4:	01080d3b          	addw	s10,a6,a6
    800003d8:	e2100b13          	li	s6,-479
    800003dc:	5eb09c63          	bne	ra,a1,800009d4 <crash_forward>
    800003e0:	c9100113          	li	sp,-879
    800003e4:	022e0db3          	mul	s11,t3,sp
    800003e8:	00001617          	auipc	a2,0x1
    800003ec:	eef60613          	addi	a2,a2,-273 # 800012d7 <reg_x26_output+0x7>
    800003f0:	c0a00c13          	li	s8,-1014
    800003f4:	4184dabb          	sraw	s5,s1,s8
    800003f8:	00001d97          	auipc	s11,0x1
    800003fc:	b70d8d93          	addi	s11,s11,-1168 # 80000f68 <test_end+0x580>
    80000400:	0232cf3b          	divw	t5,t0,gp
    80000404:	00100e13          	li	t3,1
    80000408:	e5100a13          	li	s4,-431
    8000040c:	00001c97          	auipc	s9,0x1
    80000410:	0bcc8c93          	addi	s9,s9,188 # 800014c8 <test_memory+0x1c8>
    80000414:	03fe1e13          	slli	t3,t3,0x3f
    80000418:	02846c33          	rem	s8,s0,s0
    8000041c:	034a75b3          	remu	a1,s4,s4
    80000420:	118c9403          	lh	s0,280(s9)
    80000424:	95ea0813          	addi	a6,s4,-1698
    80000428:	016b1eb3          	sll	t4,s6,s6
    8000042c:	093622a3          	sw	s3,133(a2)
    80000430:	f6c38f93          	addi	t6,t2,-148
    80000434:	5b487063          	bgeu	a6,s4,800009d4 <crash_forward>
    80000438:	00001c97          	auipc	s9,0x1
    8000043c:	9bbc8c93          	addi	s9,s9,-1605 # 80000df3 <test_end+0x40b>
    80000440:	cdf3e4e3          	bltu	t2,t6,80000108 <crash_backward>
    80000444:	00001b17          	auipc	s6,0x1
    80000448:	e30b0b13          	addi	s6,s6,-464 # 80001274 <reg_x14_output+0x4>
    8000044c:	1f8b5583          	lhu	a1,504(s6)
    80000450:	00001217          	auipc	tp,0x1
    80000454:	ca120213          	addi	tp,tp,-863 # 800010f1 <fromhost+0xb1>
    80000458:	00100093          	li	ra,1
    8000045c:	fff00513          	li	a0,-1
    80000460:	3a621da3          	sh	t1,955(tp) # 3bb <_start-0x7ffffc45>
    80000464:	bb618493          	addi	s1,gp,-1098 # 80001ac6 <_end+0x3b6>
    80000468:	71cdd103          	lhu	sp,1820(s11)
    8000046c:	a8c4cd03          	lbu	s10,-1396(s1)
    80000470:	6807a423          	sw	zero,1672(a5)
    80000474:	7c1cae83          	lw	t4,1985(s9)
    80000478:	01c54533          	xor	a0,a0,t3
    8000047c:	0060fbb3          	and	s7,ra,t1
    80000480:	03f09093          	slli	ra,ra,0x3f
    80000484:	bd018593          	addi	a1,gp,-1072 # 80001ae0 <_end+0x3d0>
    80000488:	00ad7ab3          	and	s5,s10,a0
    8000048c:	40594883          	lbu	a7,1029(s2)
    80000490:	00001d97          	auipc	s11,0x1
    80000494:	ec6d8d93          	addi	s11,s11,-314 # 80001356 <test_memory+0x56>
    80000498:	00e166b3          	or	a3,sp,a4
    8000049c:	00100c93          	li	s9,1
    800004a0:	00001c17          	auipc	s8,0x1
    800004a4:	bf4c0c13          	addi	s8,s8,-1036 # 80001094 <fromhost+0x54>
    800004a8:	b3f18b13          	addi	s6,gp,-1217 # 80001a4f <_end+0x33f>
    800004ac:	96c00813          	li	a6,-1684
    800004b0:	03fc9c93          	slli	s9,s9,0x3f
    800004b4:	98900313          	li	t1,-1655
    800004b8:	02ebc3bb          	divw	t2,s7,a4
    800004bc:	00d5589b          	srliw	a7,a0,0xd
    800004c0:	00631433          	sll	s0,t1,t1
    800004c4:	01c2e9b3          	or	s3,t0,t3
    800004c8:	33adee83          	lwu	t4,826(s11)
    800004cc:	fff00213          	li	tp,-1
    800004d0:	8d700b93          	li	s7,-1833
    800004d4:	bd45ad03          	lw	s10,-1068(a1)
    800004d8:	602c1f23          	sh	sp,1566(s8)
    800004dc:	c43b13a3          	sh	gp,-953(s6)
    800004e0:	01924233          	xor	tp,tp,s9
    800004e4:	bf500593          	li	a1,-1035
    800004e8:	018c4d33          	xor	s10,s8,s8
    800004ec:	400456b3          	sra	a3,s0,zero
    800004f0:	004f7a33          	and	s4,t5,tp
    800004f4:	9dc18893          	addi	a7,gp,-1572 # 800018ec <_end+0x1dc>
    800004f8:	b448a383          	lw	t2,-1212(a7)
    800004fc:	408b0e3b          	subw	t3,s6,s0
    80000500:	01e2dd1b          	srliw	s10,t0,0x1e
    80000504:	019ce4b3          	or	s1,s9,s9
    80000508:	d8d58313          	addi	t1,a1,-627
    8000050c:	00001e97          	auipc	t4,0x1
    80000510:	9d1e8e93          	addi	t4,t4,-1583 # 80000edd <test_end+0x4f5>
    80000514:	fff00f13          	li	t5,-1
    80000518:	bfad68e3          	bltu	s10,s10,80000108 <crash_backward>
    8000051c:	001f4f33          	xor	t5,t5,ra
    80000520:	4080543b          	sraw	s0,zero,s0
    80000524:	0139b533          	sltu	a0,s3,s3
    80000528:	80200613          	li	a2,-2046
    8000052c:	002a8b33          	add	s6,s5,sp
    80000530:	c4b00713          	li	a4,-949
    80000534:	40c80fb3          	sub	t6,a6,a2
    80000538:	670e88a3          	sb	a6,1649(t4)
    8000053c:	02ebe93b          	remw	s2,s7,a4
    80000540:	00000a93          	li	s5,0
    80000544:	00001c17          	auipc	s8,0x1
    80000548:	d16c0c13          	addi	s8,s8,-746 # 8000125a <reg_x11_output+0x2>
    8000054c:	4865e463          	bltu	a1,t1,800009d4 <crash_forward>
    80000550:	461c3b23          	sd	ra,1142(s8)
    80000554:	00000693          	li	a3,0
    80000558:	40700113          	li	sp,1031
    8000055c:	10376613          	ori	a2,a4,259
    80000560:	00001e97          	auipc	t4,0x1
    80000564:	931e8e93          	addi	t4,t4,-1743 # 80000e91 <test_end+0x4a9>
    80000568:	018b1db3          	sll	s11,s6,s8
    8000056c:	039cf9b3          	remu	s3,s9,s9
    80000570:	00001317          	auipc	t1,0x1
    80000574:	c6930313          	addi	t1,t1,-919 # 800011d9 <reg_x27_init+0x1>
    80000578:	c2300b13          	li	s6,-989
    8000057c:	59ceafa3          	sw	t3,1439(t4)
    80000580:	a5c18393          	addi	t2,gp,-1444 # 8000196c <_end+0x25c>
    80000584:	31c30a03          	lb	s4,796(t1)
    80000588:	f1600493          	li	s1,-234
    8000058c:	00100213          	li	tp,1
    80000590:	3a900813          	li	a6,937
    80000594:	bff00613          	li	a2,-1025
    80000598:	bbd00513          	li	a0,-1091
    8000059c:	08310793          	addi	a5,sp,131
    800005a0:	029b5c3b          	divuw	s8,s6,s1
    800005a4:	00001d17          	auipc	s10,0x1
    800005a8:	931d0d13          	addi	s10,s10,-1743 # 80000ed5 <test_end+0x4ed>
    800005ac:	91f00f93          	li	t6,-1761
    800005b0:	00001997          	auipc	s3,0x1
    800005b4:	17998993          	addi	s3,s3,377 # 80001729 <_end+0x19>
    800005b8:	d6e00c93          	li	s9,-658
    800005bc:	00c62433          	slt	s0,a2,a2
    800005c0:	cfc18a93          	addi	s5,gp,-772 # 80001c0c <_end+0x4fc>
    800005c4:	9a9acb03          	lbu	s6,-1623(s5)
    800005c8:	b4f150e3          	bge	sp,a5,80000108 <crash_backward>
    800005cc:	b8d39523          	sh	a3,-1142(t2)
    800005d0:	688d29a3          	sw	s0,1683(s10)
    800005d4:	5a400d93          	li	s11,1444
    800005d8:	00000493          	li	s1,0
    800005dc:	02a52bb3          	mulhsu	s7,a0,a0
    800005e0:	0308773b          	remuw	a4,a6,a6
    800005e4:	019fa8b3          	slt	a7,t6,s9
    800005e8:	03bda6b3          	mulhsu	a3,s11,s11
    800005ec:	00000c13          	li	s8,0
    800005f0:	01e071b3          	and	gp,zero,t5
    800005f4:	0011e2b3          	or	t0,gp,ra
    800005f8:	fbf9be83          	ld	t4,-65(s3)
    800005fc:	03f21213          	slli	tp,tp,0x3f
    80000600:	fff00913          	li	s2,-1
    80000604:	00494933          	xor	s2,s2,tp
    80000608:	012bf5b3          	and	a1,s7,s2
    8000060c:	0045ee33          	or	t3,a1,tp
    80000610:	3dc5f263          	bgeu	a1,t3,800009d4 <crash_forward>
    80000614:	00ff5a33          	srl	s4,t5,a5
    80000618:	00000c97          	auipc	s9,0x0
    8000061c:	6f6c8c93          	addi	s9,s9,1782 # 80000d0e <test_end+0x326>
    80000620:	cd500213          	li	tp,-811
    80000624:	00846db3          	or	s11,s0,s0
    80000628:	00001f97          	auipc	t6,0x1
    8000062c:	e32f8f93          	addi	t6,t6,-462 # 8000145a <test_memory+0x15a>
    80000630:	000f0493          	mv	s1,t5
    80000634:	d6c20e93          	addi	t4,tp,-660 # fffffffffffffd6c <__global_pointer$+0xffffffff7fffde5c>
    80000638:	00000e17          	auipc	t3,0x0
    8000063c:	76ce0e13          	addi	t3,t3,1900 # 80000da4 <test_end+0x3bc>
    80000640:	00048a93          	mv	s5,s1
    80000644:	add262e3          	bltu	tp,t4,80000108 <crash_backward>
    80000648:	00001897          	auipc	a7,0x1
    8000064c:	f5a88893          	addi	a7,a7,-166 # 800015a2 <test_memory+0x2a2>
    80000650:	6dc00293          	li	t0,1756
    80000654:	02dafd33          	remu	s10,s5,a3
    80000658:	3754ce63          	blt	s1,s5,800009d4 <crash_forward>
    8000065c:	6b800c13          	li	s8,1720
    80000660:	0060023b          	addw	tp,zero,t1
    80000664:	00001917          	auipc	s2,0x1
    80000668:	e0490913          	addi	s2,s2,-508 # 80001468 <test_memory+0x168>
    8000066c:	00000393          	li	t2,0
    80000670:	038cb1b3          	mulhu	gp,s9,s8
    80000674:	6b2cbb03          	ld	s6,1714(s9)
    80000678:	eed67313          	andi	t1,a2,-275
    8000067c:	00001a17          	auipc	s4,0x1
    80000680:	b56a0a13          	addi	s4,s4,-1194 # 800011d2 <reg_x26_init+0x2>
    80000684:	b4d00213          	li	tp,-1203
    80000688:	ab400493          	li	s1,-1356
    8000068c:	258a0723          	sb	s8,590(s4)
    80000690:	11f00f13          	li	t5,287
    80000694:	28ef8983          	lb	s3,654(t6)
    80000698:	e1d00113          	li	sp,-483
    8000069c:	000c0313          	mv	t1,s8
    800006a0:	022c063b          	mulw	a2,s8,sp
    800006a4:	00001e97          	auipc	t4,0x1
    800006a8:	cbde8e93          	addi	t4,t4,-835 # 80001361 <test_memory+0x61>
    800006ac:	01e2a0b3          	slt	ra,t0,t5
    800006b0:	d8c89c23          	sh	a2,-616(a7)
    800006b4:	00001817          	auipc	a6,0x1
    800006b8:	f2f80813          	addi	a6,a6,-209 # 800015e3 <test_memory+0x2e3>
    800006bc:	dcb85583          	lhu	a1,-565(a6)
    800006c0:	00000b93          	li	s7,0
    800006c4:	00925d33          	srl	s10,tp,s1
    800006c8:	71c00193          	li	gp,1820
    800006cc:	02318a33          	mul	s4,gp,gp
    800006d0:	78800093          	li	ra,1928
    800006d4:	acb00f13          	li	t5,-1333
    800006d8:	ea900793          	li	a5,-343
    800006dc:	98518213          	addi	tp,gp,-1659 # 80001895 <_end+0x185>
    800006e0:	00001897          	auipc	a7,0x1
    800006e4:	c4e88893          	addi	a7,a7,-946 # 8000132e <test_memory+0x2e>
    800006e8:	f4591f23          	sh	t0,-162(s2)
    800006ec:	59400713          	li	a4,1428
    800006f0:	c3f25183          	lhu	gp,-961(tp) # fffffffffffffc3f <__global_pointer$+0xffffffff7fffdd2f>
    800006f4:	c4100f93          	li	t6,-959
    800006f8:	01f0a2b3          	slt	t0,ra,t6
    800006fc:	00e78533          	add	a0,a5,a4
    80000700:	6fae5683          	lhu	a3,1786(t3)
    80000704:	be800493          	li	s1,-1048
    80000708:	00206a37          	lui	s4,0x206
    8000070c:	34e8a603          	lw	a2,846(a7)
    80000710:	00001d97          	auipc	s11,0x1
    80000714:	0f3d8d93          	addi	s11,s11,243 # 80001803 <_end+0xf3>
    80000718:	d8f00593          	li	a1,-625
    8000071c:	00bf59bb          	srlw	s3,t5,a1
    80000720:	02948d3b          	mulw	s10,s1,s1
    80000724:	39ded403          	lhu	s0,925(t4)
    80000728:	18c00d13          	li	s10,396
    8000072c:	030bb4b3          	mulhu	s1,s7,a6
    80000730:	a1818093          	addi	ra,gp,-1512 # 80001928 <_end+0x218>
    80000734:	d580b283          	ld	t0,-680(ra)
    80000738:	00000e13          	li	t3,0
    8000073c:	03ce35b3          	mulhu	a1,t3,t3
    80000740:	00030a93          	mv	s5,t1
    80000744:	0e800913          	li	s2,232
    80000748:	294a6663          	bltu	s4,s4,800009d4 <crash_forward>
    8000074c:	00000f17          	auipc	t5,0x0
    80000750:	764f0f13          	addi	t5,t5,1892 # 80000eb0 <test_end+0x4c8>
    80000754:	00000213          	li	tp,0
    80000758:	14060393          	addi	t2,a2,320
    8000075c:	77200c13          	li	s8,1906
    80000760:	7f8f3783          	ld	a5,2040(t5)
    80000764:	00001617          	auipc	a2,0x1
    80000768:	ab860613          	addi	a2,a2,-1352 # 8000121c <reg_x3_output+0x4>
    8000076c:	03290b3b          	mulw	s6,s2,s2
    80000770:	ebc00493          	li	s1,-324
    80000774:	41ad56b3          	sra	a3,s10,s10
    80000778:	244e1e63          	bne	t3,tp,800009d4 <crash_forward>
    8000077c:	ba800713          	li	a4,-1112
    80000780:	02e71bb3          	mulh	s7,a4,a4
    80000784:	fc500213          	li	tp,-59
    80000788:	4100599b          	sraiw	s3,zero,0x10
    8000078c:	96004ee3          	bltz	zero,80000108 <crash_backward>
    80000790:	ee5d9da3          	sh	t0,-261(s11)
    80000794:	4e300893          	li	a7,1251
    80000798:	0ed00193          	li	gp,237
    8000079c:	a7200113          	li	sp,-1422
    800007a0:	03095b13          	srli	s6,s2,0x30
    800007a4:	0318ca3b          	divw	s4,a7,a7
    800007a8:	95e00713          	li	a4,-1698
    800007ac:	d2a20793          	addi	a5,tp,-726 # fffffffffffffd2a <__global_pointer$+0xffffffff7fffde1a>
    800007b0:	02395533          	divu	a0,s2,gp
    800007b4:	f5100293          	li	t0,-175
    800007b8:	003196b3          	sll	a3,gp,gp
    800007bc:	00000b17          	auipc	s6,0x0
    800007c0:	3e6b0b13          	addi	s6,s6,998 # 80000ba2 <test_end+0x1ba>
    800007c4:	958c12e3          	bne	s8,s8,80000108 <crash_backward>
    800007c8:	39500893          	li	a7,917
    800007cc:	2eb63a23          	sd	a1,756(a2)
    800007d0:	39300393          	li	t2,915
    800007d4:	76ab0183          	lb	gp,1898(s6)
    800007d8:	2c200413          	li	s0,706
    800007dc:	022c0833          	mul	a6,s8,sp
    800007e0:	ca770b93          	addi	s7,a4,-857
    800007e4:	c5500f93          	li	t6,-939
    800007e8:	03f4c5b3          	div	a1,s1,t6
    800007ec:	0272b0b3          	mulhu	ra,t0,t2
    800007f0:	91774ce3          	blt	a4,s7,80000108 <crash_backward>
    800007f4:	7c100d93          	li	s11,1985
    800007f8:	00001f17          	auipc	t5,0x1
    800007fc:	b15f0f13          	addi	t5,t5,-1259 # 8000130d <test_memory+0xd>
    80000800:	47900913          	li	s2,1145
    80000804:	a2200693          	li	a3,-1502
    80000808:	03d72cb3          	mulhsu	s9,a4,t4
    8000080c:	03294a3b          	divw	s4,s2,s2
    80000810:	02d89533          	mulh	a0,a7,a3
    80000814:	111f1e03          	lh	t3,273(t5)
    80000818:	03b47eb3          	remu	t4,s0,s11
    8000081c:	00000997          	auipc	s3,0x0
    80000820:	71c98993          	addi	s3,s3,1820 # 80000f38 <test_end+0x550>
    80000824:	54e98d03          	lb	s10,1358(s3)
    80000828:	93518493          	addi	s1,gp,-1739 # 80001845 <_end+0x135>
    8000082c:	00100813          	li	a6,1
    80000830:	e8d48103          	lb	sp,-371(s1)
    80000834:	00078613          	mv	a2,a5
    80000838:	e5900193          	li	gp,-423
    8000083c:	7aa00393          	li	t2,1962
    80000840:	31238313          	addi	t1,t2,786
    80000844:	8c63d2e3          	bge	t2,t1,80000108 <crash_backward>
    80000848:	00100a93          	li	s5,1
    8000084c:	faf00593          	li	a1,-81
    80000850:	1810e263          	bltu	ra,ra,800009d4 <crash_forward>
    80000854:	00001f97          	auipc	t6,0x1
    80000858:	c24f8f93          	addi	t6,t6,-988 # 80001478 <test_memory+0x178>
    8000085c:	00100e93          	li	t4,1
    80000860:	00060713          	mv	a4,a2
    80000864:	00001697          	auipc	a3,0x1
    80000868:	de268693          	addi	a3,a3,-542 # 80001646 <test_memory+0x346>
    8000086c:	eba6a123          	sw	s10,-350(a3)
    80000870:	3ea00993          	li	s3,1002
    80000874:	01319d3b          	sllw	s10,gp,s3
    80000878:	03f81813          	slli	a6,a6,0x3f
    8000087c:	f4018293          	addi	t0,gp,-192 # 80001e50 <_end+0x740>
    80000880:	14e66a63          	bltu	a2,a4,800009d4 <crash_forward>
    80000884:	00b59c33          	sll	s8,a1,a1
    80000888:	fff00893          	li	a7,-1
    8000088c:	03fa9a93          	slli	s5,s5,0x3f
    80000890:	0108c8b3          	xor	a7,a7,a6
    80000894:	83a28f03          	lb	t5,-1990(t0)
    80000898:	03fe9e93          	slli	t4,t4,0x3f
    8000089c:	01292433          	slt	s0,s2,s2
    800008a0:	cdfb7237          	lui	tp,0xcdfb7
    800008a4:	fff00513          	li	a0,-1
    800008a8:	071f8b03          	lb	s6,113(t6)
    800008ac:	20700613          	li	a2,519
    800008b0:	02aca1b3          	mulhsu	gp,s9,a0
    800008b4:	011e70b3          	and	ra,t3,a7
    800008b8:	94500d13          	li	s10,-1723
    800008bc:	010e6e33          	or	t3,t3,a6
    800008c0:	00001297          	auipc	t0,0x1
    800008c4:	a7f28293          	addi	t0,t0,-1409 # 8000133f <test_memory+0x3f>
    800008c8:	fff00d93          	li	s11,-1
    800008cc:	01554533          	xor	a0,a0,s5
    800008d0:	01ddcdb3          	xor	s11,s11,t4
    800008d4:	00c60133          	add	sp,a2,a2
    800008d8:	1cf2d703          	lhu	a4,463(t0)
    800008dc:	83c0f6e3          	bgeu	ra,t3,80000108 <crash_backward>
    800008e0:	00001f97          	auipc	t6,0x1
    800008e4:	cfcf8f93          	addi	t6,t6,-772 # 800015dc <test_memory+0x2dc>
    800008e8:	01ba7933          	and	s2,s4,s11
    800008ec:	01ad33b3          	sltu	t2,s10,s10
    800008f0:	90d18993          	addi	s3,gp,-1779 # 8000181d <_end+0x10d>
    800008f4:	66d00213          	li	tp,1645
    800008f8:	00000417          	auipc	s0,0x0
    800008fc:	7ed40413          	addi	s0,s0,2029 # 800010e5 <fromhost+0xa5>
    80000900:	5f2435a3          	sd	s2,1515(s0)
    80000904:	01d96a33          	or	s4,s2,t4
    80000908:	c039c583          	lbu	a1,-1021(s3)
    8000090c:	00038f13          	mv	t5,t2
    80000910:	0d497263          	bgeu	s2,s4,800009d4 <crash_forward>
    80000914:	5b200b93          	li	s7,1458
    80000918:	000f0313          	mv	t1,t5
    8000091c:	0a6f4c63          	blt	t5,t1,800009d4 <crash_forward>
    80000920:	404b8b13          	addi	s6,s7,1028
    80000924:	fd7faa23          	sw	s7,-44(t6)
    80000928:	57320693          	addi	a3,tp,1395 # ffffffffcdfb7573 <__global_pointer$+0xffffffff4dfb5663>
    8000092c:	00000c13          	li	s8,0
    80000930:	00000493          	li	s1,0
    80000934:	00abfcb3          	and	s9,s7,a0
    80000938:	0154e7b3          	or	a5,s1,s5
    8000093c:	08fc8c63          	beq	s9,a5,800009d4 <crash_forward>
    80000940:	0040006f          	j	80000944 <reg_dump>

0000000080000944 <reg_dump>:
    80000944:	00001097          	auipc	ra,0x1
    80000948:	dbc08093          	addi	ra,ra,-580 # 80001700 <loop_count>
    8000094c:	0000a103          	lw	sp,0(ra)
    80000950:	fff10193          	addi	gp,sp,-1
    80000954:	0030a023          	sw	gp,0(ra)
    80000958:	840118e3          	bnez	sp,800001a8 <pseg_0>
    8000095c:	00001097          	auipc	ra,0x1
    80000960:	8a408093          	addi	ra,ra,-1884 # 80001200 <begin_signature>
    80000964:	0000b023          	sd	zero,0(ra)
    80000968:	0020b823          	sd	sp,16(ra)
    8000096c:	0030bc23          	sd	gp,24(ra)
    80000970:	0240b023          	sd	tp,32(ra)
    80000974:	0260b823          	sd	t1,48(ra)
    80000978:	0270bc23          	sd	t2,56(ra)
    8000097c:	0490b423          	sd	s1,72(ra)
    80000980:	04a0b823          	sd	a0,80(ra)
    80000984:	04b0bc23          	sd	a1,88(ra)
    80000988:	06c0b023          	sd	a2,96(ra)
    8000098c:	06d0b423          	sd	a3,104(ra)
    80000990:	06e0b823          	sd	a4,112(ra)
    80000994:	06f0bc23          	sd	a5,120(ra)
    80000998:	0900b023          	sd	a6,128(ra)
    8000099c:	0910b423          	sd	a7,136(ra)
    800009a0:	0920b823          	sd	s2,144(ra)
    800009a4:	0b40b023          	sd	s4,160(ra)
    800009a8:	0b50b423          	sd	s5,168(ra)
    800009ac:	0b60b823          	sd	s6,176(ra)
    800009b0:	0b70bc23          	sd	s7,184(ra)
    800009b4:	0d80b023          	sd	s8,192(ra)
    800009b8:	0d90b423          	sd	s9,200(ra)
    800009bc:	0da0b823          	sd	s10,208(ra)
    800009c0:	0db0bc23          	sd	s11,216(ra)
    800009c4:	0fc0b023          	sd	t3,224(ra)
    800009c8:	0fd0b423          	sd	t4,232(ra)
    800009cc:	0fe0b823          	sd	t5,240(ra)
    800009d0:	0180006f          	j	800009e8 <test_end>

00000000800009d4 <crash_forward>:
    800009d4:	0ff0000f          	fence
    800009d8:	00018063          	beqz	gp,800009d8 <crash_forward+0x4>
    800009dc:	00119193          	slli	gp,gp,0x1
    800009e0:	0011e193          	ori	gp,gp,1
    800009e4:	00000073          	ecall

00000000800009e8 <test_end>:
    800009e8:	0ff0000f          	fence
    800009ec:	00100193          	li	gp,1
    800009f0:	00000073          	ecall
    800009f4:	c0001073          	unimp

Disassembly of section .tohost:

0000000080001000 <tohost>:
	...

0000000080001040 <fromhost>:
	...
