
test.elf:     file format elf64-littleriscv


Disassembly of section .text.init:

0000000080000000 <_start>:
    80000000:	0580006f          	j	80000058 <reset_vector>

0000000080000004 <trap_vector>:
    80000004:	34202f73          	csrr	t5,mcause
    80000008:	00800f93          	li	t6,8
    8000000c:	05ff0063          	beq	t5,t6,8000004c <write_tohost>
    80000010:	00900f93          	li	t6,9
    80000014:	03ff0c63          	beq	t5,t6,8000004c <write_tohost>
    80000018:	00b00f93          	li	t6,11
    8000001c:	03ff0863          	beq	t5,t6,8000004c <write_tohost>
    80000020:	00000f13          	li	t5,0
    80000024:	000f0463          	beqz	t5,8000002c <trap_vector+0x28>
    80000028:	000f0067          	jr	t5
    8000002c:	34202f73          	csrr	t5,mcause
    80000030:	000f5463          	bgez	t5,80000038 <handle_exception>
    80000034:	0140006f          	j	80000048 <other_exception>

0000000080000038 <handle_exception>:
    80000038:	34102e73          	csrr	t3,mepc
    8000003c:	004e0e13          	addi	t3,t3,4
    80000040:	341e1073          	csrw	mepc,t3
    80000044:	30200073          	mret

0000000080000048 <other_exception>:
    80000048:	5391e193          	ori	gp,gp,1337

000000008000004c <write_tohost>:
    8000004c:	00001f17          	auipc	t5,0x1
    80000050:	fa3f2a23          	sw	gp,-76(t5) # 80001000 <tohost>
    80000054:	ff9ff06f          	j	8000004c <write_tohost>

0000000080000058 <reset_vector>:
    80000058:	f1402573          	csrr	a0,mhartid
    8000005c:	00051063          	bnez	a0,8000005c <reset_vector+0x4>
    80000060:	00000297          	auipc	t0,0x0
    80000064:	01028293          	addi	t0,t0,16 # 80000070 <reset_vector+0x18>
    80000068:	30529073          	csrw	mtvec,t0
    8000006c:	18005073          	csrwi	satp,0
    80000070:	00000297          	auipc	t0,0x0
    80000074:	01c28293          	addi	t0,t0,28 # 8000008c <reset_vector+0x34>
    80000078:	30529073          	csrw	mtvec,t0
    8000007c:	fff00293          	li	t0,-1
    80000080:	3b029073          	csrw	pmpaddr0,t0
    80000084:	01f00293          	li	t0,31
    80000088:	3a029073          	csrw	pmpcfg0,t0
    8000008c:	00000297          	auipc	t0,0x0
    80000090:	01828293          	addi	t0,t0,24 # 800000a4 <reset_vector+0x4c>
    80000094:	30529073          	csrw	mtvec,t0
    80000098:	30205073          	csrwi	medeleg,0
    8000009c:	30305073          	csrwi	mideleg,0
    800000a0:	30405073          	csrwi	mie,0
    800000a4:	00000193          	li	gp,0
    800000a8:	00000297          	auipc	t0,0x0
    800000ac:	f5c28293          	addi	t0,t0,-164 # 80000004 <trap_vector>
    800000b0:	30529073          	csrw	mtvec,t0
    800000b4:	00100513          	li	a0,1
    800000b8:	01f51513          	slli	a0,a0,0x1f
    800000bc:	00055863          	bgez	a0,800000cc <reset_vector+0x74>
    800000c0:	0ff0000f          	fence
    800000c4:	00100193          	li	gp,1
    800000c8:	00000073          	ecall
    800000cc:	00000293          	li	t0,0
    800000d0:	00028e63          	beqz	t0,800000ec <reset_vector+0x94>
    800000d4:	10529073          	csrw	stvec,t0
    800000d8:	0000b2b7          	lui	t0,0xb
    800000dc:	1092829b          	addiw	t0,t0,265
    800000e0:	30229073          	csrw	medeleg,t0
    800000e4:	30202373          	csrr	t1,medeleg
    800000e8:	f66290e3          	bne	t0,t1,80000048 <other_exception>
    800000ec:	30005073          	csrwi	mstatus,0
    800000f0:	00000297          	auipc	t0,0x0
    800000f4:	01428293          	addi	t0,t0,20 # 80000104 <reset_vector+0xac>
    800000f8:	34129073          	csrw	mepc,t0
    800000fc:	f1402573          	csrr	a0,mhartid
    80000100:	30200073          	mret
    80000104:	0180006f          	j	8000011c <test_start>

0000000080000108 <crash_backward>:
    80000108:	0ff0000f          	fence
    8000010c:	00018063          	beqz	gp,8000010c <crash_backward+0x4>
    80000110:	00119193          	slli	gp,gp,0x1
    80000114:	0011e193          	ori	gp,gp,1
    80000118:	00000073          	ecall

000000008000011c <test_start>:
    8000011c:	00001f97          	auipc	t6,0x1
    80000120:	fe4f8f93          	addi	t6,t6,-28 # 80001100 <hidden_data>
    80000124:	000fb003          	ld	zero,0(t6)
    80000128:	008fb083          	ld	ra,8(t6)
    8000012c:	010fb103          	ld	sp,16(t6)
    80000130:	018fb183          	ld	gp,24(t6)
    80000134:	020fb203          	ld	tp,32(t6)
    80000138:	028fb283          	ld	t0,40(t6)
    8000013c:	030fb303          	ld	t1,48(t6)
    80000140:	038fb383          	ld	t2,56(t6)
    80000144:	040fb403          	ld	s0,64(t6)
    80000148:	048fb483          	ld	s1,72(t6)
    8000014c:	050fb503          	ld	a0,80(t6)
    80000150:	058fb583          	ld	a1,88(t6)
    80000154:	060fb603          	ld	a2,96(t6)
    80000158:	068fb683          	ld	a3,104(t6)
    8000015c:	070fb703          	ld	a4,112(t6)
    80000160:	078fb783          	ld	a5,120(t6)
    80000164:	080fb803          	ld	a6,128(t6)
    80000168:	088fb883          	ld	a7,136(t6)
    8000016c:	090fb903          	ld	s2,144(t6)
    80000170:	098fb983          	ld	s3,152(t6)
    80000174:	0a0fba03          	ld	s4,160(t6)
    80000178:	0a8fba83          	ld	s5,168(t6)
    8000017c:	0b0fbb03          	ld	s6,176(t6)
    80000180:	0b8fbb83          	ld	s7,184(t6)
    80000184:	0c0fbc03          	ld	s8,192(t6)
    80000188:	0c8fbc83          	ld	s9,200(t6)
    8000018c:	0d0fbd03          	ld	s10,208(t6)
    80000190:	0d8fbd83          	ld	s11,216(t6)
    80000194:	0e0fbe03          	ld	t3,224(t6)
    80000198:	0e8fbe83          	ld	t4,232(t6)
    8000019c:	0f0fbf03          	ld	t5,240(t6)
    800001a0:	0f8fbf83          	ld	t6,248(t6)
    800001a4:	0040006f          	j	800001a8 <pseg_0>

00000000800001a8 <pseg_0>:
    800001a8:	016293b3          	sll	t2,t0,s6
    800001ac:	01ffc0b3          	xor	ra,t6,t6
    800001b0:	57500813          	li	a6,1397
    800001b4:	030817b3          	mulh	a5,a6,a6
    800001b8:	93b00993          	li	s3,-1733
    800001bc:	3b500793          	li	a5,949
    800001c0:	00001317          	auipc	t1,0x1
    800001c4:	da830313          	addi	t1,t1,-600 # 80000f68 <test_end+0x5f8>
    800001c8:	03081933          	mulh	s2,a6,a6
    800001cc:	6c400713          	li	a4,1732
    800001d0:	d1818c93          	addi	s9,gp,-744 # 80001c28 <_end+0x518>
    800001d4:	00001417          	auipc	s0,0x1
    800001d8:	17540413          	addi	s0,s0,373 # 80001349 <test_memory+0x49>
    800001dc:	02b58d33          	mul	s10,a1,a1
    800001e0:	e3b00b13          	li	s6,-453
    800001e4:	b6918b93          	addi	s7,gp,-1175 # 80001a79 <_end+0x369>
    800001e8:	416b52b3          	sra	t0,s6,s6
    800001ec:	00100493          	li	s1,1
    800001f0:	1dc00213          	li	tp,476
    800001f4:	74e31c03          	lh	s8,1870(t1)
    800001f8:	0103d89b          	srliw	a7,t2,0x10
    800001fc:	02424e33          	div	t3,tp,tp
    80000200:	03f49493          	slli	s1,s1,0x3f
    80000204:	00001197          	auipc	gp,0x1
    80000208:	0d818193          	addi	gp,gp,216 # 800012dc <reg_x27_output+0x4>
    8000020c:	000e8093          	mv	ra,t4
    80000210:	f1818513          	addi	a0,gp,-232 # 80001e28 <_end+0x718>
    80000214:	f3218e93          	addi	t4,gp,-206 # 80001e42 <_end+0x732>
    80000218:	84ceaf23          	sw	a2,-1954(t4)
    8000021c:	40e9ddbb          	sraw	s11,s3,a4
    80000220:	d5800d13          	li	s10,-680
    80000224:	37100813          	li	a6,881
    80000228:	3ef1ac23          	sw	a5,1016(gp) # 80002308 <__global_pointer$+0x3f8>
    8000022c:	2b400213          	li	tp,692
    80000230:	00008393          	mv	t2,ra
    80000234:	00001b17          	auipc	s6,0x1
    80000238:	b2eb0b13          	addi	s6,s6,-1234 # 80000d62 <test_end+0x3f2>
    8000023c:	d0800d93          	li	s11,-760
    80000240:	9cccbc23          	sd	a2,-1576(s9)
    80000244:	f2f4e9b7          	lui	s3,0xf2f4e
    80000248:	03c7cc33          	div	s8,a5,t3
    8000024c:	01ffc8b3          	xor	a7,t6,t6
    80000250:	ea709ce3          	bne	ra,t2,80000108 <crash_backward>
    80000254:	fff00f93          	li	t6,-1
    80000258:	0107c5b3          	xor	a1,a5,a6
    8000025c:	038a1613          	slli	a2,s4,0x38
    80000260:	38b45a83          	lhu	s5,907(s0)
    80000264:	dc1d8713          	addi	a4,s11,-575
    80000268:	61eb3b23          	sd	t5,1558(s6)
    8000026c:	a8cb8fa3          	sb	a2,-1377(s7)
    80000270:	b1f00913          	li	s2,-1249
    80000274:	891509a3          	sb	a7,-1901(a0)
    80000278:	019cd2b3          	srl	t0,s9,s9
    8000027c:	024d2333          	mulhsu	t1,s10,tp
    80000280:	41290ebb          	subw	t4,s2,s2
    80000284:	0bf00893          	li	a7,191
    80000288:	0339be33          	mulhu	t3,s3,s3
    8000028c:	00001a17          	auipc	s4,0x1
    80000290:	c10a0a13          	addi	s4,s4,-1008 # 80000e9c <test_end+0x52c>
    80000294:	2a800393          	li	t2,680
    80000298:	0278bcb3          	mulhu	s9,a7,t2
    8000029c:	009fcfb3          	xor	t6,t6,s1
    800002a0:	71ca2f03          	lw	t5,1820(s4)
    800002a4:	00001817          	auipc	a6,0x1
    800002a8:	ca180813          	addi	a6,a6,-863 # 80000f45 <test_end+0x5d5>
    800002ac:	73f80823          	sb	t6,1840(a6)
    800002b0:	64500093          	li	ra,1605
    800002b4:	01fe7133          	and	sp,t3,t6
    800002b8:	009166b3          	or	a3,sp,s1
    800002bc:	00109c3b          	sllw	s8,ra,ra
    800002c0:	e426d4e3          	bge	a3,sp,80000108 <crash_backward>
    800002c4:	400009bb          	negw	s3,zero
    800002c8:	0339cb33          	div	s6,s3,s3
    800002cc:	9db00d13          	li	s10,-1573
    800002d0:	0031bcb3          	sltu	s9,gp,gp
    800002d4:	03ad63bb          	remw	t2,s10,s10
    800002d8:	e4e00a93          	li	s5,-434
    800002dc:	00001497          	auipc	s1,0x1
    800002e0:	e2e48493          	addi	s1,s1,-466 # 8000110a <reg_x1_init+0x2>
    800002e4:	8e900913          	li	s2,-1815
    800002e8:	414a08bb          	subw	a7,s4,s4
    800002ec:	00001f17          	auipc	t5,0x1
    800002f0:	d91f0f13          	addi	t5,t5,-623 # 8000107d <fromhost+0x3d>
    800002f4:	3704d403          	lhu	s0,880(s1)
    800002f8:	00100713          	li	a4,1
    800002fc:	415ad233          	sra	tp,s5,s5
    80000300:	ea418393          	addi	t2,gp,-348 # 80001db4 <_end+0x6a4>
    80000304:	db900b13          	li	s6,-583
    80000308:	032959bb          	divuw	s3,s2,s2
    8000030c:	963cca13          	xori	s4,s9,-1693
    80000310:	c6818e93          	addi	t4,gp,-920 # 80001b78 <_end+0x468>
    80000314:	000b8e13          	mv	t3,s7
    80000318:	000e0b93          	mv	s7,t3
    8000031c:	8f23a423          	sw	s2,-1816(t2)
    80000320:	00001517          	auipc	a0,0x1
    80000324:	4ef50513          	addi	a0,a0,1263 # 8000180f <_end+0xff>
    80000328:	ce200893          	li	a7,-798
    8000032c:	018be133          	or	sp,s7,s8
    80000330:	dad511a3          	sh	a3,-605(a0)
    80000334:	03f71713          	slli	a4,a4,0x3f
    80000338:	031b74b3          	remu	s1,s6,a7
    8000033c:	35cf39a3          	sd	t3,851(t5)
    80000340:	35a00213          	li	tp,858
    80000344:	dd7e62e3          	bltu	t3,s7,80000108 <crash_backward>
    80000348:	02a11413          	slli	s0,sp,0x2a
    8000034c:	00100593          	li	a1,1
    80000350:	03f59593          	slli	a1,a1,0x3f
    80000354:	fff00a13          	li	s4,-1
    80000358:	02f7acb3          	mulhsu	s9,a5,a5
    8000035c:	00100f93          	li	t6,1
    80000360:	6fa00393          	li	t2,1786
    80000364:	005a8d33          	add	s10,s5,t0
    80000368:	03ff9f93          	slli	t6,t6,0x3f
    8000036c:	f4300993          	li	s3,-189
    80000370:	0333ab33          	mulhsu	s6,t2,s3
    80000374:	00e6d893          	srli	a7,a3,0xe
    80000378:	00001497          	auipc	s1,0x1
    8000037c:	2e648493          	addi	s1,s1,742 # 8000165e <test_memory+0x35e>
    80000380:	f004ab23          	sw	zero,-234(s1)
    80000384:	01ffd0b3          	srl	ra,t6,t6
    80000388:	00000413          	li	s0,0
    8000038c:	02426abb          	remw	s5,tp,tp
    80000390:	00001b97          	auipc	s7,0x1
    80000394:	ebeb8b93          	addi	s7,s7,-322 # 8000124e <reg_x9_output+0x6>
    80000398:	efa00093          	li	ra,-262
    8000039c:	fff00c13          	li	s8,-1
    800003a0:	a3aed683          	lhu	a3,-1478(t4)
    800003a4:	c3900893          	li	a7,-967
    800003a8:	00ba4a33          	xor	s4,s4,a1
    800003ac:	00000393          	li	t2,0
    800003b0:	cfd18513          	addi	a0,gp,-771 # 80001c0d <_end+0x4fd>
    800003b4:	01fc4c33          	xor	s8,s8,t6
    800003b8:	fff00613          	li	a2,-1
    800003bc:	b2900993          	li	s3,-1239
    800003c0:	018c7833          	and	a6,s8,s8
    800003c4:	01497133          	and	sp,s2,s4
    800003c8:	00001217          	auipc	tp,0x1
    800003cc:	f6620213          	addi	tp,tp,-154 # 8000132e <test_memory+0x2e>
    800003d0:	0139ee33          	or	t3,s3,s3
    800003d4:	4f700a93          	li	s5,1271
    800003d8:	00001697          	auipc	a3,0x1
    800003dc:	bcc68693          	addi	a3,a3,-1076 # 80000fa4 <test_end+0x634>
    800003e0:	02109b33          	mulh	s6,ra,ra
    800003e4:	00e64633          	xor	a2,a2,a4
    800003e8:	0358cd3b          	divw	s10,a7,s5
    800003ec:	74200b13          	li	s6,1858
    800003f0:	f1b00493          	li	s1,-229
    800003f4:	00cb541b          	srliw	s0,s6,0xc
    800003f8:	00001e17          	auipc	t3,0x1
    800003fc:	a8ae0e13          	addi	t3,t3,-1398 # 80000e82 <test_end+0x512>
    80000400:	01fae2b3          	or	t0,s5,t6
    80000404:	d05802e3          	beq	a6,t0,80000108 <crash_backward>
    80000408:	684e4383          	lbu	t2,1668(t3)
    8000040c:	1ce00993          	li	s3,462
    80000410:	413b50b3          	sra	ra,s6,s3
    80000414:	57369523          	sh	s3,1386(a3)
    80000418:	15223123          	sd	s2,322(tp) # 142 <_start-0x7ffffebe>
    8000041c:	8a352e83          	lw	t4,-1885(a0)
    80000420:	00c5f333          	and	t1,a1,a2
    80000424:	384bdc83          	lhu	s9,900(s7)
    80000428:	0294cf33          	div	t5,s1,s1
    8000042c:	00b3e7b3          	or	a5,t2,a1
    80000430:	00001117          	auipc	sp,0x1
    80000434:	a9110113          	addi	sp,sp,-1391 # 80000ec1 <test_end+0x551>
    80000438:	bcd00a13          	li	s4,-1075
    8000043c:	95900493          	li	s1,-1703
    80000440:	00001e17          	auipc	t3,0x1
    80000444:	036e0e13          	addi	t3,t3,54 # 80001476 <test_memory+0x176>
    80000448:	d6d18513          	addi	a0,gp,-659 # 80001c7d <_end+0x56d>
    8000044c:	41290db3          	sub	s11,s2,s2
    80000450:	03bdc9b3          	div	s3,s11,s11
    80000454:	8a250f03          	lb	t5,-1886(a0)
    80000458:	b1e00593          	li	a1,-1250
    8000045c:	00528bbb          	addw	s7,t0,t0
    80000460:	0094b8b3          	sltu	a7,s1,s1
    80000464:	03bda6b3          	mulhsu	a3,s11,s11
    80000468:	00100f13          	li	t5,1
    8000046c:	d38a0293          	addi	t0,s4,-712
    80000470:	8ee00513          	li	a0,-1810
    80000474:	a7900413          	li	s0,-1415
    80000478:	03ff1f13          	slli	t5,t5,0x3f
    8000047c:	00001e97          	auipc	t4,0x1
    80000480:	919e8e93          	addi	t4,t4,-1767 # 80000d95 <test_end+0x425>
    80000484:	e9ee0083          	lb	ra,-354(t3)
    80000488:	26100393          	li	t2,609
    8000048c:	05100d13          	li	s10,81
    80000490:	71f12b03          	lw	s6,1823(sp)
    80000494:	21800d93          	li	s11,536
    80000498:	abe58813          	addi	a6,a1,-1346
    8000049c:	4cb87063          	bgeu	a6,a1,8000095c <crash_forward>
    800004a0:	91d18e13          	addi	t3,gp,-1763 # 8000182d <_end+0x11d>
    800004a4:	40a506bb          	subw	a3,a0,a0
    800004a8:	d1e00f93          	li	t6,-738
    800004ac:	fff00993          	li	s3,-1
    800004b0:	01e9c9b3          	xor	s3,s3,t5
    800004b4:	01a39c3b          	sllw	s8,t2,s10
    800004b8:	01bdc4b3          	xor	s1,s11,s11
    800004bc:	01f467b3          	or	a5,s0,t6
    800004c0:	00001217          	auipc	tp,0x1
    800004c4:	2bf20213          	addi	tp,tp,703 # 8000177f <_end+0x6f>
    800004c8:	00ec1cbb          	sllw	s9,s8,a4
    800004cc:	c81e27a3          	sw	ra,-881(t3)
    800004d0:	00e361b3          	or	gp,t1,a4
    800004d4:	00001917          	auipc	s2,0x1
    800004d8:	dfd90913          	addi	s2,s2,-515 # 800012d1 <reg_x26_output+0x1>
    800004dc:	d95206a3          	sb	s5,-627(tp) # fffffffffffffd8d <__global_pointer$+0xffffffff7fffde7d>
    800004e0:	01ae3133          	sltu	sp,t3,s10
    800004e4:	c261d2e3          	bge	gp,t1,80000108 <crash_backward>
    800004e8:	777eda83          	lhu	s5,1911(t4)
    800004ec:	e2700e93          	li	t4,-473
    800004f0:	6fc23693          	sltiu	a3,tp,1788
    800004f4:	02d6e3b3          	rem	t2,a3,a3
    800004f8:	dbc52813          	slti	a6,a0,-580
    800004fc:	7f400313          	li	t1,2036
    80000500:	000e0a13          	mv	s4,t3
    80000504:	00001617          	auipc	a2,0x1
    80000508:	c3960613          	addi	a2,a2,-967 # 8000113d <reg_x7_init+0x5>
    8000050c:	23991b03          	lh	s6,569(s2)
    80000510:	01ce6233          	or	tp,t3,t3
    80000514:	02635cb3          	divu	s9,t1,t1
    80000518:	86200813          	li	a6,-1950
    8000051c:	2ef66183          	lwu	gp,751(a2)
    80000520:	000a0d93          	mv	s11,s4
    80000524:	00100093          	li	ra,1
    80000528:	01e91e3b          	sllw	t3,s2,t5
    8000052c:	021b16b3          	mulh	a3,s6,ra
    80000530:	03d4fcb3          	remu	s9,s1,t4
    80000534:	7c616913          	ori	s2,sp,1990
    80000538:	013cfbb3          	and	s7,s9,s3
    8000053c:	03cb27b3          	mulhsu	a5,s6,t3
    80000540:	e2000113          	li	sp,-480
    80000544:	8bf00213          	li	tp,-1857
    80000548:	03f09093          	slli	ra,ra,0x3f
    8000054c:	00001917          	auipc	s2,0x1
    80000550:	96690913          	addi	s2,s2,-1690 # 80000eb2 <test_end+0x542>
    80000554:	a6000313          	li	t1,-1440
    80000558:	1cd00593          	li	a1,461
    8000055c:	42fb5193          	srai	gp,s6,0x2f
    80000560:	00621a3b          	sllw	s4,tp,t1
    80000564:	00000797          	auipc	a5,0x0
    80000568:	61d78793          	addi	a5,a5,1565 # 80000b81 <test_end+0x211>
    8000056c:	030803b3          	mul	t2,a6,a6
    80000570:	f7c00293          	li	t0,-132
    80000574:	36c00613          	li	a2,876
    80000578:	fff00c13          	li	s8,-1
    8000057c:	63991123          	sh	s9,1570(s2)
    80000580:	dd2e8713          	addi	a4,t4,-558
    80000584:	001c4c33          	xor	s8,s8,ra
    80000588:	00528d33          	add	s10,t0,t0
    8000058c:	fa800d93          	li	s11,-88
    80000590:	58a00513          	li	a0,1418
    80000594:	02216ab3          	rem	s5,sp,sp
    80000598:	0189f4b3          	and	s1,s3,s8
    8000059c:	b7d776e3          	bgeu	a4,t4,80000108 <crash_backward>
    800005a0:	03b65b33          	divu	s6,a2,s11
    800005a4:	00a58433          	add	s0,a1,a0
    800005a8:	0014efb3          	or	t6,s1,ra
    800005ac:	01e868b3          	or	a7,a6,t5
    800005b0:	2e100413          	li	s0,737
    800005b4:	13100313          	li	t1,305
    800005b8:	16300513          	li	a0,355
    800005bc:	00001e17          	auipc	t3,0x1
    800005c0:	21be0e13          	addi	t3,t3,539 # 800017d7 <_end+0xc7>
    800005c4:	03adc733          	div	a4,s11,s10
    800005c8:	42b00893          	li	a7,1067
    800005cc:	73700993          	li	s3,1847
    800005d0:	0eb00d13          	li	s10,235
    800005d4:	4158d71b          	sraiw	a4,a7,0x15
    800005d8:	ae600613          	li	a2,-1306
    800005dc:	b0d00a93          	li	s5,-1267
    800005e0:	0105db93          	srli	s7,a1,0x10
    800005e4:	00001197          	auipc	gp,0x1
    800005e8:	8ce18193          	addi	gp,gp,-1842 # 80000eb2 <test_end+0x542>
    800005ec:	0158b833          	sltu	a6,a7,s5
    800005f0:	b24e1aa3          	sh	tp,-1227(t3)
    800005f4:	6de19283          	lh	t0,1758(gp) # 800025ee <__global_pointer$+0x6de>
    800005f8:	4ac00c93          	li	s9,1196
    800005fc:	02cd2a33          	mulhsu	s4,s10,a2
    80000600:	039455bb          	divuw	a1,s0,s9
    80000604:	00100393          	li	t2,1
    80000608:	039cff33          	remu	t5,s9,s9
    8000060c:	0135523b          	srlw	tp,a0,s3
    80000610:	03f39393          	slli	t2,t2,0x3f
    80000614:	fff00113          	li	sp,-1
    80000618:	7877a683          	lw	a3,1927(a5)
    8000061c:	05100913          	li	s2,81
    80000620:	00714133          	xor	sp,sp,t2
    80000624:	03237b33          	remu	s6,t1,s2
    80000628:	00217db3          	and	s11,sp,sp
    8000062c:	9fa18493          	addi	s1,gp,-1542 # 8000190a <_end+0x1fa>
    80000630:	00001697          	auipc	a3,0x1
    80000634:	a7468693          	addi	a3,a3,-1420 # 800010a4 <fromhost+0x64>
    80000638:	68700f13          	li	t5,1671
    8000063c:	02d89f93          	slli	t6,a7,0x2d
    80000640:	40e9dd3b          	sraw	s10,s3,a4
    80000644:	00100e13          	li	t3,1
    80000648:	00001317          	auipc	t1,0x1
    8000064c:	b7b30313          	addi	t1,t1,-1157 # 800011c3 <reg_x24_init+0x3>
    80000650:	00ec9a1b          	slliw	s4,s9,0xe
    80000654:	53bf0813          	addi	a6,t5,1339
    80000658:	00000713          	li	a4,0
    8000065c:	03fe1e13          	slli	t3,t3,0x3f
    80000660:	14132ea3          	sw	ra,349(t1)
    80000664:	fff00c93          	li	s9,-1
    80000668:	00060f93          	mv	t6,a2
    8000066c:	f3a00793          	li	a5,-198
    80000670:	00000413          	li	s0,0
    80000674:	01ccccb3          	xor	s9,s9,t3
    80000678:	007deeb3          	or	t4,s11,t2
    8000067c:	00001517          	auipc	a0,0x1
    80000680:	f3e50513          	addi	a0,a0,-194 # 800015ba <test_memory+0x2ba>
    80000684:	000f8d13          	mv	s10,t6
    80000688:	76d00093          	li	ra,1901
    8000068c:	00001c17          	auipc	s8,0x1
    80000690:	a80c0c13          	addi	s8,s8,-1408 # 8000110c <reg_x1_init+0x4>
    80000694:	01917233          	and	tp,sp,s9
    80000698:	00001a97          	auipc	s5,0x1
    8000069c:	850a8a93          	addi	s5,s5,-1968 # 80000ee8 <test_end+0x578>
    800006a0:	02cf3bb3          	mulhu	s7,t5,a2
    800006a4:	2bdd8c63          	beq	s11,t4,8000095c <crash_forward>
    800006a8:	dee00993          	li	s3,-530
    800006ac:	00c67d33          	and	s10,a2,a2
    800006b0:	6e510393          	addi	t2,sp,1765
    800006b4:	00f7d93b          	srlw	s2,a5,a5
    800006b8:	bdc00d93          	li	s11,-1060
    800006bc:	f7a55283          	lhu	t0,-134(a0)
    800006c0:	7b408b13          	addi	s6,ra,1972
    800006c4:	0118ca33          	xor	s4,a7,a7
    800006c8:	81700413          	li	s0,-2025
    800006cc:	028defbb          	remw	t6,s11,s0
    800006d0:	a966fb93          	andi	s7,a3,-1386
    800006d4:	af818e93          	addi	t4,gp,-1288 # 80001a08 <_end+0x2f8>
    800006d8:	bb64b883          	ld	a7,-1098(s1)
    800006dc:	00001317          	auipc	t1,0x1
    800006e0:	b8630313          	addi	t1,t1,-1146 # 80001262 <reg_x12_output+0x2>
    800006e4:	c2b18413          	addi	s0,gp,-981 # 80001b3b <_end+0x42b>
    800006e8:	0339e1b3          	rem	gp,s3,s3
    800006ec:	015a9133          	sll	sp,s5,s5
    800006f0:	c7200913          	li	s2,-910
    800006f4:	a8142d83          	lw	s11,-1407(s0)
    800006f8:	bb6ed703          	lhu	a4,-1098(t4)
    800006fc:	5d4aae23          	sw	s4,1500(s5)
    80000700:	00001417          	auipc	s0,0x1
    80000704:	bdc40413          	addi	s0,s0,-1060 # 800012dc <reg_x27_output+0x4>
    80000708:	6fef3293          	sltiu	t0,t5,1790
    8000070c:	fe800993          	li	s3,-24
    80000710:	35a31c23          	sh	s10,856(t1)
    80000714:	24006463          	bltu	zero,zero,8000095c <crash_forward>
    80000718:	03290fb3          	mul	t6,s2,s2
    8000071c:	01c265b3          	or	a1,tp,t3
    80000720:	e5d00a93          	li	s5,-419
    80000724:	0242cfbb          	divw	t6,t0,tp
    80000728:	2ca6d603          	lhu	a2,714(a3)
    8000072c:	241c1f23          	sh	ra,606(s8)
    80000730:	03398db3          	mul	s11,s3,s3
    80000734:	021efa33          	remu	s4,t4,ra
    80000738:	9de868e3          	bltu	a6,t5,80000108 <crash_backward>
    8000073c:	00098f93          	mv	t6,s3
    80000740:	a5600913          	li	s2,-1450
    80000744:	00000c17          	auipc	s8,0x0
    80000748:	7cac0c13          	addi	s8,s8,1994 # 80000f0e <test_end+0x59e>
    8000074c:	00001e97          	auipc	t4,0x1
    80000750:	aa3e8e93          	addi	t4,t4,-1373 # 800011ef <reg_x29_init+0x7>
    80000754:	000b8713          	mv	a4,s7
    80000758:	4f2c0523          	sb	s2,1258(s8)
    8000075c:	68700813          	li	a6,1671
    80000760:	67400513          	li	a0,1652
    80000764:	8b900d93          	li	s11,-1863
    80000768:	09046b03          	lwu	s6,144(s0)
    8000076c:	00100093          	li	ra,1
    80000770:	01082f33          	slt	t5,a6,a6
    80000774:	00000c17          	auipc	s8,0x0
    80000778:	74ac0c13          	addi	s8,s8,1866 # 80000ebe <test_end+0x54e>
    8000077c:	03bdc9b3          	div	s3,s11,s11
    80000780:	92890613          	addi	a2,s2,-1752
    80000784:	00100b93          	li	s7,1
    80000788:	03fb9b93          	slli	s7,s7,0x3f
    8000078c:	3e1ec303          	lbu	t1,993(t4)
    80000790:	afc18a13          	addi	s4,gp,-1284 # 80001a0c <_end+0x2fc>
    80000794:	fff00393          	li	t2,-1
    80000798:	000f8693          	mv	a3,t6
    8000079c:	0173c3b3          	xor	t2,t2,s7
    800007a0:	40aad133          	sra	sp,s5,a0
    800007a4:	007177b3          	and	a5,sp,t2
    800007a8:	017fed33          	or	s10,t6,s7
    800007ac:	b12a1723          	sh	s2,-1266(s4)
    800007b0:	02cdd533          	divu	a0,s11,a2
    800007b4:	03f09093          	slli	ra,ra,0x3f
    800007b8:	00000c93          	li	s9,0
    800007bc:	00000b13          	li	s6,0
    800007c0:	00b5fa33          	and	s4,a1,a1
    800007c4:	fff00493          	li	s1,-1
    800007c8:	19a7fa63          	bgeu	a5,s10,8000095c <crash_forward>
    800007cc:	4c2c3923          	sd	sp,1234(s8)
    800007d0:	0014c4b3          	xor	s1,s1,ra
    800007d4:	3d500e13          	li	t3,981
    800007d8:	00001417          	auipc	s0,0x1
    800007dc:	d1e40413          	addi	s0,s0,-738 # 800014f6 <test_memory+0x1f6>
    800007e0:	e1642103          	lw	sp,-490(s0)
    800007e4:	ef500a13          	li	s4,-267
    800007e8:	3c96ceb7          	lui	t4,0x3c96c
    800007ec:	c3d00a93          	li	s5,-963
    800007f0:	009971b3          	and	gp,s2,s1
    800007f4:	df900613          	li	a2,-519
    800007f8:	02d6bd33          	mulhu	s10,a3,a3
    800007fc:	f5000d93          	li	s11,-176
    80000800:	015e1933          	sll	s2,t3,s5
    80000804:	00c65333          	srl	t1,a2,a2
    80000808:	5a300993          	li	s3,1443
    8000080c:	01bdff33          	and	t5,s11,s11
    80000810:	00070293          	mv	t0,a4
    80000814:	8f6ccae3          	blt	s9,s6,80000108 <crash_backward>
    80000818:	0011e8b3          	or	a7,gp,ra
    8000081c:	e4a00593          	li	a1,-438
    80000820:	00001797          	auipc	a5,0x1
    80000824:	bfd78793          	addi	a5,a5,-1027 # 8000141d <test_memory+0x11d>
    80000828:	034a3833          	mulhu	a6,s4,s4
    8000082c:	16579b83          	lh	s7,357(a5)
    80000830:	00b9a233          	slt	tp,s3,a1
    80000834:	416b5a33          	sra	s4,s6,s6
    80000838:	ea300d13          	li	s10,-349
    8000083c:	69400513          	li	a0,1684
    80000840:	56900d93          	li	s11,1385
    80000844:	c67be613          	ori	a2,s7,-921
    80000848:	00001a97          	auipc	s5,0x1
    8000084c:	86aa8a93          	addi	s5,s5,-1942 # 800010b2 <fromhost+0x72>
    80000850:	22900393          	li	t2,553
    80000854:	69800b93          	li	s7,1688
    80000858:	01ad093b          	addw	s2,s10,s10
    8000085c:	4ac20793          	addi	a5,tp,1196 # 4ac <_start-0x7ffffb54>
    80000860:	411988b3          	sub	a7,s3,a7
    80000864:	53300993          	li	s3,1331
    80000868:	40ffd11b          	sraiw	sp,t6,0xf
    8000086c:	410082bb          	subw	t0,ra,a6
    80000870:	00000e17          	auipc	t3,0x0
    80000874:	349e0e13          	addi	t3,t3,841 # 80000bb9 <test_end+0x249>
    80000878:	a3d00413          	li	s0,-1475
    8000087c:	0333c4b3          	div	s1,t2,s3
    80000880:	03b54eb3          	div	t4,a0,s11
    80000884:	b3218313          	addi	t1,gp,-1230 # 80001a42 <_end+0x332>
    80000888:	c2534703          	lbu	a4,-987(t1)
    8000088c:	7eae33a3          	sd	a0,2023(t3)
    80000890:	017b86b3          	add	a3,s7,s7
    80000894:	00001c17          	auipc	s8,0x1
    80000898:	d72c0c13          	addi	s8,s8,-654 # 80001606 <test_memory+0x306>
    8000089c:	00001c97          	auipc	s9,0x1
    800008a0:	8d8c8c93          	addi	s9,s9,-1832 # 80001174 <reg_x14_init+0x4>
    800008a4:	00421f3b          	sllw	t5,tp,tp
    800008a8:	d4100b13          	li	s6,-703
    800008ac:	4e6ab583          	ld	a1,1254(s5)
    800008b0:	036b71bb          	remuw	gp,s6,s6
    800008b4:	61500213          	li	tp,1557
    800008b8:	00001a17          	auipc	s4,0x1
    800008bc:	e63a0a13          	addi	s4,s4,-413 # 8000171b <_end+0xb>
    800008c0:	00441fb3          	sll	t6,s0,tp
    800008c4:	420ca223          	sw	zero,1060(s9)
    800008c8:	da7a13a3          	sh	t2,-601(s4)
    800008cc:	ebac5803          	lhu	a6,-326(s8)
    800008d0:	0040006f          	j	800008d4 <reg_dump>

00000000800008d4 <reg_dump>:
    800008d4:	00001097          	auipc	ra,0x1
    800008d8:	e2c08093          	addi	ra,ra,-468 # 80001700 <loop_count>
    800008dc:	0000a103          	lw	sp,0(ra)
    800008e0:	fff10193          	addi	gp,sp,-1
    800008e4:	0030a023          	sw	gp,0(ra)
    800008e8:	8c0110e3          	bnez	sp,800001a8 <pseg_0>
    800008ec:	00001097          	auipc	ra,0x1
    800008f0:	91408093          	addi	ra,ra,-1772 # 80001200 <begin_signature>
    800008f4:	0000b023          	sd	zero,0(ra)
    800008f8:	0020b823          	sd	sp,16(ra)
    800008fc:	0030bc23          	sd	gp,24(ra)
    80000900:	0240b023          	sd	tp,32(ra)
    80000904:	0250b423          	sd	t0,40(ra)
    80000908:	0270bc23          	sd	t2,56(ra)
    8000090c:	0480b023          	sd	s0,64(ra)
    80000910:	0490b423          	sd	s1,72(ra)
    80000914:	04a0b823          	sd	a0,80(ra)
    80000918:	04b0bc23          	sd	a1,88(ra)
    8000091c:	06c0b023          	sd	a2,96(ra)
    80000920:	06d0b423          	sd	a3,104(ra)
    80000924:	06e0b823          	sd	a4,112(ra)
    80000928:	06f0bc23          	sd	a5,120(ra)
    8000092c:	0900b023          	sd	a6,128(ra)
    80000930:	0910b423          	sd	a7,136(ra)
    80000934:	0920b823          	sd	s2,144(ra)
    80000938:	0930bc23          	sd	s3,152(ra)
    8000093c:	0b60b823          	sd	s6,176(ra)
    80000940:	0b70bc23          	sd	s7,184(ra)
    80000944:	0da0b823          	sd	s10,208(ra)
    80000948:	0db0bc23          	sd	s11,216(ra)
    8000094c:	0fd0b423          	sd	t4,232(ra)
    80000950:	0fe0b823          	sd	t5,240(ra)
    80000954:	0ff0bc23          	sd	t6,248(ra)
    80000958:	0180006f          	j	80000970 <test_end>

000000008000095c <crash_forward>:
    8000095c:	0ff0000f          	fence
    80000960:	00018063          	beqz	gp,80000960 <crash_forward+0x4>
    80000964:	00119193          	slli	gp,gp,0x1
    80000968:	0011e193          	ori	gp,gp,1
    8000096c:	00000073          	ecall

0000000080000970 <test_end>:
    80000970:	0ff0000f          	fence
    80000974:	00100193          	li	gp,1
    80000978:	00000073          	ecall
    8000097c:	c0001073          	unimp
    80000980:	0000                	unimp
	...

Disassembly of section .tohost:

0000000080001000 <tohost>:
	...

0000000080001040 <fromhost>:
	...
