
test.elf:     file format elf64-littleriscv


Disassembly of section .text.init:

0000000080000000 <_start>:
    80000000:	0580006f          	j	80000058 <reset_vector>

0000000080000004 <trap_vector>:
    80000004:	34202f73          	csrr	t5,mcause
    80000008:	00800f93          	li	t6,8
    8000000c:	05ff0063          	beq	t5,t6,8000004c <write_tohost>
    80000010:	00900f93          	li	t6,9
    80000014:	03ff0c63          	beq	t5,t6,8000004c <write_tohost>
    80000018:	00b00f93          	li	t6,11
    8000001c:	03ff0863          	beq	t5,t6,8000004c <write_tohost>
    80000020:	00000f13          	li	t5,0
    80000024:	000f0463          	beqz	t5,8000002c <trap_vector+0x28>
    80000028:	000f0067          	jr	t5
    8000002c:	34202f73          	csrr	t5,mcause
    80000030:	000f5463          	bgez	t5,80000038 <handle_exception>
    80000034:	0140006f          	j	80000048 <other_exception>

0000000080000038 <handle_exception>:
    80000038:	34102e73          	csrr	t3,mepc
    8000003c:	004e0e13          	addi	t3,t3,4
    80000040:	341e1073          	csrw	mepc,t3
    80000044:	30200073          	mret

0000000080000048 <other_exception>:
    80000048:	5391e193          	ori	gp,gp,1337

000000008000004c <write_tohost>:
    8000004c:	00001f17          	auipc	t5,0x1
    80000050:	fa3f2a23          	sw	gp,-76(t5) # 80001000 <tohost>
    80000054:	ff9ff06f          	j	8000004c <write_tohost>

0000000080000058 <reset_vector>:
    80000058:	f1402573          	csrr	a0,mhartid
    8000005c:	00051063          	bnez	a0,8000005c <reset_vector+0x4>
    80000060:	00000297          	auipc	t0,0x0
    80000064:	01028293          	addi	t0,t0,16 # 80000070 <reset_vector+0x18>
    80000068:	30529073          	csrw	mtvec,t0
    8000006c:	18005073          	csrwi	satp,0
    80000070:	00000297          	auipc	t0,0x0
    80000074:	01c28293          	addi	t0,t0,28 # 8000008c <reset_vector+0x34>
    80000078:	30529073          	csrw	mtvec,t0
    8000007c:	fff00293          	li	t0,-1
    80000080:	3b029073          	csrw	pmpaddr0,t0
    80000084:	01f00293          	li	t0,31
    80000088:	3a029073          	csrw	pmpcfg0,t0
    8000008c:	00000297          	auipc	t0,0x0
    80000090:	01828293          	addi	t0,t0,24 # 800000a4 <reset_vector+0x4c>
    80000094:	30529073          	csrw	mtvec,t0
    80000098:	30205073          	csrwi	medeleg,0
    8000009c:	30305073          	csrwi	mideleg,0
    800000a0:	30405073          	csrwi	mie,0
    800000a4:	00000193          	li	gp,0
    800000a8:	00000297          	auipc	t0,0x0
    800000ac:	f5c28293          	addi	t0,t0,-164 # 80000004 <trap_vector>
    800000b0:	30529073          	csrw	mtvec,t0
    800000b4:	00100513          	li	a0,1
    800000b8:	01f51513          	slli	a0,a0,0x1f
    800000bc:	00055863          	bgez	a0,800000cc <reset_vector+0x74>
    800000c0:	0ff0000f          	fence
    800000c4:	00100193          	li	gp,1
    800000c8:	00000073          	ecall
    800000cc:	00000293          	li	t0,0
    800000d0:	00028e63          	beqz	t0,800000ec <reset_vector+0x94>
    800000d4:	10529073          	csrw	stvec,t0
    800000d8:	0000b2b7          	lui	t0,0xb
    800000dc:	1092829b          	addiw	t0,t0,265
    800000e0:	30229073          	csrw	medeleg,t0
    800000e4:	30202373          	csrr	t1,medeleg
    800000e8:	f66290e3          	bne	t0,t1,80000048 <other_exception>
    800000ec:	30005073          	csrwi	mstatus,0
    800000f0:	00000297          	auipc	t0,0x0
    800000f4:	01428293          	addi	t0,t0,20 # 80000104 <reset_vector+0xac>
    800000f8:	34129073          	csrw	mepc,t0
    800000fc:	f1402573          	csrr	a0,mhartid
    80000100:	30200073          	mret
    80000104:	0180006f          	j	8000011c <test_start>

0000000080000108 <crash_backward>:
    80000108:	0ff0000f          	fence
    8000010c:	00018063          	beqz	gp,8000010c <crash_backward+0x4>
    80000110:	00119193          	slli	gp,gp,0x1
    80000114:	0011e193          	ori	gp,gp,1
    80000118:	00000073          	ecall

000000008000011c <test_start>:
    8000011c:	00001f97          	auipc	t6,0x1
    80000120:	fe4f8f93          	addi	t6,t6,-28 # 80001100 <hidden_data>
    80000124:	000fb003          	ld	zero,0(t6)
    80000128:	008fb083          	ld	ra,8(t6)
    8000012c:	010fb103          	ld	sp,16(t6)
    80000130:	018fb183          	ld	gp,24(t6)
    80000134:	020fb203          	ld	tp,32(t6)
    80000138:	028fb283          	ld	t0,40(t6)
    8000013c:	030fb303          	ld	t1,48(t6)
    80000140:	038fb383          	ld	t2,56(t6)
    80000144:	040fb403          	ld	s0,64(t6)
    80000148:	048fb483          	ld	s1,72(t6)
    8000014c:	050fb503          	ld	a0,80(t6)
    80000150:	058fb583          	ld	a1,88(t6)
    80000154:	060fb603          	ld	a2,96(t6)
    80000158:	068fb683          	ld	a3,104(t6)
    8000015c:	070fb703          	ld	a4,112(t6)
    80000160:	078fb783          	ld	a5,120(t6)
    80000164:	080fb803          	ld	a6,128(t6)
    80000168:	088fb883          	ld	a7,136(t6)
    8000016c:	090fb903          	ld	s2,144(t6)
    80000170:	098fb983          	ld	s3,152(t6)
    80000174:	0a0fba03          	ld	s4,160(t6)
    80000178:	0a8fba83          	ld	s5,168(t6)
    8000017c:	0b0fbb03          	ld	s6,176(t6)
    80000180:	0b8fbb83          	ld	s7,184(t6)
    80000184:	0c0fbc03          	ld	s8,192(t6)
    80000188:	0c8fbc83          	ld	s9,200(t6)
    8000018c:	0d0fbd03          	ld	s10,208(t6)
    80000190:	0d8fbd83          	ld	s11,216(t6)
    80000194:	0e0fbe03          	ld	t3,224(t6)
    80000198:	0e8fbe83          	ld	t4,232(t6)
    8000019c:	0f0fbf03          	ld	t5,240(t6)
    800001a0:	0f8fbf83          	ld	t6,248(t6)
    800001a4:	0040006f          	j	800001a8 <pseg_0>

00000000800001a8 <pseg_0>:
    800001a8:	00417fb3          	and	t6,sp,tp
    800001ac:	00b58ebb          	addw	t4,a1,a1
    800001b0:	407adbb3          	sra	s7,s5,t2
    800001b4:	46e83cb7          	lui	s9,0x46e83
    800001b8:	ed000213          	li	tp,-304
    800001bc:	4118833b          	subw	t1,a7,a7
    800001c0:	e3d00513          	li	a0,-451
    800001c4:	00001f17          	auipc	t5,0x1
    800001c8:	439f0f13          	addi	t5,t5,1081 # 800015fd <test_memory+0x2fd>
    800001cc:	00b58bb3          	add	s7,a1,a1
    800001d0:	ce518d13          	addi	s10,gp,-795 # 80001bf5 <_end+0x4e5>
    800001d4:	bb000813          	li	a6,-1104
    800001d8:	9ad18293          	addi	t0,gp,-1619 # 800018bd <_end+0x1ad>
    800001dc:	c1052793          	slti	a5,a0,-1008
    800001e0:	38000893          	li	a7,896
    800001e4:	be318613          	addi	a2,gp,-1053 # 80001af3 <_end+0x3e3>
    800001e8:	03025133          	divu	sp,tp,a6
    800001ec:	a0b18b13          	addi	s6,gp,-1525 # 8000191b <_end+0x20b>
    800001f0:	00b58ab3          	add	s5,a1,a1
    800001f4:	dfa00313          	li	t1,-518
    800001f8:	008c64b3          	or	s1,s8,s0
    800001fc:	00001197          	auipc	gp,0x1
    80000200:	01a18193          	addi	gp,gp,26 # 80001216 <reg_x2_output+0x6>
    80000204:	3c618903          	lb	s2,966(gp) # 800022d6 <__global_pointer$+0x3c6>
    80000208:	bbb00813          	li	a6,-1093
    8000020c:	00001697          	auipc	a3,0x1
    80000210:	a7068693          	addi	a3,a3,-1424 # 80000c7c <test_end+0x35c>
    80000214:	7d76ae23          	sw	s7,2012(a3)
    80000218:	03086233          	rem	tp,a6,a6
    8000021c:	0b7f2a03          	lw	s4,183(t5)
    80000220:	401a5e1b          	sraiw	t3,s4,0x1
    80000224:	9d264d83          	lbu	s11,-1582(a2)
    80000228:	a6f2ada3          	sw	a5,-1413(t0)
    8000022c:	00001097          	auipc	ra,0x1
    80000230:	5b808093          	addi	ra,ra,1464 # 800017e4 <_end+0xd4>
    80000234:	c5318f93          	addi	t6,gp,-941 # 80001b63 <_end+0x453>
    80000238:	411555b3          	sra	a1,a0,a7
    8000023c:	c700ac03          	lw	s8,-912(ra)
    80000240:	035afabb          	remuw	s5,s5,s5
    80000244:	00001717          	auipc	a4,0x1
    80000248:	47a70713          	addi	a4,a4,1146 # 800016be <test_memory+0x3be>
    8000024c:	00001c97          	auipc	s9,0x1
    80000250:	43fc8c93          	addi	s9,s9,1087 # 8000168b <test_memory+0x38b>
    80000254:	a05d0983          	lb	s3,-1531(s10)
    80000258:	e6a00b93          	li	s7,-406
    8000025c:	877fd403          	lhu	s0,-1929(t6)
    80000260:	017b87bb          	addw	a5,s7,s7
    80000264:	f3571e23          	sh	s5,-196(a4)
    80000268:	95a30e93          	addi	t4,t1,-1702
    8000026c:	00001217          	auipc	tp,0x1
    80000270:	9db20213          	addi	tp,tp,-1573 # 80000c47 <test_end+0x327>
    80000274:	b03b4383          	lbu	t2,-1277(s6)
    80000278:	b2318913          	addi	s2,gp,-1245 # 80001a33 <_end+0x323>
    8000027c:	6bd26683          	lwu	a3,1725(tp) # 6bd <_start-0x7ffff943>
    80000280:	d53ca6a3          	sw	s3,-691(s9)
    80000284:	8c6917a3          	sh	t1,-1841(s2)
    80000288:	0027949b          	slliw	s1,a5,0x2
    8000028c:	00001217          	auipc	tp,0x1
    80000290:	27b20213          	addi	tp,tp,635 # 80001507 <test_memory+0x207>
    80000294:	49400693          	li	a3,1172
    80000298:	02f298b3          	mulh	a7,t0,a5
    8000029c:	aeb00d13          	li	s10,-1301
    800002a0:	00001c97          	auipc	s9,0x1
    800002a4:	d9bc8c93          	addi	s9,s9,-613 # 8000103b <tohost+0x3b>
    800002a8:	406ca0a3          	sw	t1,1025(s9)
    800002ac:	0262f5bb          	remuw	a1,t0,t1
    800002b0:	00001517          	auipc	a0,0x1
    800002b4:	fed50513          	addi	a0,a0,-19 # 8000129d <reg_x19_output+0x5>
    800002b8:	00906933          	or	s2,zero,s1
    800002bc:	00d683bb          	addw	t2,a3,a3
    800002c0:	014a07bb          	addw	a5,s4,s4
    800002c4:	00001817          	auipc	a6,0x1
    800002c8:	1ac80813          	addi	a6,a6,428 # 80001470 <test_memory+0x170>
    800002cc:	02cf893b          	mulw	s2,t6,a2
    800002d0:	411ed59b          	sraiw	a1,t4,0x11
    800002d4:	c7000713          	li	a4,-912
    800002d8:	21900413          	li	s0,537
    800002dc:	00001797          	auipc	a5,0x1
    800002e0:	a2078793          	addi	a5,a5,-1504 # 80000cfc <test_end+0x3dc>
    800002e4:	02e752bb          	divuw	t0,a4,a4
    800002e8:	09c81f03          	lh	t5,156(a6)
    800002ec:	0b450c03          	lb	s8,180(a0)
    800002f0:	b8b00e13          	li	t3,-1141
    800002f4:	06524f83          	lbu	t6,101(tp) # 65 <_start-0x7fffff9b>
    800002f8:	00ec03b3          	add	t2,s8,a4
    800002fc:	00001117          	auipc	sp,0x1
    80000300:	28710113          	addi	sp,sp,647 # 80001583 <test_memory+0x283>
    80000304:	f3d00313          	li	t1,-195
    80000308:	34700193          	li	gp,839
    8000030c:	d7c18a93          	addi	s5,gp,-644 # 80001c8c <_end+0x57c>
    80000310:	028d5a33          	divu	s4,s10,s0
    80000314:	02330b3b          	mulw	s6,t1,gp
    80000318:	00001697          	auipc	a3,0x1
    8000031c:	04268693          	addi	a3,a3,66 # 8000135a <test_memory+0x5a>
    80000320:	e4fe0993          	addi	s3,t3,-433
    80000324:	00001897          	auipc	a7,0x1
    80000328:	13488893          	addi	a7,a7,308 # 80001458 <test_memory+0x158>
    8000032c:	ff36a323          	sw	s3,-26(a3)
    80000330:	dd3e6ce3          	bltu	t3,s3,80000108 <crash_backward>
    80000334:	90cae603          	lwu	a2,-1780(s5)
    80000338:	000b8313          	mv	t1,s7
    8000033c:	00001a17          	auipc	s4,0x1
    80000340:	f19a0a13          	addi	s4,s4,-231 # 80001255 <reg_x10_output+0x5>
    80000344:	453a2703          	lw	a4,1107(s4)
    80000348:	7fa00813          	li	a6,2042
    8000034c:	70300493          	li	s1,1795
    80000350:	03086633          	rem	a2,a6,a6
    80000354:	46700c13          	li	s8,1127
    80000358:	f5e00293          	li	t0,-162
    8000035c:	b1918193          	addi	gp,gp,-1255 # 80001a29 <_end+0x319>
    80000360:	0878a623          	sw	t2,140(a7)
    80000364:	02ec03bb          	mulw	t2,s8,a4
    80000368:	037b8eb3          	mul	t4,s7,s7
    8000036c:	015ad733          	srl	a4,s5,s5
    80000370:	00001a97          	auipc	s5,0x1
    80000374:	ab3a8a93          	addi	s5,s5,-1357 # 80000e23 <test_end+0x503>
    80000378:	025485b3          	mul	a1,s1,t0
    8000037c:	635ab203          	ld	tp,1589(s5)
    80000380:	b791d503          	lhu	a0,-1159(gp) # 80001a89 <_end+0x379>
    80000384:	00030e13          	mv	t3,t1
    80000388:	d80060e3          	bltu	zero,zero,80000108 <crash_backward>
    8000038c:	00001497          	auipc	s1,0x1
    80000390:	d3348493          	addi	s1,s1,-717 # 800010bf <fromhost+0x7f>
    80000394:	d2b00093          	li	ra,-725
    80000398:	48900613          	li	a2,1161
    8000039c:	00100a93          	li	s5,1
    800003a0:	96a00d93          	li	s11,-1686
    800003a4:	01315b83          	lhu	s7,19(sp)
    800003a8:	52400993          	li	s3,1316
    800003ac:	b7218d13          	addi	s10,gp,-1166 # 80001a82 <_end+0x372>
    800003b0:	36200e93          	li	t4,866
    800003b4:	abd00f13          	li	t5,-1347
    800003b8:	01ef5b3b          	srlw	s6,t5,t5
    800003bc:	03b08a3b          	mulw	s4,ra,s11
    800003c0:	03fa9a93          	slli	s5,s5,0x3f
    800003c4:	008403bb          	addw	t2,s0,s0
    800003c8:	d5c360e3          	bltu	t1,t3,80000108 <crash_backward>
    800003cc:	fff00713          	li	a4,-1
    800003d0:	a6ad5403          	lhu	s0,-1430(s10)
    800003d4:	b5e00213          	li	tp,-1186
    800003d8:	01ce193b          	sllw	s2,t3,t3
    800003dc:	40c6083b          	subw	a6,a2,a2
    800003e0:	01574733          	xor	a4,a4,s5
    800003e4:	00000913          	li	s2,0
    800003e8:	12700313          	li	t1,295
    800003ec:	57f48da3          	sb	t6,1403(s1)
    800003f0:	d8147b37          	lui	s6,0xd8147
    800003f4:	afa00e13          	li	t3,-1286
    800003f8:	00001417          	auipc	s0,0x1
    800003fc:	c7640413          	addi	s0,s0,-906 # 8000106e <fromhost+0x2e>
    80000400:	7b000193          	li	gp,1968
    80000404:	003232b3          	sltu	t0,tp,gp
    80000408:	2c8e8893          	addi	a7,t4,712
    8000040c:	34400d93          	li	s11,836
    80000410:	6447bc83          	ld	s9,1604(a5)
    80000414:	030852b3          	divu	t0,a6,a6
    80000418:	a9618493          	addi	s1,gp,-1386 # 800019a6 <_end+0x296>
    8000041c:	03c6b0b3          	mulhu	ra,a3,t3
    80000420:	41be0bb3          	sub	s7,t3,s11
    80000424:	00001817          	auipc	a6,0x1
    80000428:	34e80813          	addi	a6,a6,846 # 80001772 <_end+0x62>
    8000042c:	4fd8e063          	bltu	a7,t4,8000090c <crash_forward>
    80000430:	e1c81603          	lh	a2,-484(a6)
    80000434:	00ee7533          	and	a0,t3,a4
    80000438:	52544f03          	lbu	t5,1317(s0)
    8000043c:	015565b3          	or	a1,a0,s5
    80000440:	031033b3          	mulhu	t2,zero,a7
    80000444:	02f1d133          	divu	sp,gp,a5
    80000448:	00000a13          	li	s4,0
    8000044c:	00001b17          	auipc	s6,0x1
    80000450:	dc3b0b13          	addi	s6,s6,-573 # 8000120f <reg_x1_output+0x7>
    80000454:	00631d3b          	sllw	s10,t1,t1
    80000458:	cab508e3          	beq	a0,a1,80000108 <crash_backward>
    8000045c:	033c2fb3          	mulhsu	t6,s8,s3
    80000460:	9fc48203          	lb	tp,-1540(s1)
    80000464:	012a01bb          	addw	gp,s4,s2
    80000468:	480b03a3          	sb	zero,1159(s6)
    8000046c:	4b496063          	bltu	s2,s4,8000090c <crash_forward>
    80000470:	0318ad33          	mulhsu	s10,a7,a7
    80000474:	4099d393          	srai	t2,s3,0x9
    80000478:	00001d97          	auipc	s11,0x1
    8000047c:	dd8d8d93          	addi	s11,s11,-552 # 80001250 <reg_x10_output>
    80000480:	d3618e93          	addi	t4,gp,-714 # 80001c46 <_end+0x536>
    80000484:	bbc00513          	li	a0,-1092
    80000488:	2c000b93          	li	s7,704
    8000048c:	00001197          	auipc	gp,0x1
    80000490:	c7f18193          	addi	gp,gp,-897 # 8000110b <reg_x1_init+0x3>
    80000494:	80dec483          	lbu	s1,-2035(t4)
    80000498:	00001297          	auipc	t0,0x1
    8000049c:	02d28293          	addi	t0,t0,45 # 800014c5 <test_memory+0x1c5>
    800004a0:	037bb133          	mulhu	sp,s7,s7
    800004a4:	0210c7b3          	div	a5,ra,ra
    800004a8:	40ebd0bb          	sraw	ra,s7,a4
    800004ac:	02a52233          	mulhsu	tp,a0,a0
    800004b0:	00001c17          	auipc	s8,0x1
    800004b4:	0ebc0c13          	addi	s8,s8,235 # 8000159b <test_memory+0x29b>
    800004b8:	17edb823          	sd	t5,368(s11)
    800004bc:	00001617          	auipc	a2,0x1
    800004c0:	93f60613          	addi	a2,a2,-1729 # 80000dfb <test_end+0x4db>
    800004c4:	006a40b3          	xor	ra,s4,t1
    800004c8:	baa00e93          	li	t4,-1110
    800004cc:	005c09b3          	add	s3,s8,t0
    800004d0:	62a636a3          	sd	a0,1581(a2)
    800004d4:	00100413          	li	s0,1
    800004d8:	03f41413          	slli	s0,s0,0x3f
    800004dc:	00001d17          	auipc	s10,0x1
    800004e0:	f1cd0d13          	addi	s10,s10,-228 # 800013f8 <test_memory+0xf8>
    800004e4:	22ed1703          	lh	a4,558(s10)
    800004e8:	fff00e13          	li	t3,-1
    800004ec:	008e4e33          	xor	t3,t3,s0
    800004f0:	00001697          	auipc	a3,0x1
    800004f4:	23c68693          	addi	a3,a3,572 # 8000172c <_end+0x1c>
    800004f8:	03e004b3          	mul	s1,zero,t5
    800004fc:	a3000793          	li	a5,-1488
    80000500:	00001317          	auipc	t1,0x1
    80000504:	15330313          	addi	t1,t1,339 # 80001653 <test_memory+0x353>
    80000508:	5cd19803          	lh	a6,1485(gp) # 800024dd <__global_pointer$+0x5cd>
    8000050c:	01ccf933          	and	s2,s9,t3
    80000510:	00001897          	auipc	a7,0x1
    80000514:	16888893          	addi	a7,a7,360 # 80001678 <test_memory+0x378>
    80000518:	00806a33          	or	s4,zero,s0
    8000051c:	08a315a3          	sh	a0,139(t1)
    80000520:	13fc12a3          	sh	t6,293(s8)
    80000524:	e7c6da83          	lhu	s5,-388(a3)
    80000528:	02fee3b3          	rem	t2,t4,a5
    8000052c:	014a7f33          	and	t5,s4,s4
    80000530:	bd497ce3          	bgeu	s2,s4,80000108 <crash_backward>
    80000534:	1fb2ab03          	lw	s6,507(t0)
    80000538:	98b00c93          	li	s9,-1653
    8000053c:	d2b8a823          	sw	a1,-720(a7)
    80000540:	c3000593          	li	a1,-976
    80000544:	00bc8fb3          	add	t6,s9,a1
    80000548:	be800393          	li	t2,-1048
    8000054c:	1b300b93          	li	s7,435
    80000550:	092b8693          	addi	a3,s7,146
    80000554:	9b838e93          	addi	t4,t2,-1608
    80000558:	88800213          	li	tp,-1912
    8000055c:	416b5133          	sra	sp,s6,s6
    80000560:	036de2bb          	remw	t0,s11,s6
    80000564:	1ae00f13          	li	t5,430
    80000568:	00001f97          	auipc	t6,0x1
    8000056c:	f46f8f93          	addi	t6,t6,-186 # 800014ae <test_memory+0x1ae>
    80000570:	ef6fbd23          	sd	s6,-262(t6)
    80000574:	0e900513          	li	a0,233
    80000578:	95700c13          	li	s8,-1705
    8000057c:	1f700b13          	li	s6,503
    80000580:	ae500713          	li	a4,-1307
    80000584:	dbc00913          	li	s2,-580
    80000588:	00526d33          	or	s10,tp,t0
    8000058c:	032577b3          	remu	a5,a0,s2
    80000590:	05600193          	li	gp,86
    80000594:	01295a33          	srl	s4,s2,s2
    80000598:	d0818993          	addi	s3,gp,-760 # 80001c18 <_end+0x508>
    8000059c:	d3700a93          	li	s5,-713
    800005a0:	b7d3e4e3          	bltu	t2,t4,80000108 <crash_backward>
    800005a4:	dbf70c93          	addi	s9,a4,-577
    800005a8:	8829d583          	lhu	a1,-1918(s3)
    800005ac:	00001617          	auipc	a2,0x1
    800005b0:	bc660613          	addi	a2,a2,-1082 # 80001172 <reg_x14_init+0x2>
    800005b4:	00001817          	auipc	a6,0x1
    800005b8:	00b80813          	addi	a6,a6,11 # 800015bf <test_memory+0x2bf>
    800005bc:	003c64b3          	or	s1,s8,gp
    800005c0:	e0780ea3          	sb	t2,-483(a6)
    800005c4:	2f761f23          	sh	s7,766(a2)
    800005c8:	02d0cdbb          	divw	s11,ra,a3
    800005cc:	37200293          	li	t0,882
    800005d0:	03e260bb          	remw	ra,tp,t5
    800005d4:	c5318c13          	addi	s8,gp,-941 # 80001b63 <_end+0x453>
    800005d8:	00f551b3          	srl	gp,a0,a5
    800005dc:	d6300c93          	li	s9,-669
    800005e0:	00001817          	auipc	a6,0x1
    800005e4:	eb880813          	addi	a6,a6,-328 # 80001498 <test_memory+0x198>
    800005e8:	a1c00793          	li	a5,-1508
    800005ec:	b0e71ee3          	bne	a4,a4,80000108 <crash_backward>
    800005f0:	02f7fdb3          	remu	s11,a5,a5
    800005f4:	c8618f93          	addi	t6,gp,-890 # 80001b96 <_end+0x486>
    800005f8:	6ce00993          	li	s3,1742
    800005fc:	c2aa8313          	addi	t1,s5,-982
    80000600:	07082903          	lw	s2,112(a6)
    80000604:	4176d6bb          	sraw	a3,a3,s7
    80000608:	4192d533          	sra	a0,t0,s9
    8000060c:	03c9c133          	div	sp,s3,t3
    80000610:	d7b00e93          	li	t4,-645
    80000614:	e6700413          	li	s0,-409
    80000618:	40840e33          	sub	t3,s0,s0
    8000061c:	0339a3b3          	mulhsu	t2,s3,s3
    80000620:	eb12de37          	lui	t3,0xeb12d
    80000624:	639b0893          	addi	a7,s6,1593
    80000628:	10200293          	li	t0,258
    8000062c:	41de85bb          	subw	a1,t4,t4
    80000630:	84afb703          	ld	a4,-1974(t6)
    80000634:	52300193          	li	gp,1315
    80000638:	40528cbb          	subw	s9,t0,t0
    8000063c:	b4e18b93          	addi	s7,gp,-1202 # 80001a5e <_end+0x34e>
    80000640:	036b053b          	mulw	a0,s6,s6
    80000644:	a59c3ea3          	sd	s9,-1443(s8)
    80000648:	c0abad23          	sw	a0,-998(s7)
    8000064c:	00001117          	auipc	sp,0x1
    80000650:	b7410113          	addi	sp,sp,-1164 # 800011c0 <reg_x24_init>
    80000654:	83000813          	li	a6,-2000
    80000658:	02060933          	mul	s2,a2,zero
    8000065c:	48c10403          	lb	s0,1164(sp)
    80000660:	01f339b3          	sltu	s3,t1,t6
    80000664:	98800313          	li	t1,-1656
    80000668:	00630cb3          	add	s9,t1,t1
    8000066c:	00001617          	auipc	a2,0x1
    80000670:	9bf60613          	addi	a2,a2,-1601 # 8000102b <tohost+0x2b>
    80000674:	89300e93          	li	t4,-1901
    80000678:	e6300c93          	li	s9,-413
    8000067c:	eb000993          	li	s3,-336
    80000680:	dc218d13          	addi	s10,gp,-574 # 80001cd2 <_end+0x5c2>
    80000684:	972d5d83          	lhu	s11,-1678(s10)
    80000688:	013cf333          	and	t1,s9,s3
    8000068c:	01de85bb          	addw	a1,t4,t4
    80000690:	4ea60483          	lb	s1,1258(a2)
    80000694:	00001a17          	auipc	s4,0x1
    80000698:	11ba0a13          	addi	s4,s4,283 # 800017af <_end+0x9f>
    8000069c:	00001117          	auipc	sp,0x1
    800006a0:	af210113          	addi	sp,sp,-1294 # 8000118e <reg_x17_init+0x6>
    800006a4:	32100b93          	li	s7,801
    800006a8:	c6ea0423          	sb	a4,-920(s4)
    800006ac:	9d300c93          	li	s9,-1581
    800006b0:	039ccebb          	divw	t4,s9,s9
    800006b4:	b4a18693          	addi	a3,gp,-1206 # 80001a5a <_end+0x34a>
    800006b8:	04a08893          	addi	a7,ra,74
    800006bc:	0301c233          	div	tp,gp,a6
    800006c0:	ac426313          	ori	t1,tp,-1340
    800006c4:	9a918913          	addi	s2,gp,-1623 # 800018b9 <_end+0x1a9>
    800006c8:	00001a17          	auipc	s4,0x1
    800006cc:	c74a0a13          	addi	s4,s4,-908 # 8000133c <test_memory+0x3c>
    800006d0:	a876ca83          	lbu	s5,-1401(a3)
    800006d4:	00001b17          	auipc	s6,0x1
    800006d8:	9bfb0b13          	addi	s6,s6,-1601 # 80001093 <fromhost+0x53>
    800006dc:	5f3b2ea3          	sw	s3,1533(s6)
    800006e0:	017befb3          	or	t6,s7,s7
    800006e4:	00001817          	auipc	a6,0x1
    800006e8:	a1f80813          	addi	a6,a6,-1505 # 80001103 <hidden_data+0x3>
    800006ec:	00100713          	li	a4,1
    800006f0:	83e00193          	li	gp,-1986
    800006f4:	03f71713          	slli	a4,a4,0x3f
    800006f8:	93c18d13          	addi	s10,gp,-1732 # 8000184c <_end+0x13c>
    800006fc:	d5792383          	lw	t2,-681(s2)
    80000700:	34385883          	lhu	a7,835(a6)
    80000704:	030869b3          	rem	s3,a6,a6
    80000708:	ce500f13          	li	t5,-795
    8000070c:	a5718493          	addi	s1,gp,-1449 # 80001967 <_end+0x257>
    80000710:	01bdb433          	sltu	s0,s11,s11
    80000714:	bc500d93          	li	s11,-1083
    80000718:	56313523          	sd	gp,1386(sp)
    8000071c:	03b1c233          	div	tp,gp,s11
    80000720:	00001617          	auipc	a2,0x1
    80000724:	f1860613          	addi	a2,a2,-232 # 80001638 <test_memory+0x338>
    80000728:	d7bd2823          	sw	s11,-656(s10)
    8000072c:	d364c583          	lbu	a1,-714(s1)
    80000730:	39ca6e83          	lwu	t4,924(s4)
    80000734:	9e500093          	li	ra,-1563
    80000738:	ea000293          	li	t0,-352
    8000073c:	4d400913          	li	s2,1236
    80000740:	00001197          	auipc	gp,0x1
    80000744:	e0d18193          	addi	gp,gp,-499 # 8000154d <test_memory+0x24d>
    80000748:	00001e97          	auipc	t4,0x1
    8000074c:	b44e8e93          	addi	t4,t4,-1212 # 8000128c <reg_x17_output+0x4>
    80000750:	00421a3b          	sllw	s4,tp,tp
    80000754:	03bd8ab3          	mul	s5,s11,s11
    80000758:	199ecb03          	lbu	s6,409(t4)
    8000075c:	0252883b          	mulw	a6,t0,t0
    80000760:	75500893          	li	a7,1877
    80000764:	06563023          	sd	t0,96(a2)
    80000768:	ee718ba3          	sb	t2,-265(gp) # 80001e07 <_end+0x6f7>
    8000076c:	10000313          	li	t1,256
    80000770:	001f67b3          	or	a5,t5,ra
    80000774:	18004c63          	bltz	zero,8000090c <crash_forward>
    80000778:	40fe5a9b          	sraiw	s5,t3,0xf
    8000077c:	00001b97          	auipc	s7,0x1
    80000780:	bb7b8b93          	addi	s7,s7,-1097 # 80001333 <test_memory+0x33>
    80000784:	d3000a13          	li	s4,-720
    80000788:	5b688f93          	addi	t6,a7,1462
    8000078c:	00472833          	slt	a6,a4,tp
    80000790:	cd900b13          	li	s6,-807
    80000794:	4b400593          	li	a1,1204
    80000798:	1fa00393          	li	t2,506
    8000079c:	00b582bb          	addw	t0,a1,a1
    800007a0:	00100c93          	li	s9,1
    800007a4:	0ef00613          	li	a2,239
    800007a8:	00c654bb          	srlw	s1,a2,a2
    800007ac:	03fc9c93          	slli	s9,s9,0x3f
    800007b0:	00790133          	add	sp,s2,t2
    800007b4:	26dbd983          	lhu	s3,621(s7)
    800007b8:	fff00693          	li	a3,-1
    800007bc:	0196c6b3          	xor	a3,a3,s9
    800007c0:	016a2233          	slt	tp,s4,s6
    800007c4:	fff00c13          	li	s8,-1
    800007c8:	00ec4c33          	xor	s8,s8,a4
    800007cc:	0186f533          	and	a0,a3,s8
    800007d0:	00e6ee33          	or	t3,a3,a4
    800007d4:	4063543b          	sraw	s0,t1,t1
    800007d8:	00de7db3          	and	s11,t3,a3
    800007dc:	019ded33          	or	s10,s11,s9
    800007e0:	13adf663          	bgeu	s11,s10,8000090c <crash_forward>
    800007e4:	03ed79bb          	remuw	s3,s10,t5
    800007e8:	14e00b13          	li	s6,334
    800007ec:	029c53bb          	divuw	t2,s8,s1
    800007f0:	4f100613          	li	a2,1265
    800007f4:	c2e00193          	li	gp,-978
    800007f8:	00000117          	auipc	sp,0x0
    800007fc:	5ef10113          	addi	sp,sp,1519 # 80000de7 <test_end+0x4c7>
    80000800:	11189663          	bne	a7,a7,8000090c <crash_forward>
    80000804:	69e114a3          	sh	t5,1673(sp)
    80000808:	036b00bb          	mulw	ra,s6,s6
    8000080c:	00100a93          	li	s5,1
    80000810:	56e00f93          	li	t6,1390
    80000814:	7e200213          	li	tp,2018
    80000818:	b3d18413          	addi	s0,gp,-1219 # 80001a4d <_end+0x33d>
    8000081c:	0250033b          	mulw	t1,zero,t0
    80000820:	94618813          	addi	a6,gp,-1722 # 80001856 <_end+0x146>
    80000824:	0af60713          	addi	a4,a2,175
    80000828:	d1268d93          	addi	s11,a3,-750
    8000082c:	0231f7bb          	remuw	a5,gp,gp
    80000830:	03fa9a93          	slli	s5,s5,0x3f
    80000834:	003698b3          	sll	a7,a3,gp
    80000838:	004202bb          	addw	t0,tp,tp
    8000083c:	fff00513          	li	a0,-1
    80000840:	aef41683          	lh	a3,-1297(s0)
    80000844:	0231ec3b          	remw	s8,gp,gp
    80000848:	01554533          	xor	a0,a0,s5
    8000084c:	41ff8d33          	sub	s10,t6,t6
    80000850:	dae83d23          	sd	a4,-582(a6)
    80000854:	00100c93          	li	s9,1
    80000858:	00ae7f33          	and	t5,t3,a0
    8000085c:	015f6bb3          	or	s7,t5,s5
    80000860:	03fc9c93          	slli	s9,s9,0x3f
    80000864:	fff00493          	li	s1,-1
    80000868:	0194c4b3          	xor	s1,s1,s9
    8000086c:	009775b3          	and	a1,a4,s1
    80000870:	0195ee33          	or	t3,a1,s9
    80000874:	88e65ae3          	bge	a2,a4,80000108 <crash_backward>
    80000878:	0040006f          	j	8000087c <reg_dump>

000000008000087c <reg_dump>:
    8000087c:	00001097          	auipc	ra,0x1
    80000880:	e8408093          	addi	ra,ra,-380 # 80001700 <loop_count>
    80000884:	0000a103          	lw	sp,0(ra)
    80000888:	fff10193          	addi	gp,sp,-1
    8000088c:	0030a023          	sw	gp,0(ra)
    80000890:	90011ce3          	bnez	sp,800001a8 <pseg_0>
    80000894:	00001097          	auipc	ra,0x1
    80000898:	96c08093          	addi	ra,ra,-1684 # 80001200 <begin_signature>
    8000089c:	0000b023          	sd	zero,0(ra)
    800008a0:	0030bc23          	sd	gp,24(ra)
    800008a4:	0240b023          	sd	tp,32(ra)
    800008a8:	0250b423          	sd	t0,40(ra)
    800008ac:	0260b823          	sd	t1,48(ra)
    800008b0:	0270bc23          	sd	t2,56(ra)
    800008b4:	0490b423          	sd	s1,72(ra)
    800008b8:	04a0b823          	sd	a0,80(ra)
    800008bc:	04b0bc23          	sd	a1,88(ra)
    800008c0:	06c0b023          	sd	a2,96(ra)
    800008c4:	06d0b423          	sd	a3,104(ra)
    800008c8:	06e0b823          	sd	a4,112(ra)
    800008cc:	06f0bc23          	sd	a5,120(ra)
    800008d0:	0910b423          	sd	a7,136(ra)
    800008d4:	0920b823          	sd	s2,144(ra)
    800008d8:	0930bc23          	sd	s3,152(ra)
    800008dc:	0b40b023          	sd	s4,160(ra)
    800008e0:	0b50b423          	sd	s5,168(ra)
    800008e4:	0b60b823          	sd	s6,176(ra)
    800008e8:	0b70bc23          	sd	s7,184(ra)
    800008ec:	0d80b023          	sd	s8,192(ra)
    800008f0:	0d90b423          	sd	s9,200(ra)
    800008f4:	0da0b823          	sd	s10,208(ra)
    800008f8:	0db0bc23          	sd	s11,216(ra)
    800008fc:	0fc0b023          	sd	t3,224(ra)
    80000900:	0fe0b823          	sd	t5,240(ra)
    80000904:	0ff0bc23          	sd	t6,248(ra)
    80000908:	0180006f          	j	80000920 <test_end>

000000008000090c <crash_forward>:
    8000090c:	0ff0000f          	fence
    80000910:	00018063          	beqz	gp,80000910 <crash_forward+0x4>
    80000914:	00119193          	slli	gp,gp,0x1
    80000918:	0011e193          	ori	gp,gp,1
    8000091c:	00000073          	ecall

0000000080000920 <test_end>:
    80000920:	0ff0000f          	fence
    80000924:	00100193          	li	gp,1
    80000928:	00000073          	ecall
    8000092c:	c0001073          	unimp
	...

Disassembly of section .tohost:

0000000080001000 <tohost>:
	...

0000000080001040 <fromhost>:
	...
