
test.elf:     file format elf64-littleriscv


Disassembly of section .text.init:

0000000080000000 <_start>:
    80000000:	0580006f          	j	80000058 <reset_vector>

0000000080000004 <trap_vector>:
    80000004:	34202f73          	csrr	t5,mcause
    80000008:	00800f93          	li	t6,8
    8000000c:	05ff0063          	beq	t5,t6,8000004c <write_tohost>
    80000010:	00900f93          	li	t6,9
    80000014:	03ff0c63          	beq	t5,t6,8000004c <write_tohost>
    80000018:	00b00f93          	li	t6,11
    8000001c:	03ff0863          	beq	t5,t6,8000004c <write_tohost>
    80000020:	00000f13          	li	t5,0
    80000024:	000f0463          	beqz	t5,8000002c <trap_vector+0x28>
    80000028:	000f0067          	jr	t5
    8000002c:	34202f73          	csrr	t5,mcause
    80000030:	000f5463          	bgez	t5,80000038 <handle_exception>
    80000034:	0140006f          	j	80000048 <other_exception>

0000000080000038 <handle_exception>:
    80000038:	34102e73          	csrr	t3,mepc
    8000003c:	004e0e13          	addi	t3,t3,4
    80000040:	341e1073          	csrw	mepc,t3
    80000044:	30200073          	mret

0000000080000048 <other_exception>:
    80000048:	5391e193          	ori	gp,gp,1337

000000008000004c <write_tohost>:
    8000004c:	00001f17          	auipc	t5,0x1
    80000050:	fa3f2a23          	sw	gp,-76(t5) # 80001000 <tohost>
    80000054:	ff9ff06f          	j	8000004c <write_tohost>

0000000080000058 <reset_vector>:
    80000058:	f1402573          	csrr	a0,mhartid
    8000005c:	00051063          	bnez	a0,8000005c <reset_vector+0x4>
    80000060:	00000297          	auipc	t0,0x0
    80000064:	01028293          	addi	t0,t0,16 # 80000070 <reset_vector+0x18>
    80000068:	30529073          	csrw	mtvec,t0
    8000006c:	18005073          	csrwi	satp,0
    80000070:	00000297          	auipc	t0,0x0
    80000074:	01c28293          	addi	t0,t0,28 # 8000008c <reset_vector+0x34>
    80000078:	30529073          	csrw	mtvec,t0
    8000007c:	fff00293          	li	t0,-1
    80000080:	3b029073          	csrw	pmpaddr0,t0
    80000084:	01f00293          	li	t0,31
    80000088:	3a029073          	csrw	pmpcfg0,t0
    8000008c:	00000297          	auipc	t0,0x0
    80000090:	01828293          	addi	t0,t0,24 # 800000a4 <reset_vector+0x4c>
    80000094:	30529073          	csrw	mtvec,t0
    80000098:	30205073          	csrwi	medeleg,0
    8000009c:	30305073          	csrwi	mideleg,0
    800000a0:	30405073          	csrwi	mie,0
    800000a4:	00000193          	li	gp,0
    800000a8:	00000297          	auipc	t0,0x0
    800000ac:	f5c28293          	addi	t0,t0,-164 # 80000004 <trap_vector>
    800000b0:	30529073          	csrw	mtvec,t0
    800000b4:	00100513          	li	a0,1
    800000b8:	01f51513          	slli	a0,a0,0x1f
    800000bc:	00055863          	bgez	a0,800000cc <reset_vector+0x74>
    800000c0:	0ff0000f          	fence
    800000c4:	00100193          	li	gp,1
    800000c8:	00000073          	ecall
    800000cc:	00000293          	li	t0,0
    800000d0:	00028e63          	beqz	t0,800000ec <reset_vector+0x94>
    800000d4:	10529073          	csrw	stvec,t0
    800000d8:	0000b2b7          	lui	t0,0xb
    800000dc:	1092829b          	addiw	t0,t0,265
    800000e0:	30229073          	csrw	medeleg,t0
    800000e4:	30202373          	csrr	t1,medeleg
    800000e8:	f66290e3          	bne	t0,t1,80000048 <other_exception>
    800000ec:	30005073          	csrwi	mstatus,0
    800000f0:	00000297          	auipc	t0,0x0
    800000f4:	01428293          	addi	t0,t0,20 # 80000104 <reset_vector+0xac>
    800000f8:	34129073          	csrw	mepc,t0
    800000fc:	f1402573          	csrr	a0,mhartid
    80000100:	30200073          	mret
    80000104:	0180006f          	j	8000011c <test_start>

0000000080000108 <crash_backward>:
    80000108:	0ff0000f          	fence
    8000010c:	00018063          	beqz	gp,8000010c <crash_backward+0x4>
    80000110:	00119193          	slli	gp,gp,0x1
    80000114:	0011e193          	ori	gp,gp,1
    80000118:	00000073          	ecall

000000008000011c <test_start>:
    8000011c:	00001f97          	auipc	t6,0x1
    80000120:	fe4f8f93          	addi	t6,t6,-28 # 80001100 <hidden_data>
    80000124:	000fb003          	ld	zero,0(t6)
    80000128:	008fb083          	ld	ra,8(t6)
    8000012c:	010fb103          	ld	sp,16(t6)
    80000130:	018fb183          	ld	gp,24(t6)
    80000134:	020fb203          	ld	tp,32(t6)
    80000138:	028fb283          	ld	t0,40(t6)
    8000013c:	030fb303          	ld	t1,48(t6)
    80000140:	038fb383          	ld	t2,56(t6)
    80000144:	040fb403          	ld	s0,64(t6)
    80000148:	048fb483          	ld	s1,72(t6)
    8000014c:	050fb503          	ld	a0,80(t6)
    80000150:	058fb583          	ld	a1,88(t6)
    80000154:	060fb603          	ld	a2,96(t6)
    80000158:	068fb683          	ld	a3,104(t6)
    8000015c:	070fb703          	ld	a4,112(t6)
    80000160:	078fb783          	ld	a5,120(t6)
    80000164:	080fb803          	ld	a6,128(t6)
    80000168:	088fb883          	ld	a7,136(t6)
    8000016c:	090fb903          	ld	s2,144(t6)
    80000170:	098fb983          	ld	s3,152(t6)
    80000174:	0a0fba03          	ld	s4,160(t6)
    80000178:	0a8fba83          	ld	s5,168(t6)
    8000017c:	0b0fbb03          	ld	s6,176(t6)
    80000180:	0b8fbb83          	ld	s7,184(t6)
    80000184:	0c0fbc03          	ld	s8,192(t6)
    80000188:	0c8fbc83          	ld	s9,200(t6)
    8000018c:	0d0fbd03          	ld	s10,208(t6)
    80000190:	0d8fbd83          	ld	s11,216(t6)
    80000194:	0e0fbe03          	ld	t3,224(t6)
    80000198:	0e8fbe83          	ld	t4,232(t6)
    8000019c:	0f0fbf03          	ld	t5,240(t6)
    800001a0:	0f8fbf83          	ld	t6,248(t6)
    800001a4:	0040006f          	j	800001a8 <pseg_0>

00000000800001a8 <pseg_0>:
    800001a8:	03ad58b3          	divu	a7,s10,s10
    800001ac:	02c6b333          	mulhu	t1,a3,a2
    800001b0:	c1918a93          	addi	s5,gp,-999 # 80001b29 <_end+0x419>
    800001b4:	00100293          	li	t0,1
    800001b8:	03fbdbbb          	divuw	s7,s7,t6
    800001bc:	40328cb3          	sub	s9,t0,gp
    800001c0:	b0800113          	li	sp,-1272
    800001c4:	00001417          	auipc	s0,0x1
    800001c8:	3e440413          	addi	s0,s0,996 # 800015a8 <test_memory+0x2a8>
    800001cc:	0be45d83          	lhu	s11,190(s0)
    800001d0:	acfac983          	lbu	s3,-1329(s5)
    800001d4:	3d898693          	addi	a3,s3,984
    800001d8:	70900e93          	li	t4,1801
    800001dc:	03f29293          	slli	t0,t0,0x3f
    800001e0:	d2e08313          	addi	t1,ra,-722
    800001e4:	26000193          	li	gp,608
    800001e8:	00b74c33          	xor	s8,a4,a1
    800001ec:	21200c93          	li	s9,530
    800001f0:	03dec633          	div	a2,t4,t4
    800001f4:	00001697          	auipc	a3,0x1
    800001f8:	eb268693          	addi	a3,a3,-334 # 800010a6 <fromhost+0x66>
    800001fc:	5d900813          	li	a6,1497
    80000200:	00100b93          	li	s7,1
    80000204:	03fb9b93          	slli	s7,s7,0x3f
    80000208:	016845b3          	xor	a1,a6,s6
    8000020c:	48000413          	li	s0,1152
    80000210:	66000f93          	li	t6,1632
    80000214:	ce800613          	li	a2,-792
    80000218:	fff00a93          	li	s5,-1
    8000021c:	45a69e23          	sh	s10,1116(a3)
    80000220:	002174b3          	and	s1,sp,sp
    80000224:	028cadb3          	mulhsu	s11,s9,s0
    80000228:	017acab3          	xor	s5,s5,s7
    8000022c:	fff00513          	li	a0,-1
    80000230:	d4760713          	addi	a4,a2,-697
    80000234:	00554533          	xor	a0,a0,t0
    80000238:	41010b3b          	subw	s6,sp,a6
    8000023c:	024258b3          	divu	a7,tp,tp
    80000240:	015c7333          	and	t1,s8,s5
    80000244:	11e00413          	li	s0,286
    80000248:	385f8393          	addi	t2,t6,901
    8000024c:	727ff263          	bgeu	t6,t2,80000970 <crash_forward>
    80000250:	017369b3          	or	s3,t1,s7
    80000254:	34e00d93          	li	s11,846
    80000258:	2cd00093          	li	ra,717
    8000025c:	00affe33          	and	t3,t6,a0
    80000260:	70c77863          	bgeu	a4,a2,80000970 <crash_forward>
    80000264:	00001597          	auipc	a1,0x1
    80000268:	90258593          	addi	a1,a1,-1790 # 80000b66 <test_end+0x1e2>
    8000026c:	03b44cb3          	div	s9,s0,s11
    80000270:	0ea08693          	addi	a3,ra,234
    80000274:	9f318e93          	addi	t4,gp,-1549 # 80001903 <_end+0x1f3>
    80000278:	1de00993          	li	s3,478
    8000027c:	c89e9c03          	lh	s8,-887(t4)
    80000280:	9b618613          	addi	a2,gp,-1610 # 800018c6 <_end+0x1b6>
    80000284:	00001897          	auipc	a7,0x1
    80000288:	4aa88893          	addi	a7,a7,1194 # 8000172e <_end+0x1e>
    8000028c:	02b5d733          	divu	a4,a1,a1
    80000290:	a95605a3          	sb	s5,-1397(a2)
    80000294:	00001917          	auipc	s2,0x1
    80000298:	bc290913          	addi	s2,s2,-1086 # 80000e56 <test_end+0x4d2>
    8000029c:	00001117          	auipc	sp,0x1
    800002a0:	d7410113          	addi	sp,sp,-652 # 80001010 <tohost+0x10>
    800002a4:	00001317          	auipc	t1,0x1
    800002a8:	fe230313          	addi	t1,t1,-30 # 80001286 <reg_x16_output+0x6>
    800002ac:	aa100413          	li	s0,-1375
    800002b0:	f5489483          	lh	s1,-172(a7)
    800002b4:	29a31323          	sh	s10,646(t1)
    800002b8:	7fc59a03          	lh	s4,2044(a1)
    800002bc:	67e10ba3          	sb	t5,1655(sp)
    800002c0:	68a91d03          	lh	s10,1674(s2)
    800002c4:	1a700813          	li	a6,423
    800002c8:	ab918b13          	addi	s6,gp,-1351 # 800019c9 <_end+0x2b9>
    800002cc:	00001d97          	auipc	s11,0x1
    800002d0:	4bad8d93          	addi	s11,s11,1210 # 80001786 <_end+0x76>
    800002d4:	005e67b3          	or	a5,t3,t0
    800002d8:	cb0dcc83          	lbu	s9,-848(s11)
    800002dc:	0284773b          	remuw	a4,s0,s0
    800002e0:	22780b93          	addi	s7,a6,551
    800002e4:	77c00f13          	li	t5,1916
    800002e8:	d4600493          	li	s1,-698
    800002ec:	00fcc433          	xor	s0,s9,a5
    800002f0:	e1787ce3          	bgeu	a6,s7,80000108 <crash_backward>
    800002f4:	00001397          	auipc	t2,0x1
    800002f8:	fc138393          	addi	t2,t2,-63 # 800012b5 <reg_x22_output+0x5>
    800002fc:	00001117          	auipc	sp,0x1
    80000300:	1a410113          	addi	sp,sp,420 # 800014a0 <test_memory+0x1a0>
    80000304:	d0fb6f83          	lwu	t6,-753(s6)
    80000308:	00100313          	li	t1,1
    8000030c:	88700693          	li	a3,-1913
    80000310:	021b82b3          	mul	t0,s7,ra
    80000314:	03e1d233          	divu	tp,gp,t5
    80000318:	96700793          	li	a5,-1689
    8000031c:	9b278e13          	addi	t3,a5,-1614
    80000320:	02d4edb3          	rem	s11,s1,a3
    80000324:	1cf00413          	li	s0,463
    80000328:	7cb00913          	li	s2,1995
    8000032c:	036b4a33          	div	s4,s6,s6
    80000330:	ded10213          	addi	tp,sp,-531
    80000334:	0139dabb          	srlw	s5,s3,s3
    80000338:	11413c23          	sd	s4,280(sp)
    8000033c:	dc0046e3          	bltz	zero,80000108 <crash_backward>
    80000340:	02cd95b3          	mulh	a1,s11,a2
    80000344:	52290c93          	addi	s9,s2,1314
    80000348:	4333a1a3          	sw	s3,1059(t2)
    8000034c:	52a00b93          	li	s7,1322
    80000350:	72a00093          	li	ra,1834
    80000354:	417b8533          	sub	a0,s7,s7
    80000358:	03f31313          	slli	t1,t1,0x3f
    8000035c:	db9906e3          	beq	s2,s9,80000108 <crash_backward>
    80000360:	01708713          	addi	a4,ra,23
    80000364:	fff00e93          	li	t4,-1
    80000368:	000e8d13          	mv	s10,t4
    8000036c:	60e0d263          	bge	ra,a4,80000970 <crash_forward>
    80000370:	000d0893          	mv	a7,s10
    80000374:	02843833          	mulhu	a6,s0,s0
    80000378:	006eceb3          	xor	t4,t4,t1
    8000037c:	01d17c33          	and	s8,sp,t4
    80000380:	0069e633          	or	a2,s3,t1
    80000384:	00001697          	auipc	a3,0x1
    80000388:	c9c68693          	addi	a3,a3,-868 # 80001020 <tohost+0x20>
    8000038c:	01398c3b          	addw	s8,s3,s3
    80000390:	d8118c93          	addi	s9,gp,-639 # 80001c91 <_end+0x581>
    80000394:	41500093          	li	ra,1045
    80000398:	b4c18d13          	addi	s10,gp,-1204 # 80001a5c <_end+0x34c>
    8000039c:	0010e7b3          	or	a5,ra,ra
    800003a0:	00100593          	li	a1,1
    800003a4:	9d1c8403          	lb	s0,-1583(s9)
    800003a8:	03f59593          	slli	a1,a1,0x3f
    800003ac:	40e753bb          	sraw	t2,a4,a4
    800003b0:	fff00d93          	li	s11,-1
    800003b4:	b0200313          	li	t1,-1278
    800003b8:	c15d1223          	sh	s5,-1020(s10)
    800003bc:	00001817          	auipc	a6,0x1
    800003c0:	dc780813          	addi	a6,a6,-569 # 80001183 <reg_x16_init+0x3>
    800003c4:	2fb00293          	li	t0,763
    800003c8:	fd200793          	li	a5,-46
    800003cc:	cfc18c13          	addi	s8,gp,-772 # 80001c0c <_end+0x4fc>
    800003d0:	00001897          	auipc	a7,0x1
    800003d4:	3c388893          	addi	a7,a7,963 # 80001793 <_end+0x83>
    800003d8:	00bdcdb3          	xor	s11,s11,a1
    800003dc:	f3d8bea3          	sd	t4,-195(a7)
    800003e0:	58c6d503          	lhu	a0,1420(a3)
    800003e4:	d3bd92e3          	bne	s11,s11,80000108 <crash_backward>
    800003e8:	00f7c233          	xor	tp,a5,a5
    800003ec:	00001c97          	auipc	s9,0x1
    800003f0:	e34c8c93          	addi	s9,s9,-460 # 80001220 <reg_x4_output>
    800003f4:	50280103          	lb	sp,1282(a6)
    800003f8:	935f049b          	addiw	s1,t5,-1739
    800003fc:	ad500a13          	li	s4,-1323
    80000400:	c7418d13          	addi	s10,gp,-908 # 80001b84 <_end+0x474>
    80000404:	42d00193          	li	gp,1069
    80000408:	446cb023          	sd	t1,1088(s9)
    8000040c:	00100393          	li	t2,1
    80000410:	02532eb3          	mulhsu	t4,t1,t0
    80000414:	0184fe33          	and	t3,s1,s8
    80000418:	1eb00713          	li	a4,491
    8000041c:	02e76abb          	remw	s5,a4,a4
    80000420:	01b1ffb3          	and	t6,gp,s11
    80000424:	00b76f33          	or	t5,a4,a1
    80000428:	023a543b          	divuw	s0,s4,gp
    8000042c:	a7fc2a23          	sw	t6,-1420(s8)
    80000430:	9c218813          	addi	a6,gp,-1598 # 800018d2 <_end+0x1c2>
    80000434:	03f39393          	slli	t2,t2,0x3f
    80000438:	019cd33b          	srlw	t1,s9,s9
    8000043c:	02313133          	mulhu	sp,sp,gp
    80000440:	00001417          	auipc	s0,0x1
    80000444:	25440413          	addi	s0,s0,596 # 80001694 <test_memory+0x394>
    80000448:	92b18913          	addi	s2,gp,-1749 # 8000183b <_end+0x12b>
    8000044c:	00080093          	mv	ra,a6
    80000450:	e3795b03          	lhu	s6,-457(s2)
    80000454:	00001c97          	auipc	s9,0x1
    80000458:	058c8c93          	addi	s9,s9,88 # 800014ac <test_memory+0x1ac>
    8000045c:	965d2423          	sw	t0,-1688(s10)
    80000460:	0339f8bb          	remuw	a7,s3,s3
    80000464:	fff00b93          	li	s7,-1
    80000468:	0e500713          	li	a4,229
    8000046c:	35300493          	li	s1,851
    80000470:	000b8d13          	mv	s10,s7
    80000474:	40970233          	sub	tp,a4,s1
    80000478:	007bcbb3          	xor	s7,s7,t2
    8000047c:	01ad47b3          	xor	a5,s10,s10
    80000480:	bbc18e13          	addi	t3,gp,-1092 # 80001acc <_end+0x3bc>
    80000484:	d6b18b13          	addi	s6,gp,-661 # 80001c7b <_end+0x56b>
    80000488:	00008a13          	mv	s4,ra
    8000048c:	991b1883          	lh	a7,-1647(s6)
    80000490:	88fe3e23          	sd	a5,-1892(t3)
    80000494:	eca45503          	lhu	a0,-310(s0)
    80000498:	006e129b          	slliw	t0,t3,0x6
    8000049c:	b6a00e93          	li	t4,-1174
    800004a0:	000d0113          	mv	sp,s10
    800004a4:	00001317          	auipc	t1,0x1
    800004a8:	dbf30313          	addi	t1,t1,-577 # 80001263 <reg_x12_output+0x3>
    800004ac:	017a7633          	and	a2,s4,s7
    800004b0:	dd9e8693          	addi	a3,t4,-551
    800004b4:	4bff5e63          	bge	t5,t6,80000970 <crash_forward>
    800004b8:	38830903          	lb	s2,904(t1)
    800004bc:	00001a97          	auipc	s5,0x1
    800004c0:	804a8a93          	addi	s5,s5,-2044 # 80000cc0 <test_end+0x33c>
    800004c4:	007669b3          	or	s3,a2,t2
    800004c8:	aa282183          	lw	gp,-1374(a6)
    800004cc:	6a2ab823          	sd	sp,1712(s5)
    800004d0:	f96ccc03          	lbu	s8,-106(s9)
    800004d4:	00001097          	auipc	ra,0x1
    800004d8:	ce508093          	addi	ra,ra,-795 # 800011b9 <reg_x23_init+0x1>
    800004dc:	87f00793          	li	a5,-1921
    800004e0:	00001c97          	auipc	s9,0x1
    800004e4:	2aac8c93          	addi	s9,s9,682 # 8000178a <_end+0x7a>
    800004e8:	c20040e3          	bltz	zero,80000108 <crash_backward>
    800004ec:	33e08a03          	lb	s4,830(ra)
    800004f0:	4129583b          	sraw	a6,s2,s2
    800004f4:	00001697          	auipc	a3,0x1
    800004f8:	e5968693          	addi	a3,a3,-423 # 8000134d <test_memory+0x4d>
    800004fc:	40210533          	sub	a0,sp,sp
    80000500:	c00014e3          	bnez	zero,80000108 <crash_backward>
    80000504:	08f6a9a3          	sw	a5,147(a3)
    80000508:	037b88bb          	mulw	a7,s7,s7
    8000050c:	02844d3b          	divw	s10,s0,s0
    80000510:	01f4cab3          	xor	s5,s1,t6
    80000514:	6a200113          	li	sp,1698
    80000518:	03fd5313          	srli	t1,s10,0x3f
    8000051c:	00001e97          	auipc	t4,0x1
    80000520:	014e8e93          	addi	t4,t4,20 # 80001530 <test_memory+0x230>
    80000524:	6dd00413          	li	s0,1757
    80000528:	03bfc23b          	divw	tp,t6,s11
    8000052c:	c9acab23          	sw	s10,-874(s9)
    80000530:	169ec583          	lbu	a1,361(t4)
    80000534:	03fa0fbb          	mulw	t6,s4,t6
    80000538:	a7c18793          	addi	a5,gp,-1412 # 8000198c <_end+0x27c>
    8000053c:	b167c983          	lbu	s3,-1258(a5)
    80000540:	9f200893          	li	a7,-1550
    80000544:	00000697          	auipc	a3,0x0
    80000548:	7d168693          	addi	a3,a3,2001 # 80000d15 <test_end+0x391>
    8000054c:	002111bb          	sllw	gp,sp,sp
    80000550:	00000513          	li	a0,0
    80000554:	00000c93          	li	s9,0
    80000558:	7a76a083          	lw	ra,1959(a3)
    8000055c:	00001b97          	auipc	s7,0x1
    80000560:	bbbb8b93          	addi	s7,s7,-1093 # 80001117 <reg_x2_init+0x7>
    80000564:	28cb82a3          	sb	a2,645(s7)
    80000568:	41954463          	blt	a0,s9,80000970 <crash_forward>
    8000056c:	0aa00293          	li	t0,170
    80000570:	00001197          	auipc	gp,0x1
    80000574:	90f18193          	addi	gp,gp,-1777 # 80000e7f <test_end+0x4fb>
    80000578:	7d300213          	li	tp,2003
    8000057c:	0242ad33          	mulhsu	s10,t0,tp
    80000580:	00001097          	auipc	ra,0x1
    80000584:	11608093          	addi	ra,ra,278 # 80001696 <test_memory+0x396>
    80000588:	aff18993          	addi	s3,gp,-1281 # 80001a0f <_end+0x2ff>
    8000058c:	66800113          	li	sp,1640
    80000590:	4f800493          	li	s1,1272
    80000594:	00000a97          	auipc	s5,0x0
    80000598:	64fa8a93          	addi	s5,s5,1615 # 80000be3 <test_end+0x25f>
    8000059c:	755aea03          	lwu	s4,1877(s5)
    800005a0:	00f7833b          	addw	t1,a5,a5
    800005a4:	022de833          	rem	a6,s11,sp
    800005a8:	024b05bb          	mulw	a1,s6,tp
    800005ac:	03ad5fbb          	divuw	t6,s10,s10
    800005b0:	02945c33          	divu	s8,s0,s1
    800005b4:	de00ad23          	sw	zero,-518(ra)
    800005b8:	ad018793          	addi	a5,gp,-1328 # 800019e0 <_end+0x2d0>
    800005bc:	9cd99683          	lh	a3,-1587(s3)
    800005c0:	02210eb3          	mul	t4,sp,sp
    800005c4:	fb800413          	li	s0,-72
    800005c8:	78a1aca3          	sw	a0,1945(gp) # 800026a9 <__global_pointer$+0x799>
    800005cc:	67100693          	li	a3,1649
    800005d0:	40840c33          	sub	s8,s0,s0
    800005d4:	68cccb93          	xori	s7,s9,1676
    800005d8:	4eb00993          	li	s3,1259
    800005dc:	14700393          	li	t2,327
    800005e0:	57700e93          	li	t4,1399
    800005e4:	02788633          	mul	a2,a7,t2
    800005e8:	b0e7b023          	sd	a4,-1280(a5)
    800005ec:	91300093          	li	ra,-1773
    800005f0:	62d00793          	li	a5,1581
    800005f4:	fe500e13          	li	t3,-27
    800005f8:	28900293          	li	t0,649
    800005fc:	05200113          	li	sp,82
    80000600:	00001c17          	auipc	s8,0x1
    80000604:	aadc0c13          	addi	s8,s8,-1363 # 800010ad <fromhost+0x6d>
    80000608:	0222f833          	remu	a6,t0,sp
    8000060c:	00001217          	auipc	tp,0x1
    80000610:	f8320213          	addi	tp,tp,-125 # 8000158f <test_memory+0x28f>
    80000614:	00100b13          	li	s6,1
    80000618:	535e8c93          	addi	s9,t4,1333
    8000061c:	0216cbb3          	div	s7,a3,ra
    80000620:	00e72a33          	slt	s4,a4,a4
    80000624:	75600493          	li	s1,1878
    80000628:	00001597          	auipc	a1,0x1
    8000062c:	ca558593          	addi	a1,a1,-859 # 800012cd <reg_x25_output+0x5>
    80000630:	01ce5933          	srl	s2,t3,t3
    80000634:	0219fd3b          	remuw	s10,s3,ra
    80000638:	9a418393          	addi	t2,gp,-1628 # 800018b4 <_end+0x1a4>
    8000063c:	33fc2403          	lw	s0,831(s8)
    80000640:	b2e18313          	addi	t1,gp,-1234 # 80001a3e <_end+0x32e>
    80000644:	0bd5b5a3          	sd	t4,171(a1)
    80000648:	02d6d1b3          	divu	gp,a3,a3
    8000064c:	03fb1b13          	slli	s6,s6,0x3f
    80000650:	de922a83          	lw	s5,-535(tp) # fffffffffffffde9 <__global_pointer$+0xffffffff7fffded9>
    80000654:	b373aa23          	sw	s7,-1228(t2)
    80000658:	93a30f83          	lb	t6,-1734(t1)
    8000065c:	4094853b          	subw	a0,s1,s1
    80000660:	b7800613          	li	a2,-1160
    80000664:	fff00d93          	li	s11,-1
    80000668:	016dcdb3          	xor	s11,s11,s6
    8000066c:	02c7f8bb          	remuw	a7,a5,a2
    80000670:	01b2ff33          	and	t5,t0,s11
    80000674:	016de733          	or	a4,s11,s6
    80000678:	2eef4c63          	blt	t5,a4,80000970 <crash_forward>
    8000067c:	00050593          	mv	a1,a0
    80000680:	00001817          	auipc	a6,0x1
    80000684:	0a880813          	addi	a6,a6,168 # 80001728 <_end+0x18>
    80000688:	e8084503          	lbu	a0,-384(a6)
    8000068c:	00100413          	li	s0,1
    80000690:	00022eb3          	sltz	t4,tp
    80000694:	4a300393          	li	t2,1187
    80000698:	86400f93          	li	t6,-1948
    8000069c:	00001497          	auipc	s1,0x1
    800006a0:	90548493          	addi	s1,s1,-1787 # 80000fa1 <test_end+0x61d>
    800006a4:	03f41413          	slli	s0,s0,0x3f
    800006a8:	fff00c13          	li	s8,-1
    800006ac:	4f74b183          	ld	gp,1271(s1)
    800006b0:	03ffb2b3          	mulhu	t0,t6,t6
    800006b4:	00001897          	auipc	a7,0x1
    800006b8:	95288893          	addi	a7,a7,-1710 # 80001006 <tohost+0x6>
    800006bc:	00c0933b          	sllw	t1,ra,a2
    800006c0:	00001d17          	auipc	s10,0x1
    800006c4:	cecd0d13          	addi	s10,s10,-788 # 800013ac <test_memory+0xac>
    800006c8:	035a9db3          	mulh	s11,s5,s5
    800006cc:	01816a33          	or	s4,sp,s8
    800006d0:	23ad5203          	lhu	tp,570(s10)
    800006d4:	3ba00493          	li	s1,954
    800006d8:	cbd00293          	li	t0,-835
    800006dc:	02f7c93b          	divw	s2,a5,a5
    800006e0:	0139883b          	addw	a6,s3,s3
    800006e4:	004f9993          	slli	s3,t6,0x4
    800006e8:	bff00193          	li	gp,-1025
    800006ec:	008c4c33          	xor	s8,s8,s0
    800006f0:	0273eab3          	rem	s5,t2,t2
    800006f4:	03a66cb3          	rem	s9,a2,s10
    800006f8:	00058093          	mv	ra,a1
    800006fc:	6d629bb7          	lui	s7,0x6d629
    80000700:	a015c4e3          	blt	a1,ra,80000108 <crash_backward>
    80000704:	018df7b3          	and	a5,s11,s8
    80000708:	00846633          	or	a2,s0,s0
    8000070c:	00001097          	auipc	ra,0x1
    80000710:	b4a08093          	addi	ra,ra,-1206 # 80001256 <reg_x10_output+0x6>
    80000714:	024263bb          	remw	t2,tp,tp
    80000718:	3510cb83          	lbu	s7,849(ra)
    8000071c:	00100313          	li	t1,1
    80000720:	ed400e93          	li	t4,-300
    80000724:	96d00113          	li	sp,-1683
    80000728:	24f65463          	bge	a2,a5,80000970 <crash_forward>
    8000072c:	03f31313          	slli	t1,t1,0x3f
    80000730:	00001f17          	auipc	t5,0x1
    80000734:	abef0f13          	addi	t5,t5,-1346 # 800011ee <reg_x29_init+0x6>
    80000738:	b3000a93          	li	s5,-1232
    8000073c:	03ad4833          	div	a6,s10,s10
    80000740:	4034853b          	subw	a0,s1,gp
    80000744:	ad210b13          	addi	s6,sp,-1326
    80000748:	49af2e03          	lw	t3,1178(t5)
    8000074c:	01d2873b          	addw	a4,t0,t4
    80000750:	03ef0cbb          	mulw	s9,t5,t5
    80000754:	b2618793          	addi	a5,gp,-1242 # 80001a36 <_end+0x326>
    80000758:	00001697          	auipc	a3,0x1
    8000075c:	9fc68693          	addi	a3,a3,-1540 # 80001154 <reg_x10_init+0x4>
    80000760:	01217b33          	and	s6,sp,s2
    80000764:	b8b18f13          	addi	t5,gp,-1141 # 80001a9b <_end+0x38b>
    80000768:	c567e183          	lwu	gp,-938(a5)
    8000076c:	81c00293          	li	t0,-2020
    80000770:	00100093          	li	ra,1
    80000774:	03f09093          	slli	ra,ra,0x3f
    80000778:	01b44533          	xor	a0,s0,s11
    8000077c:	994f0e03          	lb	t3,-1644(t5)
    80000780:	9e900593          	li	a1,-1559
    80000784:	00badd33          	srl	s10,s5,a1
    80000788:	fff00393          	li	t2,-1
    8000078c:	0013c3b3          	xor	t2,t2,ra
    80000790:	007d7833          	and	a6,s10,t2
    80000794:	fff00d93          	li	s11,-1
    80000798:	6bf00113          	li	sp,1727
    8000079c:	00186c33          	or	s8,a6,ra
    800007a0:	57f89123          	sh	t6,1378(a7)
    800007a4:	00001197          	auipc	gp,0x1
    800007a8:	b3b18193          	addi	gp,gp,-1221 # 800012df <reg_x27_output+0x7>
    800007ac:	4f16cf83          	lbu	t6,1265(a3)
    800007b0:	00001b97          	auipc	s7,0x1
    800007b4:	81ab8b93          	addi	s7,s7,-2022 # 80000fca <test_end+0x646>
    800007b8:	3a2196a3          	sh	sp,941(gp) # 800022bd <__global_pointer$+0x3ad>
    800007bc:	00000e97          	auipc	t4,0x0
    800007c0:	617e8e93          	addi	t4,t4,1559 # 80000dd3 <test_end+0x44f>
    800007c4:	00001f17          	auipc	t5,0x1
    800007c8:	a72f0f13          	addi	t5,t5,-1422 # 80001236 <reg_x6_output+0x6>
    800007cc:	e3828713          	addi	a4,t0,-456
    800007d0:	176f2503          	lw	a0,374(t5)
    800007d4:	00001e17          	auipc	t3,0x1
    800007d8:	cb6e0e13          	addi	t3,t3,-842 # 8000148a <test_memory+0x18a>
    800007dc:	00001a97          	auipc	s5,0x1
    800007e0:	f88a8a93          	addi	s5,s5,-120 # 80001764 <_end+0x54>
    800007e4:	70ae8da3          	sb	a0,1819(t4)
    800007e8:	d8f00613          	li	a2,-625
    800007ec:	40c604bb          	subw	s1,a2,a2
    800007f0:	b0000093          	li	ra,-1280
    800007f4:	bc0a9623          	sh	zero,-1076(s5)
    800007f8:	4010d6b3          	sra	a3,ra,ra
    800007fc:	00001c17          	auipc	s8,0x1
    80000800:	c7bc0c13          	addi	s8,s8,-901 # 80001477 <test_memory+0x177>
    80000804:	3da00f93          	li	t6,986
    80000808:	6e100893          	li	a7,1761
    8000080c:	006dcdb3          	xor	s11,s11,t1
    80000810:	eef00513          	li	a0,-273
    80000814:	62eba403          	lw	s0,1582(s7)
    80000818:	eaae2b03          	lw	s6,-342(t3)
    8000081c:	5c000913          	li	s2,1472
    80000820:	d9b00193          	li	gp,-613
    80000824:	21dc1583          	lh	a1,541(s8)
    80000828:	012909bb          	addw	s3,s2,s2
    8000082c:	c80f6613          	ori	a2,t5,-896
    80000830:	01b5f233          	and	tp,a1,s11
    80000834:	00001a97          	auipc	s5,0x1
    80000838:	fa1a8a93          	addi	s5,s5,-95 # 800017d5 <_end+0xc5>
    8000083c:	be1ad583          	lhu	a1,-1055(s5)
    80000840:	00001c97          	auipc	s9,0x1
    80000844:	f0dc8c93          	addi	s9,s9,-243 # 8000174d <_end+0x3d>
    80000848:	02afeeb3          	rem	t4,t6,a0
    8000084c:	00f00513          	li	a0,15
    80000850:	d9200293          	li	t0,-622
    80000854:	000f0993          	mv	s3,t5
    80000858:	f0b00813          	li	a6,-245
    8000085c:	06000f93          	li	t6,96
    80000860:	00020c13          	mv	s8,tp
    80000864:	00098413          	mv	s0,s3
    80000868:	f8500593          	li	a1,-123
    8000086c:	022147b3          	div	a5,sp,sp
    80000870:	02389f33          	mulh	t5,a7,gp
    80000874:	01ce4933          	xor	s2,t3,t3
    80000878:	01ffeab3          	or	s5,t6,t6
    8000087c:	000c0b93          	mv	s7,s8
    80000880:	00000697          	auipc	a3,0x0
    80000884:	5f768693          	addi	a3,a3,1527 # 80000e77 <test_end+0x4f3>
    80000888:	7c600913          	li	s2,1990
    8000088c:	0287cb33          	div	s6,a5,s0
    80000890:	45790113          	addi	sp,s2,1111
    80000894:	ef828393          	addi	t2,t0,-264
    80000898:	e83cbd03          	ld	s10,-381(s9)
    8000089c:	00001097          	auipc	ra,0x1
    800008a0:	ebf08093          	addi	ra,ra,-321 # 8000175b <_end+0x4b>
    800008a4:	00001e17          	auipc	t3,0x1
    800008a8:	ee0e0e13          	addi	t3,t3,-288 # 80001784 <_end+0x74>
    800008ac:	0308773b          	remuw	a4,a6,a6
    800008b0:	00b55eb3          	srl	t4,a0,a1
    800008b4:	d0de4603          	lbu	a2,-755(t3)
    800008b8:	00666a33          	or	s4,a2,t1
    800008bc:	844a56e3          	bge	s4,tp,80000108 <crash_backward>
    800008c0:	a7200793          	li	a5,-1422
    800008c4:	0a728663          	beq	t0,t2,80000970 <crash_forward>
    800008c8:	66d6e483          	lwu	s1,1645(a3)
    800008cc:	b2d00f93          	li	t6,-1235
    800008d0:	01f7ff33          	and	t5,a5,t6
    800008d4:	d920a4a3          	sw	s2,-631(ra)
    800008d8:	0040006f          	j	800008dc <reg_dump>

00000000800008dc <reg_dump>:
    800008dc:	00001097          	auipc	ra,0x1
    800008e0:	e2408093          	addi	ra,ra,-476 # 80001700 <loop_count>
    800008e4:	0000a103          	lw	sp,0(ra)
    800008e8:	fff10193          	addi	gp,sp,-1
    800008ec:	0030a023          	sw	gp,0(ra)
    800008f0:	8a011ce3          	bnez	sp,800001a8 <pseg_0>
    800008f4:	00001097          	auipc	ra,0x1
    800008f8:	90c08093          	addi	ra,ra,-1780 # 80001200 <begin_signature>
    800008fc:	0000b023          	sd	zero,0(ra)
    80000900:	0020b823          	sd	sp,16(ra)
    80000904:	0030bc23          	sd	gp,24(ra)
    80000908:	0240b023          	sd	tp,32(ra)
    8000090c:	0250b423          	sd	t0,40(ra)
    80000910:	0260b823          	sd	t1,48(ra)
    80000914:	0270bc23          	sd	t2,56(ra)
    80000918:	0480b023          	sd	s0,64(ra)
    8000091c:	0490b423          	sd	s1,72(ra)
    80000920:	04a0b823          	sd	a0,80(ra)
    80000924:	04b0bc23          	sd	a1,88(ra)
    80000928:	06c0b023          	sd	a2,96(ra)
    8000092c:	06e0b823          	sd	a4,112(ra)
    80000930:	06f0bc23          	sd	a5,120(ra)
    80000934:	0900b023          	sd	a6,128(ra)
    80000938:	0910b423          	sd	a7,136(ra)
    8000093c:	0920b823          	sd	s2,144(ra)
    80000940:	0930bc23          	sd	s3,152(ra)
    80000944:	0b40b023          	sd	s4,160(ra)
    80000948:	0b50b423          	sd	s5,168(ra)
    8000094c:	0b60b823          	sd	s6,176(ra)
    80000950:	0b70bc23          	sd	s7,184(ra)
    80000954:	0d80b023          	sd	s8,192(ra)
    80000958:	0da0b823          	sd	s10,208(ra)
    8000095c:	0db0bc23          	sd	s11,216(ra)
    80000960:	0fd0b423          	sd	t4,232(ra)
    80000964:	0fe0b823          	sd	t5,240(ra)
    80000968:	0ff0bc23          	sd	t6,248(ra)
    8000096c:	0180006f          	j	80000984 <test_end>

0000000080000970 <crash_forward>:
    80000970:	0ff0000f          	fence
    80000974:	00018063          	beqz	gp,80000974 <crash_forward+0x4>
    80000978:	00119193          	slli	gp,gp,0x1
    8000097c:	0011e193          	ori	gp,gp,1
    80000980:	00000073          	ecall

0000000080000984 <test_end>:
    80000984:	0ff0000f          	fence
    80000988:	00100193          	li	gp,1
    8000098c:	00000073          	ecall
    80000990:	c0001073          	unimp
	...

Disassembly of section .tohost:

0000000080001000 <tohost>:
	...

0000000080001040 <fromhost>:
	...
