
test.elf:     file format elf64-littleriscv


Disassembly of section .text.init:

0000000080000000 <_start>:
    80000000:	0580006f          	j	80000058 <reset_vector>

0000000080000004 <trap_vector>:
    80000004:	34202f73          	csrr	t5,mcause
    80000008:	00800f93          	li	t6,8
    8000000c:	05ff0063          	beq	t5,t6,8000004c <write_tohost>
    80000010:	00900f93          	li	t6,9
    80000014:	03ff0c63          	beq	t5,t6,8000004c <write_tohost>
    80000018:	00b00f93          	li	t6,11
    8000001c:	03ff0863          	beq	t5,t6,8000004c <write_tohost>
    80000020:	00000f13          	li	t5,0
    80000024:	000f0463          	beqz	t5,8000002c <trap_vector+0x28>
    80000028:	000f0067          	jr	t5
    8000002c:	34202f73          	csrr	t5,mcause
    80000030:	000f5463          	bgez	t5,80000038 <handle_exception>
    80000034:	0140006f          	j	80000048 <other_exception>

0000000080000038 <handle_exception>:
    80000038:	34102e73          	csrr	t3,mepc
    8000003c:	004e0e13          	addi	t3,t3,4
    80000040:	341e1073          	csrw	mepc,t3
    80000044:	30200073          	mret

0000000080000048 <other_exception>:
    80000048:	5391e193          	ori	gp,gp,1337

000000008000004c <write_tohost>:
    8000004c:	00001f17          	auipc	t5,0x1
    80000050:	fa3f2a23          	sw	gp,-76(t5) # 80001000 <tohost>
    80000054:	ff9ff06f          	j	8000004c <write_tohost>

0000000080000058 <reset_vector>:
    80000058:	f1402573          	csrr	a0,mhartid
    8000005c:	00051063          	bnez	a0,8000005c <reset_vector+0x4>
    80000060:	00000297          	auipc	t0,0x0
    80000064:	01028293          	addi	t0,t0,16 # 80000070 <reset_vector+0x18>
    80000068:	30529073          	csrw	mtvec,t0
    8000006c:	18005073          	csrwi	satp,0
    80000070:	00000297          	auipc	t0,0x0
    80000074:	01c28293          	addi	t0,t0,28 # 8000008c <reset_vector+0x34>
    80000078:	30529073          	csrw	mtvec,t0
    8000007c:	fff00293          	li	t0,-1
    80000080:	3b029073          	csrw	pmpaddr0,t0
    80000084:	01f00293          	li	t0,31
    80000088:	3a029073          	csrw	pmpcfg0,t0
    8000008c:	00000297          	auipc	t0,0x0
    80000090:	01828293          	addi	t0,t0,24 # 800000a4 <reset_vector+0x4c>
    80000094:	30529073          	csrw	mtvec,t0
    80000098:	30205073          	csrwi	medeleg,0
    8000009c:	30305073          	csrwi	mideleg,0
    800000a0:	30405073          	csrwi	mie,0
    800000a4:	00000193          	li	gp,0
    800000a8:	00000297          	auipc	t0,0x0
    800000ac:	f5c28293          	addi	t0,t0,-164 # 80000004 <trap_vector>
    800000b0:	30529073          	csrw	mtvec,t0
    800000b4:	00100513          	li	a0,1
    800000b8:	01f51513          	slli	a0,a0,0x1f
    800000bc:	00055863          	bgez	a0,800000cc <reset_vector+0x74>
    800000c0:	0ff0000f          	fence
    800000c4:	00100193          	li	gp,1
    800000c8:	00000073          	ecall
    800000cc:	00000293          	li	t0,0
    800000d0:	00028e63          	beqz	t0,800000ec <reset_vector+0x94>
    800000d4:	10529073          	csrw	stvec,t0
    800000d8:	0000b2b7          	lui	t0,0xb
    800000dc:	1092829b          	addiw	t0,t0,265
    800000e0:	30229073          	csrw	medeleg,t0
    800000e4:	30202373          	csrr	t1,medeleg
    800000e8:	f66290e3          	bne	t0,t1,80000048 <other_exception>
    800000ec:	30005073          	csrwi	mstatus,0
    800000f0:	00000297          	auipc	t0,0x0
    800000f4:	01428293          	addi	t0,t0,20 # 80000104 <reset_vector+0xac>
    800000f8:	34129073          	csrw	mepc,t0
    800000fc:	f1402573          	csrr	a0,mhartid
    80000100:	30200073          	mret
    80000104:	0180006f          	j	8000011c <test_start>

0000000080000108 <crash_backward>:
    80000108:	0ff0000f          	fence
    8000010c:	00018063          	beqz	gp,8000010c <crash_backward+0x4>
    80000110:	00119193          	slli	gp,gp,0x1
    80000114:	0011e193          	ori	gp,gp,1
    80000118:	00000073          	ecall

000000008000011c <test_start>:
    8000011c:	00001f97          	auipc	t6,0x1
    80000120:	fe4f8f93          	addi	t6,t6,-28 # 80001100 <hidden_data>
    80000124:	000fb003          	ld	zero,0(t6)
    80000128:	008fb083          	ld	ra,8(t6)
    8000012c:	010fb103          	ld	sp,16(t6)
    80000130:	018fb183          	ld	gp,24(t6)
    80000134:	020fb203          	ld	tp,32(t6)
    80000138:	028fb283          	ld	t0,40(t6)
    8000013c:	030fb303          	ld	t1,48(t6)
    80000140:	038fb383          	ld	t2,56(t6)
    80000144:	040fb403          	ld	s0,64(t6)
    80000148:	048fb483          	ld	s1,72(t6)
    8000014c:	050fb503          	ld	a0,80(t6)
    80000150:	058fb583          	ld	a1,88(t6)
    80000154:	060fb603          	ld	a2,96(t6)
    80000158:	068fb683          	ld	a3,104(t6)
    8000015c:	070fb703          	ld	a4,112(t6)
    80000160:	078fb783          	ld	a5,120(t6)
    80000164:	080fb803          	ld	a6,128(t6)
    80000168:	088fb883          	ld	a7,136(t6)
    8000016c:	090fb903          	ld	s2,144(t6)
    80000170:	098fb983          	ld	s3,152(t6)
    80000174:	0a0fba03          	ld	s4,160(t6)
    80000178:	0a8fba83          	ld	s5,168(t6)
    8000017c:	0b0fbb03          	ld	s6,176(t6)
    80000180:	0b8fbb83          	ld	s7,184(t6)
    80000184:	0c0fbc03          	ld	s8,192(t6)
    80000188:	0c8fbc83          	ld	s9,200(t6)
    8000018c:	0d0fbd03          	ld	s10,208(t6)
    80000190:	0d8fbd83          	ld	s11,216(t6)
    80000194:	0e0fbe03          	ld	t3,224(t6)
    80000198:	0e8fbe83          	ld	t4,232(t6)
    8000019c:	0f0fbf03          	ld	t5,240(t6)
    800001a0:	0f8fbf83          	ld	t6,248(t6)
    800001a4:	0040006f          	j	800001a8 <pseg_0>

00000000800001a8 <pseg_0>:
    800001a8:	8ee00d93          	li	s11,-1810
    800001ac:	02634a3b          	divw	s4,t1,t1
    800001b0:	00001e17          	auipc	t3,0x1
    800001b4:	ba2e0e13          	addi	t3,t3,-1118 # 80000d52 <test_end+0x322>
    800001b8:	00001a97          	auipc	s5,0x1
    800001bc:	5aaa8a93          	addi	s5,s5,1450 # 80001762 <_end+0x52>
    800001c0:	dd518f93          	addi	t6,gp,-555 # 80001ce5 <_end+0x5d5>
    800001c4:	d0818413          	addi	s0,gp,-760 # 80001c18 <_end+0x508>
    800001c8:	d7b00313          	li	t1,-645
    800001cc:	039e6cbb          	remw	s9,t3,s9
    800001d0:	00001917          	auipc	s2,0x1
    800001d4:	0b490913          	addi	s2,s2,180 # 80001284 <reg_x16_output+0x4>
    800001d8:	01bdc733          	xor	a4,s11,s11
    800001dc:	039c8d33          	mul	s10,s9,s9
    800001e0:	f4300993          	li	s3,-189
    800001e4:	7a6e3b23          	sd	t1,1974(t3)
    800001e8:	66b00493          	li	s1,1643
    800001ec:	e70a9b23          	sh	a6,-394(s5)
    800001f0:	33400813          	li	a6,820
    800001f4:	02a543b3          	div	t2,a0,a0
    800001f8:	0201b633          	mulhu	a2,gp,zero
    800001fc:	b4118b13          	addi	s6,gp,-1215 # 80001a51 <_end+0x341>
    80000200:	92318a13          	addi	s4,gp,-1757 # 80001833 <_end+0x123>
    80000204:	2a580693          	addi	a3,a6,677
    80000208:	32e93223          	sd	a4,804(s2)
    8000020c:	94218293          	addi	t0,gp,-1726 # 80001852 <_end+0x142>
    80000210:	c790879b          	addiw	a5,ra,-903
    80000214:	00001c17          	auipc	s8,0x1
    80000218:	fd4c0c13          	addi	s8,s8,-44 # 800011e8 <reg_x29_init>
    8000021c:	984fc103          	lbu	sp,-1660(t6)
    80000220:	26f00593          	li	a1,623
    80000224:	6d200e93          	li	t4,1746
    80000228:	2cbc2023          	sw	a1,704(s8)
    8000022c:	d26a24a3          	sw	t1,-727(s4)
    80000230:	03d9a233          	mulhsu	tp,s3,t4
    80000234:	ecd80ae3          	beq	a6,a3,80000108 <crash_backward>
    80000238:	d8800193          	li	gp,-632
    8000023c:	a0840083          	lb	ra,-1528(s0)
    80000240:	40b3053b          	subw	a0,t1,a1
    80000244:	019ca633          	slt	a2,s9,s9
    80000248:	a8fb2b83          	lw	s7,-1393(s6)
    8000024c:	6b400c93          	li	s9,1716
    80000250:	e0429d23          	sh	tp,-486(t0)
    80000254:	2a700413          	li	s0,679
    80000258:	00030113          	mv	sp,t1
    8000025c:	2cb00a13          	li	s4,715
    80000260:	85200b13          	li	s6,-1966
    80000264:	00100d93          	li	s11,1
    80000268:	036a06b3          	mul	a3,s4,s6
    8000026c:	00001c17          	auipc	s8,0x1
    80000270:	35fc0c13          	addi	s8,s8,863 # 800015cb <test_memory+0x2cb>
    80000274:	fe200793          	li	a5,-30
    80000278:	4034df3b          	sraw	t5,s1,gp
    8000027c:	000058bb          	srlw	a7,zero,zero
    80000280:	00001e97          	auipc	t4,0x1
    80000284:	bfae8e93          	addi	t4,t4,-1030 # 80000e7a <test_end+0x44a>
    80000288:	03fd9d93          	slli	s11,s11,0x3f
    8000028c:	00001897          	auipc	a7,0x1
    80000290:	d6e88893          	addi	a7,a7,-658 # 80000ffa <test_end+0x5ca>
    80000294:	40f7893b          	subw	s2,a5,a5
    80000298:	6ca8e483          	lwu	s1,1738(a7)
    8000029c:	00001817          	auipc	a6,0x1
    800002a0:	f7f80813          	addi	a6,a6,-129 # 8000121b <reg_x3_output+0x3>
    800002a4:	c3900b13          	li	s6,-967
    800002a8:	642e9423          	sh	sp,1608(t4)
    800002ac:	25182583          	lw	a1,593(a6)
    800002b0:	037bf6bb          	remuw	a3,s7,s7
    800002b4:	777bc463          	blt	s7,s7,80000a1c <crash_forward>
    800002b8:	03be3833          	mulhu	a6,t3,s11
    800002bc:	caa00493          	li	s1,-854
    800002c0:	00001517          	auipc	a0,0x1
    800002c4:	18150513          	addi	a0,a0,385 # 80001441 <test_memory+0x141>
    800002c8:	02841fb3          	mulh	t6,s0,s0
    800002cc:	036b1f33          	mulh	t5,s6,s6
    800002d0:	00010213          	mv	tp,sp
    800002d4:	00100093          	li	ra,1
    800002d8:	fff00393          	li	t2,-1
    800002dc:	51600593          	li	a1,1302
    800002e0:	c7e48b93          	addi	s7,s1,-898
    800002e4:	03f09093          	slli	ra,ra,0x3f
    800002e8:	0231eeb3          	rem	t4,gp,gp
    800002ec:	ea100793          	li	a5,-351
    800002f0:	7374e663          	bltu	s1,s7,80000a1c <crash_forward>
    800002f4:	fff00613          	li	a2,-1
    800002f8:	00001197          	auipc	gp,0x1
    800002fc:	8f818193          	addi	gp,gp,-1800 # 80000bf0 <test_end+0x1c0>
    80000300:	01b3c3b3          	xor	t2,t2,s11
    80000304:	ccb00f93          	li	t6,-821
    80000308:	02b7c93b          	divw	s2,a5,a1
    8000030c:	00164633          	xor	a2,a2,ra
    80000310:	853f8813          	addi	a6,t6,-1965
    80000314:	000a0213          	mv	tp,s4
    80000318:	71f00113          	li	sp,1823
    8000031c:	7a01ba03          	ld	s4,1952(gp) # 800026b0 <__global_pointer$+0x7a0>
    80000320:	ff5c5283          	lhu	t0,-11(s8)
    80000324:	50e00e13          	li	t3,1294
    80000328:	02a50ebb          	mulw	t4,a0,a0
    8000032c:	6e52e863          	bltu	t0,t0,80000a1c <crash_forward>
    80000330:	4ff00413          	li	s0,1279
    80000334:	00ca79b3          	and	s3,s4,a2
    80000338:	0079fd33          	and	s10,s3,t2
    8000033c:	0013e333          	or	t1,t2,ra
    80000340:	03ccfab3          	remu	s5,s9,t3
    80000344:	00845b3b          	srlw	s6,s0,s0
    80000348:	0294c6bb          	divw	a3,s1,s1
    8000034c:	02212f33          	mulhsu	t5,sp,sp
    80000350:	01bd6733          	or	a4,s10,s11
    80000354:	9da00e93          	li	t4,-1574
    80000358:	806e8f93          	addi	t6,t4,-2042
    8000035c:	00020493          	mv	s1,tp
    80000360:	00001197          	auipc	gp,0x1
    80000364:	d1e18193          	addi	gp,gp,-738 # 8000107e <fromhost+0x3e>
    80000368:	39019823          	sh	a6,912(gp) # 800022a0 <__global_pointer$+0x390>
    8000036c:	02f5e8b3          	rem	a7,a1,a5
    80000370:	00001b97          	auipc	s7,0x1
    80000374:	1e0b8b93          	addi	s7,s7,480 # 80001550 <test_memory+0x250>
    80000378:	0bebda03          	lhu	s4,190(s7)
    8000037c:	16f50fa3          	sb	a5,383(a0)
    80000380:	69fe8e63          	beq	t4,t6,80000a1c <crash_forward>
    80000384:	00001517          	auipc	a0,0x1
    80000388:	1cf50513          	addi	a0,a0,463 # 80001553 <test_memory+0x253>
    8000038c:	1bd00893          	li	a7,445
    80000390:	00001817          	auipc	a6,0x1
    80000394:	07280813          	addi	a6,a6,114 # 80001402 <test_memory+0x102>
    80000398:	d6ed48e3          	blt	s10,a4,80000108 <crash_backward>
    8000039c:	0cc85e83          	lhu	t4,204(a6)
    800003a0:	7d900793          	li	a5,2009
    800003a4:	8eb00f13          	li	t5,-1813
    800003a8:	00028113          	mv	sp,t0
    800003ac:	7c400693          	li	a3,1988
    800003b0:	43b00c93          	li	s9,1083
    800003b4:	019cdfbb          	srlw	t6,s9,s9
    800003b8:	0052db3b          	srlw	s6,t0,t0
    800003bc:	cae8b313          	sltiu	t1,a7,-850
    800003c0:	3cb00993          	li	s3,971
    800003c4:	02956283          	lwu	t0,41(a0)
    800003c8:	00001097          	auipc	ra,0x1
    800003cc:	91f08093          	addi	ra,ra,-1761 # 80000ce7 <test_end+0x2b7>
    800003d0:	02d78233          	mul	tp,a5,a3
    800003d4:	6710aa83          	lw	s5,1649(ra)
    800003d8:	00010a13          	mv	s4,sp
    800003dc:	65411063          	bne	sp,s4,80000a1c <crash_forward>
    800003e0:	67388193          	addi	gp,a7,1651
    800003e4:	1cb00e13          	li	t3,459
    800003e8:	6311ea63          	bltu	gp,a7,80000a1c <crash_forward>
    800003ec:	03c9d633          	divu	a2,s3,t3
    800003f0:	00100593          	li	a1,1
    800003f4:	03f59593          	slli	a1,a1,0x3f
    800003f8:	00426a33          	or	s4,tp,tp
    800003fc:	00001997          	auipc	s3,0x1
    80000400:	01598993          	addi	s3,s3,21 # 80001411 <test_memory+0x111>
    80000404:	b4418293          	addi	t0,gp,-1212 # 80001a54 <_end+0x344>
    80000408:	bc400393          	li	t2,-1084
    8000040c:	00100713          	li	a4,1
    80000410:	fff00493          	li	s1,-1
    80000414:	e56f0c13          	addi	s8,t5,-426
    80000418:	0273f533          	remu	a0,t2,t2
    8000041c:	618f0063          	beq	t5,s8,80000a1c <crash_forward>
    80000420:	00001797          	auipc	a5,0x1
    80000424:	3db78793          	addi	a5,a5,987 # 800017fb <_end+0xeb>
    80000428:	40b5d0bb          	sraw	ra,a1,a1
    8000042c:	00b4c4b3          	xor	s1,s1,a1
    80000430:	1e799ea3          	sh	t2,509(s3)
    80000434:	51600193          	li	gp,1302
    80000438:	a6600e13          	li	t3,-1434
    8000043c:	0361413b          	divw	sp,sp,s6
    80000440:	00100513          	li	a0,1
    80000444:	03139fb3          	mulh	t6,t2,a7
    80000448:	a6b28883          	lb	a7,-1429(t0)
    8000044c:	009e7933          	and	s2,t3,s1
    80000450:	00001c97          	auipc	s9,0x1
    80000454:	8b3c8c93          	addi	s9,s9,-1869 # 80000d03 <test_end+0x2d3>
    80000458:	00b46433          	or	s0,s0,a1
    8000045c:	df57ab03          	lw	s6,-523(a5)
    80000460:	697cdd83          	lhu	s11,1687(s9)
    80000464:	03f51513          	slli	a0,a0,0x3f
    80000468:	dad1cc37          	lui	s8,0xdad1c
    8000046c:	0362e0bb          	remw	ra,t0,s6
    80000470:	c8890ce3          	beq	s2,s0,80000108 <crash_backward>
    80000474:	00001697          	auipc	a3,0x1
    80000478:	d4d68693          	addi	a3,a3,-691 # 800011c1 <reg_x24_init+0x1>
    8000047c:	94818813          	addi	a6,gp,-1720 # 80001858 <_end+0x148>
    80000480:	1d56d303          	lhu	t1,469(a3)
    80000484:	00001297          	auipc	t0,0x1
    80000488:	02d28293          	addi	t0,t0,45 # 800014b1 <test_memory+0x1b1>
    8000048c:	0118943b          	sllw	s0,a7,a7
    80000490:	03f71713          	slli	a4,a4,0x3f
    80000494:	b3a80ea3          	sb	s10,-1219(a6)
    80000498:	d66e0d13          	addi	s10,t3,-666
    8000049c:	99900213          	li	tp,-1639
    800004a0:	b5300093          	li	ra,-1197
    800004a4:	00001b17          	auipc	s6,0x1
    800004a8:	b8ab0b13          	addi	s6,s6,-1142 # 8000102e <tohost+0x2e>
    800004ac:	f3100493          	li	s1,-207
    800004b0:	00001997          	auipc	s3,0x1
    800004b4:	0b598993          	addi	s3,s3,181 # 80001565 <test_memory+0x265>
    800004b8:	0010acb3          	slt	s9,ra,ra
    800004bc:	328b0fa3          	sb	s0,831(s6)
    800004c0:	41bdd13b          	sraw	sp,s11,s11
    800004c4:	11f2ed83          	lwu	s11,287(t0)
    800004c8:	ed500f93          	li	t6,-299
    800004cc:	73c00c13          	li	s8,1852
    800004d0:	00001097          	auipc	ra,0x1
    800004d4:	9c108093          	addi	ra,ra,-1599 # 80000e91 <test_end+0x461>
    800004d8:	5170bc83          	ld	s9,1303(ra)
    800004dc:	00418bbb          	addw	s7,gp,tp
    800004e0:	fff00f13          	li	t5,-1
    800004e4:	67200593          	li	a1,1650
    800004e8:	fff00613          	li	a2,-1
    800004ec:	00af4f33          	xor	t5,t5,a0
    800004f0:	5d900913          	li	s2,1497
    800004f4:	00001117          	auipc	sp,0x1
    800004f8:	22710113          	addi	sp,sp,551 # 8000171b <_end+0xb>
    800004fc:	9a918293          	addi	t0,gp,-1623 # 800018b9 <_end+0x1a9>
    80000500:	50100413          	li	s0,1281
    80000504:	52400813          	li	a6,1316
    80000508:	ccd13d03          	ld	s10,-819(sp)
    8000050c:	43800b93          	li	s7,1080
    80000510:	39500213          	li	tp,917
    80000514:	2d3f819b          	addiw	gp,t6,723
    80000518:	01e6f3b3          	and	t2,a3,t5
    8000051c:	c3700b13          	li	s6,-969
    80000520:	019cbe33          	sltu	t3,s9,s9
    80000524:	09780313          	addi	t1,a6,151
    80000528:	00e64633          	xor	a2,a2,a4
    8000052c:	01f497b3          	sll	a5,s1,t6
    80000530:	b292a7a3          	sw	s1,-1233(t0)
    80000534:	26120c93          	addi	s9,tp,609 # 261 <_start-0x7ffffd9f>
    80000538:	00a36a33          	or	s4,t1,a0
    8000053c:	bd9206e3          	beq	tp,s9,80000108 <crash_backward>
    80000540:	0285f6bb          	remuw	a3,a1,s0
    80000544:	00cafeb3          	and	t4,s5,a2
    80000548:	bd43c0e3          	blt	t2,s4,80000108 <crash_backward>
    8000054c:	036b8dbb          	mulw	s11,s7,s6
    80000550:	012c48b3          	xor	a7,s8,s2
    80000554:	00eeeab3          	or	s5,t4,a4
    80000558:	bb5ec8e3          	blt	t4,s5,80000108 <crash_backward>
    8000055c:	f489bda3          	sd	s0,-165(s3)
    80000560:	00001317          	auipc	t1,0x1
    80000564:	22630313          	addi	t1,t1,550 # 80001786 <_end+0x76>
    80000568:	9f118513          	addi	a0,gp,-1551 # 80001901 <_end+0x1f1>
    8000056c:	b2155783          	lhu	a5,-1247(a0)
    80000570:	32900213          	li	tp,809
    80000574:	33900493          	li	s1,825
    80000578:	90c00893          	li	a7,-1780
    8000057c:	02a5483b          	divw	a6,a0,a0
    80000580:	00d69b33          	sll	s6,a3,a3
    80000584:	00000113          	li	sp,0
    80000588:	0e400e93          	li	t4,228
    8000058c:	00000b93          	li	s7,0
    80000590:	f8900293          	li	t0,-119
    80000594:	00001c17          	auipc	s8,0x1
    80000598:	fffc0c13          	addi	s8,s8,-1 # 80001593 <test_memory+0x293>
    8000059c:	99d00593          	li	a1,-1635
    800005a0:	1c348613          	addi	a2,s1,451
    800005a4:	5e800993          	li	s3,1512
    800005a8:	00001f97          	auipc	t6,0x1
    800005ac:	ef9f8f93          	addi	t6,t6,-263 # 800014a1 <test_memory+0x1a1>
    800005b0:	01399f33          	sll	t5,s3,s3
    800005b4:	4118dcb3          	sra	s9,a7,a7
    800005b8:	7f100e13          	li	t3,2033
    800005bc:	31d00393          	li	t2,797
    800005c0:	00b89dbb          	sllw	s11,a7,a1
    800005c4:	02217d33          	remu	s10,sp,sp
    800005c8:	0072cab3          	xor	s5,t0,t2
    800005cc:	5c920a13          	addi	s4,tp,1481 # 5c9 <_start-0x7ffffa37>
    800005d0:	00001917          	auipc	s2,0x1
    800005d4:	d8690913          	addi	s2,s2,-634 # 80001356 <test_memory+0x56>
    800005d8:	257e0193          	addi	gp,t3,599
    800005dc:	03dec433          	div	s0,t4,t4
    800005e0:	177fe683          	lwu	a3,375(t6)
    800005e4:	d7c18293          	addi	t0,gp,-644 # 80001c8c <_end+0x57c>
    800005e8:	da300413          	li	s0,-605
    800005ec:	b03e5ee3          	bge	t3,gp,80000108 <crash_backward>
    800005f0:	82428583          	lb	a1,-2012(t0)
    800005f4:	3f200a93          	li	s5,1010
    800005f8:	00001997          	auipc	s3,0x1
    800005fc:	9e798993          	addi	s3,s3,-1561 # 80000fdf <test_end+0x5af>
    80000600:	01ef083b          	addw	a6,t5,t5
    80000604:	00a54533          	xor	a0,a0,a0
    80000608:	66400c93          	li	s9,1636
    8000060c:	517984a3          	sb	s7,1289(s3)
    80000610:	0a993d23          	sd	s1,186(s2)
    80000614:	00001e97          	auipc	t4,0x1
    80000618:	123e8e93          	addi	t4,t4,291 # 80001737 <_end+0x27>
    8000061c:	aec4d6e3          	bge	s1,a2,80000108 <crash_backward>
    80000620:	047c5703          	lhu	a4,71(s8)
    80000624:	03943d33          	mulhu	s10,s0,s9
    80000628:	c9035083          	lhu	ra,-880(t1)
    8000062c:	f77e81a3          	sb	s7,-157(t4)
    80000630:	01bf9f1b          	slliw	t5,t6,0x1b
    80000634:	0f3a8393          	addi	t2,s5,243
    80000638:	00001897          	auipc	a7,0x1
    8000063c:	92a88893          	addi	a7,a7,-1750 # 80000f62 <test_end+0x532>
    80000640:	baf18d93          	addi	s11,gp,-1105 # 80001abf <_end+0x3af>
    80000644:	3c7afc63          	bgeu	s5,t2,80000a1c <crash_forward>
    80000648:	8d9d95a3          	sh	s9,-1845(s11)
    8000064c:	42a8c783          	lbu	a5,1066(a7)
    80000650:	00001b17          	auipc	s6,0x1
    80000654:	872b0b13          	addi	s6,s6,-1934 # 80000ec2 <test_end+0x492>
    80000658:	6c9b02a3          	sb	s1,1733(s6)
    8000065c:	00001397          	auipc	t2,0x1
    80000660:	98f38393          	addi	t2,t2,-1649 # 80000feb <test_end+0x5bb>
    80000664:	00038313          	mv	t1,t2
    80000668:	00000997          	auipc	s3,0x0
    8000066c:	7cb98993          	addi	s3,s3,1995 # 80000e33 <test_end+0x403>
    80000670:	00948eb3          	add	t4,s1,s1
    80000674:	e2600113          	li	sp,-474
    80000678:	33200c13          	li	s8,818
    8000067c:	693c0793          	addi	a5,s8,1683
    80000680:	cae00a93          	li	s5,-850
    80000684:	00001497          	auipc	s1,0x1
    80000688:	b8048493          	addi	s1,s1,-1152 # 80001204 <begin_signature+0x4>
    8000068c:	23100d93          	li	s11,561
    80000690:	01de8cbb          	addw	s9,t4,t4
    80000694:	cf900093          	li	ra,-775
    80000698:	035ac733          	div	a4,s5,s5
    8000069c:	4ed4a223          	sw	a3,1252(s1)
    800006a0:	ba200613          	li	a2,-1118
    800006a4:	014a6533          	or	a0,s4,s4
    800006a8:	035acebb          	divw	t4,s5,s5
    800006ac:	026348bb          	divw	a7,t1,t1
    800006b0:	00030193          	mv	gp,t1
    800006b4:	02c60933          	mul	s2,a2,a2
    800006b8:	4a400293          	li	t0,1188
    800006bc:	37300413          	li	s0,883
    800006c0:	ef500e13          	li	t3,-267
    800006c4:	0082dfbb          	srlw	t6,t0,s0
    800006c8:	31d3bb83          	ld	s7,797(t2)
    800006cc:	9c600e93          	li	t4,-1594
    800006d0:	00100413          	li	s0,1
    800006d4:	7d500f93          	li	t6,2005
    800006d8:	03c0f23b          	remuw	tp,ra,t3
    800006dc:	c43a8b13          	addi	s6,s5,-957
    800006e0:	41fed93b          	sraw	s2,t4,t6
    800006e4:	90b78f1b          	addiw	t5,a5,-1781
    800006e8:	bf800813          	li	a6,-1032
    800006ec:	002116bb          	sllw	a3,sp,sp
    800006f0:	4cf99da3          	sh	a5,1243(s3)
    800006f4:	00001217          	auipc	tp,0x1
    800006f8:	ccf20213          	addi	tp,tp,-817 # 800013c3 <test_memory+0xc3>
    800006fc:	32001063          	bnez	zero,80000a1c <crash_forward>
    80000700:	0252acb3          	mulhsu	s9,t0,t0
    80000704:	00100e13          	li	t3,1
    80000708:	03fe1e13          	slli	t3,t3,0x3f
    8000070c:	03f41413          	slli	s0,s0,0x3f
    80000710:	00100f93          	li	t6,1
    80000714:	fff00293          	li	t0,-1
    80000718:	410d8a33          	sub	s4,s11,a6
    8000071c:	b2418793          	addi	a5,gp,-1244 # 80001a34 <_end+0x324>
    80000720:	03ff9f93          	slli	t6,t6,0x3f
    80000724:	15725903          	lhu	s2,343(tp) # 157 <_start-0x7ffffea9>
    80000728:	10a00593          	li	a1,266
    8000072c:	92718a13          	addi	s4,gp,-1753 # 80001837 <_end+0x127>
    80000730:	a307be23          	sd	a6,-1476(a5)
    80000734:	d0d18893          	addi	a7,gp,-755 # 80001c1d <_end+0x50d>
    80000738:	039bccb3          	div	s9,s7,s9
    8000073c:	04f00e93          	li	t4,79
    80000740:	01de96b3          	sll	a3,t4,t4
    80000744:	00b5cd33          	xor	s10,a1,a1
    80000748:	00001f17          	auipc	t5,0x1
    8000074c:	0c1f0f13          	addi	t5,t5,193 # 80001809 <_end+0xf9>
    80000750:	00000217          	auipc	tp,0x0
    80000754:	59e20213          	addi	tp,tp,1438 # 80000cee <test_end+0x2be>
    80000758:	00000917          	auipc	s2,0x0
    8000075c:	54d90913          	addi	s2,s2,1357 # 80000ca5 <test_end+0x275>
    80000760:	77e26b83          	lwu	s7,1918(tp) # 77e <_start-0x7ffff882>
    80000764:	00001d17          	auipc	s10,0x1
    80000768:	859d0d13          	addi	s10,s10,-1959 # 80000fbd <test_end+0x58d>
    8000076c:	fff00093          	li	ra,-1
    80000770:	00001697          	auipc	a3,0x1
    80000774:	05068693          	addi	a3,a3,80 # 800017c0 <_end+0xb0>
    80000778:	ebbf2103          	lw	sp,-325(t5)
    8000077c:	761916a3          	sh	ra,1901(s2)
    80000780:	ae618713          	addi	a4,gp,-1306 # 800019f6 <_end+0x2e6>
    80000784:	bd9a6803          	lwu	a6,-1063(s4)
    80000788:	00000113          	li	sp,0
    8000078c:	01c0c0b3          	xor	ra,ra,t3
    80000790:	fff00c13          	li	s8,-1
    80000794:	00001997          	auipc	s3,0x1
    80000798:	a8598993          	addi	s3,s3,-1403 # 80001219 <reg_x3_output+0x1>
    8000079c:	2f09a7a3          	sw	a6,751(s3)
    800007a0:	8ed88603          	lb	a2,-1811(a7)
    800007a4:	9ad18b93          	addi	s7,gp,-1619 # 800018bd <_end+0x1ad>
    800007a8:	00000f13          	li	t5,0
    800007ac:	01927a33          	and	s4,tp,s9
    800007b0:	d9c5f813          	andi	a6,a1,-612
    800007b4:	0082c2b3          	xor	t0,t0,s0
    800007b8:	ebe00593          	li	a1,-322
    800007bc:	001efab3          	and	s5,t4,ra
    800007c0:	037bf933          	remu	s2,s7,s7
    800007c4:	3a3d3da3          	sd	gp,955(s10)
    800007c8:	da06be83          	ld	t4,-608(a3)
    800007cc:	b1c72b23          	sw	t3,-1258(a4)
    800007d0:	0008b833          	sltu	a6,a7,zero
    800007d4:	be3b91a3          	sh	gp,-1053(s7)
    800007d8:	01fc4c33          	xor	s8,s8,t6
    800007dc:	00001997          	auipc	s3,0x1
    800007e0:	c2c98993          	addi	s3,s3,-980 # 80001408 <test_memory+0x108>
    800007e4:	94458213          	addi	tp,a1,-1724
    800007e8:	0184f3b3          	and	t2,s1,s8
    800007ec:	00ce1db3          	sll	s11,t3,a2
    800007f0:	00001b97          	auipc	s7,0x1
    800007f4:	a73b8b93          	addi	s7,s7,-1421 # 80001263 <reg_x12_output+0x3>
    800007f8:	1fe99903          	lh	s2,510(s3)
    800007fc:	4dc00c93          	li	s9,1244
    80000800:	00001897          	auipc	a7,0x1
    80000804:	8fa88893          	addi	a7,a7,-1798 # 800010fa <fromhost+0xba>
    80000808:	01caeb33          	or	s6,s5,t3
    8000080c:	01f5e333          	or	t1,a1,t6
    80000810:	005074b3          	and	s1,zero,t0
    80000814:	2045c463          	blt	a1,tp,80000a1c <crash_forward>
    80000818:	215b5263          	bge	s6,s5,80000a1c <crash_forward>
    8000081c:	021b41bb          	divw	gp,s6,ra
    80000820:	00001717          	auipc	a4,0x1
    80000824:	a4170713          	addi	a4,a4,-1471 # 80001261 <reg_x12_output+0x1>
    80000828:	1c474803          	lbu	a6,452(a4)
    8000082c:	00850dbb          	addw	s11,a0,s0
    80000830:	00100e93          	li	t4,1
    80000834:	0084e533          	or	a0,s1,s0
    80000838:	a0b18993          	addi	s3,gp,-1525 # 8000191b <_end+0x20b>
    8000083c:	14900713          	li	a4,329
    80000840:	00106233          	or	tp,zero,ra
    80000844:	00001d97          	auipc	s11,0x1
    80000848:	c16d8d93          	addi	s11,s11,-1002 # 8000145a <test_memory+0x15a>
    8000084c:	1c63f863          	bgeu	t2,t1,80000a1c <crash_forward>
    80000850:	bcd00e13          	li	t3,-1075
    80000854:	019cd7b3          	srl	a5,s9,s9
    80000858:	1c956263          	bltu	a0,s1,80000a1c <crash_forward>
    8000085c:	01ce1abb          	sllw	s5,t3,t3
    80000860:	cb218f13          	addi	t5,gp,-846 # 80001bc2 <_end+0x4b2>
    80000864:	03fe9e93          	slli	t4,t4,0x3f
    80000868:	fff00d13          	li	s10,-1
    8000086c:	a1018f93          	addi	t6,gp,-1520 # 80001920 <_end+0x210>
    80000870:	00001c97          	auipc	s9,0x1
    80000874:	f16c8c93          	addi	s9,s9,-234 # 80001786 <_end+0x76>
    80000878:	00001797          	auipc	a5,0x1
    8000087c:	cbf78793          	addi	a5,a5,-833 # 80001537 <test_memory+0x237>
    80000880:	00001317          	auipc	t1,0x1
    80000884:	d1230313          	addi	t1,t1,-750 # 80001592 <test_memory+0x292>
    80000888:	836f2b03          	lw	s6,-1994(t5)
    8000088c:	01dd4d33          	xor	s10,s10,t4
    80000890:	dd2c8c23          	sb	s2,-552(s9)
    80000894:	00e7093b          	addw	s2,a4,a4
    80000898:	a4518113          	addi	sp,gp,-1467 # 80001955 <_end+0x245>
    8000089c:	a0f16803          	lwu	a6,-1521(sp)
    800008a0:	0297ac03          	lw	s8,41(a5)
    800008a4:	61800e13          	li	t3,1560
    800008a8:	fd431823          	sh	s4,-48(t1)
    800008ac:	e8900293          	li	t0,-375
    800008b0:	cc700913          	li	s2,-825
    800008b4:	025e073b          	mulw	a4,t3,t0
    800008b8:	00000317          	auipc	t1,0x0
    800008bc:	79330313          	addi	t1,t1,1939 # 8000104b <fromhost+0xb>
    800008c0:	0273dabb          	divuw	s5,t2,t2
    800008c4:	c3efd383          	lhu	t2,-962(t6)
    800008c8:	01a3f6b3          	and	a3,t2,s10
    800008cc:	4153d11b          	sraiw	sp,t2,0x15
    800008d0:	e5790213          	addi	tp,s2,-425
    800008d4:	05a00713          	li	a4,90
    800008d8:	41335783          	lhu	a5,1043(t1)
    800008dc:	14006063          	bltu	zero,zero,80000a1c <crash_forward>
    800008e0:	d5000113          	li	sp,-688
    800008e4:	c9300c13          	li	s8,-877
    800008e8:	01800a93          	li	s5,24
    800008ec:	5be00f93          	li	t6,1470
    800008f0:	024dc083          	lbu	ra,36(s11)
    800008f4:	9c218193          	addi	gp,gp,-1598 # 800018d2 <_end+0x1c2>
    800008f8:	ec300393          	li	t2,-317
    800008fc:	be300d93          	li	s11,-1053
    80000900:	804904e3          	beq	s2,tp,80000108 <crash_backward>
    80000904:	00000513          	li	a0,0
    80000908:	01f77cb3          	and	s9,a4,t6
    8000090c:	01db6633          	or	a2,s6,t4
    80000910:	abd1a723          	sw	t4,-1362(gp) # 800019be <_end+0x2ae>
    80000914:	a6c98583          	lb	a1,-1428(s3)
    80000918:	c7d18813          	addi	a6,gp,-899 # 80001b8d <_end+0x47d>
    8000091c:	24dbba03          	ld	s4,589(s7)
    80000920:	02715e3b          	divuw	t3,sp,t2
    80000924:	012b833b          	addw	t1,s7,s2
    80000928:	0ed65a63          	bge	a2,a3,80000a1c <crash_forward>
    8000092c:	035c02bb          	mulw	t0,s8,s5
    80000930:	31c00093          	li	ra,796
    80000934:	021d87bb          	mulw	a5,s11,ra
    80000938:	20800493          	li	s1,520
    8000093c:	c4d18693          	addi	a3,gp,-947 # 80001b5d <_end+0x44d>
    80000940:	ad36b383          	ld	t2,-1325(a3)
    80000944:	0294bb33          	mulhu	s6,s1,s1
    80000948:	97a18193          	addi	gp,gp,-1670 # 8000188a <_end+0x17a>
    8000094c:	00000f13          	li	t5,0
    80000950:	fbe51c63          	bne	a0,t5,80000108 <crash_backward>
    80000954:	3bc89b23          	sh	t3,950(a7)
    80000958:	00100313          	li	t1,1
    8000095c:	00001297          	auipc	t0,0x1
    80000960:	bce28293          	addi	t0,t0,-1074 # 8000152a <test_memory+0x22a>
    80000964:	1aa28523          	sb	a0,426(t0)
    80000968:	01195e9b          	srliw	t4,s2,0x11
    8000096c:	e461a203          	lw	tp,-442(gp) # 80001d56 <_end+0x646>
    80000970:	93980403          	lb	s0,-1735(a6)
    80000974:	03f31313          	slli	t1,t1,0x3f
    80000978:	fff00d13          	li	s10,-1
    8000097c:	006d4d33          	xor	s10,s10,t1
    80000980:	55b00593          	li	a1,1371
    80000984:	02b5aab3          	mulhsu	s5,a1,a1
    80000988:	01a87633          	and	a2,a6,s10
    8000098c:	00666933          	or	s2,a2,t1
    80000990:	08c95663          	bge	s2,a2,80000a1c <crash_forward>
    80000994:	0040006f          	j	80000998 <reg_dump>

0000000080000998 <reg_dump>:
    80000998:	00001097          	auipc	ra,0x1
    8000099c:	d6808093          	addi	ra,ra,-664 # 80001700 <loop_count>
    800009a0:	0000a103          	lw	sp,0(ra)
    800009a4:	fff10193          	addi	gp,sp,-1
    800009a8:	0030a023          	sw	gp,0(ra)
    800009ac:	fe011e63          	bnez	sp,800001a8 <pseg_0>
    800009b0:	00001097          	auipc	ra,0x1
    800009b4:	85008093          	addi	ra,ra,-1968 # 80001200 <begin_signature>
    800009b8:	0000b023          	sd	zero,0(ra)
    800009bc:	0020b823          	sd	sp,16(ra)
    800009c0:	0240b023          	sd	tp,32(ra)
    800009c4:	0260b823          	sd	t1,48(ra)
    800009c8:	0270bc23          	sd	t2,56(ra)
    800009cc:	0480b023          	sd	s0,64(ra)
    800009d0:	0490b423          	sd	s1,72(ra)
    800009d4:	04a0b823          	sd	a0,80(ra)
    800009d8:	04b0bc23          	sd	a1,88(ra)
    800009dc:	06c0b023          	sd	a2,96(ra)
    800009e0:	06e0b823          	sd	a4,112(ra)
    800009e4:	06f0bc23          	sd	a5,120(ra)
    800009e8:	0920b823          	sd	s2,144(ra)
    800009ec:	0b40b023          	sd	s4,160(ra)
    800009f0:	0b50b423          	sd	s5,168(ra)
    800009f4:	0b60b823          	sd	s6,176(ra)
    800009f8:	0d80b023          	sd	s8,192(ra)
    800009fc:	0d90b423          	sd	s9,200(ra)
    80000a00:	0da0b823          	sd	s10,208(ra)
    80000a04:	0db0bc23          	sd	s11,216(ra)
    80000a08:	0fc0b023          	sd	t3,224(ra)
    80000a0c:	0fd0b423          	sd	t4,232(ra)
    80000a10:	0fe0b823          	sd	t5,240(ra)
    80000a14:	0ff0bc23          	sd	t6,248(ra)
    80000a18:	0180006f          	j	80000a30 <test_end>

0000000080000a1c <crash_forward>:
    80000a1c:	0ff0000f          	fence
    80000a20:	00018063          	beqz	gp,80000a20 <crash_forward+0x4>
    80000a24:	00119193          	slli	gp,gp,0x1
    80000a28:	0011e193          	ori	gp,gp,1
    80000a2c:	00000073          	ecall

0000000080000a30 <test_end>:
    80000a30:	0ff0000f          	fence
    80000a34:	00100193          	li	gp,1
    80000a38:	00000073          	ecall
    80000a3c:	c0001073          	unimp
	...

Disassembly of section .tohost:

0000000080001000 <tohost>:
	...

0000000080001040 <fromhost>:
	...
