
test.elf:     file format elf64-littleriscv


Disassembly of section .text.init:

0000000080000000 <_start>:
    80000000:	0580006f          	j	80000058 <reset_vector>

0000000080000004 <trap_vector>:
    80000004:	34202f73          	csrr	t5,mcause
    80000008:	00800f93          	li	t6,8
    8000000c:	05ff0063          	beq	t5,t6,8000004c <write_tohost>
    80000010:	00900f93          	li	t6,9
    80000014:	03ff0c63          	beq	t5,t6,8000004c <write_tohost>
    80000018:	00b00f93          	li	t6,11
    8000001c:	03ff0863          	beq	t5,t6,8000004c <write_tohost>
    80000020:	00000f13          	li	t5,0
    80000024:	000f0463          	beqz	t5,8000002c <trap_vector+0x28>
    80000028:	000f0067          	jr	t5
    8000002c:	34202f73          	csrr	t5,mcause
    80000030:	000f5463          	bgez	t5,80000038 <handle_exception>
    80000034:	0140006f          	j	80000048 <other_exception>

0000000080000038 <handle_exception>:
    80000038:	34102e73          	csrr	t3,mepc
    8000003c:	004e0e13          	addi	t3,t3,4
    80000040:	341e1073          	csrw	mepc,t3
    80000044:	30200073          	mret

0000000080000048 <other_exception>:
    80000048:	5391e193          	ori	gp,gp,1337

000000008000004c <write_tohost>:
    8000004c:	00001f17          	auipc	t5,0x1
    80000050:	fa3f2a23          	sw	gp,-76(t5) # 80001000 <tohost>
    80000054:	ff9ff06f          	j	8000004c <write_tohost>

0000000080000058 <reset_vector>:
    80000058:	f1402573          	csrr	a0,mhartid
    8000005c:	00051063          	bnez	a0,8000005c <reset_vector+0x4>
    80000060:	00000297          	auipc	t0,0x0
    80000064:	01028293          	addi	t0,t0,16 # 80000070 <reset_vector+0x18>
    80000068:	30529073          	csrw	mtvec,t0
    8000006c:	18005073          	csrwi	satp,0
    80000070:	00000297          	auipc	t0,0x0
    80000074:	01c28293          	addi	t0,t0,28 # 8000008c <reset_vector+0x34>
    80000078:	30529073          	csrw	mtvec,t0
    8000007c:	fff00293          	li	t0,-1
    80000080:	3b029073          	csrw	pmpaddr0,t0
    80000084:	01f00293          	li	t0,31
    80000088:	3a029073          	csrw	pmpcfg0,t0
    8000008c:	00000297          	auipc	t0,0x0
    80000090:	01828293          	addi	t0,t0,24 # 800000a4 <reset_vector+0x4c>
    80000094:	30529073          	csrw	mtvec,t0
    80000098:	30205073          	csrwi	medeleg,0
    8000009c:	30305073          	csrwi	mideleg,0
    800000a0:	30405073          	csrwi	mie,0
    800000a4:	00000193          	li	gp,0
    800000a8:	00000297          	auipc	t0,0x0
    800000ac:	f5c28293          	addi	t0,t0,-164 # 80000004 <trap_vector>
    800000b0:	30529073          	csrw	mtvec,t0
    800000b4:	00100513          	li	a0,1
    800000b8:	01f51513          	slli	a0,a0,0x1f
    800000bc:	00055863          	bgez	a0,800000cc <reset_vector+0x74>
    800000c0:	0ff0000f          	fence
    800000c4:	00100193          	li	gp,1
    800000c8:	00000073          	ecall
    800000cc:	00000293          	li	t0,0
    800000d0:	00028e63          	beqz	t0,800000ec <reset_vector+0x94>
    800000d4:	10529073          	csrw	stvec,t0
    800000d8:	0000b2b7          	lui	t0,0xb
    800000dc:	1092829b          	addiw	t0,t0,265
    800000e0:	30229073          	csrw	medeleg,t0
    800000e4:	30202373          	csrr	t1,medeleg
    800000e8:	f66290e3          	bne	t0,t1,80000048 <other_exception>
    800000ec:	30005073          	csrwi	mstatus,0
    800000f0:	00000297          	auipc	t0,0x0
    800000f4:	01428293          	addi	t0,t0,20 # 80000104 <reset_vector+0xac>
    800000f8:	34129073          	csrw	mepc,t0
    800000fc:	f1402573          	csrr	a0,mhartid
    80000100:	30200073          	mret
    80000104:	0180006f          	j	8000011c <test_start>

0000000080000108 <crash_backward>:
    80000108:	0ff0000f          	fence
    8000010c:	00018063          	beqz	gp,8000010c <crash_backward+0x4>
    80000110:	00119193          	slli	gp,gp,0x1
    80000114:	0011e193          	ori	gp,gp,1
    80000118:	00000073          	ecall

000000008000011c <test_start>:
    8000011c:	00001f97          	auipc	t6,0x1
    80000120:	fe4f8f93          	addi	t6,t6,-28 # 80001100 <hidden_data>
    80000124:	000fb003          	ld	zero,0(t6)
    80000128:	008fb083          	ld	ra,8(t6)
    8000012c:	010fb103          	ld	sp,16(t6)
    80000130:	018fb183          	ld	gp,24(t6)
    80000134:	020fb203          	ld	tp,32(t6)
    80000138:	028fb283          	ld	t0,40(t6)
    8000013c:	030fb303          	ld	t1,48(t6)
    80000140:	038fb383          	ld	t2,56(t6)
    80000144:	040fb403          	ld	s0,64(t6)
    80000148:	048fb483          	ld	s1,72(t6)
    8000014c:	050fb503          	ld	a0,80(t6)
    80000150:	058fb583          	ld	a1,88(t6)
    80000154:	060fb603          	ld	a2,96(t6)
    80000158:	068fb683          	ld	a3,104(t6)
    8000015c:	070fb703          	ld	a4,112(t6)
    80000160:	078fb783          	ld	a5,120(t6)
    80000164:	080fb803          	ld	a6,128(t6)
    80000168:	088fb883          	ld	a7,136(t6)
    8000016c:	090fb903          	ld	s2,144(t6)
    80000170:	098fb983          	ld	s3,152(t6)
    80000174:	0a0fba03          	ld	s4,160(t6)
    80000178:	0a8fba83          	ld	s5,168(t6)
    8000017c:	0b0fbb03          	ld	s6,176(t6)
    80000180:	0b8fbb83          	ld	s7,184(t6)
    80000184:	0c0fbc03          	ld	s8,192(t6)
    80000188:	0c8fbc83          	ld	s9,200(t6)
    8000018c:	0d0fbd03          	ld	s10,208(t6)
    80000190:	0d8fbd83          	ld	s11,216(t6)
    80000194:	0e0fbe03          	ld	t3,224(t6)
    80000198:	0e8fbe83          	ld	t4,232(t6)
    8000019c:	0f0fbf03          	ld	t5,240(t6)
    800001a0:	0f8fbf83          	ld	t6,248(t6)
    800001a4:	0040006f          	j	800001a8 <pseg_0>

00000000800001a8 <pseg_0>:
    800001a8:	018c45b3          	xor	a1,s8,s8
    800001ac:	00001e17          	auipc	t3,0x1
    800001b0:	10ee0e13          	addi	t3,t3,270 # 800012ba <reg_x23_output+0x2>
    800001b4:	77800e93          	li	t4,1912
    800001b8:	00001817          	auipc	a6,0x1
    800001bc:	3a180813          	addi	a6,a6,929 # 80001559 <test_memory+0x259>
    800001c0:	0118ecb3          	or	s9,a7,a7
    800001c4:	36100f93          	li	t6,865
    800001c8:	e4f83f03          	ld	t5,-433(a6)
    800001cc:	f2b00093          	li	ra,-213
    800001d0:	54f00d13          	li	s10,1359
    800001d4:	019cebb3          	or	s7,s9,s9
    800001d8:	25100913          	li	s2,593
    800001dc:	00001197          	auipc	gp,0x1
    800001e0:	e7c18193          	addi	gp,gp,-388 # 80001058 <fromhost+0x18>
    800001e4:	30ee2283          	lw	t0,782(t3)
    800001e8:	6f800a13          	li	s4,1784
    800001ec:	0210f7bb          	remuw	a5,ra,ra
    800001f0:	01b2533b          	srlw	t1,tp,s11
    800001f4:	3e800d93          	li	s11,1000
    800001f8:	38c1e383          	lwu	t2,908(gp) # 8000229c <__global_pointer$+0x38c>
    800001fc:	03ad673b          	remw	a4,s10,s10
    80000200:	501f8b13          	addi	s6,t6,1281
    80000204:	1cb00493          	li	s1,459
    80000208:	67690a93          	addi	s5,s2,1654
    8000020c:	409d88b3          	sub	a7,s11,s1
    80000210:	23d00993          	li	s3,573
    80000214:	013e823b          	addw	tp,t4,s3
    80000218:	31690113          	addi	sp,s2,790
    8000021c:	00001617          	auipc	a2,0x1
    80000220:	28c60613          	addi	a2,a2,652 # 800014a8 <test_memory+0x1a8>
    80000224:	1d862683          	lw	a3,472(a2)
    80000228:	77597c63          	bgeu	s2,s5,800009a0 <crash_forward>
    8000022c:	91818c13          	addi	s8,gp,-1768 # 80001828 <_end+0x118>
    80000230:	014a6433          	or	s0,s4,s4
    80000234:	d40c6503          	lwu	a0,-704(s8)
    80000238:	77fb6463          	bltu	s6,t6,800009a0 <crash_forward>
    8000023c:	00253c33          	sltu	s8,a0,sp
    80000240:	b7100e93          	li	t4,-1167
    80000244:	0231b433          	mulhu	s0,gp,gp
    80000248:	dfab3c93          	sltiu	s9,s6,-518
    8000024c:	9b500213          	li	tp,-1611
    80000250:	b3700f13          	li	t5,-1225
    80000254:	00100393          	li	t2,1
    80000258:	40220a3b          	subw	s4,tp,sp
    8000025c:	00001497          	auipc	s1,0x1
    80000260:	46c48493          	addi	s1,s1,1132 # 800016c8 <test_memory+0x3c8>
    80000264:	03ea98b3          	mulh	a7,s5,t5
    80000268:	00100293          	li	t0,1
    8000026c:	02422333          	mulhsu	t1,tp,tp
    80000270:	03f39393          	slli	t2,t2,0x3f
    80000274:	01de99b3          	sll	s3,t4,t4
    80000278:	fff00a93          	li	s5,-1
    8000027c:	01ef41b3          	xor	gp,t5,t5
    80000280:	012d591b          	srliw	s2,s10,0x12
    80000284:	03f29293          	slli	t0,t0,0x3f
    80000288:	00425d3b          	srlw	s10,tp,tp
    8000028c:	03ef0233          	mul	tp,t5,t5
    80000290:	007acab3          	xor	s5,s5,t2
    80000294:	a3f00193          	li	gp,-1473
    80000298:	00001317          	auipc	t1,0x1
    8000029c:	c9130313          	addi	t1,t1,-879 # 80000f29 <test_end+0x575>
    800002a0:	00100113          	li	sp,1
    800002a4:	a3118713          	addi	a4,gp,-1487 # 80001941 <_end+0x231>
    800002a8:	f8a48603          	lb	a2,-118(s1)
    800002ac:	5b332ba3          	sw	s3,1463(t1)
    800002b0:	00001597          	auipc	a1,0x1
    800002b4:	99a58593          	addi	a1,a1,-1638 # 80000c4a <test_end+0x296>
    800002b8:	fff00513          	li	a0,-1
    800002bc:	03f11113          	slli	sp,sp,0x3f
    800002c0:	014a50bb          	srlw	ra,s4,s4
    800002c4:	d1371aa3          	sh	s3,-747(a4)
    800002c8:	e6218a13          	addi	s4,gp,-414 # 80001d72 <_end+0x662>
    800002cc:	a2300913          	li	s2,-1501
    800002d0:	00001897          	auipc	a7,0x1
    800002d4:	c2d88893          	addi	a7,a7,-979 # 80000efd <test_end+0x549>
    800002d8:	00cd9d1b          	slliw	s10,s11,0xc
    800002dc:	95aa6983          	lwu	s3,-1702(s4)
    800002e0:	00100c93          	li	s9,1
    800002e4:	fff00793          	li	a5,-1
    800002e8:	0027c7b3          	xor	a5,a5,sp
    800002ec:	01587833          	and	a6,a6,s5
    800002f0:	00ff76b3          	and	a3,t5,a5
    800002f4:	03fc9c93          	slli	s9,s9,0x3f
    800002f8:	fff00c13          	li	s8,-1
    800002fc:	007cebb3          	or	s7,s9,t2
    80000300:	019c4c33          	xor	s8,s8,s9
    80000304:	9b300613          	li	a2,-1613
    80000308:	6e259623          	sh	sp,1772(a1)
    8000030c:	01857e33          	and	t3,a0,s8
    80000310:	00000d13          	li	s10,0
    80000314:	00000a13          	li	s4,0
    80000318:	40c609b3          	sub	s3,a2,a2
    8000031c:	028fb233          	mulhu	tp,t6,s0
    80000320:	019e6433          	or	s0,t3,s9
    80000324:	0321ceb3          	div	t4,gp,s2
    80000328:	0026eb33          	or	s6,a3,sp
    8000032c:	00554533          	xor	a0,a0,t0
    80000330:	0308473b          	divw	a4,a6,a6
    80000334:	67c46663          	bltu	s0,t3,800009a0 <crash_forward>
    80000338:	98f00093          	li	ra,-1649
    8000033c:	00af7db3          	and	s11,t5,a0
    80000340:	4e38bf03          	ld	t5,1251(a7)
    80000344:	0051efb3          	or	t6,gp,t0
    80000348:	1d500313          	li	t1,469
    8000034c:	026094b3          	mulh	s1,ra,t1
    80000350:	01f483bb          	addw	t2,s1,t6
    80000354:	00001217          	auipc	tp,0x1
    80000358:	cdb20213          	addi	tp,tp,-805 # 8000102f <tohost+0x2f>
    8000035c:	03ce013b          	mulw	sp,t3,t3
    80000360:	016d843b          	addw	s0,s11,s6
    80000364:	ff700493          	li	s1,-9
    80000368:	db4a60e3          	bltu	s4,s4,80000108 <crash_backward>
    8000036c:	bf518093          	addi	ra,gp,-1035 # 80001b05 <_end+0x3f5>
    80000370:	639ce863          	bltu	s9,s9,800009a0 <crash_forward>
    80000374:	000c0d13          	mv	s10,s8
    80000378:	00001897          	auipc	a7,0x1
    8000037c:	bc388893          	addi	a7,a7,-1085 # 80000f3b <test_end+0x587>
    80000380:	000d0313          	mv	t1,s10
    80000384:	00100e13          	li	t3,1
    80000388:	f8e00113          	li	sp,-114
    8000038c:	64923683          	ld	a3,1609(tp) # 649 <_start-0x7ffff9b7>
    80000390:	03fe1e13          	slli	t3,t3,0x3f
    80000394:	03800a13          	li	s4,56
    80000398:	00030c13          	mv	s8,t1
    8000039c:	000c0e93          	mv	t4,s8
    800003a0:	fff00913          	li	s2,-1
    800003a4:	7d800593          	li	a1,2008
    800003a8:	5e6d4c63          	blt	s10,t1,800009a0 <crash_forward>
    800003ac:	00001717          	auipc	a4,0x1
    800003b0:	03f70713          	addi	a4,a4,63 # 800013eb <test_memory+0xeb>
    800003b4:	bab00393          	li	t2,-1109
    800003b8:	3a000c93          	li	s9,928
    800003bc:	00001997          	auipc	s3,0x1
    800003c0:	b8898993          	addi	s3,s3,-1144 # 80000f44 <test_end+0x590>
    800003c4:	01c94933          	xor	s2,s2,t3
    800003c8:	9ac0a3a3          	sw	a2,-1625(ra)
    800003cc:	50c9df03          	lhu	t5,1292(s3)
    800003d0:	5d58ba83          	ld	s5,1493(a7)
    800003d4:	11ec8193          	addi	gp,s9,286
    800003d8:	0273a433          	mulhsu	s0,t2,t2
    800003dc:	012b7633          	and	a2,s6,s2
    800003e0:	02400413          	li	s0,36
    800003e4:	00100a93          	li	s5,1
    800003e8:	19d00f93          	li	t6,413
    800003ec:	28800d93          	li	s11,648
    800003f0:	77d00e93          	li	t4,1917
    800003f4:	80d00493          	li	s1,-2035
    800003f8:	02840233          	mul	tp,s0,s0
    800003fc:	f9f74b83          	lbu	s7,-97(a4)
    80000400:	03dfc3bb          	divw	t2,t6,t4
    80000404:	ba273893          	sltiu	a7,a4,-1118
    80000408:	03fa9a93          	slli	s5,s5,0x3f
    8000040c:	40915b3b          	sraw	s6,sp,s1
    80000410:	02ba07b3          	mul	a5,s4,a1
    80000414:	a4b18e93          	addi	t4,gp,-1461 # 8000195b <_end+0x24b>
    80000418:	00001197          	auipc	gp,0x1
    8000041c:	ed818193          	addi	gp,gp,-296 # 800012f0 <reg_x30_output>
    80000420:	e8200393          	li	t2,-382
    80000424:	18300993          	li	s3,387
    80000428:	70c27b13          	andi	s6,tp,1804
    8000042c:	95500c13          	li	s8,-1707
    80000430:	0501ae23          	sw	a6,92(gp) # 80001f6c <__global_pointer$+0x5c>
    80000434:	37e00493          	li	s1,894
    80000438:	c0118f93          	addi	t6,gp,-1023 # 80001b11 <_end+0x401>
    8000043c:	a9deec83          	lwu	s9,-1379(t4)
    80000440:	aaffaf03          	lw	t5,-1361(t6)
    80000444:	4094823b          	subw	tp,s1,s1
    80000448:	033db333          	mulhu	t1,s11,s3
    8000044c:	00100593          	li	a1,1
    80000450:	03f59593          	slli	a1,a1,0x3f
    80000454:	fff00293          	li	t0,-1
    80000458:	0152c2b3          	xor	t0,t0,s5
    8000045c:	005770b3          	and	ra,a4,t0
    80000460:	01556533          	or	a0,a0,s5
    80000464:	ca1552e3          	bge	a0,ra,80000108 <crash_backward>
    80000468:	09600893          	li	a7,150
    8000046c:	fff00a13          	li	s4,-1
    80000470:	0113fbb3          	and	s7,t2,a7
    80000474:	01cae833          	or	a6,s5,t3
    80000478:	75600693          	li	a3,1878
    8000047c:	c8c856e3          	bge	a6,a2,80000108 <crash_backward>
    80000480:	00001717          	auipc	a4,0x1
    80000484:	b6e70713          	addi	a4,a4,-1170 # 80000fee <test_end+0x63a>
    80000488:	00dc0d33          	add	s10,s8,a3
    8000048c:	3da72403          	lw	s0,986(a4)
    80000490:	00ba4a33          	xor	s4,s4,a1
    80000494:	014177b3          	and	a5,sp,s4
    80000498:	00b4e133          	or	sp,s1,a1
    8000049c:	50278263          	beq	a5,sp,800009a0 <crash_forward>
    800004a0:	d5418393          	addi	t2,gp,-684 # 80001c64 <_end+0x554>
    800004a4:	00100c13          	li	s8,1
    800004a8:	fa118d13          	addi	s10,gp,-95 # 80001eb1 <_end+0x7a1>
    800004ac:	00001b97          	auipc	s7,0x1
    800004b0:	c1cb8b93          	addi	s7,s7,-996 # 800010c8 <fromhost+0x88>
    800004b4:	00001797          	auipc	a5,0x1
    800004b8:	a0078793          	addi	a5,a5,-1536 # 80000eb4 <test_end+0x500>
    800004bc:	c2a00193          	li	gp,-982
    800004c0:	54d7ca83          	lbu	s5,1357(a5)
    800004c4:	827d2e03          	lw	t3,-2009(s10)
    800004c8:	5e8bbb03          	ld	s6,1512(s7)
    800004cc:	00d4eeb3          	or	t4,s1,a3
    800004d0:	0357d413          	srli	s0,a5,0x35
    800004d4:	01a59513          	slli	a0,a1,0x1a
    800004d8:	0229ca3b          	divw	s4,s3,sp
    800004dc:	00001497          	auipc	s1,0x1
    800004e0:	83c48493          	addi	s1,s1,-1988 # 80000d18 <test_end+0x364>
    800004e4:	f7518c93          	addi	s9,gp,-139 # 80001e85 <_end+0x775>
    800004e8:	99a00093          	li	ra,-1638
    800004ec:	bb718d93          	addi	s11,gp,-1097 # 80001ac7 <_end+0x3b7>
    800004f0:	6c84ef03          	lwu	t5,1736(s1)
    800004f4:	93700793          	li	a5,-1737
    800004f8:	030b3333          	mulhu	t1,s6,a6
    800004fc:	00001d17          	auipc	s10,0x1
    80000500:	2dbd0d13          	addi	s10,s10,731 # 800017d7 <_end+0xc7>
    80000504:	40318733          	sub	a4,gp,gp
    80000508:	03fc1c13          	slli	s8,s8,0x3f
    8000050c:	fff00113          	li	sp,-1
    80000510:	805c90a3          	sh	t0,-2047(s9)
    80000514:	900db0a3          	sd	zero,-1791(s11)
    80000518:	be778e13          	addi	t3,a5,-1049
    8000051c:	e29d3683          	ld	a3,-471(s10)
    80000520:	befe74e3          	bgeu	t3,a5,80000108 <crash_backward>
    80000524:	b2018a93          	addi	s5,gp,-1248 # 80001a30 <_end+0x320>
    80000528:	00001617          	auipc	a2,0x1
    8000052c:	d7a60613          	addi	a2,a2,-646 # 800012a2 <reg_x20_output+0x2>
    80000530:	27500993          	li	s3,629
    80000534:	039c823b          	mulw	tp,s9,s9
    80000538:	d9c00713          	li	a4,-612
    8000053c:	00001b17          	auipc	s6,0x1
    80000540:	f35b0b13          	addi	s6,s6,-203 # 80001471 <test_memory+0x171>
    80000544:	ad500213          	li	tp,-1323
    80000548:	00001497          	auipc	s1,0x1
    8000054c:	cf648493          	addi	s1,s1,-778 # 8000123e <reg_x7_output+0x6>
    80000550:	0139d7bb          	srlw	a5,s3,s3
    80000554:	254b0e03          	lb	t3,596(s6)
    80000558:	024722b3          	mulhsu	t0,a4,tp
    8000055c:	00001a17          	auipc	s4,0x1
    80000560:	9a7a0a13          	addi	s4,s4,-1625 # 80000f03 <test_end+0x54f>
    80000564:	00001317          	auipc	t1,0x1
    80000568:	f0f30313          	addi	t1,t1,-241 # 80001473 <test_memory+0x173>
    8000056c:	7b298913          	addi	s2,s3,1970
    80000570:	00001517          	auipc	a0,0x1
    80000574:	1ac50513          	addi	a0,a0,428 # 8000171c <_end+0xc>
    80000578:	c13a84a3          	sb	s3,-1015(s5)
    8000057c:	b92986e3          	beq	s3,s2,80000108 <crash_backward>
    80000580:	9b43b883          	ld	a7,-1612(t2)
    80000584:	01814133          	xor	sp,sp,s8
    80000588:	00277fb3          	and	t6,a4,sp
    8000058c:	3ac4c683          	lbu	a3,940(s1)
    80000590:	37e61e23          	sh	t5,892(a2)
    80000594:	018fe833          	or	a6,t6,s8
    80000598:	410ff463          	bgeu	t6,a6,800009a0 <crash_forward>
    8000059c:	00001197          	auipc	gp,0x1
    800005a0:	a1218193          	addi	gp,gp,-1518 # 80000fae <test_end+0x5fa>
    800005a4:	0010d5bb          	srlw	a1,ra,ra
    800005a8:	a3000b93          	li	s7,-1488
    800005ac:	b7d18113          	addi	sp,gp,-1155 # 80001a8d <_end+0x37d>
    800005b0:	0339a833          	mulhsu	a6,s3,s3
    800005b4:	a5a18393          	addi	t2,gp,-1446 # 8000196a <_end+0x25a>
    800005b8:	c1cb8f13          	addi	t5,s7,-996
    800005bc:	b3d18c13          	addi	s8,gp,-1219 # 80001a4d <_end+0x33d>
    800005c0:	014a7e33          	and	t3,s4,s4
    800005c4:	00000993          	li	s3,0
    800005c8:	9c3c3e83          	ld	t4,-1597(s8)
    800005cc:	00000693          	li	a3,0
    800005d0:	795a3d03          	ld	s10,1941(s4)
    800005d4:	e8e55c83          	lhu	s9,-370(a0)
    800005d8:	00000897          	auipc	a7,0x0
    800005dc:	7a788893          	addi	a7,a7,1959 # 80000d7f <test_end+0x3cb>
    800005e0:	00001617          	auipc	a2,0x1
    800005e4:	cc360613          	addi	a2,a2,-829 # 800012a3 <reg_x20_output+0x3>
    800005e8:	00000293          	li	t0,0
    800005ec:	221322a3          	sw	ra,549(t1)
    800005f0:	00000717          	auipc	a4,0x0
    800005f4:	65070713          	addi	a4,a4,1616 # 80000c40 <test_end+0x28c>
    800005f8:	b5e00593          	li	a1,-1186
    800005fc:	9eb12f83          	lw	t6,-1557(sp)
    80000600:	00000c17          	auipc	s8,0x0
    80000604:	6e0c0c13          	addi	s8,s8,1760 # 80000ce0 <test_end+0x32c>
    80000608:	76fc0a23          	sb	a5,1908(s8)
    8000060c:	6698b203          	ld	tp,1641(a7)
    80000610:	00100d13          	li	s10,1
    80000614:	00000a93          	li	s5,0
    80000618:	9f800793          	li	a5,-1544
    8000061c:	61b00b93          	li	s7,1563
    80000620:	b3339023          	sh	s3,-1248(t2)
    80000624:	00001f97          	auipc	t6,0x1
    80000628:	ec0f8f93          	addi	t6,t6,-320 # 800014e4 <test_memory+0x1e4>
    8000062c:	ad529ee3          	bne	t0,s5,80000108 <crash_backward>
    80000630:	edd00113          	li	sp,-291
    80000634:	002bff33          	and	t5,s7,sp
    80000638:	f5000b13          	li	s6,-176
    8000063c:	cbb58513          	addi	a0,a1,-837
    80000640:	dff00393          	li	t2,-513
    80000644:	c4418413          	addi	s0,gp,-956 # 80001b54 <_end+0x444>
    80000648:	080fb623          	sd	zero,140(t6)
    8000064c:	43318d83          	lb	s11,1075(gp) # 80002343 <__global_pointer$+0x433>
    80000650:	7ad71623          	sh	a3,1964(a4)
    80000654:	885409a3          	sb	t0,-1901(s0)
    80000658:	17960483          	lb	s1,377(a2)
    8000065c:	c9900e13          	li	t3,-871
    80000660:	0863f313          	andi	t1,t2,134
    80000664:	89400913          	li	s2,-1900
    80000668:	016b6a33          	or	s4,s6,s6
    8000066c:	012900bb          	addw	ra,s2,s2
    80000670:	a8b57ce3          	bgeu	a0,a1,80000108 <crash_backward>
    80000674:	000878b3          	and	a7,a6,zero
    80000678:	01293b33          	sltu	s6,s2,s2
    8000067c:	03fd1d13          	slli	s10,s10,0x3f
    80000680:	00001717          	auipc	a4,0x1
    80000684:	c7e70713          	addi	a4,a4,-898 # 800012fe <reg_x31_output+0x6>
    80000688:	fff00693          	li	a3,-1
    8000068c:	e3f18d93          	addi	s11,gp,-449 # 80001d4f <_end+0x63f>
    80000690:	56f00a93          	li	s5,1391
    80000694:	2dd00193          	li	gp,733
    80000698:	32318313          	addi	t1,gp,803 # 80002233 <__global_pointer$+0x323>
    8000069c:	3fd70f83          	lb	t6,1021(a4)
    800006a0:	1cc00a13          	li	s4,460
    800006a4:	035382bb          	mulw	t0,t2,s5
    800006a8:	2e61dc63          	bge	gp,t1,800009a0 <crash_forward>
    800006ac:	00001c17          	auipc	s8,0x1
    800006b0:	be5c0c13          	addi	s8,s8,-1051 # 80001291 <reg_x18_output+0x1>
    800006b4:	034a643b          	remw	s0,s4,s4
    800006b8:	41ce5cb3          	sra	s9,t3,t3
    800006bc:	01a6c6b3          	xor	a3,a3,s10
    800006c0:	e5a18213          	addi	tp,gp,-422 # 80001d6a <_end+0x65a>
    800006c4:	00dbf833          	and	a6,s7,a3
    800006c8:	e5818113          	addi	sp,gp,-424 # 80001d68 <_end+0x658>
    800006cc:	01a069b3          	or	s3,zero,s10
    800006d0:	02f7eeb3          	rem	t4,a5,a5
    800006d4:	40e75f3b          	sraw	t5,a4,a4
    800006d8:	8b623483          	ld	s1,-1866(tp) # fffffffffffff8b6 <__global_pointer$+0xffffffff7fffd9a6>
    800006dc:	a1100393          	li	t2,-1519
    800006e0:	4a700093          	li	ra,1191
    800006e4:	022e88b3          	mul	a7,t4,sp
    800006e8:	95d12023          	sw	t4,-1728(sp)
    800006ec:	00001497          	auipc	s1,0x1
    800006f0:	07648493          	addi	s1,s1,118 # 80001762 <_end+0x52>
    800006f4:	0204ef3b          	remw	t5,s1,zero
    800006f8:	00100213          	li	tp,1
    800006fc:	9e800a93          	li	s5,-1560
    80000700:	ed818313          	addi	t1,gp,-296 # 80001de8 <_end+0x6d8>
    80000704:	001bd633          	srl	a2,s7,ra
    80000708:	417c0b83          	lb	s7,1047(s8)
    8000070c:	28006a63          	bltu	zero,zero,800009a0 <crash_forward>
    80000710:	952daea3          	sw	s2,-1699(s11)
    80000714:	e0e49e83          	lh	t4,-498(s1)
    80000718:	03f21213          	slli	tp,tp,0x3f
    8000071c:	03ffe533          	rem	a0,t6,t6
    80000720:	c2700d93          	li	s11,-985
    80000724:	03da5bbb          	divuw	s7,s4,t4
    80000728:	016b5c33          	srl	s8,s6,s6
    8000072c:	7db00993          	li	s3,2011
    80000730:	0210d93b          	divuw	s2,ra,ra
    80000734:	00001797          	auipc	a5,0x1
    80000738:	9e378793          	addi	a5,a5,-1565 # 80001117 <reg_x2_init+0x7>
    8000073c:	fa700f93          	li	t6,-89
    80000740:	dfe00d13          	li	s10,-514
    80000744:	01a9e633          	or	a2,s3,s10
    80000748:	021fb6b3          	mulhu	a3,t6,ra
    8000074c:	88231e03          	lh	t3,-1918(t1)
    80000750:	98f18613          	addi	a2,gp,-1649 # 8000189f <_end+0x18f>
    80000754:	38978283          	lb	t0,905(a5)
    80000758:	c1166083          	lwu	ra,-1007(a2)
    8000075c:	03f3d1bb          	divuw	gp,t2,t6
    80000760:	00001417          	auipc	s0,0x1
    80000764:	da640413          	addi	s0,s0,-602 # 80001506 <test_memory+0x206>
    80000768:	fff00c93          	li	s9,-1
    8000076c:	035ad5b3          	divu	a1,s5,s5
    80000770:	00100093          	li	ra,1
    80000774:	016b32b3          	sltu	t0,s6,s6
    80000778:	dac18a93          	addi	s5,gp,-596 # 80001cbc <_end+0x5ac>
    8000077c:	962ac183          	lbu	gp,-1694(s5)
    80000780:	0be41a03          	lh	s4,190(s0)
    80000784:	a8c00e93          	li	t4,-1396
    80000788:	bb718413          	addi	s0,gp,-1097 # 80001ac7 <_end+0x3b7>
    8000078c:	6e500b93          	li	s7,1765
    80000790:	01def8b3          	and	a7,t4,t4
    80000794:	03f09093          	slli	ra,ra,0x3f
    80000798:	8c7ea793          	slti	a5,t4,-1849
    8000079c:	00000e17          	auipc	t3,0x0
    800007a0:	5bce0e13          	addi	t3,t3,1468 # 80000d58 <test_end+0x3a4>
    800007a4:	9a718393          	addi	t2,gp,-1625 # 800018b7 <_end+0x1a7>
    800007a8:	004cccb3          	xor	s9,s9,tp
    800007ac:	00001917          	auipc	s2,0x1
    800007b0:	cae90913          	addi	s2,s2,-850 # 8000145a <test_memory+0x15a>
    800007b4:	d2700d13          	li	s10,-729
    800007b8:	d4138523          	sb	ra,-694(t2)
    800007bc:	fff00f93          	li	t6,-1
    800007c0:	1b500513          	li	a0,437
    800007c4:	0192fb33          	and	s6,t0,s9
    800007c8:	03ad26b3          	mulhsu	a3,s10,s10
    800007cc:	004b6733          	or	a4,s6,tp
    800007d0:	001fcfb3          	xor	t6,t6,ra
    800007d4:	c24c82b7          	lui	t0,0xc24c8
    800007d8:	00ab89bb          	addw	s3,s7,a0
    800007dc:	5c200f13          	li	t5,1474
    800007e0:	00a20333          	add	t1,tp,a0
    800007e4:	00100513          	li	a0,1
    800007e8:	03f51513          	slli	a0,a0,0x3f
    800007ec:	01ef6133          	or	sp,t5,t5
    800007f0:	01f1f633          	and	a2,gp,t6
    800007f4:	00001697          	auipc	a3,0x1
    800007f8:	a2968693          	addi	a3,a3,-1495 # 8000121d <reg_x3_output+0x5>
    800007fc:	0139b2b3          	sltu	t0,s3,s3
    80000800:	61ce5c03          	lhu	s8,1564(t3)
    80000804:	00000e97          	auipc	t4,0x0
    80000808:	63fe8e93          	addi	t4,t4,1599 # 80000e43 <test_end+0x48f>
    8000080c:	c5b18793          	addi	a5,gp,-933 # 80001b6b <_end+0x45b>
    80000810:	c3143183          	ld	gp,-975(s0)
    80000814:	00001a97          	auipc	s5,0x1
    80000818:	9dba8a93          	addi	s5,s5,-1573 # 800011ef <reg_x29_init+0x7>
    8000081c:	001be5b3          	or	a1,s7,ra
    80000820:	90800813          	li	a6,-1784
    80000824:	21d6c983          	lbu	s3,541(a3)
    80000828:	fff00b93          	li	s7,-1
    8000082c:	00abcbb3          	xor	s7,s7,a0
    80000830:	f1790c23          	sb	s7,-232(s2)
    80000834:	690ec883          	lbu	a7,1680(t4)
    80000838:	84b7a2a3          	sw	a1,-1979(a5)
    8000083c:	16eb7263          	bgeu	s6,a4,800009a0 <crash_forward>
    80000840:	16c5e063          	bltu	a1,a2,800009a0 <crash_forward>
    80000844:	030dd4bb          	divuw	s1,s11,a6
    80000848:	28ba9a03          	lh	s4,651(s5)
    8000084c:	017b7d33          	and	s10,s6,s7
    80000850:	00ad63b3          	or	t2,s10,a0
    80000854:	8a7d7ae3          	bgeu	s10,t2,80000108 <crash_backward>
    80000858:	0101dd1b          	srliw	s10,gp,0x10
    8000085c:	e9600793          	li	a5,-362
    80000860:	03a68933          	mul	s2,a3,s10
    80000864:	00001d97          	auipc	s11,0x1
    80000868:	b79d8d93          	addi	s11,s11,-1159 # 800013dd <test_memory+0xdd>
    8000086c:	016ebeb3          	sltu	t4,t4,s6
    80000870:	a617b337          	lui	t1,0xa617b
    80000874:	a2ea2393          	slti	t2,s4,-1490
    80000878:	89500113          	li	sp,-1899
    8000087c:	25100613          	li	a2,593
    80000880:	60100513          	li	a0,1537
    80000884:	022159b3          	divu	s3,sp,sp
    80000888:	57f00a13          	li	s4,1407
    8000088c:	02c664bb          	remw	s1,a2,a2
    80000890:	00319e3b          	sllw	t3,gp,gp
    80000894:	40215bbb          	sraw	s7,sp,sp
    80000898:	00100f13          	li	t5,1
    8000089c:	029daba3          	sw	s1,55(s11)
    800008a0:	03ff1f13          	slli	t5,t5,0x3f
    800008a4:	7a300b13          	li	s6,1955
    800008a8:	00100093          	li	ra,1
    800008ac:	03f09093          	slli	ra,ra,0x3f
    800008b0:	00000293          	li	t0,0
    800008b4:	02a64cbb          	divw	s9,a2,a0
    800008b8:	90100893          	li	a7,-1791
    800008bc:	fff00413          	li	s0,-1
    800008c0:	94200693          	li	a3,-1726
    800008c4:	a2600c13          	li	s8,-1498
    800008c8:	fff00913          	li	s2,-1
    800008cc:	c5278213          	addi	tp,a5,-942
    800008d0:	4186d833          	sra	a6,a3,s8
    800008d4:	00000593          	li	a1,0
    800008d8:	01e94933          	xor	s2,s2,t5
    800008dc:	011b3ab3          	sltu	s5,s6,a7
    800008e0:	00144433          	xor	s0,s0,ra
    800008e4:	012374b3          	and	s1,t1,s2
    800008e8:	824780e3          	beq	a5,tp,80000108 <crash_backward>
    800008ec:	01ebe3b3          	or	t2,s7,t5
    800008f0:	034a61b3          	rem	gp,s4,s4
    800008f4:	00867733          	and	a4,a2,s0
    800008f8:	00116fb3          	or	t6,sp,ra
    800008fc:	0bf74263          	blt	a4,t6,800009a0 <crash_forward>
    80000900:	0040006f          	j	80000904 <reg_dump>

0000000080000904 <reg_dump>:
    80000904:	00001097          	auipc	ra,0x1
    80000908:	dfc08093          	addi	ra,ra,-516 # 80001700 <loop_count>
    8000090c:	0000a103          	lw	sp,0(ra)
    80000910:	fff10193          	addi	gp,sp,-1
    80000914:	0030a023          	sw	gp,0(ra)
    80000918:	880118e3          	bnez	sp,800001a8 <pseg_0>
    8000091c:	00001097          	auipc	ra,0x1
    80000920:	8e408093          	addi	ra,ra,-1820 # 80001200 <begin_signature>
    80000924:	0000b023          	sd	zero,0(ra)
    80000928:	0020b823          	sd	sp,16(ra)
    8000092c:	0030bc23          	sd	gp,24(ra)
    80000930:	0240b023          	sd	tp,32(ra)
    80000934:	0250b423          	sd	t0,40(ra)
    80000938:	0260b823          	sd	t1,48(ra)
    8000093c:	0270bc23          	sd	t2,56(ra)
    80000940:	0480b023          	sd	s0,64(ra)
    80000944:	0490b423          	sd	s1,72(ra)
    80000948:	04a0b823          	sd	a0,80(ra)
    8000094c:	04b0bc23          	sd	a1,88(ra)
    80000950:	06c0b023          	sd	a2,96(ra)
    80000954:	06d0b423          	sd	a3,104(ra)
    80000958:	06e0b823          	sd	a4,112(ra)
    8000095c:	06f0bc23          	sd	a5,120(ra)
    80000960:	0900b023          	sd	a6,128(ra)
    80000964:	0910b423          	sd	a7,136(ra)
    80000968:	0920b823          	sd	s2,144(ra)
    8000096c:	0930bc23          	sd	s3,152(ra)
    80000970:	0b40b023          	sd	s4,160(ra)
    80000974:	0b50b423          	sd	s5,168(ra)
    80000978:	0b60b823          	sd	s6,176(ra)
    8000097c:	0b70bc23          	sd	s7,184(ra)
    80000980:	0d80b023          	sd	s8,192(ra)
    80000984:	0d90b423          	sd	s9,200(ra)
    80000988:	0da0b823          	sd	s10,208(ra)
    8000098c:	0fc0b023          	sd	t3,224(ra)
    80000990:	0fd0b423          	sd	t4,232(ra)
    80000994:	0fe0b823          	sd	t5,240(ra)
    80000998:	0ff0bc23          	sd	t6,248(ra)
    8000099c:	0180006f          	j	800009b4 <test_end>

00000000800009a0 <crash_forward>:
    800009a0:	0ff0000f          	fence
    800009a4:	00018063          	beqz	gp,800009a4 <crash_forward+0x4>
    800009a8:	00119193          	slli	gp,gp,0x1
    800009ac:	0011e193          	ori	gp,gp,1
    800009b0:	00000073          	ecall

00000000800009b4 <test_end>:
    800009b4:	0ff0000f          	fence
    800009b8:	00100193          	li	gp,1
    800009bc:	00000073          	ecall
    800009c0:	c0001073          	unimp
	...

Disassembly of section .tohost:

0000000080001000 <tohost>:
	...

0000000080001040 <fromhost>:
	...
