
test.elf:     file format elf64-littleriscv


Disassembly of section .text.init:

0000000080000000 <_start>:
    80000000:	0580006f          	j	80000058 <reset_vector>

0000000080000004 <trap_vector>:
    80000004:	34202f73          	csrr	t5,mcause
    80000008:	00800f93          	li	t6,8
    8000000c:	05ff0063          	beq	t5,t6,8000004c <write_tohost>
    80000010:	00900f93          	li	t6,9
    80000014:	03ff0c63          	beq	t5,t6,8000004c <write_tohost>
    80000018:	00b00f93          	li	t6,11
    8000001c:	03ff0863          	beq	t5,t6,8000004c <write_tohost>
    80000020:	00000f13          	li	t5,0
    80000024:	000f0463          	beqz	t5,8000002c <trap_vector+0x28>
    80000028:	000f0067          	jr	t5
    8000002c:	34202f73          	csrr	t5,mcause
    80000030:	000f5463          	bgez	t5,80000038 <handle_exception>
    80000034:	0140006f          	j	80000048 <other_exception>

0000000080000038 <handle_exception>:
    80000038:	34102e73          	csrr	t3,mepc
    8000003c:	004e0e13          	addi	t3,t3,4
    80000040:	341e1073          	csrw	mepc,t3
    80000044:	30200073          	mret

0000000080000048 <other_exception>:
    80000048:	5391e193          	ori	gp,gp,1337

000000008000004c <write_tohost>:
    8000004c:	00001f17          	auipc	t5,0x1
    80000050:	fa3f2a23          	sw	gp,-76(t5) # 80001000 <tohost>
    80000054:	ff9ff06f          	j	8000004c <write_tohost>

0000000080000058 <reset_vector>:
    80000058:	f1402573          	csrr	a0,mhartid
    8000005c:	00051063          	bnez	a0,8000005c <reset_vector+0x4>
    80000060:	00000297          	auipc	t0,0x0
    80000064:	01028293          	addi	t0,t0,16 # 80000070 <reset_vector+0x18>
    80000068:	30529073          	csrw	mtvec,t0
    8000006c:	18005073          	csrwi	satp,0
    80000070:	00000297          	auipc	t0,0x0
    80000074:	01c28293          	addi	t0,t0,28 # 8000008c <reset_vector+0x34>
    80000078:	30529073          	csrw	mtvec,t0
    8000007c:	fff00293          	li	t0,-1
    80000080:	3b029073          	csrw	pmpaddr0,t0
    80000084:	01f00293          	li	t0,31
    80000088:	3a029073          	csrw	pmpcfg0,t0
    8000008c:	00000297          	auipc	t0,0x0
    80000090:	01828293          	addi	t0,t0,24 # 800000a4 <reset_vector+0x4c>
    80000094:	30529073          	csrw	mtvec,t0
    80000098:	30205073          	csrwi	medeleg,0
    8000009c:	30305073          	csrwi	mideleg,0
    800000a0:	30405073          	csrwi	mie,0
    800000a4:	00000193          	li	gp,0
    800000a8:	00000297          	auipc	t0,0x0
    800000ac:	f5c28293          	addi	t0,t0,-164 # 80000004 <trap_vector>
    800000b0:	30529073          	csrw	mtvec,t0
    800000b4:	00100513          	li	a0,1
    800000b8:	01f51513          	slli	a0,a0,0x1f
    800000bc:	00055863          	bgez	a0,800000cc <reset_vector+0x74>
    800000c0:	0ff0000f          	fence
    800000c4:	00100193          	li	gp,1
    800000c8:	00000073          	ecall
    800000cc:	00000293          	li	t0,0
    800000d0:	00028e63          	beqz	t0,800000ec <reset_vector+0x94>
    800000d4:	10529073          	csrw	stvec,t0
    800000d8:	0000b2b7          	lui	t0,0xb
    800000dc:	1092829b          	addiw	t0,t0,265
    800000e0:	30229073          	csrw	medeleg,t0
    800000e4:	30202373          	csrr	t1,medeleg
    800000e8:	f66290e3          	bne	t0,t1,80000048 <other_exception>
    800000ec:	30005073          	csrwi	mstatus,0
    800000f0:	00000297          	auipc	t0,0x0
    800000f4:	01428293          	addi	t0,t0,20 # 80000104 <reset_vector+0xac>
    800000f8:	34129073          	csrw	mepc,t0
    800000fc:	f1402573          	csrr	a0,mhartid
    80000100:	30200073          	mret
    80000104:	0180006f          	j	8000011c <test_start>

0000000080000108 <crash_backward>:
    80000108:	0ff0000f          	fence
    8000010c:	00018063          	beqz	gp,8000010c <crash_backward+0x4>
    80000110:	00119193          	slli	gp,gp,0x1
    80000114:	0011e193          	ori	gp,gp,1
    80000118:	00000073          	ecall

000000008000011c <test_start>:
    8000011c:	00001f97          	auipc	t6,0x1
    80000120:	fe4f8f93          	addi	t6,t6,-28 # 80001100 <hidden_data>
    80000124:	000fb003          	ld	zero,0(t6)
    80000128:	008fb083          	ld	ra,8(t6)
    8000012c:	010fb103          	ld	sp,16(t6)
    80000130:	018fb183          	ld	gp,24(t6)
    80000134:	020fb203          	ld	tp,32(t6)
    80000138:	028fb283          	ld	t0,40(t6)
    8000013c:	030fb303          	ld	t1,48(t6)
    80000140:	038fb383          	ld	t2,56(t6)
    80000144:	040fb403          	ld	s0,64(t6)
    80000148:	048fb483          	ld	s1,72(t6)
    8000014c:	050fb503          	ld	a0,80(t6)
    80000150:	058fb583          	ld	a1,88(t6)
    80000154:	060fb603          	ld	a2,96(t6)
    80000158:	068fb683          	ld	a3,104(t6)
    8000015c:	070fb703          	ld	a4,112(t6)
    80000160:	078fb783          	ld	a5,120(t6)
    80000164:	080fb803          	ld	a6,128(t6)
    80000168:	088fb883          	ld	a7,136(t6)
    8000016c:	090fb903          	ld	s2,144(t6)
    80000170:	098fb983          	ld	s3,152(t6)
    80000174:	0a0fba03          	ld	s4,160(t6)
    80000178:	0a8fba83          	ld	s5,168(t6)
    8000017c:	0b0fbb03          	ld	s6,176(t6)
    80000180:	0b8fbb83          	ld	s7,184(t6)
    80000184:	0c0fbc03          	ld	s8,192(t6)
    80000188:	0c8fbc83          	ld	s9,200(t6)
    8000018c:	0d0fbd03          	ld	s10,208(t6)
    80000190:	0d8fbd83          	ld	s11,216(t6)
    80000194:	0e0fbe03          	ld	t3,224(t6)
    80000198:	0e8fbe83          	ld	t4,232(t6)
    8000019c:	0f0fbf03          	ld	t5,240(t6)
    800001a0:	0f8fbf83          	ld	t6,248(t6)
    800001a4:	0040006f          	j	800001a8 <pseg_0>

00000000800001a8 <pseg_0>:
    800001a8:	f75ac0e3          	blt	s5,s5,80000108 <crash_backward>
    800001ac:	00001c97          	auipc	s9,0x1
    800001b0:	62dc8c93          	addi	s9,s9,1581 # 800017d9 <_end+0xc9>
    800001b4:	00001517          	auipc	a0,0x1
    800001b8:	f8250513          	addi	a0,a0,-126 # 80001136 <reg_x6_init+0x6>
    800001bc:	da600b13          	li	s6,-602
    800001c0:	00001597          	auipc	a1,0x1
    800001c4:	50b58593          	addi	a1,a1,1291 # 800016cb <test_memory+0x3cb>
    800001c8:	400ada13          	srai	s4,s5,0x0
    800001cc:	7a006c63          	bltu	zero,zero,80000984 <crash_forward>
    800001d0:	02c33633          	mulhu	a2,t1,a2
    800001d4:	f7818213          	addi	tp,gp,-136 # 80001e88 <_end+0x778>
    800001d8:	eb7c80a3          	sb	s7,-351(s9)
    800001dc:	00038e93          	mv	t4,t2
    800001e0:	40b00113          	li	sp,1035
    800001e4:	ec600d93          	li	s11,-314
    800001e8:	71500193          	li	gp,1813
    800001ec:	b2a00d13          	li	s10,-1238
    800001f0:	80422083          	lw	ra,-2044(tp) # fffffffffffff804 <__global_pointer$+0xffffffff7fffd8f4>
    800001f4:	af818393          	addi	t2,gp,-1288 # 80001a08 <_end+0x2f8>
    800001f8:	000e8f93          	mv	t6,t4
    800001fc:	0ef00a93          	li	s5,239
    80000200:	73f00813          	li	a6,1855
    80000204:	93618a13          	addi	s4,gp,-1738 # 80001846 <_end+0x136>
    80000208:	e4aa2403          	lw	s0,-438(s4)
    8000020c:	d5f00313          	li	t1,-673
    80000210:	96538623          	sb	t0,-1684(t2)
    80000214:	41ad06bb          	subw	a3,s10,s10
    80000218:	00215c33          	srl	s8,sp,sp
    8000021c:	712a8893          	addi	a7,s5,1810
    80000220:	01bd97bb          	sllw	a5,s11,s11
    80000224:	01abdcbb          	srlw	s9,s7,s10
    80000228:	aa718e13          	addi	t3,gp,-1369 # 800019b7 <_end+0x2a7>
    8000022c:	ed1a8ee3          	beq	s5,a7,80000108 <crash_backward>
    80000230:	0b900413          	li	s0,185
    80000234:	409fdc9b          	sraiw	s9,t6,0x9
    80000238:	c3d5c483          	lbu	s1,-963(a1)
    8000023c:	23f00713          	li	a4,575
    80000240:	406e5113          	srai	sp,t3,0x6
    80000244:	4c300093          	li	ra,1219
    80000248:	02e1a2b3          	mulhsu	t0,gp,a4
    8000024c:	8069e393          	ori	t2,s3,-2042
    80000250:	94ae4f03          	lbu	t5,-1718(t3)
    80000254:	80400b93          	li	s7,-2044
    80000258:	01b69abb          	sllw	s5,a3,s11
    8000025c:	0210823b          	mulw	tp,ra,ra
    80000260:	00100a13          	li	s4,1
    80000264:	01170cb3          	add	s9,a4,a7
    80000268:	036b5933          	divu	s2,s6,s6
    8000026c:	20e00113          	li	sp,526
    80000270:	0339bf33          	mulhu	t5,s3,s3
    80000274:	008456b3          	srl	a3,s0,s0
    80000278:	d0518793          	addi	a5,gp,-763 # 80001c15 <_end+0x505>
    8000027c:	e80066e3          	bltu	zero,zero,80000108 <crash_backward>
    80000280:	32252d23          	sw	sp,826(a0)
    80000284:	b8300593          	li	a1,-1149
    80000288:	f3400a93          	li	s5,-204
    8000028c:	02634633          	div	a2,t1,t1
    80000290:	017879b3          	and	s3,a6,s7
    80000294:	9e800093          	li	ra,-1560
    80000298:	00100713          	li	a4,1
    8000029c:	001592bb          	sllw	t0,a1,ra
    800002a0:	83a7cc03          	lbu	s8,-1990(a5)
    800002a4:	417bdd33          	sra	s10,s7,s7
    800002a8:	035a9233          	mulh	tp,s5,s5
    800002ac:	03fa1a13          	slli	s4,s4,0x3f
    800002b0:	00001b97          	auipc	s7,0x1
    800002b4:	d0ab8b93          	addi	s7,s7,-758 # 80000fba <test_end+0x622>
    800002b8:	6d9cc663          	blt	s9,s9,80000984 <crash_forward>
    800002bc:	00001d97          	auipc	s11,0x1
    800002c0:	1b1d8d93          	addi	s11,s11,433 # 8000146d <test_memory+0x16d>
    800002c4:	c0a00c93          	li	s9,-1014
    800002c8:	00001d17          	auipc	s10,0x1
    800002cc:	2fed0d13          	addi	s10,s10,766 # 800015c6 <test_memory+0x2c6>
    800002d0:	fff00493          	li	s1,-1
    800002d4:	64a00313          	li	t1,1610
    800002d8:	c2700793          	li	a5,-985
    800002dc:	95318b13          	addi	s6,gp,-1709 # 80001863 <_end+0x153>
    800002e0:	e1fb1203          	lh	tp,-481(s6)
    800002e4:	41498c33          	sub	s8,s3,s4
    800002e8:	00e759b3          	srl	s3,a4,a4
    800002ec:	03f71713          	slli	a4,a4,0x3f
    800002f0:	eced5f03          	lhu	t5,-306(s10)
    800002f4:	00632433          	slt	s0,t1,t1
    800002f8:	019d9ea3          	sh	s9,29(s11)
    800002fc:	91300693          	li	a3,-1773
    80000300:	00001617          	auipc	a2,0x1
    80000304:	c6260613          	addi	a2,a2,-926 # 80000f62 <test_end+0x5ca>
    80000308:	69a10e13          	addi	t3,sp,1690
    8000030c:	40ef8f33          	sub	t5,t6,a4
    80000310:	fff00393          	li	t2,-1
    80000314:	5ea00a93          	li	s5,1514
    80000318:	00100993          	li	s3,1
    8000031c:	67c10463          	beq	sp,t3,80000984 <crash_forward>
    80000320:	91378093          	addi	ra,a5,-1773
    80000324:	00001817          	auipc	a6,0x1
    80000328:	d4280813          	addi	a6,a6,-702 # 80001066 <fromhost+0x26>
    8000032c:	015c82bb          	addw	t0,s9,s5
    80000330:	0144c4b3          	xor	s1,s1,s4
    80000334:	00001c17          	auipc	s8,0x1
    80000338:	f38c0c13          	addi	s8,s8,-200 # 8000126c <reg_x13_output+0x4>
    8000033c:	00d6d933          	srl	s2,a3,a3
    80000340:	96b00c93          	li	s9,-1685
    80000344:	02847f33          	remu	t5,s0,s0
    80000348:	00e3c3b3          	xor	t2,t2,a4
    8000034c:	00001a97          	auipc	s5,0x1
    80000350:	bbea8a93          	addi	s5,s5,-1090 # 80000f0a <test_end+0x572>
    80000354:	65dbc503          	lbu	a0,1629(s7)
    80000358:	00957eb3          	and	t4,a0,s1
    8000035c:	7a100313          	li	t1,1953
    80000360:	3b2c5b03          	lhu	s6,946(s8)
    80000364:	50600113          	li	sp,1286
    80000368:	92c00693          	li	a3,-1748
    8000036c:	014eefb3          	or	t6,t4,s4
    80000370:	5dd80123          	sb	t4,1474(a6)
    80000374:	0075f1b3          	and	gp,a1,t2
    80000378:	37930d93          	addi	s11,t1,889
    8000037c:	59b00813          	li	a6,1435
    80000380:	00e1e8b3          	or	a7,gp,a4
    80000384:	03d10b33          	mul	s6,sp,t4
    80000388:	5ffece63          	blt	t4,t6,80000984 <crash_forward>
    8000038c:	41085c33          	sra	s8,a6,a6
    80000390:	cc218d93          	addi	s11,gp,-830 # 80001bd2 <_end+0x4c2>
    80000394:	6b161e23          	sh	a7,1724(a2)
    80000398:	00098b93          	mv	s7,s3
    8000039c:	000b8913          	mv	s2,s7
    800003a0:	ad2d8d23          	sb	s2,-1318(s11)
    800003a4:	5e17e063          	bltu	a5,ra,80000984 <crash_forward>
    800003a8:	9f700e13          	li	t3,-1545
    800003ac:	40d15f3b          	sraw	t5,sp,a3
    800003b0:	03ccc43b          	divw	s0,s9,t3
    800003b4:	03f99993          	slli	s3,s3,0x3f
    800003b8:	fff00213          	li	tp,-1
    800003bc:	01324233          	xor	tp,tp,s3
    800003c0:	034a5533          	divu	a0,s4,s4
    800003c4:	65ead283          	lhu	t0,1630(s5)
    800003c8:	5b2b9e63          	bne	s7,s2,80000984 <crash_forward>
    800003cc:	004775b3          	and	a1,a4,tp
    800003d0:	01346d33          	or	s10,s0,s3
    800003d4:	d3a58ae3          	beq	a1,s10,80000108 <crash_backward>
    800003d8:	00001c97          	auipc	s9,0x1
    800003dc:	0d8c8c93          	addi	s9,s9,216 # 800014b0 <test_memory+0x1b0>
    800003e0:	00001d97          	auipc	s11,0x1
    800003e4:	959d8d93          	addi	s11,s11,-1703 # 80000d39 <test_end+0x3a1>
    800003e8:	00100493          	li	s1,1
    800003ec:	dd200313          	li	t1,-558
    800003f0:	c7300c13          	li	s8,-909
    800003f4:	8cb00213          	li	tp,-1845
    800003f8:	60e00793          	li	a5,1550
    800003fc:	0c400593          	li	a1,196
    80000400:	00001b97          	auipc	s7,0x1
    80000404:	ec3b8b93          	addi	s7,s7,-317 # 800012c3 <reg_x24_output+0x3>
    80000408:	00100393          	li	t2,1
    8000040c:	02b35a33          	divu	s4,t1,a1
    80000410:	fe0c9603          	lh	a2,-32(s9)
    80000414:	89ac0f93          	addi	t6,s8,-1894
    80000418:	c1200093          	li	ra,-1006
    8000041c:	03f39393          	slli	t2,t2,0x3f
    80000420:	25300d13          	li	s10,595
    80000424:	fed00f13          	li	t5,-19
    80000428:	03ed4b3b          	divw	s6,s10,t5
    8000042c:	55fc0c63          	beq	s8,t6,80000984 <crash_forward>
    80000430:	03f49493          	slli	s1,s1,0x3f
    80000434:	781d98a3          	sh	ra,1937(s11)
    80000438:	00f7d8bb          	srlw	a7,a5,a5
    8000043c:	95e00913          	li	s2,-1698
    80000440:	cfa08113          	addi	sp,ra,-774
    80000444:	fff00413          	li	s0,-1
    80000448:	d5e00a93          	li	s5,-674
    8000044c:	03224e3b          	divw	t3,tp,s2
    80000450:	f0e00c13          	li	s8,-242
    80000454:	85ac0313          	addi	t1,s8,-1958
    80000458:	00100b13          	li	s6,1
    8000045c:	00100213          	li	tp,1
    80000460:	03fb1b13          	slli	s6,s6,0x3f
    80000464:	fff00193          	li	gp,-1
    80000468:	03f21213          	slli	tp,tp,0x3f
    8000046c:	00001d17          	auipc	s10,0x1
    80000470:	fbdd0d13          	addi	s10,s10,-67 # 80001429 <test_memory+0x129>
    80000474:	fff00093          	li	ra,-1
    80000478:	a7f18d93          	addi	s11,gp,-1409 # 8000198f <_end+0x27f>
    8000047c:	b5adcf03          	lbu	t5,-1190(s11)
    80000480:	009ad11b          	srliw	sp,s5,0x9
    80000484:	f03d23a3          	sw	gp,-249(s10)
    80000488:	00000597          	auipc	a1,0x0
    8000048c:	77b58593          	addi	a1,a1,1915 # 80000c03 <test_end+0x26b>
    80000490:	0160c0b3          	xor	ra,ra,s6
    80000494:	0071c1b3          	xor	gp,gp,t2
    80000498:	0017f7b3          	and	a5,a5,ra
    8000049c:	00001c97          	auipc	s9,0x1
    800004a0:	c05c8c93          	addi	s9,s9,-1019 # 800010a1 <fromhost+0x61>
    800004a4:	00001697          	auipc	a3,0x1
    800004a8:	f1d68693          	addi	a3,a3,-227 # 800013c1 <test_memory+0xc1>
    800004ac:	003af533          	and	a0,s5,gp
    800004b0:	00736eb3          	or	t4,t1,t2
    800004b4:	73358903          	lb	s2,1843(a1)
    800004b8:	fd8a8813          	addi	a6,s5,-40
    800004bc:	c55856e3          	bge	a6,s5,80000108 <crash_backward>
    800004c0:	00944433          	xor	s0,s0,s1
    800004c4:	327c8423          	sb	t2,808(s9)
    800004c8:	fff00893          	li	a7,-1
    800004cc:	3256a1a3          	sw	t0,803(a3)
    800004d0:	4aaeea63          	bltu	t4,a0,80000984 <crash_forward>
    800004d4:	0048c8b3          	xor	a7,a7,tp
    800004d8:	008379b3          	and	s3,t1,s0
    800004dc:	011df633          	and	a2,s11,a7
    800004e0:	0047ea33          	or	s4,a5,tp
    800004e4:	0167ee33          	or	t3,a5,s6
    800004e8:	0093e2b3          	or	t0,t2,s1
    800004ec:	49c7fc63          	bgeu	a5,t3,80000984 <crash_forward>
    800004f0:	c0ca5ce3          	bge	s4,a2,80000108 <crash_backward>
    800004f4:	41dbe703          	lwu	a4,1053(s7)
    800004f8:	00001d97          	auipc	s11,0x1
    800004fc:	977d8d93          	addi	s11,s11,-1673 # 80000e6f <test_end+0x4d7>
    80000500:	4118d633          	sra	a2,a7,a7
    80000504:	edc00c93          	li	s9,-292
    80000508:	4d5de083          	lwu	ra,1237(s11)
    8000050c:	c7a00e93          	li	t4,-902
    80000510:	00100213          	li	tp,1
    80000514:	ed6e8e13          	addi	t3,t4,-298
    80000518:	3bc00913          	li	s2,956
    8000051c:	00100393          	li	t2,1
    80000520:	03bdb0b3          	mulhu	ra,s11,s11
    80000524:	a2518f93          	addi	t6,gp,-1499 # 80001935 <_end+0x225>
    80000528:	03f39393          	slli	t2,t2,0x3f
    8000052c:	03f21213          	slli	tp,tp,0x3f
    80000530:	c3df95a3          	sh	t4,-981(t6)
    80000534:	fff00513          	li	a0,-1
    80000538:	00454533          	xor	a0,a0,tp
    8000053c:	01cad73b          	srlw	a4,s5,t3
    80000540:	00a57f33          	and	t5,a0,a0
    80000544:	c6700113          	li	sp,-921
    80000548:	00100593          	li	a1,1
    8000054c:	00446a33          	or	s4,s0,tp
    80000550:	46f00693          	li	a3,1135
    80000554:	03f59593          	slli	a1,a1,0x3f
    80000558:	fff00793          	li	a5,-1
    8000055c:	02d15b33          	divu	s6,sp,a3
    80000560:	016b063b          	addw	a2,s6,s6
    80000564:	00001a17          	auipc	s4,0x1
    80000568:	074a0a13          	addi	s4,s4,116 # 800015d8 <test_memory+0x2d8>
    8000056c:	00b7c7b3          	xor	a5,a5,a1
    80000570:	c5918513          	addi	a0,gp,-935 # 80001b69 <_end+0x459>
    80000574:	00900813          	li	a6,9
    80000578:	fff00993          	li	s3,-1
    8000057c:	e44a5703          	lhu	a4,-444(s4)
    80000580:	00001c17          	auipc	s8,0x1
    80000584:	8b9c0c13          	addi	s8,s8,-1863 # 80000e39 <test_end+0x4a1>
    80000588:	3fcece63          	blt	t4,t3,80000984 <crash_forward>
    8000058c:	00000417          	auipc	s0,0x0
    80000590:	68140413          	addi	s0,s0,1665 # 80000c0d <test_end+0x275>
    80000594:	4cbc0883          	lb	a7,1227(s8)
    80000598:	0079c9b3          	xor	s3,s3,t2
    8000059c:	83f55203          	lhu	tp,-1985(a0)
    800005a0:	00100e93          	li	t4,1
    800005a4:	013cfbb3          	and	s7,s9,s3
    800005a8:	00001f97          	auipc	t6,0x1
    800005ac:	dc6f8f93          	addi	t6,t6,-570 # 8000136e <test_memory+0x6e>
    800005b0:	2fef9083          	lh	ra,766(t6)
    800005b4:	6f341aa3          	sh	s3,1781(s0)
    800005b8:	00000117          	auipc	sp,0x0
    800005bc:	78f10113          	addi	sp,sp,1935 # 80000d47 <test_end+0x3af>
    800005c0:	00796333          	or	t1,s2,t2
    800005c4:	6b600893          	li	a7,1718
    800005c8:	03ad0533          	mul	a0,s10,s10
    800005cc:	9d002a93          	slti	s5,zero,-1584
    800005d0:	03fe9e93          	slli	t4,t4,0x3f
    800005d4:	00f5fdb3          	and	s11,a1,a5
    800005d8:	3c900d13          	li	s10,969
    800005dc:	3b735463          	bge	t1,s7,80000984 <crash_forward>
    800005e0:	7d910f03          	lb	t5,2009(sp)
    800005e4:	030cb4b3          	mulhu	s1,s9,a6
    800005e8:	0242623b          	remw	tp,tp,tp
    800005ec:	fff00713          	li	a4,-1
    800005f0:	3b200f93          	li	t6,946
    800005f4:	9f600b13          	li	s6,-1546
    800005f8:	42c88413          	addi	s0,a7,1068
    800005fc:	0380fcb3          	remu	s9,ra,s8
    80000600:	00b662b3          	or	t0,a2,a1
    80000604:	01ad5533          	srl	a0,s10,s10
    80000608:	01b0cf33          	xor	t5,ra,s11
    8000060c:	034543bb          	divw	t2,a0,s4
    80000610:	03a971bb          	remuw	gp,s2,s10
    80000614:	01d74733          	xor	a4,a4,t4
    80000618:	50200313          	li	t1,1282
    8000061c:	00001a97          	auipc	s5,0x1
    80000620:	d5aa8a93          	addi	s5,s5,-678 # 80001376 <test_memory+0x76>
    80000624:	00e27633          	and	a2,tp,a4
    80000628:	78600993          	li	s3,1926
    8000062c:	6cef8c13          	addi	s8,t6,1742
    80000630:	019c90b3          	sll	ra,s9,s9
    80000634:	0d0aaf23          	sw	a6,222(s5)
    80000638:	e0d00493          	li	s1,-499
    8000063c:	0099f833          	and	a6,s3,s1
    80000640:	23c00b93          	li	s7,572
    80000644:	01d9ee33          	or	t3,s3,t4
    80000648:	0373513b          	divuw	sp,t1,s7
    8000064c:	9c400693          	li	a3,-1596
    80000650:	02db3a33          	mulhu	s4,s6,a3
    80000654:	33c60863          	beq	a2,t3,80000984 <crash_forward>
    80000658:	00001d97          	auipc	s11,0x1
    8000065c:	8a2d8d93          	addi	s11,s11,-1886 # 80000efa <test_end+0x562>
    80000660:	0046c8b3          	xor	a7,a3,tp
    80000664:	00001b17          	auipc	s6,0x1
    80000668:	17bb0b13          	addi	s6,s6,379 # 800017df <_end+0xcf>
    8000066c:	024b8fb3          	mul	t6,s7,tp
    80000670:	00e71ab3          	sll	s5,a4,a4
    80000674:	00001517          	auipc	a0,0x1
    80000678:	18250513          	addi	a0,a0,386 # 800017f6 <_end+0xe6>
    8000067c:	67700393          	li	t2,1655
    80000680:	036b14b3          	mulh	s1,s6,s6
    80000684:	ca5b2c83          	lw	s9,-859(s6)
    80000688:	6c900093          	li	ra,1737
    8000068c:	0231ee3b          	remw	t3,gp,gp
    80000690:	0195e5b3          	or	a1,a1,s9
    80000694:	60add783          	lhu	a5,1546(s11)
    80000698:	0374cd33          	div	s10,s1,s7
    8000069c:	9a218993          	addi	s3,gp,-1630 # 800018b2 <_end+0x1a2>
    800006a0:	d5200213          	li	tp,-686
    800006a4:	d4852123          	sw	s0,-702(a0)
    800006a8:	3c100413          	li	s0,961
    800006ac:	032f7533          	remu	a0,t5,s2
    800006b0:	02845bbb          	divuw	s7,s0,s0
    800006b4:	32000893          	li	a7,800
    800006b8:	26fe2413          	slti	s0,t3,623
    800006bc:	c3299903          	lh	s2,-974(s3)
    800006c0:	4a600e13          	li	t3,1190
    800006c4:	84f00413          	li	s0,-1969
    800006c8:	89600e93          	li	t4,-1898
    800006cc:	ad900d13          	li	s10,-1319
    800006d0:	00001a97          	auipc	s5,0x1
    800006d4:	ef9a8a93          	addi	s5,s5,-263 # 800015c9 <test_memory+0x2c9>
    800006d8:	0252fcb3          	remu	s9,t0,t0
    800006dc:	04900693          	li	a3,73
    800006e0:	0073bf33          	sltu	t5,t2,t2
    800006e4:	f6200813          	li	a6,-158
    800006e8:	f7aa8b23          	sb	s10,-138(s5)
    800006ec:	004081bb          	addw	gp,ra,tp
    800006f0:	00001b17          	auipc	s6,0x1
    800006f4:	b83b0b13          	addi	s6,s6,-1149 # 80001273 <reg_x14_output+0x3>
    800006f8:	1b9b0783          	lb	a5,441(s6)
    800006fc:	0038e133          	or	sp,a7,gp
    80000700:	75f00c13          	li	s8,1887
    80000704:	03ad05b3          	mul	a1,s10,s10
    80000708:	b1c00513          	li	a0,-1252
    8000070c:	03ce04bb          	mulw	s1,t3,t3
    80000710:	ed318613          	addi	a2,gp,-301 # 80001de3 <_end+0x6d3>
    80000714:	71300a13          	li	s4,1811
    80000718:	414c073b          	subw	a4,s8,s4
    8000071c:	02a47bbb          	remuw	s7,s0,a0
    80000720:	423e5d93          	srai	s11,t3,0x23
    80000724:	40d68333          	sub	t1,a3,a3
    80000728:	0118dfb3          	srl	t6,a7,a7
    8000072c:	030eb2b3          	mulhu	t0,t4,a6
    80000730:	89d63aa3          	sd	t4,-1899(a2)
    80000734:	e7a18393          	addi	t2,gp,-390 # 80001d8a <_end+0x67a>
    80000738:	b0b00d93          	li	s11,-1269
    8000073c:	4da00793          	li	a5,1242
    80000740:	00f7c233          	xor	tp,a5,a5
    80000744:	0252efbb          	remw	t6,t0,t0
    80000748:	01a34cb3          	xor	s9,t1,s10
    8000074c:	00000d13          	li	s10,0
    80000750:	02fdd2bb          	divuw	t0,s11,a5
    80000754:	021080b3          	mul	ra,ra,ra
    80000758:	00001497          	auipc	s1,0x1
    8000075c:	88348493          	addi	s1,s1,-1917 # 80000fdb <test_end+0x643>
    80000760:	00000917          	auipc	s2,0x0
    80000764:	56290913          	addi	s2,s2,1378 # 80000cc2 <test_end+0x32a>
    80000768:	036b1eb3          	mulh	t4,s6,s6
    8000076c:	00001b17          	auipc	s6,0x1
    80000770:	b8db0b13          	addi	s6,s6,-1139 # 800012f9 <reg_x31_output+0x1>
    80000774:	01d8133b          	sllw	t1,a6,t4
    80000778:	00000717          	auipc	a4,0x0
    8000077c:	74e70713          	addi	a4,a4,1870 # 80000ec6 <test_end+0x52e>
    80000780:	00001297          	auipc	t0,0x1
    80000784:	e9928293          	addi	t0,t0,-359 # 80001619 <test_memory+0x319>
    80000788:	69c902a3          	sb	t3,1669(s2)
    8000078c:	01ac5d93          	srli	s11,s8,0x1a
    80000790:	00100113          	li	sp,1
    80000794:	86138603          	lb	a2,-1951(t2)
    80000798:	2adb0b23          	sb	a3,694(s6)
    8000079c:	f9d292a3          	sh	t4,-123(t0)
    800007a0:	02621eb3          	mulh	t4,tp,t1
    800007a4:	02254333          	div	t1,a0,sp
    800007a8:	ca600793          	li	a5,-858
    800007ac:	5dc71e23          	sh	t3,1500(a4)
    800007b0:	00001417          	auipc	s0,0x1
    800007b4:	ae940413          	addi	s0,s0,-1303 # 80001299 <reg_x19_output+0x1>
    800007b8:	be700893          	li	a7,-1049
    800007bc:	2180c513          	xori	a0,ra,536
    800007c0:	03f11113          	slli	sp,sp,0x3f
    800007c4:	77100a13          	li	s4,1905
    800007c8:	52500b93          	li	s7,1317
    800007cc:	67f00713          	li	a4,1663
    800007d0:	5c900313          	li	t1,1481
    800007d4:	21ba0a93          	addi	s5,s4,539
    800007d8:	02e77ebb          	remuw	t4,a4,a4
    800007dc:	38e00e13          	li	t3,910
    800007e0:	00f7823b          	addw	tp,a5,a5
    800007e4:	e8700613          	li	a2,-377
    800007e8:	417885bb          	subw	a1,a7,s7
    800007ec:	00001997          	auipc	s3,0x1
    800007f0:	a8a98993          	addi	s3,s3,-1398 # 80001276 <reg_x14_output+0x6>
    800007f4:	5c74df03          	lhu	t5,1479(s1)
    800007f8:	02c342bb          	divw	t0,t1,a2
    800007fc:	32300b13          	li	s6,803
    80000800:	016b53b3          	srl	t2,s6,s6
    80000804:	5f300193          	li	gp,1523
    80000808:	02b5ddb3          	divu	s11,a1,a1
    8000080c:	66900613          	li	a2,1641
    80000810:	ee500493          	li	s1,-283
    80000814:	ad800a93          	li	s5,-1320
    80000818:	ae018293          	addi	t0,gp,-1312 # 800019f0 <_end+0x2e0>
    8000081c:	fb100393          	li	t2,-79
    80000820:	023e7c3b          	remuw	s8,t3,gp
    80000824:	40c6553b          	sraw	a0,a2,a2
    80000828:	00b5e933          	or	s2,a1,a1
    8000082c:	00100a13          	li	s4,1
    80000830:	fff00c93          	li	s9,-1
    80000834:	03fa1a13          	slli	s4,s4,0x3f
    80000838:	4139de3b          	sraw	t3,s3,s3
    8000083c:	1f59c803          	lbu	a6,501(s3)
    80000840:	00000717          	auipc	a4,0x0
    80000844:	35570713          	addi	a4,a4,853 # 80000b95 <test_end+0x1fd>
    80000848:	00000693          	li	a3,0
    8000084c:	40215633          	sra	a2,sp,sp
    80000850:	b8248e93          	addi	t4,s1,-1150
    80000854:	002cccb3          	xor	s9,s9,sp
    80000858:	00001917          	auipc	s2,0x1
    8000085c:	9cd90913          	addi	s2,s2,-1587 # 80001225 <reg_x4_output+0x5>
    80000860:	2dc40923          	sb	t3,722(s0)
    80000864:	019e7fb3          	and	t6,t3,s9
    80000868:	ce100e13          	li	t3,-799
    8000086c:	3d390183          	lb	gp,979(s2)
    80000870:	c6c2af03          	lw	t5,-916(t0)
    80000874:	fff00213          	li	tp,-1
    80000878:	931a8b93          	addi	s7,s5,-1743
    8000087c:	01424233          	xor	tp,tp,s4
    80000880:	00000997          	auipc	s3,0x0
    80000884:	46f98993          	addi	s3,s3,1135 # 80000cef <test_end+0x357>
    80000888:	b5d18313          	addi	t1,gp,-1187 # 80001a6d <_end+0x35d>
    8000088c:	a0818d93          	addi	s11,gp,-1528 # 80001918 <_end+0x208>
    80000890:	007397bb          	sllw	a5,t2,t2
    80000894:	77871fa3          	sh	s8,1919(a4)
    80000898:	07b00793          	li	a5,123
    8000089c:	a1f00f13          	li	t5,-1505
    800008a0:	d3500193          	li	gp,-715
    800008a4:	002560b3          	or	ra,a0,sp
    800008a8:	004ff8b3          	and	a7,t6,tp
    800008ac:	014065b3          	or	a1,zero,s4
    800008b0:	ca018293          	addi	t0,gp,-864 # 80001bb0 <_end+0x4a0>
    800008b4:	00000917          	auipc	s2,0x0
    800008b8:	7c790913          	addi	s2,s2,1991 # 8000107b <fromhost+0x3b>
    800008bc:	67d95683          	lhu	a3,1661(s2)
    800008c0:	03ef3633          	mulhu	a2,t5,t5
    800008c4:	855bf2e3          	bgeu	s7,s5,80000108 <crash_backward>
    800008c8:	d57db023          	sd	s7,-704(s11)
    800008cc:	4b300413          	li	s0,1203
    800008d0:	0081d3bb          	srlw	t2,gp,s0
    800008d4:	a07e0c13          	addi	s8,t3,-1529
    800008d8:	03e7ad33          	mulhsu	s10,a5,t5
    800008dc:	9be2d503          	lhu	a0,-1602(t0)
    800008e0:	6d89c803          	lbu	a6,1752(s3)
    800008e4:	beb32b03          	lw	s6,-1045(t1)
    800008e8:	82b8c0e3          	blt	a7,a1,80000108 <crash_backward>
    800008ec:	ad900a93          	li	s5,-1319
    800008f0:	a0a18513          	addi	a0,gp,-1526 # 8000191a <_end+0x20a>
    800008f4:	035ad633          	divu	a2,s5,s5
    800008f8:	a9750f23          	sb	s7,-1378(a0)
    800008fc:	0040006f          	j	80000900 <reg_dump>

0000000080000900 <reg_dump>:
    80000900:	00001097          	auipc	ra,0x1
    80000904:	e0008093          	addi	ra,ra,-512 # 80001700 <loop_count>
    80000908:	0000a103          	lw	sp,0(ra)
    8000090c:	fff10193          	addi	gp,sp,-1
    80000910:	0030a023          	sw	gp,0(ra)
    80000914:	88011ae3          	bnez	sp,800001a8 <pseg_0>
    80000918:	00001097          	auipc	ra,0x1
    8000091c:	8e808093          	addi	ra,ra,-1816 # 80001200 <begin_signature>
    80000920:	0000b023          	sd	zero,0(ra)
    80000924:	0020b823          	sd	sp,16(ra)
    80000928:	0030bc23          	sd	gp,24(ra)
    8000092c:	0240b023          	sd	tp,32(ra)
    80000930:	0270bc23          	sd	t2,56(ra)
    80000934:	0480b023          	sd	s0,64(ra)
    80000938:	0490b423          	sd	s1,72(ra)
    8000093c:	04b0bc23          	sd	a1,88(ra)
    80000940:	06c0b023          	sd	a2,96(ra)
    80000944:	06d0b423          	sd	a3,104(ra)
    80000948:	06f0bc23          	sd	a5,120(ra)
    8000094c:	0900b023          	sd	a6,128(ra)
    80000950:	0910b423          	sd	a7,136(ra)
    80000954:	0b40b023          	sd	s4,160(ra)
    80000958:	0b50b423          	sd	s5,168(ra)
    8000095c:	0b60b823          	sd	s6,176(ra)
    80000960:	0b70bc23          	sd	s7,184(ra)
    80000964:	0d80b023          	sd	s8,192(ra)
    80000968:	0d90b423          	sd	s9,200(ra)
    8000096c:	0da0b823          	sd	s10,208(ra)
    80000970:	0fc0b023          	sd	t3,224(ra)
    80000974:	0fd0b423          	sd	t4,232(ra)
    80000978:	0fe0b823          	sd	t5,240(ra)
    8000097c:	0ff0bc23          	sd	t6,248(ra)
    80000980:	0180006f          	j	80000998 <test_end>

0000000080000984 <crash_forward>:
    80000984:	0ff0000f          	fence
    80000988:	00018063          	beqz	gp,80000988 <crash_forward+0x4>
    8000098c:	00119193          	slli	gp,gp,0x1
    80000990:	0011e193          	ori	gp,gp,1
    80000994:	00000073          	ecall

0000000080000998 <test_end>:
    80000998:	0ff0000f          	fence
    8000099c:	00100193          	li	gp,1
    800009a0:	00000073          	ecall
    800009a4:	c0001073          	unimp
	...

Disassembly of section .tohost:

0000000080001000 <tohost>:
	...

0000000080001040 <fromhost>:
	...
