
test.elf:     file format elf64-littleriscv


Disassembly of section .text.init:

0000000080000000 <_start>:
    80000000:	0580006f          	j	80000058 <reset_vector>

0000000080000004 <trap_vector>:
    80000004:	34202f73          	csrr	t5,mcause
    80000008:	00800f93          	li	t6,8
    8000000c:	05ff0063          	beq	t5,t6,8000004c <write_tohost>
    80000010:	00900f93          	li	t6,9
    80000014:	03ff0c63          	beq	t5,t6,8000004c <write_tohost>
    80000018:	00b00f93          	li	t6,11
    8000001c:	03ff0863          	beq	t5,t6,8000004c <write_tohost>
    80000020:	00000f13          	li	t5,0
    80000024:	000f0463          	beqz	t5,8000002c <trap_vector+0x28>
    80000028:	000f0067          	jr	t5
    8000002c:	34202f73          	csrr	t5,mcause
    80000030:	000f5463          	bgez	t5,80000038 <handle_exception>
    80000034:	0140006f          	j	80000048 <other_exception>

0000000080000038 <handle_exception>:
    80000038:	34102e73          	csrr	t3,mepc
    8000003c:	004e0e13          	addi	t3,t3,4
    80000040:	341e1073          	csrw	mepc,t3
    80000044:	30200073          	mret

0000000080000048 <other_exception>:
    80000048:	5391e193          	ori	gp,gp,1337

000000008000004c <write_tohost>:
    8000004c:	00001f17          	auipc	t5,0x1
    80000050:	fa3f2a23          	sw	gp,-76(t5) # 80001000 <tohost>
    80000054:	ff9ff06f          	j	8000004c <write_tohost>

0000000080000058 <reset_vector>:
    80000058:	f1402573          	csrr	a0,mhartid
    8000005c:	00051063          	bnez	a0,8000005c <reset_vector+0x4>
    80000060:	00000297          	auipc	t0,0x0
    80000064:	01028293          	addi	t0,t0,16 # 80000070 <reset_vector+0x18>
    80000068:	30529073          	csrw	mtvec,t0
    8000006c:	18005073          	csrwi	satp,0
    80000070:	00000297          	auipc	t0,0x0
    80000074:	01c28293          	addi	t0,t0,28 # 8000008c <reset_vector+0x34>
    80000078:	30529073          	csrw	mtvec,t0
    8000007c:	fff00293          	li	t0,-1
    80000080:	3b029073          	csrw	pmpaddr0,t0
    80000084:	01f00293          	li	t0,31
    80000088:	3a029073          	csrw	pmpcfg0,t0
    8000008c:	00000297          	auipc	t0,0x0
    80000090:	01828293          	addi	t0,t0,24 # 800000a4 <reset_vector+0x4c>
    80000094:	30529073          	csrw	mtvec,t0
    80000098:	30205073          	csrwi	medeleg,0
    8000009c:	30305073          	csrwi	mideleg,0
    800000a0:	30405073          	csrwi	mie,0
    800000a4:	00000193          	li	gp,0
    800000a8:	00000297          	auipc	t0,0x0
    800000ac:	f5c28293          	addi	t0,t0,-164 # 80000004 <trap_vector>
    800000b0:	30529073          	csrw	mtvec,t0
    800000b4:	00100513          	li	a0,1
    800000b8:	01f51513          	slli	a0,a0,0x1f
    800000bc:	00055863          	bgez	a0,800000cc <reset_vector+0x74>
    800000c0:	0ff0000f          	fence
    800000c4:	00100193          	li	gp,1
    800000c8:	00000073          	ecall
    800000cc:	00000293          	li	t0,0
    800000d0:	00028e63          	beqz	t0,800000ec <reset_vector+0x94>
    800000d4:	10529073          	csrw	stvec,t0
    800000d8:	0000b2b7          	lui	t0,0xb
    800000dc:	1092829b          	addiw	t0,t0,265
    800000e0:	30229073          	csrw	medeleg,t0
    800000e4:	30202373          	csrr	t1,medeleg
    800000e8:	f66290e3          	bne	t0,t1,80000048 <other_exception>
    800000ec:	30005073          	csrwi	mstatus,0
    800000f0:	00000297          	auipc	t0,0x0
    800000f4:	01428293          	addi	t0,t0,20 # 80000104 <reset_vector+0xac>
    800000f8:	34129073          	csrw	mepc,t0
    800000fc:	f1402573          	csrr	a0,mhartid
    80000100:	30200073          	mret
    80000104:	0180006f          	j	8000011c <test_start>

0000000080000108 <crash_backward>:
    80000108:	0ff0000f          	fence
    8000010c:	00018063          	beqz	gp,8000010c <crash_backward+0x4>
    80000110:	00119193          	slli	gp,gp,0x1
    80000114:	0011e193          	ori	gp,gp,1
    80000118:	00000073          	ecall

000000008000011c <test_start>:
    8000011c:	00001f97          	auipc	t6,0x1
    80000120:	fe4f8f93          	addi	t6,t6,-28 # 80001100 <hidden_data>
    80000124:	000fb003          	ld	zero,0(t6)
    80000128:	008fb083          	ld	ra,8(t6)
    8000012c:	010fb103          	ld	sp,16(t6)
    80000130:	018fb183          	ld	gp,24(t6)
    80000134:	020fb203          	ld	tp,32(t6)
    80000138:	028fb283          	ld	t0,40(t6)
    8000013c:	030fb303          	ld	t1,48(t6)
    80000140:	038fb383          	ld	t2,56(t6)
    80000144:	040fb403          	ld	s0,64(t6)
    80000148:	048fb483          	ld	s1,72(t6)
    8000014c:	050fb503          	ld	a0,80(t6)
    80000150:	058fb583          	ld	a1,88(t6)
    80000154:	060fb603          	ld	a2,96(t6)
    80000158:	068fb683          	ld	a3,104(t6)
    8000015c:	070fb703          	ld	a4,112(t6)
    80000160:	078fb783          	ld	a5,120(t6)
    80000164:	080fb803          	ld	a6,128(t6)
    80000168:	088fb883          	ld	a7,136(t6)
    8000016c:	090fb903          	ld	s2,144(t6)
    80000170:	098fb983          	ld	s3,152(t6)
    80000174:	0a0fba03          	ld	s4,160(t6)
    80000178:	0a8fba83          	ld	s5,168(t6)
    8000017c:	0b0fbb03          	ld	s6,176(t6)
    80000180:	0b8fbb83          	ld	s7,184(t6)
    80000184:	0c0fbc03          	ld	s8,192(t6)
    80000188:	0c8fbc83          	ld	s9,200(t6)
    8000018c:	0d0fbd03          	ld	s10,208(t6)
    80000190:	0d8fbd83          	ld	s11,216(t6)
    80000194:	0e0fbe03          	ld	t3,224(t6)
    80000198:	0e8fbe83          	ld	t4,232(t6)
    8000019c:	0f0fbf03          	ld	t5,240(t6)
    800001a0:	0f8fbf83          	ld	t6,248(t6)
    800001a4:	0040006f          	j	800001a8 <pseg_0>

00000000800001a8 <pseg_0>:
    800001a8:	002c3333          	sltu	t1,s8,sp
    800001ac:	00001817          	auipc	a6,0x1
    800001b0:	c0880813          	addi	a6,a6,-1016 # 80000db4 <test_end+0x36c>
    800001b4:	00001f97          	auipc	t6,0x1
    800001b8:	109f8f93          	addi	t6,t6,265 # 800012bd <reg_x23_output+0x5>
    800001bc:	3a500593          	li	a1,933
    800001c0:	49b58393          	addi	t2,a1,1179
    800001c4:	30318213          	addi	tp,gp,771 # 80002213 <__global_pointer$+0x303>
    800001c8:	15ad20b7          	lui	ra,0x15ad2
    800001cc:	00d3f733          	and	a4,t2,a3
    800001d0:	10bfb283          	ld	t0,267(t6)
    800001d4:	00001917          	auipc	s2,0x1
    800001d8:	28190913          	addi	s2,s2,641 # 80001455 <test_memory+0x155>
    800001dc:	bf900493          	li	s1,-1031
    800001e0:	7c000093          	li	ra,1984
    800001e4:	72080e03          	lb	t3,1824(a6)
    800001e8:	db400f93          	li	t6,-588
    800001ec:	51a00d93          	li	s11,1306
    800001f0:	0bd00b93          	li	s7,189
    800001f4:	03a4c13b          	divw	sp,s1,s10
    800001f8:	03bb9833          	mulh	a6,s7,s11
    800001fc:	02758ce3          	beq	a1,t2,80000a34 <crash_forward>
    80000200:	01ff82b3          	add	t0,t6,t6
    80000204:	00001897          	auipc	a7,0x1
    80000208:	50588893          	addi	a7,a7,1285 # 80001709 <loop_count+0x9>
    8000020c:	a0218993          	addi	s3,gp,-1534 # 80001912 <_end+0x202>
    80000210:	6d500513          	li	a0,1749
    80000214:	00001697          	auipc	a3,0x1
    80000218:	33368693          	addi	a3,a3,819 # 80001547 <test_memory+0x247>
    8000021c:	017dfeb3          	and	t4,s11,s7
    80000220:	d4500713          	li	a4,-699
    80000224:	0010f333          	and	t1,ra,ra
    80000228:	00001f97          	auipc	t6,0x1
    8000022c:	1bcf8f93          	addi	t6,t6,444 # 800013e4 <test_memory+0xe4>
    80000230:	16f95783          	lhu	a5,367(s2)
    80000234:	00001397          	auipc	t2,0x1
    80000238:	cda38393          	addi	t2,t2,-806 # 80000f0e <test_end+0x4c6>
    8000023c:	c7118a93          	addi	s5,gp,-911 # 80001b81 <_end+0x471>
    80000240:	c5400c93          	li	s9,-940
    80000244:	f58fe583          	lwu	a1,-168(t6)
    80000248:	b4700293          	li	t0,-1209
    8000024c:	c6800e93          	li	t4,-920
    80000250:	d2500c13          	li	s8,-731
    80000254:	00001917          	auipc	s2,0x1
    80000258:	3d990913          	addi	s2,s2,985 # 8000162d <test_memory+0x32d>
    8000025c:	eff18e13          	addi	t3,gp,-257 # 80001e0f <_end+0x6ff>
    80000260:	4194d43b          	sraw	s0,s1,s9
    80000264:	1bc00093          	li	ra,444
    80000268:	e3b8aa03          	lw	s4,-453(a7)
    8000026c:	804e19a3          	sh	tp,-2029(t3)
    80000270:	00001f97          	auipc	t6,0x1
    80000274:	0fff8f93          	addi	t6,t6,255 # 8000136f <test_memory+0x6f>
    80000278:	e8e748e3          	blt	a4,a4,80000108 <crash_backward>
    8000027c:	85b00b13          	li	s6,-1957
    80000280:	026d1413          	slli	s0,s10,0x26
    80000284:	e4418e13          	addi	t3,gp,-444 # 80001d54 <_end+0x644>
    80000288:	018c41b3          	xor	gp,s8,s8
    8000028c:	265fe583          	lwu	a1,613(t6)
    80000290:	00001797          	auipc	a5,0x1
    80000294:	d2378793          	addi	a5,a5,-733 # 80000fb3 <test_end+0x56b>
    80000298:	00e76233          	or	tp,a4,a4
    8000029c:	3b07aaa3          	sw	a6,949(a5)
    800002a0:	a9c00a13          	li	s4,-1380
    800002a4:	95ba97a3          	sh	s11,-1713(s5)
    800002a8:	3bc00813          	li	a6,956
    800002ac:	4102833b          	subw	t1,t0,a6
    800002b0:	d7099f03          	lh	t5,-656(s3)
    800002b4:	000b0413          	mv	s0,s6
    800002b8:	41ef5c3b          	sraw	s8,t5,t5
    800002bc:	00040193          	mv	gp,s0
    800002c0:	021ecbbb          	divw	s7,t4,ra
    800002c4:	01650d3b          	addw	s10,a0,s6
    800002c8:	b4600813          	li	a6,-1210
    800002cc:	00000213          	li	tp,0
    800002d0:	f9a00c93          	li	s9,-102
    800002d4:	00001517          	auipc	a0,0x1
    800002d8:	0d050513          	addi	a0,a0,208 # 800013a4 <test_memory+0xa4>
    800002dc:	00000713          	li	a4,0
    800002e0:	00100e93          	li	t4,1
    800002e4:	da393d83          	ld	s11,-605(s2)
    800002e8:	f8a68603          	lb	a2,-118(a3)
    800002ec:	f7953223          	sd	s9,-156(a0)
    800002f0:	6923b103          	ld	sp,1682(t2)
    800002f4:	74e26063          	bltu	tp,a4,80000a34 <crash_forward>
    800002f8:	40c65b33          	sra	s6,a2,a2
    800002fc:	d5818c13          	addi	s8,gp,-680 # 80001c68 <_end+0x558>
    80000300:	4010d43b          	sraw	s0,ra,ra
    80000304:	6d000193          	li	gp,1744
    80000308:	940e3a23          	sd	zero,-1708(t3)
    8000030c:	0231e9b3          	rem	s3,gp,gp
    80000310:	dd200113          	li	sp,-558
    80000314:	419a04bb          	subw	s1,s4,s9
    80000318:	97960a93          	addi	s5,a2,-1671
    8000031c:	0062d23b          	srlw	tp,t0,t1
    80000320:	97a00493          	li	s1,-1670
    80000324:	04800693          	li	a3,72
    80000328:	00001f97          	auipc	t6,0x1
    8000032c:	e79f8f93          	addi	t6,t6,-391 # 800011a1 <reg_x20_init+0x1>
    80000330:	00001a17          	auipc	s4,0x1
    80000334:	2f0a0a13          	addi	s4,s4,752 # 80001620 <test_memory+0x320>
    80000338:	fdb48a93          	addi	s5,s1,-37
    8000033c:	03fe9e93          	slli	t4,t4,0x3f
    80000340:	9eb00793          	li	a5,-1557
    80000344:	010852b3          	srl	t0,a6,a6
    80000348:	6e9ad663          	bge	s5,s1,80000a34 <crash_forward>
    8000034c:	e1d00b13          	li	s6,-483
    80000350:	036b543b          	divuw	s0,s6,s6
    80000354:	36b00613          	li	a2,875
    80000358:	00c64db3          	xor	s11,a2,a2
    8000035c:	00001197          	auipc	gp,0x1
    80000360:	2af18193          	addi	gp,gp,687 # 8000160b <test_memory+0x30b>
    80000364:	3e800513          	li	a0,1000
    80000368:	00d15733          	srl	a4,sp,a3
    8000036c:	08218983          	lb	s3,130(gp) # 80001f92 <__global_pointer$+0x82>
    80000370:	402cd5b3          	sra	a1,s9,sp
    80000374:	fff00d13          	li	s10,-1
    80000378:	01dd4d33          	xor	s10,s10,t4
    8000037c:	00001a97          	auipc	s5,0x1
    80000380:	1c4a8a93          	addi	s5,s5,452 # 80001540 <test_memory+0x240>
    80000384:	e96a0d23          	sb	s6,-358(s4)
    80000388:	fd900593          	li	a1,-39
    8000038c:	02a52933          	mulhsu	s2,a0,a0
    80000390:	00001117          	auipc	sp,0x1
    80000394:	03210113          	addi	sp,sp,50 # 800013c2 <test_memory+0xc2>
    80000398:	c8000493          	li	s1,-896
    8000039c:	8ae00993          	li	s3,-1874
    800003a0:	00001417          	auipc	s0,0x1
    800003a4:	41240413          	addi	s0,s0,1042 # 800017b2 <_end+0xa2>
    800003a8:	cf918293          	addi	t0,gp,-775 # 80001c09 <_end+0x4f9>
    800003ac:	40bfef03          	lwu	t5,1035(t6)
    800003b0:	00001817          	auipc	a6,0x1
    800003b4:	a8380813          	addi	a6,a6,-1405 # 80000e33 <test_end+0x3eb>
    800003b8:	ea8a9603          	lh	a2,-344(s5)
    800003bc:	26b88513          	addi	a0,a7,619
    800003c0:	00001a17          	auipc	s4,0x1
    800003c4:	34fa0a13          	addi	s4,s4,847 # 8000170f <loop_count+0xf>
    800003c8:	2d6100a3          	sb	s6,705(sp)
    800003cc:	66846463          	bltu	s0,s0,80000a34 <crash_forward>
    800003d0:	0166123b          	sllw	tp,a2,s6
    800003d4:	f95a2903          	lw	s2,-107(s4)
    800003d8:	19d00713          	li	a4,413
    800003dc:	0135fdb3          	and	s11,a1,s3
    800003e0:	01a9f0b3          	and	ra,s3,s10
    800003e4:	02e4db3b          	divuw	s6,s1,a4
    800003e8:	c2d42d23          	sw	a3,-966(s0)
    800003ec:	01d0ebb3          	or	s7,ra,t4
    800003f0:	006d43b3          	xor	t2,s10,t1
    800003f4:	69982683          	lw	a3,1689(a6)
    800003f8:	99ac0ea3          	sb	s10,-1635(s8)
    800003fc:	e30d7e13          	andi	t3,s10,-464
    80000400:	a3b2ec83          	lwu	s9,-1477(t0)
    80000404:	4a000193          	li	gp,1184
    80000408:	c7500893          	li	a7,-907
    8000040c:	0317a333          	mulhsu	t1,a5,a7
    80000410:	7cc00f93          	li	t6,1996
    80000414:	01f19f33          	sll	t5,gp,t6
    80000418:	00098293          	mv	t0,s3
    8000041c:	00100b93          	li	s7,1
    80000420:	00001917          	auipc	s2,0x1
    80000424:	eb190913          	addi	s2,s2,-335 # 800012d1 <reg_x26_output+0x1>
    80000428:	00000f93          	li	t6,0
    8000042c:	03712e33          	mulhsu	t3,sp,s7
    80000430:	00001b17          	auipc	s6,0x1
    80000434:	af2b0b13          	addi	s6,s6,-1294 # 80000f22 <test_end+0x4da>
    80000438:	011ad233          	srl	tp,s5,a7
    8000043c:	00001197          	auipc	gp,0x1
    80000440:	c4b18193          	addi	gp,gp,-949 # 80001087 <fromhost+0x47>
    80000444:	00001a97          	auipc	s5,0x1
    80000448:	974a8a93          	addi	s5,s5,-1676 # 80000db8 <test_end+0x370>
    8000044c:	53db0583          	lb	a1,1341(s6)
    80000450:	03fb9b93          	slli	s7,s7,0x3f
    80000454:	00001817          	auipc	a6,0x1
    80000458:	dd180813          	addi	a6,a6,-559 # 80001225 <reg_x4_output+0x5>
    8000045c:	00001417          	auipc	s0,0x1
    80000460:	8ae40413          	addi	s0,s0,-1874 # 80000d0a <test_end+0x2c2>
    80000464:	0c500d13          	li	s10,197
    80000468:	00000893          	li	a7,0
    8000046c:	14e84103          	lbu	sp,334(a6)
    80000470:	65e43c03          	ld	s8,1630(s0)
    80000474:	00028a13          	mv	s4,t0
    80000478:	6c400c93          	li	s9,1732
    8000047c:	01ad2f33          	slt	t5,s10,s10
    80000480:	49d19ba3          	sh	t4,1175(gp) # 800023a7 <__global_pointer$+0x497>
    80000484:	01ce1ebb          	sllw	t4,t3,t3
    80000488:	24796683          	lwu	a3,583(s2)
    8000048c:	c742cee3          	blt	t0,s4,80000108 <crash_backward>
    80000490:	00001597          	auipc	a1,0x1
    80000494:	95258593          	addi	a1,a1,-1710 # 80000de2 <test_end+0x39a>
    80000498:	00001b17          	auipc	s6,0x1
    8000049c:	de3b0b13          	addi	s6,s6,-541 # 8000127b <reg_x15_output+0x3>
    800004a0:	29700413          	li	s0,663
    800004a4:	40d6d63b          	sraw	a2,a3,a3
    800004a8:	9a518513          	addi	a0,gp,-1627 # 800018b5 <_end+0x1a5>
    800004ac:	ab600d13          	li	s10,-1354
    800004b0:	3d5b3883          	ld	a7,981(s6)
    800004b4:	93300e13          	li	t3,-1741
    800004b8:	a0918113          	addi	sp,gp,-1527 # 80001919 <_end+0x209>
    800004bc:	019ca333          	slt	t1,s9,s9
    800004c0:	03ce1fb3          	mulh	t6,t3,t3
    800004c4:	f1100793          	li	a5,-239
    800004c8:	9ac78493          	addi	s1,a5,-1620
    800004cc:	fff00093          	li	ra,-1
    800004d0:	749abc23          	sd	s1,1880(s5)
    800004d4:	00100293          	li	t0,1
    800004d8:	c6316703          	lwu	a4,-925(sp)
    800004dc:	bd700693          	li	a3,-1065
    800004e0:	00139ebb          	sllw	t4,t2,ra
    800004e4:	03a4583b          	divuw	a6,s0,s10
    800004e8:	03f29293          	slli	t0,t0,0x3f
    800004ec:	0170c0b3          	xor	ra,ra,s7
    800004f0:	d4200f13          	li	t5,-702
    800004f4:	037bdfb3          	divu	t6,s7,s7
    800004f8:	d8f68193          	addi	gp,a3,-625
    800004fc:	ae353983          	ld	s3,-1309(a0)
    80000500:	03701a93          	slli	s5,zero,0x37
    80000504:	fff00313          	li	t1,-1
    80000508:	00001617          	auipc	a2,0x1
    8000050c:	abe60613          	addi	a2,a2,-1346 # 80000fc6 <test_end+0x57e>
    80000510:	4be00b13          	li	s6,1214
    80000514:	00534333          	xor	t1,t1,t0
    80000518:	00001117          	auipc	sp,0x1
    8000051c:	d5910113          	addi	sp,sp,-679 # 80001271 <reg_x14_output+0x1>
    80000520:	00647933          	and	s2,s0,t1
    80000524:	0ed119a3          	sh	a3,243(sp)
    80000528:	39d60703          	lb	a4,925(a2)
    8000052c:	b5b00993          	li	s3,-1189
    80000530:	03ef3233          	mulhu	tp,t5,t5
    80000534:	03ef0c3b          	mulw	s8,t5,t5
    80000538:	66f581a3          	sb	a5,1635(a1)
    8000053c:	001373b3          	and	t2,t1,ra
    80000540:	005968b3          	or	a7,s2,t0
    80000544:	0339e533          	rem	a0,s3,s3
    80000548:	00001c97          	auipc	s9,0x1
    8000054c:	0e7c8c93          	addi	s9,s9,231 # 8000162f <test_memory+0x32f>
    80000550:	98900d13          	li	s10,-1655
    80000554:	d22c8a03          	lb	s4,-734(s9)
    80000558:	27b00493          	li	s1,635
    8000055c:	00001f97          	auipc	t6,0x1
    80000560:	e13f8f93          	addi	t6,t6,-493 # 8000136f <test_memory+0x6f>
    80000564:	009b1e3b          	sllw	t3,s6,s1
    80000568:	037bc23b          	divw	tp,s7,s7
    8000056c:	00000593          	li	a1,0
    80000570:	00000113          	li	sp,0
    80000574:	40000a3b          	negw	s4,zero
    80000578:	5cf00913          	li	s2,1487
    8000057c:	3f900a93          	li	s5,1017
    80000580:	0173edb3          	or	s11,t2,s7
    80000584:	00000897          	auipc	a7,0x0
    80000588:	70388893          	addi	a7,a7,1795 # 80000c87 <test_end+0x23f>
    8000058c:	00000b13          	li	s6,0
    80000590:	00010f13          	mv	t5,sp
    80000594:	cd500193          	li	gp,-811
    80000598:	b765c8e3          	blt	a1,s6,80000108 <crash_backward>
    8000059c:	00001817          	auipc	a6,0x1
    800005a0:	c0d80813          	addi	a6,a6,-1011 # 800011a9 <reg_x21_init+0x1>
    800005a4:	051fb783          	ld	a5,81(t6)
    800005a8:	00000397          	auipc	t2,0x0
    800005ac:	78238393          	addi	t2,t2,1922 # 80000d2a <test_end+0x2e2>
    800005b0:	e5718313          	addi	t1,gp,-425 # 80001d67 <_end+0x657>
    800005b4:	00001497          	auipc	s1,0x1
    800005b8:	8ec48493          	addi	s1,s1,-1812 # 80000ea0 <test_end+0x458>
    800005bc:	00001a17          	auipc	s4,0x1
    800005c0:	82ea0a13          	addi	s4,s4,-2002 # 80000dea <test_end+0x3a2>
    800005c4:	6c73cd83          	lbu	s11,1735(t2)
    800005c8:	00000093          	li	ra,0
    800005cc:	80f00c93          	li	s9,-2033
    800005d0:	b3b00993          	li	s3,-1221
    800005d4:	cd118513          	addi	a0,gp,-815 # 80001be1 <_end+0x4d1>
    800005d8:	00001297          	auipc	t0,0x1
    800005dc:	dae28293          	addi	t0,t0,-594 # 80001386 <test_memory+0x86>
    800005e0:	00000b93          	li	s7,0
    800005e4:	21881ba3          	sh	s8,535(a6)
    800005e8:	5c890713          	addi	a4,s2,1480
    800005ec:	a6f529a3          	sw	a5,-1421(a0)
    800005f0:	01e7a6b3          	slt	a3,a5,t5
    800005f4:	7bb4b023          	sd	s11,1952(s1)
    800005f8:	bd700e93          	li	t4,-1065
    800005fc:	009c4233          	xor	tp,s8,s1
    80000600:	716a8c13          	addi	s8,s5,1814
    80000604:	43e11863          	bne	sp,t5,80000a34 <crash_forward>
    80000608:	603a1523          	sh	gp,1546(s4)
    8000060c:	af5c6ee3          	bltu	s8,s5,80000108 <crash_backward>
    80000610:	03dd6433          	rem	s0,s10,t4
    80000614:	91c18593          	addi	a1,gp,-1764 # 8000182c <_end+0x11c>
    80000618:	7858de03          	lhu	t3,1925(a7)
    8000061c:	013cc633          	xor	a2,s9,s3
    80000620:	3b300413          	li	s0,947
    80000624:	00000093          	li	ra,0
    80000628:	00000e97          	auipc	t4,0x0
    8000062c:	516e8e93          	addi	t4,t4,1302 # 80000b3e <test_end+0xf6>
    80000630:	00000993          	li	s3,0
    80000634:	13700693          	li	a3,311
    80000638:	a8900b93          	li	s7,-1399
    8000063c:	0263423b          	divw	tp,t1,t1
    80000640:	7dae8703          	lb	a4,2010(t4)
    80000644:	ae65db03          	lhu	s6,-1306(a1)
    80000648:	037bd533          	divu	a0,s7,s7
    8000064c:	40500d13          	li	s10,1029
    80000650:	61b00d93          	li	s11,1563
    80000654:	09b28223          	sb	s11,132(t0)
    80000658:	00100313          	li	t1,1
    8000065c:	03f31313          	slli	t1,t1,0x3f
    80000660:	d1700113          	li	sp,-745
    80000664:	9e800a13          	li	s4,-1560
    80000668:	41410fb3          	sub	t6,sp,s4
    8000066c:	03b41cb3          	mulh	s9,s0,s11
    80000670:	01ad6633          	or	a2,s10,s10
    80000674:	fff00a93          	li	s5,-1
    80000678:	00001997          	auipc	s3,0x1
    8000067c:	a0098993          	addi	s3,s3,-1536 # 80001078 <fromhost+0x38>
    80000680:	7b000813          	li	a6,1968
    80000684:	03f82c33          	mulhsu	s8,a6,t6
    80000688:	00f7873b          	addw	a4,a5,a5
    8000068c:	ba300893          	li	a7,-1117
    80000690:	00100413          	li	s0,1
    80000694:	006acab3          	xor	s5,s5,t1
    80000698:	0306c4bb          	divw	s1,a3,a6
    8000069c:	2a29bc23          	sd	sp,696(s3)
    800006a0:	00001997          	auipc	s3,0x1
    800006a4:	a3598993          	addi	s3,s3,-1483 # 800010d5 <fromhost+0x95>
    800006a8:	0157f1b3          	and	gp,a5,s5
    800006ac:	00100b13          	li	s6,1
    800006b0:	00000d17          	auipc	s10,0x0
    800006b4:	74fd0d13          	addi	s10,s10,1871 # 80000dff <test_end+0x3b7>
    800006b8:	03fb1b13          	slli	s6,s6,0x3f
    800006bc:	0118d23b          	srlw	tp,a7,a7
    800006c0:	00000d93          	li	s11,0
    800006c4:	0061ef33          	or	t5,gp,t1
    800006c8:	fd100393          	li	t2,-47
    800006cc:	17300793          	li	a5,371
    800006d0:	41a00093          	li	ra,1050
    800006d4:	639d30a3          	sd	s9,1569(s10)
    800006d8:	39100a13          	li	s4,913
    800006dc:	41408e33          	sub	t3,ra,s4
    800006e0:	00001897          	auipc	a7,0x1
    800006e4:	82288893          	addi	a7,a7,-2014 # 80000f02 <test_end+0x4ba>
    800006e8:	fff00c13          	li	s8,-1
    800006ec:	00001297          	auipc	t0,0x1
    800006f0:	bab28293          	addi	t0,t0,-1109 # 80001297 <reg_x18_output+0x7>
    800006f4:	47c8c203          	lbu	tp,1148(a7)
    800006f8:	00000e93          	li	t4,0
    800006fc:	a1e186e3          	beq	gp,t5,80000108 <crash_backward>
    80000700:	03f41413          	slli	s0,s0,0x3f
    80000704:	00001697          	auipc	a3,0x1
    80000708:	cbf68693          	addi	a3,a3,-833 # 800013c3 <test_memory+0xc3>
    8000070c:	016c4c33          	xor	s8,s8,s6
    80000710:	02f39933          	mulh	s2,t2,a5
    80000714:	33dd9063          	bne	s11,t4,80000a34 <crash_forward>
    80000718:	00001497          	auipc	s1,0x1
    8000071c:	f4048493          	addi	s1,s1,-192 # 80001658 <test_memory+0x358>
    80000720:	00001197          	auipc	gp,0x1
    80000724:	beb18193          	addi	gp,gp,-1045 # 8000130b <test_memory+0xb>
    80000728:	00001e97          	auipc	t4,0x1
    8000072c:	ca3e8e93          	addi	t4,t4,-861 # 800013cb <test_memory+0xcb>
    80000730:	13200913          	li	s2,306
    80000734:	fd54bc23          	sd	s5,-40(s1)
    80000738:	012907bb          	addw	a5,s2,s2
    8000073c:	33a00913          	li	s2,826
    80000740:	00001797          	auipc	a5,0x1
    80000744:	e9578793          	addi	a5,a5,-363 # 800015d5 <test_memory+0x2d5>
    80000748:	c4100893          	li	a7,-959
    8000074c:	01bb40b3          	xor	ra,s6,s11
    80000750:	01817cb3          	and	s9,sp,s8
    80000754:	03295dbb          	divuw	s11,s2,s2
    80000758:	00001397          	auipc	t2,0x1
    8000075c:	db738393          	addi	t2,t2,-585 # 8000150f <test_memory+0x20f>
    80000760:	fbd79483          	lh	s1,-67(a5)
    80000764:	d9b00793          	li	a5,-613
    80000768:	01188abb          	addw	s5,a7,a7
    8000076c:	00000617          	auipc	a2,0x0
    80000770:	69060613          	addi	a2,a2,1680 # 80000dfc <test_end+0x3b4>
    80000774:	fff00113          	li	sp,-1
    80000778:	77300913          	li	s2,1907
    8000077c:	3f198803          	lb	a6,1009(s3)
    80000780:	00814133          	xor	sp,sp,s0
    80000784:	002c7fb3          	and	t6,s8,sp
    80000788:	06a3cd03          	lbu	s10,106(t2)
    8000078c:	0a4e8203          	lb	tp,164(t4)
    80000790:	023488b3          	mul	a7,s1,gp
    80000794:	016de733          	or	a4,s11,s6
    80000798:	96ec88e3          	beq	s9,a4,80000108 <crash_backward>
    8000079c:	0127fdb3          	and	s11,a5,s2
    800007a0:	02426d3b          	remw	s10,tp,tp
    800007a4:	a9118513          	addi	a0,gp,-1391 # 800019a1 <_end+0x291>
    800007a8:	57661d23          	sh	s6,1402(a2)
    800007ac:	d0051da3          	sh	zero,-741(a0)
    800007b0:	118690a3          	sh	s8,257(a3)
    800007b4:	00001f17          	auipc	t5,0x1
    800007b8:	b2df0f13          	addi	t5,t5,-1235 # 800012e1 <reg_x28_output+0x1>
    800007bc:	00001317          	auipc	t1,0x1
    800007c0:	ee630313          	addi	t1,t1,-282 # 800016a2 <test_memory+0x3a2>
    800007c4:	008e6bb3          	or	s7,t3,s0
    800007c8:	00d1da03          	lhu	s4,13(gp) # 80001f1d <__global_pointer$+0xd>
    800007cc:	c6232d23          	sw	sp,-902(t1)
    800007d0:	1a7f3e03          	ld	t3,423(t5)
    800007d4:	00000497          	auipc	s1,0x0
    800007d8:	60948493          	addi	s1,s1,1545 # 80000ddd <test_end+0x395>
    800007dc:	a8800393          	li	t2,-1400
    800007e0:	937fc4e3          	blt	t6,s7,80000108 <crash_backward>
    800007e4:	6014b1a3          	sd	ra,1539(s1)
    800007e8:	0dd2a583          	lw	a1,221(t0)
    800007ec:	a0400a93          	li	s5,-1532
    800007f0:	0353c0bb          	divw	ra,t2,s5
    800007f4:	00000697          	auipc	a3,0x0
    800007f8:	7d368693          	addi	a3,a3,2003 # 80000fc7 <test_end+0x57f>
    800007fc:	00000417          	auipc	s0,0x0
    80000800:	78640413          	addi	s0,s0,1926 # 80000f82 <test_end+0x53a>
    80000804:	92900e93          	li	t4,-1751
    80000808:	00001197          	auipc	gp,0x1
    8000080c:	d8c18193          	addi	gp,gp,-628 # 80001594 <test_memory+0x294>
    80000810:	0299f5b3          	remu	a1,s3,s1
    80000814:	00001c17          	auipc	s8,0x1
    80000818:	b18c0c13          	addi	s8,s8,-1256 # 8000132c <test_memory+0x2c>
    8000081c:	db11b223          	sd	a7,-604(gp) # 80001cb4 <_end+0x5a4>
    80000820:	00001097          	auipc	ra,0x1
    80000824:	d8b08093          	addi	ra,ra,-629 # 800015ab <test_memory+0x2ab>
    80000828:	51200a13          	li	s4,1298
    8000082c:	02425633          	divu	a2,tp,tp
    80000830:	2d25ad13          	slti	s10,a1,722
    80000834:	5c700113          	li	sp,1479
    80000838:	ca318e13          	addi	t3,gp,-861 # 80001bb3 <_end+0x4a3>
    8000083c:	41aa5c93          	srai	s9,s4,0x1a
    80000840:	1e001a63          	bnez	zero,80000a34 <crash_forward>
    80000844:	02a57733          	remu	a4,a0,a0
    80000848:	01b8acb3          	slt	s9,a7,s11
    8000084c:	76600393          	li	t2,1894
    80000850:	00001517          	auipc	a0,0x1
    80000854:	bbd50513          	addi	a0,a0,-1091 # 8000140d <test_memory+0x10d>
    80000858:	0e2c5483          	lhu	s1,226(s8)
    8000085c:	8a0066e3          	bltu	zero,zero,80000108 <crash_backward>
    80000860:	00001b17          	auipc	s6,0x1
    80000864:	e7bb0b13          	addi	s6,s6,-389 # 800016db <test_memory+0x3db>
    80000868:	881e5d83          	lhu	s11,-1919(t3)
    8000086c:	0273b833          	mulhu	a6,t2,t2
    80000870:	d0300d13          	li	s10,-765
    80000874:	00000b97          	auipc	s7,0x0
    80000878:	76fb8b93          	addi	s7,s7,1903 # 80000fe3 <test_end+0x59b>
    8000087c:	00001717          	auipc	a4,0x1
    80000880:	c3a70713          	addi	a4,a4,-966 # 800014b6 <test_memory+0x1b6>
    80000884:	014a17b3          	sll	a5,s4,s4
    80000888:	40bc533b          	sraw	t1,s8,a1
    8000088c:	00000c17          	auipc	s8,0x0
    80000890:	5e4c0c13          	addi	s8,s8,1508 # 80000e70 <test_end+0x428>
    80000894:	1b251ca3          	sh	s2,441(a0)
    80000898:	00000f97          	auipc	t6,0x0
    8000089c:	452f8f93          	addi	t6,t6,1106 # 80000cea <test_end+0x2a2>
    800008a0:	17970aa3          	sb	s9,373(a4)
    800008a4:	01a00593          	li	a1,26
    800008a8:	d59b2aa3          	sw	s9,-683(s6)
    800008ac:	364bb2a3          	sd	tp,869(s7)
    800008b0:	061cf993          	andi	s3,s9,97
    800008b4:	3856e903          	lwu	s2,901(a3)
    800008b8:	01ad563b          	srlw	a2,s10,s10
    800008bc:	50010213          	addi	tp,sp,1280
    800008c0:	f4208a83          	lb	s5,-190(ra)
    800008c4:	4d8c2c83          	lw	s9,1240(s8)
    800008c8:	00100813          	li	a6,1
    800008cc:	00000797          	auipc	a5,0x0
    800008d0:	61578793          	addi	a5,a5,1557 # 80000ee1 <test_end+0x499>
    800008d4:	64144283          	lbu	t0,1601(s0)
    800008d8:	14004e63          	bltz	zero,80000a34 <crash_forward>
    800008dc:	00b5e1b3          	or	gp,a1,a1
    800008e0:	ab2e8f13          	addi	t5,t4,-1358
    800008e4:	02842d33          	mulhsu	s10,s0,s0
    800008e8:	07c00393          	li	t2,124
    800008ec:	03f81813          	slli	a6,a6,0x3f
    800008f0:	fff00913          	li	s2,-1
    800008f4:	f6700b93          	li	s7,-153
    800008f8:	02738333          	mul	t1,t2,t2
    800008fc:	00100a13          	li	s4,1
    80000900:	408184b3          	sub	s1,gp,s0
    80000904:	db1b8d93          	addi	s11,s7,-591
    80000908:	000f8093          	mv	ra,t6
    8000090c:	00008e13          	mv	t3,ra
    80000910:	61a792a3          	sh	s10,1541(a5)
    80000914:	01094933          	xor	s2,s2,a6
    80000918:	0d100393          	li	t2,209
    8000091c:	00f7d333          	srl	t1,a5,a5
    80000920:	4167dd93          	srai	s11,a5,0x16
    80000924:	00100113          	li	sp,1
    80000928:	01287c33          	and	s8,a6,s2
    8000092c:	03fa1a13          	slli	s4,s4,0x3f
    80000930:	7c538e93          	addi	t4,t2,1989
    80000934:	00000513          	li	a0,0
    80000938:	00000b93          	li	s7,0
    8000093c:	010c69b3          	or	s3,s8,a6
    80000940:	fff00b13          	li	s6,-1
    80000944:	05600413          	li	s0,86
    80000948:	0f756663          	bltu	a0,s7,80000a34 <crash_forward>
    8000094c:	019cd7b3          	srl	a5,s9,s9
    80000950:	00000f17          	auipc	t5,0x0
    80000954:	664f0f13          	addi	t5,t5,1636 # 80000fb4 <test_end+0x56c>
    80000958:	62efb883          	ld	a7,1582(t6)
    8000095c:	4c100d13          	li	s10,1217
    80000960:	03f11113          	slli	sp,sp,0x3f
    80000964:	fff00693          	li	a3,-1
    80000968:	0c7ec663          	blt	t4,t2,80000a34 <crash_forward>
    8000096c:	014b4b33          	xor	s6,s6,s4
    80000970:	0026c6b3          	xor	a3,a3,sp
    80000974:	460f2483          	lw	s1,1120(t5)
    80000978:	016bf633          	and	a2,s7,s6
    8000097c:	0143e733          	or	a4,t2,s4
    80000980:	028472bb          	remuw	t0,s0,s0
    80000984:	2c200193          	li	gp,706
    80000988:	023d05b3          	mul	a1,s10,gp
    8000098c:	00d4fcb3          	and	s9,s1,a3
    80000990:	002ceab3          	or	s5,s9,sp
    80000994:	0b9ae063          	bltu	s5,s9,80000a34 <crash_forward>
    80000998:	0040006f          	j	8000099c <reg_dump>

000000008000099c <reg_dump>:
    8000099c:	00001097          	auipc	ra,0x1
    800009a0:	d6408093          	addi	ra,ra,-668 # 80001700 <loop_count>
    800009a4:	0000a103          	lw	sp,0(ra)
    800009a8:	fff10193          	addi	gp,sp,-1
    800009ac:	0030a023          	sw	gp,0(ra)
    800009b0:	fe011c63          	bnez	sp,800001a8 <pseg_0>
    800009b4:	00001097          	auipc	ra,0x1
    800009b8:	84c08093          	addi	ra,ra,-1972 # 80001200 <begin_signature>
    800009bc:	0000b023          	sd	zero,0(ra)
    800009c0:	0020b823          	sd	sp,16(ra)
    800009c4:	0030bc23          	sd	gp,24(ra)
    800009c8:	0240b023          	sd	tp,32(ra)
    800009cc:	0250b423          	sd	t0,40(ra)
    800009d0:	0260b823          	sd	t1,48(ra)
    800009d4:	0270bc23          	sd	t2,56(ra)
    800009d8:	0480b023          	sd	s0,64(ra)
    800009dc:	0490b423          	sd	s1,72(ra)
    800009e0:	04a0b823          	sd	a0,80(ra)
    800009e4:	04b0bc23          	sd	a1,88(ra)
    800009e8:	06c0b023          	sd	a2,96(ra)
    800009ec:	06d0b423          	sd	a3,104(ra)
    800009f0:	06e0b823          	sd	a4,112(ra)
    800009f4:	06f0bc23          	sd	a5,120(ra)
    800009f8:	0900b023          	sd	a6,128(ra)
    800009fc:	0910b423          	sd	a7,136(ra)
    80000a00:	0920b823          	sd	s2,144(ra)
    80000a04:	0930bc23          	sd	s3,152(ra)
    80000a08:	0b40b023          	sd	s4,160(ra)
    80000a0c:	0b50b423          	sd	s5,168(ra)
    80000a10:	0b60b823          	sd	s6,176(ra)
    80000a14:	0b70bc23          	sd	s7,184(ra)
    80000a18:	0d80b023          	sd	s8,192(ra)
    80000a1c:	0d90b423          	sd	s9,200(ra)
    80000a20:	0da0b823          	sd	s10,208(ra)
    80000a24:	0db0bc23          	sd	s11,216(ra)
    80000a28:	0fc0b023          	sd	t3,224(ra)
    80000a2c:	0fd0b423          	sd	t4,232(ra)
    80000a30:	0180006f          	j	80000a48 <test_end>

0000000080000a34 <crash_forward>:
    80000a34:	0ff0000f          	fence
    80000a38:	00018063          	beqz	gp,80000a38 <crash_forward+0x4>
    80000a3c:	00119193          	slli	gp,gp,0x1
    80000a40:	0011e193          	ori	gp,gp,1
    80000a44:	00000073          	ecall

0000000080000a48 <test_end>:
    80000a48:	0ff0000f          	fence
    80000a4c:	00100193          	li	gp,1
    80000a50:	00000073          	ecall
    80000a54:	c0001073          	unimp
	...

Disassembly of section .tohost:

0000000080001000 <tohost>:
	...

0000000080001040 <fromhost>:
	...
