
test.elf:     file format elf64-littleriscv


Disassembly of section .text.init:

0000000080000000 <_start>:
    80000000:	0580006f          	j	80000058 <reset_vector>

0000000080000004 <trap_vector>:
    80000004:	34202f73          	csrr	t5,mcause
    80000008:	00800f93          	li	t6,8
    8000000c:	05ff0063          	beq	t5,t6,8000004c <write_tohost>
    80000010:	00900f93          	li	t6,9
    80000014:	03ff0c63          	beq	t5,t6,8000004c <write_tohost>
    80000018:	00b00f93          	li	t6,11
    8000001c:	03ff0863          	beq	t5,t6,8000004c <write_tohost>
    80000020:	00000f13          	li	t5,0
    80000024:	000f0463          	beqz	t5,8000002c <trap_vector+0x28>
    80000028:	000f0067          	jr	t5
    8000002c:	34202f73          	csrr	t5,mcause
    80000030:	000f5463          	bgez	t5,80000038 <handle_exception>
    80000034:	0140006f          	j	80000048 <other_exception>

0000000080000038 <handle_exception>:
    80000038:	34102e73          	csrr	t3,mepc
    8000003c:	004e0e13          	addi	t3,t3,4
    80000040:	341e1073          	csrw	mepc,t3
    80000044:	30200073          	mret

0000000080000048 <other_exception>:
    80000048:	5391e193          	ori	gp,gp,1337

000000008000004c <write_tohost>:
    8000004c:	00001f17          	auipc	t5,0x1
    80000050:	fa3f2a23          	sw	gp,-76(t5) # 80001000 <tohost>
    80000054:	ff9ff06f          	j	8000004c <write_tohost>

0000000080000058 <reset_vector>:
    80000058:	f1402573          	csrr	a0,mhartid
    8000005c:	00051063          	bnez	a0,8000005c <reset_vector+0x4>
    80000060:	00000297          	auipc	t0,0x0
    80000064:	01028293          	addi	t0,t0,16 # 80000070 <reset_vector+0x18>
    80000068:	30529073          	csrw	mtvec,t0
    8000006c:	18005073          	csrwi	satp,0
    80000070:	00000297          	auipc	t0,0x0
    80000074:	01c28293          	addi	t0,t0,28 # 8000008c <reset_vector+0x34>
    80000078:	30529073          	csrw	mtvec,t0
    8000007c:	fff00293          	li	t0,-1
    80000080:	3b029073          	csrw	pmpaddr0,t0
    80000084:	01f00293          	li	t0,31
    80000088:	3a029073          	csrw	pmpcfg0,t0
    8000008c:	00000297          	auipc	t0,0x0
    80000090:	01828293          	addi	t0,t0,24 # 800000a4 <reset_vector+0x4c>
    80000094:	30529073          	csrw	mtvec,t0
    80000098:	30205073          	csrwi	medeleg,0
    8000009c:	30305073          	csrwi	mideleg,0
    800000a0:	30405073          	csrwi	mie,0
    800000a4:	00000193          	li	gp,0
    800000a8:	00000297          	auipc	t0,0x0
    800000ac:	f5c28293          	addi	t0,t0,-164 # 80000004 <trap_vector>
    800000b0:	30529073          	csrw	mtvec,t0
    800000b4:	00100513          	li	a0,1
    800000b8:	01f51513          	slli	a0,a0,0x1f
    800000bc:	00055863          	bgez	a0,800000cc <reset_vector+0x74>
    800000c0:	0ff0000f          	fence
    800000c4:	00100193          	li	gp,1
    800000c8:	00000073          	ecall
    800000cc:	00000293          	li	t0,0
    800000d0:	00028e63          	beqz	t0,800000ec <reset_vector+0x94>
    800000d4:	10529073          	csrw	stvec,t0
    800000d8:	0000b2b7          	lui	t0,0xb
    800000dc:	1092829b          	addiw	t0,t0,265
    800000e0:	30229073          	csrw	medeleg,t0
    800000e4:	30202373          	csrr	t1,medeleg
    800000e8:	f66290e3          	bne	t0,t1,80000048 <other_exception>
    800000ec:	30005073          	csrwi	mstatus,0
    800000f0:	00000297          	auipc	t0,0x0
    800000f4:	01428293          	addi	t0,t0,20 # 80000104 <reset_vector+0xac>
    800000f8:	34129073          	csrw	mepc,t0
    800000fc:	f1402573          	csrr	a0,mhartid
    80000100:	30200073          	mret
    80000104:	0180006f          	j	8000011c <test_start>

0000000080000108 <crash_backward>:
    80000108:	0ff0000f          	fence
    8000010c:	00018063          	beqz	gp,8000010c <crash_backward+0x4>
    80000110:	00119193          	slli	gp,gp,0x1
    80000114:	0011e193          	ori	gp,gp,1
    80000118:	00000073          	ecall

000000008000011c <test_start>:
    8000011c:	00001f97          	auipc	t6,0x1
    80000120:	fe4f8f93          	addi	t6,t6,-28 # 80001100 <hidden_data>
    80000124:	000fb003          	ld	zero,0(t6)
    80000128:	008fb083          	ld	ra,8(t6)
    8000012c:	010fb103          	ld	sp,16(t6)
    80000130:	018fb183          	ld	gp,24(t6)
    80000134:	020fb203          	ld	tp,32(t6)
    80000138:	028fb283          	ld	t0,40(t6)
    8000013c:	030fb303          	ld	t1,48(t6)
    80000140:	038fb383          	ld	t2,56(t6)
    80000144:	040fb403          	ld	s0,64(t6)
    80000148:	048fb483          	ld	s1,72(t6)
    8000014c:	050fb503          	ld	a0,80(t6)
    80000150:	058fb583          	ld	a1,88(t6)
    80000154:	060fb603          	ld	a2,96(t6)
    80000158:	068fb683          	ld	a3,104(t6)
    8000015c:	070fb703          	ld	a4,112(t6)
    80000160:	078fb783          	ld	a5,120(t6)
    80000164:	080fb803          	ld	a6,128(t6)
    80000168:	088fb883          	ld	a7,136(t6)
    8000016c:	090fb903          	ld	s2,144(t6)
    80000170:	098fb983          	ld	s3,152(t6)
    80000174:	0a0fba03          	ld	s4,160(t6)
    80000178:	0a8fba83          	ld	s5,168(t6)
    8000017c:	0b0fbb03          	ld	s6,176(t6)
    80000180:	0b8fbb83          	ld	s7,184(t6)
    80000184:	0c0fbc03          	ld	s8,192(t6)
    80000188:	0c8fbc83          	ld	s9,200(t6)
    8000018c:	0d0fbd03          	ld	s10,208(t6)
    80000190:	0d8fbd83          	ld	s11,216(t6)
    80000194:	0e0fbe03          	ld	t3,224(t6)
    80000198:	0e8fbe83          	ld	t4,232(t6)
    8000019c:	0f0fbf03          	ld	t5,240(t6)
    800001a0:	0f8fbf83          	ld	t6,248(t6)
    800001a4:	0040006f          	j	800001a8 <pseg_0>

00000000800001a8 <pseg_0>:
    800001a8:	00000913          	li	s2,0
    800001ac:	40addf93          	srai	t6,s11,0xa
    800001b0:	92600593          	li	a1,-1754
    800001b4:	12600213          	li	tp,294
    800001b8:	413b8d33          	sub	s10,s7,s3
    800001bc:	70900113          	li	sp,1801
    800001c0:	00001417          	auipc	s0,0x1
    800001c4:	db040413          	addi	s0,s0,-592 # 80000f70 <test_end+0x570>
    800001c8:	56900e13          	li	t3,1385
    800001cc:	8f800c13          	li	s8,-1800
    800001d0:	bd218d13          	addi	s10,gp,-1070 # 80001ae2 <_end+0x3d2>
    800001d4:	f2001ae3          	bnez	zero,80000108 <crash_backward>
    800001d8:	db100393          	li	t2,-591
    800001dc:	02738633          	mul	a2,t2,t2
    800001e0:	f6000a93          	li	s5,-160
    800001e4:	019fd8b3          	srl	a7,t6,s9
    800001e8:	57846683          	lwu	a3,1400(s0)
    800001ec:	00001f17          	auipc	t5,0x1
    800001f0:	4bcf0f13          	addi	t5,t5,1212 # 800016a8 <test_memory+0x3a8>
    800001f4:	eb8f3b83          	ld	s7,-328(t5)
    800001f8:	03ce27b3          	mulhsu	a5,t3,t3
    800001fc:	00001417          	auipc	s0,0x1
    80000200:	e4240413          	addi	s0,s0,-446 # 8000103e <tohost+0x3e>
    80000204:	91200993          	li	s3,-1774
    80000208:	00001497          	auipc	s1,0x1
    8000020c:	09648493          	addi	s1,s1,150 # 8000129e <reg_x19_output+0x6>
    80000210:	002161b3          	or	gp,sp,sp
    80000214:	4085d09b          	sraiw	ra,a1,0x8
    80000218:	18e4ad23          	sw	a4,410(s1)
    8000021c:	00000a13          	li	s4,0
    80000220:	a7200d93          	li	s11,-1422
    80000224:	03bd92b3          	mulh	t0,s11,s11
    80000228:	02bba7b3          	mulhsu	a5,s7,a1
    8000022c:	30200f13          	li	t5,770
    80000230:	89ed6f83          	lwu	t6,-1890(s10)
    80000234:	03324b33          	div	s6,tp,s3
    80000238:	97f18e93          	addi	t4,gp,-1665 # 8000188f <_end+0x17f>
    8000023c:	00001817          	auipc	a6,0x1
    80000240:	da980813          	addi	a6,a6,-599 # 80000fe5 <test_end+0x5e5>
    80000244:	11800993          	li	s3,280
    80000248:	018c0cbb          	addw	s9,s8,s8
    8000024c:	a3718393          	addi	t2,gp,-1481 # 80001947 <_end+0x237>
    80000250:	19b00193          	li	gp,411
    80000254:	c9e64937          	lui	s2,0xc9e64
    80000258:	02c67233          	remu	tp,a2,a2
    8000025c:	036f6133          	rem	sp,t5,s6
    80000260:	d2518793          	addi	a5,gp,-731 # 80001c35 <_end+0x525>
    80000264:	34d00d93          	li	s11,845
    80000268:	00001497          	auipc	s1,0x1
    8000026c:	22a48493          	addi	s1,s1,554 # 80001492 <test_memory+0x192>
    80000270:	00001f97          	auipc	t6,0x1
    80000274:	c89f8f93          	addi	t6,t6,-887 # 80000ef9 <test_end+0x4f9>
    80000278:	0239eb3b          	remw	s6,s3,gp
    8000027c:	bbe00c13          	li	s8,-1090
    80000280:	f9b00e13          	li	t3,-101
    80000284:	fdb4b323          	sd	s11,-58(s1)
    80000288:	00001297          	auipc	t0,0x1
    8000028c:	0a628293          	addi	t0,t0,166 # 8000132e <test_memory+0x2e>
    80000290:	0355c73b          	divw	a4,a1,s5
    80000294:	20028123          	sb	zero,514(t0)
    80000298:	aa578a03          	lb	s4,-1371(a5)
    8000029c:	a7538b23          	sb	s5,-1418(t2)
    800002a0:	dc5ee303          	lwu	t1,-571(t4)
    800002a4:	25b00893          	li	a7,603
    800002a8:	011dd6b3          	srl	a3,s11,a7
    800002ac:	3e382503          	lw	a0,995(a6)
    800002b0:	77bfd083          	lhu	ra,1915(t6)
    800002b4:	00001917          	auipc	s2,0x1
    800002b8:	c3c90913          	addi	s2,s2,-964 # 80000ef0 <test_end+0x4f0>
    800002bc:	37a44603          	lbu	a2,890(s0)
    800002c0:	00001b17          	auipc	s6,0x1
    800002c4:	89bb0b13          	addi	s6,s6,-1893 # 80000b5b <test_end+0x15b>
    800002c8:	70f93893          	sltiu	a7,s2,1807
    800002cc:	00058f93          	mv	t6,a1
    800002d0:	03cf6bb3          	rem	s7,t5,t3
    800002d4:	038c4d33          	div	s10,s8,s8
    800002d8:	00001397          	auipc	t2,0x1
    800002dc:	13038393          	addi	t2,t2,304 # 80001408 <test_memory+0x108>
    800002e0:	000f8413          	mv	s0,t6
    800002e4:	7ddb2503          	lw	a0,2013(s6)
    800002e8:	00001e97          	auipc	t4,0x1
    800002ec:	4dce8e93          	addi	t4,t4,1244 # 800017c4 <_end+0xb4>
    800002f0:	cc6ed083          	lhu	ra,-826(t4)
    800002f4:	44496203          	lwu	tp,1092(s2)
    800002f8:	47c00d93          	li	s11,1148
    800002fc:	2c239823          	sh	sp,720(t2)
    80000300:	41bdd5bb          	sraw	a1,s11,s11
    80000304:	29d00a93          	li	s5,669
    80000308:	3c500113          	li	sp,965
    8000030c:	cde18313          	addi	t1,gp,-802 # 80001bee <_end+0x4de>
    80000310:	00001397          	auipc	t2,0x1
    80000314:	fa738393          	addi	t2,t2,-89 # 800012b7 <reg_x22_output+0x7>
    80000318:	67d00813          	li	a6,1661
    8000031c:	92c18593          	addi	a1,gp,-1748 # 8000183c <_end+0x12c>
    80000320:	d2218f13          	addi	t5,gp,-734 # 80001c32 <_end+0x522>
    80000324:	002a82bb          	addw	t0,s5,sp
    80000328:	d9600d13          	li	s10,-618
    8000032c:	e0c5be83          	ld	t4,-500(a1)
    80000330:	a9c31903          	lh	s2,-1380(t1)
    80000334:	029d5b93          	srli	s7,s10,0x29
    80000338:	00001097          	auipc	ra,0x1
    8000033c:	15e08093          	addi	ra,ra,350 # 80001496 <test_memory+0x196>
    80000340:	038e82b3          	mul	t0,t4,s8
    80000344:	c5e00c93          	li	s9,-930
    80000348:	dc0060e3          	bltu	zero,zero,80000108 <crash_backward>
    8000034c:	f7d08103          	lb	sp,-131(ra)
    80000350:	00100613          	li	a2,1
    80000354:	00100293          	li	t0,1
    80000358:	03f61613          	slli	a2,a2,0x3f
    8000035c:	af800313          	li	t1,-1288
    80000360:	6af00793          	li	a5,1711
    80000364:	e2300a13          	li	s4,-477
    80000368:	a6af1703          	lh	a4,-1430(t5)
    8000036c:	03085db3          	divu	s11,a6,a6
    80000370:	38000b13          	li	s6,896
    80000374:	42e00693          	li	a3,1070
    80000378:	03f29293          	slli	t0,t0,0x3f
    8000037c:	7f300513          	li	a0,2035
    80000380:	039cd8bb          	divuw	a7,s9,s9
    80000384:	2293e983          	lwu	s3,553(t2)
    80000388:	00a521b3          	slt	gp,a0,a0
    8000038c:	046b0493          	addi	s1,s6,70
    80000390:	02b59db3          	mulh	s11,a1,a1
    80000394:	00da7c33          	and	s8,s4,a3
    80000398:	96400f13          	li	t5,-1692
    8000039c:	fff00913          	li	s2,-1
    800003a0:	fff00413          	li	s0,-1
    800003a4:	00594933          	xor	s2,s2,t0
    800003a8:	3a800513          	li	a0,936
    800003ac:	02fd4e3b          	divw	t3,s10,a5
    800003b0:	00001d97          	auipc	s11,0x1
    800003b4:	aa3d8d93          	addi	s11,s11,-1373 # 80000e53 <test_end+0x453>
    800003b8:	00001397          	auipc	t2,0x1
    800003bc:	40438393          	addi	t2,t2,1028 # 800017bc <_end+0xac>
    800003c0:	417388bb          	subw	a7,t2,s7
    800003c4:	edc3b983          	ld	s3,-292(t2)
    800003c8:	48250b13          	addi	s6,a0,1154
    800003cc:	ff200813          	li	a6,-14
    800003d0:	5dfdc683          	lbu	a3,1503(s11)
    800003d4:	dfe80113          	addi	sp,a6,-514
    800003d8:	f2900793          	li	a5,-215
    800003dc:	0123feb3          	and	t4,t2,s2
    800003e0:	d8318393          	addi	t2,gp,-637 # 80001c93 <_end+0x583>
    800003e4:	00001897          	auipc	a7,0x1
    800003e8:	25f88893          	addi	a7,a7,607 # 80001643 <test_memory+0x343>
    800003ec:	03ef5733          	divu	a4,t5,t5
    800003f0:	00c44433          	xor	s0,s0,a2
    800003f4:	410e09b3          	sub	s3,t3,a6
    800003f8:	00877233          	and	tp,a4,s0
    800003fc:	0052eab3          	or	s5,t0,t0
    80000400:	57c00e13          	li	t3,1404
    80000404:	01bd8f33          	add	t5,s11,s11
    80000408:	00001697          	auipc	a3,0x1
    8000040c:	de968693          	addi	a3,a3,-535 # 800011f1 <reg_x30_init+0x1>
    80000410:	0381a0b3          	mulhsu	ra,gp,s8
    80000414:	2236e503          	lwu	a0,547(a3)
    80000418:	5ddaea63          	bltu	s5,t4,800009ec <crash_forward>
    8000041c:	00100493          	li	s1,1
    80000420:	fb48a6a3          	sw	s4,-83(a7)
    80000424:	00c26fb3          	or	t6,tp,a2
    80000428:	03c7f1b3          	remu	gp,a5,t3
    8000042c:	00001d97          	auipc	s11,0x1
    80000430:	bf3d8d93          	addi	s11,s11,-1037 # 8000101f <tohost+0x1f>
    80000434:	90700593          	li	a1,-1785
    80000438:	00001117          	auipc	sp,0x1
    8000043c:	ca010113          	addi	sp,sp,-864 # 800010d8 <fromhost+0x98>
    80000440:	95d3cd03          	lbu	s10,-1699(t2)
    80000444:	b3b18813          	addi	a6,gp,-1221 # 80001a4b <_end+0x33b>
    80000448:	395da8a3          	sw	s5,913(s11)
    8000044c:	00b35bb3          	srl	s7,t1,a1
    80000450:	4e013b03          	ld	s6,1248(sp)
    80000454:	03f49493          	slli	s1,s1,0x3f
    80000458:	59f27a63          	bgeu	tp,t6,800009ec <crash_forward>
    8000045c:	95381aa3          	sh	s3,-1707(a6)
    80000460:	fff00c13          	li	s8,-1
    80000464:	009c4c33          	xor	s8,s8,s1
    80000468:	018a7a33          	and	s4,s4,s8
    8000046c:	028469bb          	remw	s3,s0,s0
    80000470:	00b48ebb          	addw	t4,s1,a1
    80000474:	7b900813          	li	a6,1977
    80000478:	00001b17          	auipc	s6,0x1
    8000047c:	9fcb0b13          	addi	s6,s6,-1540 # 80000e74 <test_end+0x474>
    80000480:	417a5bbb          	sraw	s7,s4,s7
    80000484:	00001117          	auipc	sp,0x1
    80000488:	ff010113          	addi	sp,sp,-16 # 80001474 <test_memory+0x174>
    8000048c:	08611703          	lh	a4,134(sp)
    80000490:	009aecb3          	or	s9,s5,s1
    80000494:	2f400313          	li	t1,756
    80000498:	8da00393          	li	t2,-1830
    8000049c:	47800e13          	li	t3,1144
    800004a0:	03c398b3          	mulh	a7,t2,t3
    800004a4:	aa100413          	li	s0,-1375
    800004a8:	30700f93          	li	t6,775
    800004ac:	ce800193          	li	gp,-792
    800004b0:	20400113          	li	sp,516
    800004b4:	74000393          	li	t2,1856
    800004b8:	58b00993          	li	s3,1419
    800004bc:	56f00613          	li	a2,1391
    800004c0:	00212733          	slt	a4,sp,sp
    800004c4:	00c802b3          	add	t0,a6,a2
    800004c8:	bc100b93          	li	s7,-1087
    800004cc:	0ea00593          	li	a1,234
    800004d0:	00346f33          	or	t5,s0,gp
    800004d4:	0382eab3          	rem	s5,t0,s8
    800004d8:	763b2423          	sw	gp,1896(s6)
    800004dc:	00001797          	auipc	a5,0x1
    800004e0:	95978793          	addi	a5,a5,-1703 # 80000e35 <test_end+0x435>
    800004e4:	0179feb3          	and	t4,s3,s7
    800004e8:	00700e93          	li	t4,7
    800004ec:	cac00913          	li	s2,-852
    800004f0:	00001517          	auipc	a0,0x1
    800004f4:	16750513          	addi	a0,a0,359 # 80001657 <test_memory+0x357>
    800004f8:	00001d17          	auipc	s10,0x1
    800004fc:	cdbd0d13          	addi	s10,s10,-805 # 800011d3 <reg_x26_init+0x3>
    80000500:	00001417          	auipc	s0,0x1
    80000504:	a1240413          	addi	s0,s0,-1518 # 80000f12 <test_end+0x512>
    80000508:	d8a00f13          	li	t5,-630
    8000050c:	69e42b23          	sw	t5,1686(s0)
    80000510:	00000113          	li	sp,0
    80000514:	bc718993          	addi	s3,gp,-1081 # 80001ad7 <_end+0x3c7>
    80000518:	ec600b93          	li	s7,-314
    8000051c:	02b34db3          	div	s11,t1,a1
    80000520:	e93f0c93          	addi	s9,t5,-365
    80000524:	4aee8a93          	addi	s5,t4,1198
    80000528:	00000493          	li	s1,0
    8000052c:	d8b534a3          	sd	a1,-631(a0)
    80000530:	5ad7c203          	lbu	tp,1453(a5)
    80000534:	01add433          	srl	s0,s11,s10
    80000538:	a519e703          	lwu	a4,-1455(s3)
    8000053c:	01cde333          	or	t1,s11,t3
    80000540:	47a00293          	li	t0,1146
    80000544:	412f80bb          	subw	ra,t6,s2
    80000548:	c5300893          	li	a7,-941
    8000054c:	00948b33          	add	s6,s1,s1
    80000550:	41138e33          	sub	t3,t2,a7
    80000554:	34fd1683          	lh	a3,847(s10)
    80000558:	00001c17          	auipc	s8,0x1
    8000055c:	10dc0c13          	addi	s8,s8,269 # 80001665 <test_memory+0x365>
    80000560:	47a00193          	li	gp,1146
    80000564:	3fc00613          	li	a2,1020
    80000568:	02c2fa3b          	remuw	s4,t0,a2
    8000056c:	00001717          	auipc	a4,0x1
    80000570:	21a70713          	addi	a4,a4,538 # 80001786 <_end+0x76>
    80000574:	00001d17          	auipc	s10,0x1
    80000578:	ebad0d13          	addi	s10,s10,-326 # 8000142e <test_memory+0x12e>
    8000057c:	d80c3da3          	sd	zero,-613(s8)
    80000580:	c4818113          	addi	sp,gp,-952 # 80001b58 <_end+0x448>
    80000584:	6b900393          	li	t2,1721
    80000588:	00001897          	auipc	a7,0x1
    8000058c:	99a88893          	addi	a7,a7,-1638 # 80000f22 <test_end+0x522>
    80000590:	4e200913          	li	s2,1250
    80000594:	53290613          	addi	a2,s2,1330
    80000598:	98518c93          	addi	s9,gp,-1659 # 80001895 <_end+0x185>
    8000059c:	02100e93          	li	t4,33
    800005a0:	def00593          	li	a1,-529
    800005a4:	01d3f7b3          	and	a5,t2,t4
    800005a8:	403b883b          	subw	a6,s7,gp
    800005ac:	00001f97          	auipc	t6,0x1
    800005b0:	0d7f8f93          	addi	t6,t6,215 # 80001683 <test_memory+0x383>
    800005b4:	00100493          	li	s1,1
    800005b8:	a9800513          	li	a0,-1384
    800005bc:	092d3983          	ld	s3,146(s10)
    800005c0:	ccdfb6a3          	sd	a3,-819(t6)
    800005c4:	f0b72f23          	sw	a1,-226(a4)
    800005c8:	00000d97          	auipc	s11,0x0
    800005cc:	78ad8d93          	addi	s11,s11,1930 # 80000d52 <test_end+0x352>
    800005d0:	e0100e13          	li	t3,-511
    800005d4:	7c3d9f23          	sh	gp,2014(s11)
    800005d8:	03c556bb          	divuw	a3,a0,t3
    800005dc:	6128e403          	lwu	s0,1554(a7)
    800005e0:	f6300a93          	li	s5,-157
    800005e4:	acbca283          	lw	t0,-1333(s9)
    800005e8:	00000093          	li	ra,0
    800005ec:	00000a13          	li	s4,0
    800005f0:	3f40ce63          	blt	ra,s4,800009ec <crash_forward>
    800005f4:	03f49493          	slli	s1,s1,0x3f
    800005f8:	b6612e23          	sw	t1,-1156(sp)
    800005fc:	fff00213          	li	tp,-1
    80000600:	0355db33          	divu	s6,a1,s5
    80000604:	00924233          	xor	tp,tp,s1
    80000608:	004bf333          	and	t1,s7,tp
    8000060c:	00936f33          	or	t5,t1,s1
    80000610:	0197fa33          	and	s4,a5,s9
    80000614:	000c0c13          	mv	s8,s8
    80000618:	bd400f93          	li	t6,-1068
    8000061c:	58e00993          	li	s3,1422
    80000620:	c4e18613          	addi	a2,gp,-946 # 80001b5e <_end+0x44e>
    80000624:	ae700113          	li	sp,-1305
    80000628:	03398933          	mul	s2,s3,s3
    8000062c:	96363923          	sd	gp,-1678(a2)
    80000630:	03fff2b3          	remu	t0,t6,t6
    80000634:	9bf00b13          	li	s6,-1601
    80000638:	e9400d93          	li	s11,-364
    8000063c:	02d6f1bb          	remuw	gp,a3,a3
    80000640:	db280d1b          	addiw	s10,a6,-590
    80000644:	00001917          	auipc	s2,0x1
    80000648:	df590913          	addi	s2,s2,-523 # 80001439 <test_memory+0x139>
    8000064c:	1f590a03          	lb	s4,501(s2)
    80000650:	000c0413          	mv	s0,s8
    80000654:	002104b3          	add	s1,sp,sp
    80000658:	92100993          	li	s3,-1759
    8000065c:	00001697          	auipc	a3,0x1
    80000660:	14168693          	addi	a3,a3,321 # 8000179d <_end+0x8d>
    80000664:	00058813          	mv	a6,a1
    80000668:	03bb77b3          	remu	a5,s6,s11
    8000066c:	00080f13          	mv	t5,a6
    80000670:	d5b00213          	li	tp,-677
    80000674:	c3a18e93          	addi	t4,gp,-966 # 80001b4a <_end+0x43a>
    80000678:	a9418513          	addi	a0,gp,-1388 # 800019a4 <_end+0x294>
    8000067c:	00100913          	li	s2,1
    80000680:	48300293          	li	t0,1155
    80000684:	a5cea923          	sw	t3,-1454(t4)
    80000688:	0274f8b3          	remu	a7,s1,t2
    8000068c:	c4a20593          	addi	a1,tp,-950 # fffffffffffffc4a <__global_pointer$+0xffffffff7fffdd3a>
    80000690:	00001717          	auipc	a4,0x1
    80000694:	b7670713          	addi	a4,a4,-1162 # 80001206 <begin_signature+0x6>
    80000698:	00001c97          	auipc	s9,0x1
    8000069c:	f06c8c93          	addi	s9,s9,-250 # 8000159e <test_memory+0x29e>
    800006a0:	e6fcab23          	sw	a5,-394(s9)
    800006a4:	00000b97          	auipc	s7,0x0
    800006a8:	584b8b93          	addi	s7,s7,1412 # 80000c28 <test_end+0x228>
    800006ac:	6deb9e23          	sh	t5,1756(s7)
    800006b0:	a5e84ce3          	blt	a6,t5,80000108 <crash_backward>
    800006b4:	54c7cf93          	xori	t6,a5,1356
    800006b8:	0052d4bb          	srlw	s1,t0,t0
    800006bc:	32b20863          	beq	tp,a1,800009ec <crash_forward>
    800006c0:	a7255083          	lhu	ra,-1422(a0)
    800006c4:	03f91913          	slli	s2,s2,0x3f
    800006c8:	63d00393          	li	t2,1597
    800006cc:	2c100313          	li	t1,705
    800006d0:	02633e33          	mulhu	t3,t1,t1
    800006d4:	b9368a83          	lb	s5,-1133(a3)
    800006d8:	12572723          	sw	t0,302(a4)
    800006dc:	0279e63b          	remw	a2,s3,t2
    800006e0:	c8718713          	addi	a4,gp,-889 # 80001b97 <_end+0x487>
    800006e4:	000e0313          	mv	t1,t3
    800006e8:	00100593          	li	a1,1
    800006ec:	00001797          	auipc	a5,0x1
    800006f0:	ba778793          	addi	a5,a5,-1113 # 80001293 <reg_x18_output+0x3>
    800006f4:	fff00a13          	li	s4,-1
    800006f8:	00001e17          	auipc	t3,0x1
    800006fc:	8a4e0e13          	addi	t3,t3,-1884 # 80000f9c <test_end+0x59c>
    80000700:	038c3fb3          	mulhu	t6,s8,s8
    80000704:	00001297          	auipc	t0,0x1
    80000708:	b0628293          	addi	t0,t0,-1274 # 8000120a <reg_x1_output+0x2>
    8000070c:	4336dd93          	srai	s11,a3,0x33
    80000710:	2c42af23          	sw	tp,734(t0)
    80000714:	58d00993          	li	s3,1421
    80000718:	924710a3          	sh	tp,-1759(a4)
    8000071c:	0375cc33          	div	s8,a1,s7
    80000720:	98018093          	addi	ra,gp,-1664 # 80001890 <_end+0x180>
    80000724:	d180b203          	ld	tp,-744(ra)
    80000728:	00001897          	auipc	a7,0x1
    8000072c:	de988893          	addi	a7,a7,-535 # 80001511 <test_memory+0x211>
    80000730:	724e2e23          	sw	tp,1852(t3)
    80000734:	9492e213          	ori	tp,t0,-1719
    80000738:	03f59593          	slli	a1,a1,0x3f
    8000073c:	012a4a33          	xor	s4,s4,s2
    80000740:	0149fd33          	and	s10,s3,s4
    80000744:	005282bb          	addw	t0,t0,t0
    80000748:	012ce433          	or	s0,s9,s2
    8000074c:	fff00513          	li	a0,-1
    80000750:	00b54533          	xor	a0,a0,a1
    80000754:	62f00813          	li	a6,1583
    80000758:	00030a93          	mv	s5,t1
    8000075c:	018c1e3b          	sllw	t3,s8,s8
    80000760:	017bb233          	sltu	tp,s7,s7
    80000764:	00001617          	auipc	a2,0x1
    80000768:	b4560613          	addi	a2,a2,-1211 # 800012a9 <reg_x21_output+0x1>
    8000076c:	00a976b3          	and	a3,s2,a0
    80000770:	aa418213          	addi	tp,gp,-1372 # 800019b4 <_end+0x2a4>
    80000774:	14766b03          	lwu	s6,327(a2)
    80000778:	1d400e93          	li	t4,468
    8000077c:	00001097          	auipc	ra,0x1
    80000780:	d9e08093          	addi	ra,ra,-610 # 8000151a <test_memory+0x21a>
    80000784:	e5f0cf83          	lbu	t6,-417(ra)
    80000788:	6c500d93          	li	s11,1733
    8000078c:	59c00113          	li	sp,1436
    80000790:	d8d00713          	li	a4,-627
    80000794:	4ff10193          	addi	gp,sp,1279
    80000798:	36ee8493          	addi	s1,t4,878
    8000079c:	bb421e03          	lh	t3,-1100(tp) # fffffffffffffbb4 <__global_pointer$+0xffffffff7fffdca4>
    800007a0:	f5f8bf03          	ld	t5,-161(a7)
    800007a4:	0109a3b3          	slt	t2,s3,a6
    800007a8:	02f00093          	li	ra,47
    800007ac:	415a8133          	sub	sp,s5,s5
    800007b0:	45d7eb83          	lwu	s7,1117(a5)
    800007b4:	2e400613          	li	a2,740
    800007b8:	95a458e3          	bge	s0,s10,80000108 <crash_backward>
    800007bc:	0210823b          	mulw	tp,ra,ra
    800007c0:	51000993          	li	s3,1296
    800007c4:	51200f13          	li	t5,1298
    800007c8:	00b6ecb3          	or	s9,a3,a1
    800007cc:	00ed8c3b          	addw	s8,s11,a4
    800007d0:	00100193          	li	gp,1
    800007d4:	0173571b          	srliw	a4,t1,0x17
    800007d8:	000e03bb          	addw	t2,t3,zero
    800007dc:	03e9dfbb          	divuw	t6,s3,t5
    800007e0:	00001b97          	auipc	s7,0x1
    800007e4:	d54b8b93          	addi	s7,s7,-684 # 80001534 <test_memory+0x234>
    800007e8:	00001a17          	auipc	s4,0x1
    800007ec:	eaea0a13          	addi	s4,s4,-338 # 80001696 <test_memory+0x396>
    800007f0:	03f19193          	slli	gp,gp,0x3f
    800007f4:	00001d97          	auipc	s11,0x1
    800007f8:	9a6d8d93          	addi	s11,s11,-1626 # 8000119a <reg_x19_init+0x2>
    800007fc:	058bd203          	lhu	tp,88(s7)
    80000800:	cfb18093          	addi	ra,gp,-773 # 80001c0b <_end+0x4fb>
    80000804:	996b8f93          	addi	t6,s7,-1642
    80000808:	68200713          	li	a4,1666
    8000080c:	f5600913          	li	s2,-170
    80000810:	91a00b93          	li	s7,-1766
    80000814:	014a1fb3          	sll	t6,s4,s4
    80000818:	88208303          	lb	t1,-1918(ra)
    8000081c:	430dc103          	lbu	sp,1072(s11)
    80000820:	02e70433          	mul	s0,a4,a4
    80000824:	fff00813          	li	a6,-1
    80000828:	00384833          	xor	a6,a6,gp
    8000082c:	0231f2b3          	remu	t0,gp,gp
    80000830:	acf18793          	addi	a5,gp,-1329 # 800019df <_end+0x2cf>
    80000834:	00100993          	li	s3,1
    80000838:	8d96f8e3          	bgeu	a3,s9,80000108 <crash_backward>
    8000083c:	0105fb33          	and	s6,a1,a6
    80000840:	c92a5a83          	lhu	s5,-878(s4)
    80000844:	94e786a3          	sb	a4,-1715(a5)
    80000848:	02217d3b          	remuw	s10,sp,sp
    8000084c:	016a9f33          	sll	t5,s5,s6
    80000850:	e1ab8c13          	addi	s8,s7,-486
    80000854:	003b68b3          	or	a7,s6,gp
    80000858:	02c65e3b          	divuw	t3,a2,a2
    8000085c:	8b8b86e3          	beq	s7,s8,80000108 <crash_backward>
    80000860:	191b4663          	blt	s6,a7,800009ec <crash_forward>
    80000864:	01291ebb          	sllw	t4,s2,s2
    80000868:	03f99993          	slli	s3,s3,0x3f
    8000086c:	fff00493          	li	s1,-1
    80000870:	0134c4b3          	xor	s1,s1,s3
    80000874:	009073b3          	and	t2,zero,s1
    80000878:	0133e233          	or	tp,t2,s3
    8000087c:	00000817          	auipc	a6,0x0
    80000880:	3de80813          	addi	a6,a6,990 # 80000c5a <test_end+0x25a>
    80000884:	00001b17          	auipc	s6,0x1
    80000888:	8dbb0b13          	addi	s6,s6,-1829 # 8000115f <reg_x11_init+0x7>
    8000088c:	bde00293          	li	t0,-1058
    80000890:	41a95f1b          	sraiw	t5,s2,0x1a
    80000894:	82c00193          	li	gp,-2004
    80000898:	0052acb3          	slt	s9,t0,t0
    8000089c:	b0f18c93          	addi	s9,gp,-1265 # 80001a1f <_end+0x30f>
    800008a0:	00100793          	li	a5,1
    800008a4:	5e200593          	li	a1,1506
    800008a8:	ad800093          	li	ra,-1320
    800008ac:	c3dccc03          	lbu	s8,-963(s9)
    800008b0:	76c00713          	li	a4,1900
    800008b4:	00001e17          	auipc	t3,0x1
    800008b8:	e4fe0e13          	addi	t3,t3,-433 # 80001703 <loop_count+0x3>
    800008bc:	6ec84a83          	lbu	s5,1772(a6)
    800008c0:	03f79793          	slli	a5,a5,0x3f
    800008c4:	00000897          	auipc	a7,0x0
    800008c8:	70a88893          	addi	a7,a7,1802 # 80000fce <test_end+0x5ce>
    800008cc:	7de00f13          	li	t5,2014
    800008d0:	514b4903          	lbu	s2,1300(s6)
    800008d4:	5458b123          	sd	t0,1346(a7)
    800008d8:	00e09db3          	sll	s11,ra,a4
    800008dc:	e13e0b83          	lb	s7,-493(t3)
    800008e0:	00001b97          	auipc	s7,0x1
    800008e4:	e07b8b93          	addi	s7,s7,-505 # 800016e7 <test_memory+0x3e7>
    800008e8:	19f00b13          	li	s6,415
    800008ec:	00211e3b          	sllw	t3,sp,sp
    800008f0:	00b5e133          	or	sp,a1,a1
    800008f4:	e6600613          	li	a2,-410
    800008f8:	739ffa13          	andi	s4,t6,1849
    800008fc:	bc000513          	li	a0,-1088
    80000900:	7cc00913          	li	s2,1996
    80000904:	00c64fb3          	xor	t6,a2,a2
    80000908:	fff00e93          	li	t4,-1
    8000090c:	00000c17          	auipc	s8,0x0
    80000910:	34bc0c13          	addi	s8,s8,843 # 80000c57 <test_end+0x257>
    80000914:	d0e18093          	addi	ra,gp,-754 # 80001c1e <_end+0x50e>
    80000918:	724c1ba3          	sh	tp,1847(s8)
    8000091c:	00001d17          	auipc	s10,0x1
    80000920:	8ded0d13          	addi	s10,s10,-1826 # 800011fa <reg_x31_init+0x2>
    80000924:	13fd3f23          	sd	t6,318(s10)
    80000928:	00feceb3          	xor	t4,t4,a5
    8000092c:	03ef02bb          	mulw	t0,t5,t5
    80000930:	01d6f6b3          	and	a3,a3,t4
    80000934:	00f26433          	or	s0,tp,a5
    80000938:	01293833          	sltu	a6,s2,s2
    8000093c:	0a868863          	beq	a3,s0,800009ec <crash_forward>
    80000940:	02a1f333          	remu	t1,gp,a0
    80000944:	3b600c93          	li	s9,950
    80000948:	f65be883          	lwu	a7,-155(s7)
    8000094c:	a230b523          	sd	gp,-1494(ra)
    80000950:	019b4ab3          	xor	s5,s6,s9
    80000954:	0040006f          	j	80000958 <reg_dump>

0000000080000958 <reg_dump>:
    80000958:	00001097          	auipc	ra,0x1
    8000095c:	da808093          	addi	ra,ra,-600 # 80001700 <loop_count>
    80000960:	0000a103          	lw	sp,0(ra)
    80000964:	fff10193          	addi	gp,sp,-1
    80000968:	0030a023          	sw	gp,0(ra)
    8000096c:	82011ee3          	bnez	sp,800001a8 <pseg_0>
    80000970:	00001097          	auipc	ra,0x1
    80000974:	89008093          	addi	ra,ra,-1904 # 80001200 <begin_signature>
    80000978:	0000b023          	sd	zero,0(ra)
    8000097c:	0020b823          	sd	sp,16(ra)
    80000980:	0030bc23          	sd	gp,24(ra)
    80000984:	0240b023          	sd	tp,32(ra)
    80000988:	0250b423          	sd	t0,40(ra)
    8000098c:	0260b823          	sd	t1,48(ra)
    80000990:	0270bc23          	sd	t2,56(ra)
    80000994:	0480b023          	sd	s0,64(ra)
    80000998:	0490b423          	sd	s1,72(ra)
    8000099c:	04a0b823          	sd	a0,80(ra)
    800009a0:	04b0bc23          	sd	a1,88(ra)
    800009a4:	06c0b023          	sd	a2,96(ra)
    800009a8:	06d0b423          	sd	a3,104(ra)
    800009ac:	06e0b823          	sd	a4,112(ra)
    800009b0:	06f0bc23          	sd	a5,120(ra)
    800009b4:	0900b023          	sd	a6,128(ra)
    800009b8:	0910b423          	sd	a7,136(ra)
    800009bc:	0920b823          	sd	s2,144(ra)
    800009c0:	0930bc23          	sd	s3,152(ra)
    800009c4:	0b40b023          	sd	s4,160(ra)
    800009c8:	0b50b423          	sd	s5,168(ra)
    800009cc:	0b60b823          	sd	s6,176(ra)
    800009d0:	0d90b423          	sd	s9,200(ra)
    800009d4:	0db0bc23          	sd	s11,216(ra)
    800009d8:	0fc0b023          	sd	t3,224(ra)
    800009dc:	0fd0b423          	sd	t4,232(ra)
    800009e0:	0fe0b823          	sd	t5,240(ra)
    800009e4:	0ff0bc23          	sd	t6,248(ra)
    800009e8:	0180006f          	j	80000a00 <test_end>

00000000800009ec <crash_forward>:
    800009ec:	0ff0000f          	fence
    800009f0:	00018063          	beqz	gp,800009f0 <crash_forward+0x4>
    800009f4:	00119193          	slli	gp,gp,0x1
    800009f8:	0011e193          	ori	gp,gp,1
    800009fc:	00000073          	ecall

0000000080000a00 <test_end>:
    80000a00:	0ff0000f          	fence
    80000a04:	00100193          	li	gp,1
    80000a08:	00000073          	ecall
    80000a0c:	c0001073          	unimp
	...

Disassembly of section .tohost:

0000000080001000 <tohost>:
	...

0000000080001040 <fromhost>:
	...
