
test.elf:     file format elf64-littleriscv


Disassembly of section .text.init:

0000000080000000 <_start>:
    80000000:	0580006f          	j	80000058 <reset_vector>

0000000080000004 <trap_vector>:
    80000004:	34202f73          	csrr	t5,mcause
    80000008:	00800f93          	li	t6,8
    8000000c:	05ff0063          	beq	t5,t6,8000004c <write_tohost>
    80000010:	00900f93          	li	t6,9
    80000014:	03ff0c63          	beq	t5,t6,8000004c <write_tohost>
    80000018:	00b00f93          	li	t6,11
    8000001c:	03ff0863          	beq	t5,t6,8000004c <write_tohost>
    80000020:	00000f13          	li	t5,0
    80000024:	000f0463          	beqz	t5,8000002c <trap_vector+0x28>
    80000028:	000f0067          	jr	t5
    8000002c:	34202f73          	csrr	t5,mcause
    80000030:	000f5463          	bgez	t5,80000038 <handle_exception>
    80000034:	0140006f          	j	80000048 <other_exception>

0000000080000038 <handle_exception>:
    80000038:	34102e73          	csrr	t3,mepc
    8000003c:	004e0e13          	addi	t3,t3,4
    80000040:	341e1073          	csrw	mepc,t3
    80000044:	30200073          	mret

0000000080000048 <other_exception>:
    80000048:	5391e193          	ori	gp,gp,1337

000000008000004c <write_tohost>:
    8000004c:	00001f17          	auipc	t5,0x1
    80000050:	fa3f2a23          	sw	gp,-76(t5) # 80001000 <tohost>
    80000054:	ff9ff06f          	j	8000004c <write_tohost>

0000000080000058 <reset_vector>:
    80000058:	f1402573          	csrr	a0,mhartid
    8000005c:	00051063          	bnez	a0,8000005c <reset_vector+0x4>
    80000060:	00000297          	auipc	t0,0x0
    80000064:	01028293          	addi	t0,t0,16 # 80000070 <reset_vector+0x18>
    80000068:	30529073          	csrw	mtvec,t0
    8000006c:	18005073          	csrwi	satp,0
    80000070:	00000297          	auipc	t0,0x0
    80000074:	01c28293          	addi	t0,t0,28 # 8000008c <reset_vector+0x34>
    80000078:	30529073          	csrw	mtvec,t0
    8000007c:	fff00293          	li	t0,-1
    80000080:	3b029073          	csrw	pmpaddr0,t0
    80000084:	01f00293          	li	t0,31
    80000088:	3a029073          	csrw	pmpcfg0,t0
    8000008c:	00000297          	auipc	t0,0x0
    80000090:	01828293          	addi	t0,t0,24 # 800000a4 <reset_vector+0x4c>
    80000094:	30529073          	csrw	mtvec,t0
    80000098:	30205073          	csrwi	medeleg,0
    8000009c:	30305073          	csrwi	mideleg,0
    800000a0:	30405073          	csrwi	mie,0
    800000a4:	00000193          	li	gp,0
    800000a8:	00000297          	auipc	t0,0x0
    800000ac:	f5c28293          	addi	t0,t0,-164 # 80000004 <trap_vector>
    800000b0:	30529073          	csrw	mtvec,t0
    800000b4:	00100513          	li	a0,1
    800000b8:	01f51513          	slli	a0,a0,0x1f
    800000bc:	00055863          	bgez	a0,800000cc <reset_vector+0x74>
    800000c0:	0ff0000f          	fence
    800000c4:	00100193          	li	gp,1
    800000c8:	00000073          	ecall
    800000cc:	00000293          	li	t0,0
    800000d0:	00028e63          	beqz	t0,800000ec <reset_vector+0x94>
    800000d4:	10529073          	csrw	stvec,t0
    800000d8:	0000b2b7          	lui	t0,0xb
    800000dc:	1092829b          	addiw	t0,t0,265
    800000e0:	30229073          	csrw	medeleg,t0
    800000e4:	30202373          	csrr	t1,medeleg
    800000e8:	f66290e3          	bne	t0,t1,80000048 <other_exception>
    800000ec:	30005073          	csrwi	mstatus,0
    800000f0:	00000297          	auipc	t0,0x0
    800000f4:	01428293          	addi	t0,t0,20 # 80000104 <reset_vector+0xac>
    800000f8:	34129073          	csrw	mepc,t0
    800000fc:	f1402573          	csrr	a0,mhartid
    80000100:	30200073          	mret
    80000104:	0180006f          	j	8000011c <test_start>

0000000080000108 <crash_backward>:
    80000108:	0ff0000f          	fence
    8000010c:	00018063          	beqz	gp,8000010c <crash_backward+0x4>
    80000110:	00119193          	slli	gp,gp,0x1
    80000114:	0011e193          	ori	gp,gp,1
    80000118:	00000073          	ecall

000000008000011c <test_start>:
    8000011c:	00001f97          	auipc	t6,0x1
    80000120:	fe4f8f93          	addi	t6,t6,-28 # 80001100 <hidden_data>
    80000124:	000fb003          	ld	zero,0(t6)
    80000128:	008fb083          	ld	ra,8(t6)
    8000012c:	010fb103          	ld	sp,16(t6)
    80000130:	018fb183          	ld	gp,24(t6)
    80000134:	020fb203          	ld	tp,32(t6)
    80000138:	028fb283          	ld	t0,40(t6)
    8000013c:	030fb303          	ld	t1,48(t6)
    80000140:	038fb383          	ld	t2,56(t6)
    80000144:	040fb403          	ld	s0,64(t6)
    80000148:	048fb483          	ld	s1,72(t6)
    8000014c:	050fb503          	ld	a0,80(t6)
    80000150:	058fb583          	ld	a1,88(t6)
    80000154:	060fb603          	ld	a2,96(t6)
    80000158:	068fb683          	ld	a3,104(t6)
    8000015c:	070fb703          	ld	a4,112(t6)
    80000160:	078fb783          	ld	a5,120(t6)
    80000164:	080fb803          	ld	a6,128(t6)
    80000168:	088fb883          	ld	a7,136(t6)
    8000016c:	090fb903          	ld	s2,144(t6)
    80000170:	098fb983          	ld	s3,152(t6)
    80000174:	0a0fba03          	ld	s4,160(t6)
    80000178:	0a8fba83          	ld	s5,168(t6)
    8000017c:	0b0fbb03          	ld	s6,176(t6)
    80000180:	0b8fbb83          	ld	s7,184(t6)
    80000184:	0c0fbc03          	ld	s8,192(t6)
    80000188:	0c8fbc83          	ld	s9,200(t6)
    8000018c:	0d0fbd03          	ld	s10,208(t6)
    80000190:	0d8fbd83          	ld	s11,216(t6)
    80000194:	0e0fbe03          	ld	t3,224(t6)
    80000198:	0e8fbe83          	ld	t4,232(t6)
    8000019c:	0f0fbf03          	ld	t5,240(t6)
    800001a0:	0f8fbf83          	ld	t6,248(t6)
    800001a4:	0040006f          	j	800001a8 <pseg_0>

00000000800001a8 <pseg_0>:
    800001a8:	85600593          	li	a1,-1962
    800001ac:	00001697          	auipc	a3,0x1
    800001b0:	01968693          	addi	a3,a3,25 # 800011c5 <reg_x24_init+0x5>
    800001b4:	c4d58613          	addi	a2,a1,-947
    800001b8:	19f6ad83          	lw	s11,415(a3)
    800001bc:	00050193          	mv	gp,a0
    800001c0:	025549b3          	div	s3,a0,t0
    800001c4:	d3e18f93          	addi	t6,gp,-706 # 80001c4e <_end+0x53e>
    800001c8:	e3d00b93          	li	s7,-451
    800001cc:	413a5f3b          	sraw	t5,s4,s3
    800001d0:	00001517          	auipc	a0,0x1
    800001d4:	39150513          	addi	a0,a0,913 # 80001561 <test_memory+0x261>
    800001d8:	00001c97          	auipc	s9,0x1
    800001dc:	622c8c93          	addi	s9,s9,1570 # 800017fa <_end+0xea>
    800001e0:	01ef5a13          	srli	s4,t5,0x1e
    800001e4:	daecb283          	ld	t0,-594(s9)
    800001e8:	00001697          	auipc	a3,0x1
    800001ec:	f7668693          	addi	a3,a3,-138 # 8000115e <reg_x11_init+0x6>
    800001f0:	94108a93          	addi	s5,ra,-1727
    800001f4:	f5650783          	lb	a5,-170(a0)
    800001f8:	b4b00913          	li	s2,-1205
    800001fc:	c8900f13          	li	t5,-887
    80000200:	01900593          	li	a1,25
    80000204:	44500393          	li	t2,1093
    80000208:	00001817          	auipc	a6,0x1
    8000020c:	1c080813          	addi	a6,a6,448 # 800013c8 <test_memory+0xc8>
    80000210:	412958b3          	sra	a7,s2,s2
    80000214:	ba218293          	addi	t0,gp,-1118 # 80001ab2 <_end+0x3a2>
    80000218:	0ac00c13          	li	s8,172
    8000021c:	02bf5cb3          	divu	s9,t5,a1
    80000220:	00001e17          	auipc	t3,0x1
    80000224:	d60e0e13          	addi	t3,t3,-672 # 80000f80 <test_end+0x560>
    80000228:	6b3e0ea3          	sb	s3,1725(t3)
    8000022c:	007bd0b3          	srl	ra,s7,t2
    80000230:	29a85203          	lhu	tp,666(a6)
    80000234:	00001d17          	auipc	s10,0x1
    80000238:	fdad0d13          	addi	s10,s10,-38 # 8000120e <reg_x1_output+0x6>
    8000023c:	00018613          	mv	a2,gp
    80000240:	25069d83          	lh	s11,592(a3)
    80000244:	98400313          	li	t1,-1660
    80000248:	9f0f9103          	lh	sp,-1552(t6)
    8000024c:	8ef00513          	li	a0,-1809
    80000250:	22400e93          	li	t4,548
    80000254:	95b00713          	li	a4,-1701
    80000258:	02ec7433          	remu	s0,s8,a4
    8000025c:	00699a33          	sll	s4,s3,t1
    80000260:	1cad6483          	lwu	s1,458(s10)
    80000264:	03d34b3b          	divw	s6,t1,t4
    80000268:	007e6eb3          	or	t4,t3,t2
    8000026c:	c5e00a93          	li	s5,-930
    80000270:	02a55333          	divu	t1,a0,a0
    80000274:	ba5bcb93          	xori	s7,s7,-1115
    80000278:	a0718213          	addi	tp,gp,-1529 # 80001917 <_end+0x207>
    8000027c:	50b00893          	li	a7,1291
    80000280:	02762eb3          	mulhsu	t4,a2,t2
    80000284:	36800593          	li	a1,872
    80000288:	cf518b13          	addi	s6,gp,-779 # 80001c05 <_end+0x4f5>
    8000028c:	00f25e3b          	srlw	t3,tp,a5
    80000290:	c032c983          	lbu	s3,-1021(t0)
    80000294:	b5223ca3          	sd	s2,-1191(tp) # fffffffffffffb59 <__global_pointer$+0xffffffff7fffdc49>
    80000298:	a6d18493          	addi	s1,gp,-1427 # 8000197d <_end+0x26d>
    8000029c:	0108163b          	sllw	a2,a6,a6
    800002a0:	01189cbb          	sllw	s9,a7,a7
    800002a4:	7d000093          	li	ra,2000
    800002a8:	cac487a3          	sb	a2,-849(s1)
    800002ac:	02ac6dbb          	remw	s11,s8,a0
    800002b0:	c2a18313          	addi	t1,gp,-982 # 80001b3a <_end+0x42a>
    800002b4:	eda00713          	li	a4,-294
    800002b8:	17700413          	li	s0,375
    800002bc:	4f600a13          	li	s4,1270
    800002c0:	014a5c3b          	srlw	s8,s4,s4
    800002c4:	00875fb3          	srl	t6,a4,s0
    800002c8:	7473e263          	bltu	t2,t2,80000a0c <crash_forward>
    800002cc:	52a00193          	li	gp,1322
    800002d0:	015507b3          	add	a5,a0,s5
    800002d4:	03ce39b3          	mulhu	s3,t3,t3
    800002d8:	00b586bb          	addw	a3,a1,a1
    800002dc:	82231723          	sh	sp,-2002(t1)
    800002e0:	00870133          	add	sp,a4,s0
    800002e4:	00001297          	auipc	t0,0x1
    800002e8:	3e528293          	addi	t0,t0,997 # 800016c9 <test_memory+0x3c9>
    800002ec:	20000e13          	li	t3,512
    800002f0:	00100e93          	li	t4,1
    800002f4:	00001817          	auipc	a6,0x1
    800002f8:	18080813          	addi	a6,a6,384 # 80001474 <test_memory+0x174>
    800002fc:	15e00413          	li	s0,350
    80000300:	00001617          	auipc	a2,0x1
    80000304:	ef960613          	addi	a2,a2,-263 # 800011f9 <reg_x31_init+0x1>
    80000308:	03de3bb3          	mulhu	s7,t3,t4
    8000030c:	cb400593          	li	a1,-844
    80000310:	02b5d733          	divu	a4,a1,a1
    80000314:	10184383          	lbu	t2,257(a6)
    80000318:	77700c13          	li	s8,1911
    8000031c:	ce718d13          	addi	s10,gp,-793 # 80001bf7 <_end+0x4e7>
    80000320:	67d00c93          	li	s9,1661
    80000324:	8c6b0903          	lb	s2,-1850(s6)
    80000328:	00001317          	auipc	t1,0x1
    8000032c:	36630313          	addi	t1,t1,870 # 8000168e <test_memory+0x38e>
    80000330:	16cc0793          	addi	a5,s8,364
    80000334:	002108bb          	addw	a7,sp,sp
    80000338:	0332a203          	lw	tp,51(t0)
    8000033c:	6e881a37          	lui	s4,0x6e881
    80000340:	c8700f93          	li	t6,-889
    80000344:	6cfc0463          	beq	s8,a5,80000a0c <crash_forward>
    80000348:	7be20a93          	addi	s5,tp,1982 # 7be <_start-0x7ffff842>
    8000034c:	db931c23          	sh	s9,-584(t1)
    80000350:	00000493          	li	s1,0
    80000354:	4030df3b          	sraw	t5,ra,gp
    80000358:	8ddd1aa3          	sh	t4,-1835(s10)
    8000035c:	d91f8113          	addi	sp,t6,-623
    80000360:	2b600c13          	li	s8,694
    80000364:	dbf172e3          	bgeu	sp,t6,80000108 <crash_backward>
    80000368:	81d00d93          	li	s11,-2019
    8000036c:	5e600893          	li	a7,1510
    80000370:	2c1608a3          	sb	ra,721(a2)
    80000374:	00001197          	auipc	gp,0x1
    80000378:	2ba18193          	addi	gp,gp,698 # 8000162e <test_memory+0x32e>
    8000037c:	00424b33          	xor	s6,tp,tp
    80000380:	00001317          	auipc	t1,0x1
    80000384:	1b230313          	addi	t1,t1,434 # 80001532 <test_memory+0x232>
    80000388:	d6e1ef03          	lwu	t5,-658(gp) # 80001c7e <_end+0x56e>
    8000038c:	ae618f93          	addi	t6,gp,-1306 # 800019f6 <_end+0x2e6>
    80000390:	b8900613          	li	a2,-1143
    80000394:	039cf6b3          	remu	a3,s9,s9
    80000398:	40c60b33          	sub	s6,a2,a2
    8000039c:	5ef00293          	li	t0,1519
    800003a0:	41dedeb3          	sra	t4,t4,t4
    800003a4:	00001d17          	auipc	s10,0x1
    800003a8:	3f8d0d13          	addi	s10,s10,1016 # 8000179c <_end+0x8c>
    800003ac:	00001197          	auipc	gp,0x1
    800003b0:	afd18193          	addi	gp,gp,-1283 # 80000ea9 <test_end+0x489>
    800003b4:	01b47533          	and	a0,s0,s11
    800003b8:	ab400793          	li	a5,-1356
    800003bc:	1d000813          	li	a6,464
    800003c0:	ed632703          	lw	a4,-298(t1)
    800003c4:	00f8b3b3          	sltu	t2,a7,a5
    800003c8:	c7bd0c23          	sb	s11,-904(s10)
    800003cc:	025c55b3          	divu	a1,s8,t0
    800003d0:	a20fd083          	lhu	ra,-1504(t6)
    800003d4:	03081e33          	mulh	t3,a6,a6
    800003d8:	6831cf03          	lbu	t5,1667(gp) # 80002593 <__global_pointer$+0x683>
    800003dc:	07500913          	li	s2,117
    800003e0:	00000993          	li	s3,0
    800003e4:	00001b97          	auipc	s7,0x1
    800003e8:	eadb8b93          	addi	s7,s7,-339 # 80001291 <reg_x18_output+0x1>
    800003ec:	29bbaa03          	lw	s4,667(s7)
    800003f0:	41290133          	sub	sp,s2,s2
    800003f4:	00001a97          	auipc	s5,0x1
    800003f8:	19ea8a93          	addi	s5,s5,414 # 80001592 <test_memory+0x292>
    800003fc:	e86ad203          	lhu	tp,-378(s5)
    80000400:	6f000193          	li	gp,1776
    80000404:	00100793          	li	a5,1
    80000408:	b5518513          	addi	a0,gp,-1195 # 80001a65 <_end+0x355>
    8000040c:	6c300913          	li	s2,1731
    80000410:	002f531b          	srliw	t1,t5,0x2
    80000414:	00100113          	li	sp,1
    80000418:	00001817          	auipc	a6,0x1
    8000041c:	b8080813          	addi	a6,a6,-1152 # 80000f98 <test_end+0x578>
    80000420:	00000413          	li	s0,0
    80000424:	00100093          	li	ra,1
    80000428:	39f00493          	li	s1,927
    8000042c:	3f983423          	sd	s9,1000(a6)
    80000430:	4e400893          	li	a7,1252
    80000434:	03f11113          	slli	sp,sp,0x3f
    80000438:	0085e233          	or	tp,a1,s0
    8000043c:	02e91313          	slli	t1,s2,0x2e
    80000440:	c4200b93          	li	s7,-958
    80000444:	02c63f33          	mulhu	t5,a2,a2
    80000448:	009493b3          	sll	t2,s1,s1
    8000044c:	0378ed3b          	remw	s10,a7,s7
    80000450:	b1e54983          	lbu	s3,-1250(a0)
    80000454:	0031523b          	srlw	tp,sp,gp
    80000458:	00100993          	li	s3,1
    8000045c:	03218dbb          	mulw	s11,gp,s2
    80000460:	03f99993          	slli	s3,s3,0x3f
    80000464:	fff00a93          	li	s5,-1
    80000468:	e52ca593          	slti	a1,s9,-430
    8000046c:	80b63813          	sltiu	a6,a2,-2037
    80000470:	00001297          	auipc	t0,0x1
    80000474:	cfa28293          	addi	t0,t0,-774 # 8000116a <reg_x13_init+0x2>
    80000478:	03f79793          	slli	a5,a5,0x3f
    8000047c:	00000e93          	li	t4,0
    80000480:	8e100493          	li	s1,-1823
    80000484:	fff00313          	li	t1,-1
    80000488:	5762a603          	lw	a2,1398(t0)
    8000048c:	00001d17          	auipc	s10,0x1
    80000490:	f02d0d13          	addi	s10,s10,-254 # 8000138e <test_memory+0x8e>
    80000494:	fff00c13          	li	s8,-1
    80000498:	00fc4c33          	xor	s8,s8,a5
    8000049c:	0294e533          	rem	a0,s1,s1
    800004a0:	01334333          	xor	t1,t1,s3
    800004a4:	00001217          	auipc	tp,0x1
    800004a8:	1fb20213          	addi	tp,tp,507 # 8000169f <test_memory+0x39f>
    800004ac:	0366b1b3          	mulhu	gp,a3,s6
    800004b0:	00617f33          	and	t5,sp,t1
    800004b4:	d5ce2613          	slti	a2,t3,-676
    800004b8:	013f68b3          	or	a7,t5,s3
    800004bc:	0188fcb3          	and	s9,a7,s8
    800004c0:	00f3efb3          	or	t6,t2,a5
    800004c4:	3c900813          	li	a6,969
    800004c8:	03f09093          	slli	ra,ra,0x3f
    800004cc:	fff00a13          	li	s4,-1
    800004d0:	00001b97          	auipc	s7,0x1
    800004d4:	8e9b8b93          	addi	s7,s7,-1815 # 80000db9 <test_end+0x399>
    800004d8:	00001d97          	auipc	s11,0x1
    800004dc:	a8cd8d93          	addi	s11,s11,-1396 # 80000f64 <test_end+0x544>
    800004e0:	015d0383          	lb	t2,21(s10)
    800004e4:	5e2b93a3          	sh	sp,1511(s7)
    800004e8:	00000613          	li	a2,0
    800004ec:	b8518193          	addi	gp,gp,-1147 # 80001a95 <_end+0x385>
    800004f0:	02403533          	mulhu	a0,zero,tp
    800004f4:	8fb19783          	lh	a5,-1797(gp) # 8000180b <_end+0xfb>
    800004f8:	001a4a33          	xor	s4,s4,ra
    800004fc:	a1b18893          	addi	a7,gp,-1509 # 8000192b <_end+0x21b>
    80000500:	01854333          	xor	t1,a0,s8
    80000504:	524de583          	lwu	a1,1316(s11)
    80000508:	030812b3          	mulh	t0,a6,a6
    8000050c:	00000d17          	auipc	s10,0x0
    80000510:	788d0d13          	addi	s10,s10,1928 # 80000c94 <test_end+0x274>
    80000514:	00001997          	auipc	s3,0x1
    80000518:	8cb98993          	addi	s3,s3,-1845 # 80000ddf <test_end+0x3bf>
    8000051c:	00001397          	auipc	t2,0x1
    80000520:	eac38393          	addi	t2,t2,-340 # 800013c8 <test_memory+0xc8>
    80000524:	2943ac03          	lw	s8,660(t2)
    80000528:	95518b93          	addi	s7,gp,-1707 # 80001865 <_end+0x155>
    8000052c:	c018df83          	lhu	t6,-1023(a7)
    80000530:	00000c93          	li	s9,0
    80000534:	64d9d483          	lhu	s1,1613(s3)
    80000538:	002acab3          	xor	s5,s5,sp
    8000053c:	734d3f03          	ld	t5,1844(s10)
    80000540:	4dd44663          	blt	s0,t4,80000a0c <crash_forward>
    80000544:	b79b92a3          	sh	s9,-1179(s7)
    80000548:	ca922903          	lw	s2,-855(tp) # fffffffffffffca9 <__global_pointer$+0xffffffff7fffdd99>
    8000054c:	01407733          	and	a4,zero,s4
    80000550:	0155fb33          	and	s6,a1,s5
    80000554:	002b66b3          	or	a3,s6,sp
    80000558:	a16b8293          	addi	t0,s7,-1514
    8000055c:	b1018c13          	addi	s8,gp,-1264 # 80001a20 <_end+0x310>
    80000560:	40e709bb          	subw	s3,a4,a4
    80000564:	00116e33          	or	t3,sp,ra
    80000568:	00000197          	auipc	gp,0x0
    8000056c:	70318193          	addi	gp,gp,1795 # 80000c6b <test_end+0x24b>
    80000570:	b9c70ce3          	beq	a4,t3,80000108 <crash_backward>
    80000574:	de7e7593          	andi	a1,t3,-537
    80000578:	00100f93          	li	t6,1
    8000057c:	00100893          	li	a7,1
    80000580:	03f89893          	slli	a7,a7,0x3f
    80000584:	fff00f13          	li	t5,-1
    80000588:	03ff9f93          	slli	t6,t6,0x3f
    8000058c:	00100b93          	li	s7,1
    80000590:	56a00393          	li	t2,1386
    80000594:	011f4f33          	xor	t5,t5,a7
    80000598:	00100213          	li	tp,1
    8000059c:	fff00913          	li	s2,-1
    800005a0:	01e27d33          	and	s10,tp,t5
    800005a4:	011d6433          	or	s0,s10,a7
    800005a8:	99fc07a3          	sb	t6,-1649(s8)
    800005ac:	01f94933          	xor	s2,s2,t6
    800005b0:	03fb9b93          	slli	s7,s7,0x3f
    800005b4:	012b7533          	and	a0,s6,s2
    800005b8:	01f56633          	or	a2,a0,t6
    800005bc:	cde00a13          	li	s4,-802
    800005c0:	b4a654e3          	bge	a2,a0,80000108 <crash_backward>
    800005c4:	448d7463          	bgeu	s10,s0,80000a0c <crash_forward>
    800005c8:	03f21213          	slli	tp,tp,0x3f
    800005cc:	014a2db3          	slt	s11,s4,s4
    800005d0:	fff00e13          	li	t3,-1
    800005d4:	fff00993          	li	s3,-1
    800005d8:	6cd1b803          	ld	a6,1741(gp) # 800025dd <__global_pointer$+0x6cd>
    800005dc:	017e4e33          	xor	t3,t3,s7
    800005e0:	0049c9b3          	xor	s3,s3,tp
    800005e4:	ddb00793          	li	a5,-549
    800005e8:	01327733          	and	a4,tp,s3
    800005ec:	01c074b3          	and	s1,zero,t3
    800005f0:	00476cb3          	or	s9,a4,tp
    800005f4:	0174e5b3          	or	a1,s1,s7
    800005f8:	b095d8e3          	bge	a1,s1,80000108 <crash_backward>
    800005fc:	00f3f333          	and	t1,t2,a5
    80000600:	40ece663          	bltu	s9,a4,80000a0c <crash_forward>
    80000604:	00100713          	li	a4,1
    80000608:	406087b3          	sub	a5,ra,t1
    8000060c:	7fb00e13          	li	t3,2043
    80000610:	e6700193          	li	gp,-409
    80000614:	35600093          	li	ra,854
    80000618:	01ca5fb3          	srl	t6,s4,t3
    8000061c:	00001e97          	auipc	t4,0x1
    80000620:	d7fe8e93          	addi	t4,t4,-641 # 8000139b <test_memory+0x9b>
    80000624:	017b953b          	sllw	a0,s7,s7
    80000628:	cb500f13          	li	t5,-843
    8000062c:	01ee0a33          	add	s4,t3,t5
    80000630:	03bdc2bb          	divw	t0,s11,s11
    80000634:	000a9d3b          	sllw	s10,s5,zero
    80000638:	84700c93          	li	s9,-1977
    8000063c:	00001617          	auipc	a2,0x1
    80000640:	9f560613          	addi	a2,a2,-1547 # 80001031 <tohost+0x31>
    80000644:	2ebea2a3          	sw	a1,741(t4)
    80000648:	03f71713          	slli	a4,a4,0x3f
    8000064c:	03f57bb3          	remu	s7,a0,t6
    80000650:	fff00313          	li	t1,-1
    80000654:	cd500993          	li	s3,-811
    80000658:	035abc33          	mulhu	s8,s5,s5
    8000065c:	e6500d93          	li	s11,-411
    80000660:	3dc00c13          	li	s8,988
    80000664:	87600e93          	li	t4,-1930
    80000668:	003194b3          	sll	s1,gp,gp
    8000066c:	60464a83          	lbu	s5,1540(a2)
    80000670:	f7400513          	li	a0,-140
    80000674:	02ac32b3          	mulhu	t0,s8,a0
    80000678:	e7200693          	li	a3,-398
    8000067c:	00e34333          	xor	t1,t1,a4
    80000680:	4130d83b          	sraw	a6,ra,s3
    80000684:	00001a97          	auipc	s5,0x1
    80000688:	857a8a93          	addi	s5,s5,-1961 # 80000edb <test_end+0x4bb>
    8000068c:	02dce5bb          	remw	a1,s9,a3
    80000690:	7a800f13          	li	t5,1960
    80000694:	03ef423b          	divw	tp,t5,t5
    80000698:	01500493          	li	s1,21
    8000069c:	00001d17          	auipc	s10,0x1
    800006a0:	f8dd0d13          	addi	s10,s10,-115 # 80001629 <test_memory+0x329>
    800006a4:	00100a13          	li	s4,1
    800006a8:	27000893          	li	a7,624
    800006ac:	eafd3783          	ld	a5,-337(s10)
    800006b0:	00001e17          	auipc	t3,0x1
    800006b4:	e5be0e13          	addi	t3,t3,-421 # 8000150b <test_memory+0x20b>
    800006b8:	03fa1a13          	slli	s4,s4,0x3f
    800006bc:	00001817          	auipc	a6,0x1
    800006c0:	90580813          	addi	a6,a6,-1787 # 80000fc1 <test_end+0x5a1>
    800006c4:	031de13b          	remw	sp,s11,a7
    800006c8:	61084983          	lbu	s3,1552(a6)
    800006cc:	fff00293          	li	t0,-1
    800006d0:	1fe48193          	addi	gp,s1,510
    800006d4:	a291eae3          	bltu	gp,s1,80000108 <crash_backward>
    800006d8:	98818093          	addi	ra,gp,-1656 # 80001898 <_end+0x188>
    800006dc:	757ad603          	lhu	a2,1879(s5)
    800006e0:	0142c2b3          	xor	t0,t0,s4
    800006e4:	005f7c33          	and	s8,t5,t0
    800006e8:	41de8fbb          	subw	t6,t4,t4
    800006ec:	014c6533          	or	a0,s8,s4
    800006f0:	0061f433          	and	s0,gp,t1
    800006f4:	01cde233          	or	tp,s11,t3
    800006f8:	edf5eab7          	lui	s5,0xedf5e
    800006fc:	a0ac46e3          	blt	s8,a0,80000108 <crash_backward>
    80000700:	20000113          	li	sp,512
    80000704:	fd1e1b83          	lh	s7,-47(t3)
    80000708:	7dc00693          	li	a3,2012
    8000070c:	afe00f13          	li	t5,-1282
    80000710:	b7918d93          	addi	s11,gp,-1159 # 80001a89 <_end+0x379>
    80000714:	00001217          	auipc	tp,0x1
    80000718:	f3a20213          	addi	tp,tp,-198 # 8000164e <test_memory+0x34e>
    8000071c:	000b15bb          	sllw	a1,s6,zero
    80000720:	00e463b3          	or	t2,s0,a4
    80000724:	00001797          	auipc	a5,0x1
    80000728:	fe078793          	addi	a5,a5,-32 # 80001704 <loop_count+0x4>
    8000072c:	cc87e803          	lwu	a6,-824(a5)
    80000730:	0072bcb3          	sltu	s9,t0,t2
    80000734:	00d691b3          	sll	gp,a3,a3
    80000738:	53800b13          	li	s6,1336
    8000073c:	00060613          	mv	a2,a2
    80000740:	c2b0a823          	sw	a1,-976(ra)
    80000744:	036b0933          	mul	s2,s6,s6
    80000748:	01ef09b3          	add	s3,t5,t5
    8000074c:	00000693          	li	a3,0
    80000750:	14a00c13          	li	s8,330
    80000754:	d5400b93          	li	s7,-684
    80000758:	00060e93          	mv	t4,a2
    8000075c:	00000293          	li	t0,0
    80000760:	9a56e4e3          	bltu	a3,t0,80000108 <crash_backward>
    80000764:	2a747463          	bgeu	s0,t2,80000a0c <crash_forward>
    80000768:	b2518a93          	addi	s5,gp,-1243 # 80001a35 <_end+0x325>
    8000076c:	00217d33          	and	s10,sp,sp
    80000770:	00001a17          	auipc	s4,0x1
    80000774:	b56a0a13          	addi	s4,s4,-1194 # 800012c6 <reg_x24_output+0x6>
    80000778:	038c44bb          	divw	s1,s8,s8
    8000077c:	eddb8593          	addi	a1,s7,-291
    80000780:	020062b3          	rem	t0,zero,zero
    80000784:	145a2d23          	sw	t0,346(s4)
    80000788:	b7218313          	addi	t1,gp,-1166 # 80001a82 <_end+0x372>
    8000078c:	977db883          	ld	a7,-1673(s11)
    80000790:	27d64e63          	blt	a2,t4,80000a0c <crash_forward>
    80000794:	00100113          	li	sp,1
    80000798:	98e00693          	li	a3,-1650
    8000079c:	23000c13          	li	s8,560
    800007a0:	06220f83          	lb	t6,98(tp) # 62 <_start-0x7fffff9e>
    800007a4:	00000e97          	auipc	t4,0x0
    800007a8:	4fee8e93          	addi	t4,t4,1278 # 80000ca2 <test_end+0x282>
    800007ac:	b4100d93          	li	s11,-1215
    800007b0:	e9a00193          	li	gp,-358
    800007b4:	96734b03          	lbu	s6,-1689(t1)
    800007b8:	01869d3b          	sllw	s10,a3,s8
    800007bc:	c8ba8023          	sb	a1,-896(s5) # ffffffffedf5dc80 <__global_pointer$+0xffffffff6df5bd70>
    800007c0:	03f11113          	slli	sp,sp,0x3f
    800007c4:	00000393          	li	t2,0
    800007c8:	3df00313          	li	t1,991
    800007cc:	00000b13          	li	s6,0
    800007d0:	00000c17          	auipc	s8,0x0
    800007d4:	5a2c0c13          	addi	s8,s8,1442 # 80000d72 <test_end+0x352>
    800007d8:	00000a17          	auipc	s4,0x0
    800007dc:	6f2a0a13          	addi	s4,s4,1778 # 80000eca <test_end+0x4aa>
    800007e0:	bf700213          	li	tp,-1033
    800007e4:	8c100693          	li	a3,-1855
    800007e8:	63300413          	li	s0,1587
    800007ec:	03bda8b3          	mulhsu	a7,s11,s11
    800007f0:	00100093          	li	ra,1
    800007f4:	550a2523          	sw	a6,1354(s4)
    800007f8:	03f09093          	slli	ra,ra,0x3f
    800007fc:	632c5283          	lhu	t0,1586(s8)
    80000800:	cc600813          	li	a6,-826
    80000804:	02d6fabb          	remuw	s5,a3,a3
    80000808:	4101d53b          	sraw	a0,gp,a6
    8000080c:	fff00c93          	li	s9,-1
    80000810:	1f63ce63          	blt	t2,s6,80000a0c <crash_forward>
    80000814:	770ec603          	lbu	a2,1904(t4)
    80000818:	86d00993          	li	s3,-1939
    8000081c:	00001c17          	auipc	s8,0x1
    80000820:	812c0c13          	addi	s8,s8,-2030 # 8000102e <tohost+0x2e>
    80000824:	fff00913          	li	s2,-1
    80000828:	0324cab3          	div	s5,s1,s2
    8000082c:	00294933          	xor	s2,s2,sp
    80000830:	0127f733          	and	a4,a5,s2
    80000834:	382c1b83          	lh	s7,898(s8)
    80000838:	001cccb3          	xor	s9,s9,ra
    8000083c:	013424b3          	slt	s1,s0,s3
    80000840:	40eb06bb          	subw	a3,s6,a4
    80000844:	95600b93          	li	s7,-1706
    80000848:	4cd00a93          	li	s5,1229
    8000084c:	92218593          	addi	a1,gp,-1758 # 80001832 <_end+0x122>
    80000850:	00000a13          	li	s4,0
    80000854:	40430d3b          	subw	s10,t1,tp
    80000858:	bf418293          	addi	t0,gp,-1036 # 80001b04 <_end+0x3f4>
    8000085c:	51d00b13          	li	s6,1309
    80000860:	415b8c3b          	subw	s8,s7,s5
    80000864:	00001897          	auipc	a7,0x1
    80000868:	86288893          	addi	a7,a7,-1950 # 800010c6 <fromhost+0x86>
    8000086c:	48100c13          	li	s8,1153
    80000870:	00001317          	auipc	t1,0x1
    80000874:	ab830313          	addi	t1,t1,-1352 # 80001328 <test_memory+0x28>
    80000878:	00000997          	auipc	s3,0x0
    8000087c:	5f298993          	addi	s3,s3,1522 # 80000e6a <test_end+0x44a>
    80000880:	00265bb3          	srl	s7,a2,sp
    80000884:	00000e97          	auipc	t4,0x0
    80000888:	5a1e8e93          	addi	t4,t4,1441 # 80000e25 <test_end+0x405>
    8000088c:	00000193          	li	gp,0
    80000890:	00000f97          	auipc	t6,0x0
    80000894:	3d7f8f93          	addi	t6,t6,983 # 80000c67 <test_end+0x247>
    80000898:	019877b3          	and	a5,a6,s9
    8000089c:	863a16e3          	bne	s4,gp,80000108 <crash_backward>
    800008a0:	00001d97          	auipc	s11,0x1
    800008a4:	d04d8d93          	addi	s11,s11,-764 # 800015a4 <test_memory+0x2a4>
    800008a8:	418c56bb          	sraw	a3,s8,s8
    800008ac:	512b2c13          	slti	s8,s6,1298
    800008b0:	20134483          	lbu	s1,513(t1)
    800008b4:	00100a13          	li	s4,1
    800008b8:	002b6f33          	or	t5,s6,sp
    800008bc:	db2dae23          	sw	s2,-580(s11)
    800008c0:	63688ba3          	sb	s6,1591(a7)
    800008c4:	2a500413          	li	s0,677
    800008c8:	7e29b323          	sd	sp,2022(s3)
    800008cc:	03fa1a13          	slli	s4,s4,0x3f
    800008d0:	72df9ca3          	sh	a3,1849(t6)
    800008d4:	6aa00a93          	li	s5,1706
    800008d8:	bf82e383          	lwu	t2,-1032(t0)
    800008dc:	cf400613          	li	a2,-780
    800008e0:	77700293          	li	t0,1911
    800008e4:	00cb083b          	addw	a6,s6,a2
    800008e8:	c9900493          	li	s1,-871
    800008ec:	00156e33          	or	t3,a0,ra
    800008f0:	02847d3b          	remuw	s10,s0,s0
    800008f4:	5809841b          	addiw	s0,s3,1408
    800008f8:	003c5993          	srli	s3,s8,0x3
    800008fc:	0252a333          	mulhsu	t1,t0,t0
    80000900:	419088b3          	sub	a7,ra,s9
    80000904:	49100413          	li	s0,1169
    80000908:	fff00193          	li	gp,-1
    8000090c:	b5418393          	addi	t2,gp,-1196 # 80001a64 <_end+0x354>
    80000910:	036b4b3b          	divw	s6,s6,s6
    80000914:	ce25d503          	lhu	a0,-798(a1)
    80000918:	408459bb          	sraw	s3,s0,s0
    8000091c:	9743b223          	sd	s4,-1692(t2)
    80000920:	035ad233          	divu	tp,s5,s5
    80000924:	91818613          	addi	a2,gp,-1768 # 80001828 <_end+0x118>
    80000928:	fea00793          	li	a5,-22
    8000092c:	a8f00213          	li	tp,-1393
    80000930:	d5862223          	sw	s8,-700(a2)
    80000934:	6e3eb5a3          	sd	gp,1771(t4)
    80000938:	9ff18d93          	addi	s11,gp,-1537 # 8000190f <_end+0x1ff>
    8000093c:	02f7ce33          	div	t3,a5,a5
    80000940:	e6e00d13          	li	s10,-402
    80000944:	0de74463          	blt	a4,t5,80000a0c <crash_forward>
    80000948:	aba00c13          	li	s8,-1350
    8000094c:	01848fbb          	addw	t6,s1,s8
    80000950:	82d00393          	li	t2,-2003
    80000954:	00720b3b          	addw	s6,tp,t2
    80000958:	0141c1b3          	xor	gp,gp,s4
    8000095c:	6b100c93          	li	s9,1713
    80000960:	003776b3          	and	a3,a4,gp
    80000964:	a1ed0813          	addi	a6,s10,-1506
    80000968:	0146ebb3          	or	s7,a3,s4
    8000096c:	a49da6a3          	sw	s1,-1459(s11)
    80000970:	019c8abb          	addw	s5,s9,s9
    80000974:	f976fa63          	bgeu	a3,s7,80000108 <crash_backward>
    80000978:	0040006f          	j	8000097c <reg_dump>

000000008000097c <reg_dump>:
    8000097c:	00001097          	auipc	ra,0x1
    80000980:	d8408093          	addi	ra,ra,-636 # 80001700 <loop_count>
    80000984:	0000a103          	lw	sp,0(ra)
    80000988:	fff10193          	addi	gp,sp,-1
    8000098c:	0030a023          	sw	gp,0(ra)
    80000990:	80011ce3          	bnez	sp,800001a8 <pseg_0>
    80000994:	00001097          	auipc	ra,0x1
    80000998:	86c08093          	addi	ra,ra,-1940 # 80001200 <begin_signature>
    8000099c:	0000b023          	sd	zero,0(ra)
    800009a0:	0020b823          	sd	sp,16(ra)
    800009a4:	0030bc23          	sd	gp,24(ra)
    800009a8:	0240b023          	sd	tp,32(ra)
    800009ac:	0250b423          	sd	t0,40(ra)
    800009b0:	0260b823          	sd	t1,48(ra)
    800009b4:	0270bc23          	sd	t2,56(ra)
    800009b8:	0480b023          	sd	s0,64(ra)
    800009bc:	0490b423          	sd	s1,72(ra)
    800009c0:	04a0b823          	sd	a0,80(ra)
    800009c4:	06d0b423          	sd	a3,104(ra)
    800009c8:	06e0b823          	sd	a4,112(ra)
    800009cc:	06f0bc23          	sd	a5,120(ra)
    800009d0:	0900b023          	sd	a6,128(ra)
    800009d4:	0910b423          	sd	a7,136(ra)
    800009d8:	0920b823          	sd	s2,144(ra)
    800009dc:	0930bc23          	sd	s3,152(ra)
    800009e0:	0b40b023          	sd	s4,160(ra)
    800009e4:	0b50b423          	sd	s5,168(ra)
    800009e8:	0b60b823          	sd	s6,176(ra)
    800009ec:	0b70bc23          	sd	s7,184(ra)
    800009f0:	0d80b023          	sd	s8,192(ra)
    800009f4:	0d90b423          	sd	s9,200(ra)
    800009f8:	0da0b823          	sd	s10,208(ra)
    800009fc:	0fc0b023          	sd	t3,224(ra)
    80000a00:	0fe0b823          	sd	t5,240(ra)
    80000a04:	0ff0bc23          	sd	t6,248(ra)
    80000a08:	0180006f          	j	80000a20 <test_end>

0000000080000a0c <crash_forward>:
    80000a0c:	0ff0000f          	fence
    80000a10:	00018063          	beqz	gp,80000a10 <crash_forward+0x4>
    80000a14:	00119193          	slli	gp,gp,0x1
    80000a18:	0011e193          	ori	gp,gp,1
    80000a1c:	00000073          	ecall

0000000080000a20 <test_end>:
    80000a20:	0ff0000f          	fence
    80000a24:	00100193          	li	gp,1
    80000a28:	00000073          	ecall
    80000a2c:	c0001073          	unimp
	...

Disassembly of section .tohost:

0000000080001000 <tohost>:
	...

0000000080001040 <fromhost>:
	...
