
test.elf:     file format elf64-littleriscv


Disassembly of section .text.init:

0000000080000000 <_start>:
    80000000:	0580006f          	j	80000058 <reset_vector>

0000000080000004 <trap_vector>:
    80000004:	34202f73          	csrr	t5,mcause
    80000008:	00800f93          	li	t6,8
    8000000c:	05ff0063          	beq	t5,t6,8000004c <write_tohost>
    80000010:	00900f93          	li	t6,9
    80000014:	03ff0c63          	beq	t5,t6,8000004c <write_tohost>
    80000018:	00b00f93          	li	t6,11
    8000001c:	03ff0863          	beq	t5,t6,8000004c <write_tohost>
    80000020:	00000f13          	li	t5,0
    80000024:	000f0463          	beqz	t5,8000002c <trap_vector+0x28>
    80000028:	000f0067          	jr	t5
    8000002c:	34202f73          	csrr	t5,mcause
    80000030:	000f5463          	bgez	t5,80000038 <handle_exception>
    80000034:	0140006f          	j	80000048 <other_exception>

0000000080000038 <handle_exception>:
    80000038:	34102e73          	csrr	t3,mepc
    8000003c:	004e0e13          	addi	t3,t3,4
    80000040:	341e1073          	csrw	mepc,t3
    80000044:	30200073          	mret

0000000080000048 <other_exception>:
    80000048:	5391e193          	ori	gp,gp,1337

000000008000004c <write_tohost>:
    8000004c:	00001f17          	auipc	t5,0x1
    80000050:	fa3f2a23          	sw	gp,-76(t5) # 80001000 <tohost>
    80000054:	ff9ff06f          	j	8000004c <write_tohost>

0000000080000058 <reset_vector>:
    80000058:	f1402573          	csrr	a0,mhartid
    8000005c:	00051063          	bnez	a0,8000005c <reset_vector+0x4>
    80000060:	00000297          	auipc	t0,0x0
    80000064:	01028293          	addi	t0,t0,16 # 80000070 <reset_vector+0x18>
    80000068:	30529073          	csrw	mtvec,t0
    8000006c:	18005073          	csrwi	satp,0
    80000070:	00000297          	auipc	t0,0x0
    80000074:	01c28293          	addi	t0,t0,28 # 8000008c <reset_vector+0x34>
    80000078:	30529073          	csrw	mtvec,t0
    8000007c:	fff00293          	li	t0,-1
    80000080:	3b029073          	csrw	pmpaddr0,t0
    80000084:	01f00293          	li	t0,31
    80000088:	3a029073          	csrw	pmpcfg0,t0
    8000008c:	00000297          	auipc	t0,0x0
    80000090:	01828293          	addi	t0,t0,24 # 800000a4 <reset_vector+0x4c>
    80000094:	30529073          	csrw	mtvec,t0
    80000098:	30205073          	csrwi	medeleg,0
    8000009c:	30305073          	csrwi	mideleg,0
    800000a0:	30405073          	csrwi	mie,0
    800000a4:	00000193          	li	gp,0
    800000a8:	00000297          	auipc	t0,0x0
    800000ac:	f5c28293          	addi	t0,t0,-164 # 80000004 <trap_vector>
    800000b0:	30529073          	csrw	mtvec,t0
    800000b4:	00100513          	li	a0,1
    800000b8:	01f51513          	slli	a0,a0,0x1f
    800000bc:	00055863          	bgez	a0,800000cc <reset_vector+0x74>
    800000c0:	0ff0000f          	fence
    800000c4:	00100193          	li	gp,1
    800000c8:	00000073          	ecall
    800000cc:	00000293          	li	t0,0
    800000d0:	00028e63          	beqz	t0,800000ec <reset_vector+0x94>
    800000d4:	10529073          	csrw	stvec,t0
    800000d8:	0000b2b7          	lui	t0,0xb
    800000dc:	1092829b          	addiw	t0,t0,265
    800000e0:	30229073          	csrw	medeleg,t0
    800000e4:	30202373          	csrr	t1,medeleg
    800000e8:	f66290e3          	bne	t0,t1,80000048 <other_exception>
    800000ec:	30005073          	csrwi	mstatus,0
    800000f0:	00000297          	auipc	t0,0x0
    800000f4:	01428293          	addi	t0,t0,20 # 80000104 <reset_vector+0xac>
    800000f8:	34129073          	csrw	mepc,t0
    800000fc:	f1402573          	csrr	a0,mhartid
    80000100:	30200073          	mret
    80000104:	0180006f          	j	8000011c <test_start>

0000000080000108 <crash_backward>:
    80000108:	0ff0000f          	fence
    8000010c:	00018063          	beqz	gp,8000010c <crash_backward+0x4>
    80000110:	00119193          	slli	gp,gp,0x1
    80000114:	0011e193          	ori	gp,gp,1
    80000118:	00000073          	ecall

000000008000011c <test_start>:
    8000011c:	00001f97          	auipc	t6,0x1
    80000120:	fe4f8f93          	addi	t6,t6,-28 # 80001100 <hidden_data>
    80000124:	000fb003          	ld	zero,0(t6)
    80000128:	008fb083          	ld	ra,8(t6)
    8000012c:	010fb103          	ld	sp,16(t6)
    80000130:	018fb183          	ld	gp,24(t6)
    80000134:	020fb203          	ld	tp,32(t6)
    80000138:	028fb283          	ld	t0,40(t6)
    8000013c:	030fb303          	ld	t1,48(t6)
    80000140:	038fb383          	ld	t2,56(t6)
    80000144:	040fb403          	ld	s0,64(t6)
    80000148:	048fb483          	ld	s1,72(t6)
    8000014c:	050fb503          	ld	a0,80(t6)
    80000150:	058fb583          	ld	a1,88(t6)
    80000154:	060fb603          	ld	a2,96(t6)
    80000158:	068fb683          	ld	a3,104(t6)
    8000015c:	070fb703          	ld	a4,112(t6)
    80000160:	078fb783          	ld	a5,120(t6)
    80000164:	080fb803          	ld	a6,128(t6)
    80000168:	088fb883          	ld	a7,136(t6)
    8000016c:	090fb903          	ld	s2,144(t6)
    80000170:	098fb983          	ld	s3,152(t6)
    80000174:	0a0fba03          	ld	s4,160(t6)
    80000178:	0a8fba83          	ld	s5,168(t6)
    8000017c:	0b0fbb03          	ld	s6,176(t6)
    80000180:	0b8fbb83          	ld	s7,184(t6)
    80000184:	0c0fbc03          	ld	s8,192(t6)
    80000188:	0c8fbc83          	ld	s9,200(t6)
    8000018c:	0d0fbd03          	ld	s10,208(t6)
    80000190:	0d8fbd83          	ld	s11,216(t6)
    80000194:	0e0fbe03          	ld	t3,224(t6)
    80000198:	0e8fbe83          	ld	t4,232(t6)
    8000019c:	0f0fbf03          	ld	t5,240(t6)
    800001a0:	0f8fbf83          	ld	t6,248(t6)
    800001a4:	0040006f          	j	800001a8 <pseg_0>

00000000800001a8 <pseg_0>:
    800001a8:	00100493          	li	s1,1
    800001ac:	00001397          	auipc	t2,0x1
    800001b0:	3a038393          	addi	t2,t2,928 # 8000154c <test_memory+0x24c>
    800001b4:	00001117          	auipc	sp,0x1
    800001b8:	00b10113          	addi	sp,sp,11 # 800011bf <reg_x23_init+0x7>
    800001bc:	41e1deb3          	sra	t4,gp,t5
    800001c0:	19d3b223          	sd	t4,388(t2)
    800001c4:	caa18193          	addi	gp,gp,-854 # 80001bba <_end+0x4aa>
    800001c8:	41e356bb          	sraw	a3,t1,t5
    800001cc:	95a00d13          	li	s10,-1702
    800001d0:	2ba00793          	li	a5,698
    800001d4:	03ad78b3          	remu	a7,s10,s10
    800001d8:	03f49493          	slli	s1,s1,0x3f
    800001dc:	e4b00813          	li	a6,-437
    800001e0:	00001297          	auipc	t0,0x1
    800001e4:	ffe28293          	addi	t0,t0,-2 # 800011de <reg_x27_init+0x6>
    800001e8:	00100b93          	li	s7,1
    800001ec:	98019203          	lh	tp,-1664(gp) # 80001890 <_end+0x180>
    800001f0:	22112603          	lw	a2,545(sp)
    800001f4:	48600f93          	li	t6,1158
    800001f8:	34e00e93          	li	t4,846
    800001fc:	19e2a583          	lw	a1,414(t0)
    80000200:	81000893          	li	a7,-2032
    80000204:	0f400913          	li	s2,244
    80000208:	46a00e13          	li	t3,1130
    8000020c:	41ffdcb3          	sra	s9,t6,t6
    80000210:	c3e00093          	li	ra,-962
    80000214:	cd288393          	addi	t2,a7,-814
    80000218:	41de86b3          	sub	a3,t4,t4
    8000021c:	ef13f6e3          	bgeu	t2,a7,80000108 <crash_backward>
    80000220:	03fb9b93          	slli	s7,s7,0x3f
    80000224:	fff00d93          	li	s11,-1
    80000228:	0127f333          	and	t1,a5,s2
    8000022c:	00010c93          	mv	s9,sp
    80000230:	da600713          	li	a4,-602
    80000234:	0015c9b3          	xor	s3,a1,ra
    80000238:	81400113          	li	sp,-2028
    8000023c:	61500593          	li	a1,1557
    80000240:	03080fb3          	mul	t6,a6,a6
    80000244:	000c8193          	mv	gp,s9
    80000248:	00b15233          	srl	tp,sp,a1
    8000024c:	fff00c13          	li	s8,-1
    80000250:	017dcdb3          	xor	s11,s11,s7
    80000254:	401e5f3b          	sraw	t5,t3,ra
    80000258:	01bb7433          	and	s0,s6,s11
    8000025c:	d2618d13          	addi	s10,gp,-730 # 80001c36 <_end+0x526>
    80000260:	00001c97          	auipc	s9,0x1
    80000264:	530c8c93          	addi	s9,s9,1328 # 80001790 <_end+0x80>
    80000268:	cd118e93          	addi	t4,gp,-815 # 80001be1 <_end+0x4d1>
    8000026c:	e14ca583          	lw	a1,-492(s9)
    80000270:	7e500993          	li	s3,2021
    80000274:	00001397          	auipc	t2,0x1
    80000278:	c0238393          	addi	t2,t2,-1022 # 80000e76 <test_end+0x48e>
    8000027c:	fb218113          	addi	sp,gp,-78 # 80001ec2 <_end+0x7b2>
    80000280:	009c4c33          	xor	s8,s8,s1
    80000284:	40495e33          	sra	t3,s2,tp
    80000288:	00001217          	auipc	tp,0x1
    8000028c:	40020213          	addi	tp,tp,1024 # 80001688 <test_memory+0x388>
    80000290:	0187fb33          	and	s6,a5,s8
    80000294:	7ca3b683          	ld	a3,1994(t2)
    80000298:	d1718613          	addi	a2,gp,-745 # 80001c27 <_end+0x517>
    8000029c:	00001197          	auipc	gp,0x1
    800002a0:	54b18193          	addi	gp,gp,1355 # 800017e7 <_end+0xd7>
    800002a4:	d8b19fa3          	sh	a1,-609(gp) # 80001caf <_end+0x59f>
    800002a8:	40e85ab3          	sra	s5,a6,a4
    800002ac:	00001897          	auipc	a7,0x1
    800002b0:	a0188893          	addi	a7,a7,-1535 # 80000cad <test_end+0x2c5>
    800002b4:	00001197          	auipc	gp,0x1
    800002b8:	f9918193          	addi	gp,gp,-103 # 8000124d <reg_x9_output+0x5>
    800002bc:	015af5b3          	and	a1,s5,s5
    800002c0:	00001817          	auipc	a6,0x1
    800002c4:	b6880813          	addi	a6,a6,-1176 # 80000e28 <test_end+0x440>
    800002c8:	000d8093          	mv	ra,s11
    800002cc:	729896a3          	sh	s1,1837(a7)
    800002d0:	82feaf03          	lw	t5,-2001(t4)
    800002d4:	00008713          	mv	a4,ra
    800002d8:	f8024f83          	lbu	t6,-128(tp) # ffffffffffffff80 <__global_pointer$+0xffffffff7fffe070>
    800002dc:	83c15783          	lhu	a5,-1988(sp)
    800002e0:	ae100093          	li	ra,-1311
    800002e4:	001098bb          	sllw	a7,ra,ra
    800002e8:	01746a33          	or	s4,s0,s7
    800002ec:	00001e17          	auipc	t3,0x1
    800002f0:	c92e0e13          	addi	t3,t3,-878 # 80000f7e <test_end+0x596>
    800002f4:	0090e533          	or	a0,ra,s1
    800002f8:	8e163ca3          	sd	ra,-1799(a2)
    800002fc:	a6500c93          	li	s9,-1435
    80000300:	00100093          	li	ra,1
    80000304:	03f09093          	slli	ra,ra,0x3f
    80000308:	039cf3b3          	remu	t2,s9,s9
    8000030c:	2131ba83          	ld	s5,531(gp) # 80002123 <__global_pointer$+0x213>
    80000310:	00001117          	auipc	sp,0x1
    80000314:	c0810113          	addi	sp,sp,-1016 # 80000f18 <test_end+0x530>
    80000318:	8ead1283          	lh	t0,-1814(s10)
    8000031c:	392e5683          	lhu	a3,914(t3)
    80000320:	0c500713          	li	a4,197
    80000324:	df6552e3          	bge	a0,s6,80000108 <crash_backward>
    80000328:	44612023          	sw	t1,1088(sp)
    8000032c:	fff00f93          	li	t6,-1
    80000330:	001fcfb3          	xor	t6,t6,ra
    80000334:	02e73233          	mulhu	tp,a4,a4
    80000338:	01ff78b3          	and	a7,t5,t6
    8000033c:	cff18393          	addi	t2,gp,-769 # 80001c0f <_end+0x4ff>
    80000340:	cfc00593          	li	a1,-772
    80000344:	63482e23          	sw	s4,1596(a6)
    80000348:	001567b3          	or	a5,a0,ra
    8000034c:	1fb00f13          	li	t5,507
    80000350:	db17dce3          	bge	a5,a7,80000108 <crash_backward>
    80000354:	01e5deb3          	srl	t4,a1,t5
    80000358:	92b00913          	li	s2,-1749
    8000035c:	8ba38c83          	lb	s9,-1862(t2)
    80000360:	4129d33b          	sraw	t1,s3,s2
    80000364:	0063553b          	srlw	a0,t1,t1
    80000368:	00001f17          	auipc	t5,0x1
    8000036c:	baff0f13          	addi	t5,t5,-1105 # 80000f17 <test_end+0x52f>
    80000370:	037be7bb          	remw	a5,s7,s7
    80000374:	71df2e03          	lw	t3,1821(t5)
    80000378:	5e140193          	addi	gp,s0,1505
    8000037c:	00001d17          	auipc	s10,0x1
    80000380:	38cd0d13          	addi	s10,s10,908 # 80001708 <loop_count+0x8>
    80000384:	00001c17          	auipc	s8,0x1
    80000388:	362c0c13          	addi	s8,s8,866 # 800016e6 <test_memory+0x3e6>
    8000038c:	01dbd83b          	srlw	a6,s7,t4
    80000390:	00100c93          	li	s9,1
    80000394:	cd2c2b23          	sw	s2,-810(s8)
    80000398:	e0f00993          	li	s3,-497
    8000039c:	24aa061b          	addiw	a2,s4,586
    800003a0:	03fc9c93          	slli	s9,s9,0x3f
    800003a4:	c2e98893          	addi	a7,s3,-978
    800003a8:	00001697          	auipc	a3,0x1
    800003ac:	22a68693          	addi	a3,a3,554 # 800015d2 <test_memory+0x2d2>
    800003b0:	d7769e23          	sh	s7,-644(a3)
    800003b4:	9e500093          	li	ra,-1563
    800003b8:	91800213          	li	tp,-1768
    800003bc:	02c00a13          	li	s4,44
    800003c0:	00001e97          	auipc	t4,0x1
    800003c4:	829e8e93          	addi	t4,t4,-2007 # 80000be9 <test_end+0x201>
    800003c8:	6bfa0593          	addi	a1,s4,1727
    800003cc:	f49d2c23          	sw	s1,-168(s10)
    800003d0:	41f00293          	li	t0,1055
    800003d4:	d338fae3          	bgeu	a7,s3,80000108 <crash_backward>
    800003d8:	4d000a93          	li	s5,1232
    800003dc:	dd700393          	li	t2,-553
    800003e0:	00523333          	sltu	t1,tp,t0
    800003e4:	007a813b          	addw	sp,s5,t2
    800003e8:	bb408b93          	addi	s7,ra,-1100
    800003ec:	727eb903          	ld	s2,1831(t4)
    800003f0:	d01bfce3          	bgeu	s7,ra,80000108 <crash_backward>
    800003f4:	fff00f93          	li	t6,-1
    800003f8:	019fcfb3          	xor	t6,t6,s9
    800003fc:	01f7fdb3          	and	s11,a5,t6
    80000400:	019de433          	or	s0,s11,s9
    80000404:	be400893          	li	a7,-1052
    80000408:	00001d17          	auipc	s10,0x1
    8000040c:	bbfd0d13          	addi	s10,s10,-1089 # 80000fc7 <test_end+0x5df>
    80000410:	a6a18c93          	addi	s9,gp,-1430 # 8000197a <_end+0x26a>
    80000414:	c0818113          	addi	sp,gp,-1016 # 80001b18 <_end+0x408>
    80000418:	e1a00793          	li	a5,-486
    8000041c:	0358e1bb          	remw	gp,a7,s5
    80000420:	00001b97          	auipc	s7,0x1
    80000424:	874b8b93          	addi	s7,s7,-1932 # 80000c94 <test_end+0x2ac>
    80000428:	2f600a13          	li	s4,758
    8000042c:	01058abb          	addw	s5,a1,a6
    80000430:	0188b3b3          	sltu	t2,a7,s8
    80000434:	01f6169b          	slliw	a3,a2,0x1f
    80000438:	00001f97          	auipc	t6,0x1
    8000043c:	d6ff8f93          	addi	t6,t6,-657 # 800011a7 <reg_x20_init+0x7>
    80000440:	00001a97          	auipc	s5,0x1
    80000444:	336a8a93          	addi	s5,s5,822 # 80001776 <_end+0x66>
    80000448:	9ef18313          	addi	t1,gp,-1553 # 800018ff <_end+0x1ef>
    8000044c:	be8cc983          	lbu	s3,-1048(s9)
    80000450:	b3c00413          	li	s0,-1220
    80000454:	8390b393          	sltiu	t2,ra,-1991
    80000458:	00001917          	auipc	s2,0x1
    8000045c:	c0e90913          	addi	s2,s2,-1010 # 80001066 <fromhost+0x26>
    80000460:	00100213          	li	tp,1
    80000464:	356f9da3          	sh	s6,859(t6)
    80000468:	48300093          	li	ra,1155
    8000046c:	8a013703          	ld	a4,-1888(sp)
    80000470:	f5aaa183          	lw	gp,-166(s5)
    80000474:	0318cf3b          	divw	t5,a7,a7
    80000478:	8c700993          	li	s3,-1849
    8000047c:	00001e17          	auipc	t3,0x1
    80000480:	f0ae0e13          	addi	t3,t3,-246 # 80001386 <test_memory+0x86>
    80000484:	013986b3          	add	a3,s3,s3
    80000488:	028a3c33          	mulhu	s8,s4,s0
    8000048c:	774b9b23          	sh	s4,1910(s7)
    80000490:	bc5317a3          	sh	t0,-1073(t1)
    80000494:	03f21213          	slli	tp,tp,0x3f
    80000498:	fff00493          	li	s1,-1
    8000049c:	3fe96583          	lwu	a1,1022(s2)
    800004a0:	d8218c93          	addi	s9,gp,-638 # 80001c92 <_end+0x582>
    800004a4:	00000613          	li	a2,0
    800004a8:	fed78513          	addi	a0,a5,-19
    800004ac:	0044c4b3          	xor	s1,s1,tp
    800004b0:	0210eb3b          	remw	s6,ra,ra
    800004b4:	009c7db3          	and	s11,s8,s1
    800004b8:	004deeb3          	or	t4,s11,tp
    800004bc:	c5ddf6e3          	bgeu	s11,t4,80000108 <crash_backward>
    800004c0:	52fd1283          	lh	t0,1327(s10)
    800004c4:	00000813          	li	a6,0
    800004c8:	0d1e0da3          	sb	a7,219(t3)
    800004cc:	00001517          	auipc	a0,0x1
    800004d0:	cb850513          	addi	a0,a0,-840 # 80001184 <reg_x16_init+0x4>
    800004d4:	9a7c8383          	lb	t2,-1625(s9)
    800004d8:	00001f17          	auipc	t5,0x1
    800004dc:	272f0f13          	addi	t5,t5,626 # 8000174a <_end+0x3a>
    800004e0:	2ec00593          	li	a1,748
    800004e4:	f2ff1a23          	sh	a5,-204(t5)
    800004e8:	00100d93          	li	s11,1
    800004ec:	02fab233          	mulhu	tp,s5,a5
    800004f0:	53958e13          	addi	t3,a1,1337
    800004f4:	00100893          	li	a7,1
    800004f8:	01bd82b3          	add	t0,s11,s11
    800004fc:	35450c23          	sb	s4,856(a0)
    80000500:	0252fd3b          	remuw	s10,t0,t0
    80000504:	e2018413          	addi	s0,gp,-480 # 80001d30 <_end+0x620>
    80000508:	02625f93          	srli	t6,tp,0x26
    8000050c:	9c343423          	sd	gp,-1592(s0)
    80000510:	00001b17          	auipc	s6,0x1
    80000514:	240b0b13          	addi	s6,s6,576 # 80001750 <_end+0x40>
    80000518:	03f89893          	slli	a7,a7,0x3f
    8000051c:	015a86b3          	add	a3,s5,s5
    80000520:	fff00b93          	li	s7,-1
    80000524:	00100193          	li	gp,1
    80000528:	03f19193          	slli	gp,gp,0x3f
    8000052c:	0231f6bb          	remuw	a3,gp,gp
    80000530:	c48b5a83          	lhu	s5,-952(s6)
    80000534:	00001717          	auipc	a4,0x1
    80000538:	ded70713          	addi	a4,a4,-531 # 80001321 <test_memory+0x21>
    8000053c:	011bcbb3          	xor	s7,s7,a7
    80000540:	0173fa33          	and	s4,t2,s7
    80000544:	fff00093          	li	ra,-1
    80000548:	026b0f33          	mul	t5,s6,t1
    8000054c:	1b200413          	li	s0,434
    80000550:	16f00593          	li	a1,367
    80000554:	21600f13          	li	t5,534
    80000558:	06d710a3          	sh	a3,97(a4)
    8000055c:	b3818d13          	addi	s10,gp,-1224 # 80001a48 <_end+0x338>
    80000560:	00001f97          	auipc	t6,0x1
    80000564:	b81f8f93          	addi	t6,t6,-1151 # 800010e1 <fromhost+0xa1>
    80000568:	03fd9d93          	slli	s11,s11,0x3f
    8000056c:	00b5e2b3          	or	t0,a1,a1
    80000570:	0030c0b3          	xor	ra,ra,gp
    80000574:	7b200a93          	li	s5,1970
    80000578:	f52cc993          	xori	s3,s9,-174
    8000057c:	f0f00c93          	li	s9,-241
    80000580:	0194023b          	addw	tp,s0,s9
    80000584:	7c5f0693          	addi	a3,t5,1989
    80000588:	0118e933          	or	s2,a7,a7
    8000058c:	00167133          	and	sp,a2,ra
    80000590:	b72a0ce3          	beq	s4,s2,80000108 <crash_backward>
    80000594:	003167b3          	or	a5,sp,gp
    80000598:	4155de33          	sra	t3,a1,s5
    8000059c:	40cfada3          	sw	a2,1051(t6)
    800005a0:	ab4d2383          	lw	t2,-1356(s10)
    800005a4:	43066863          	bltu	a2,a6,800009d4 <crash_forward>
    800005a8:	fff00313          	li	t1,-1
    800005ac:	00001517          	auipc	a0,0x1
    800005b0:	8e350513          	addi	a0,a0,-1821 # 80000e8f <test_end+0x4a7>
    800005b4:	01b34333          	xor	t1,t1,s11
    800005b8:	02774b3b          	divw	s6,a4,t2
    800005bc:	7b0524a3          	sw	a6,1961(a0)
    800005c0:	00000497          	auipc	s1,0x0
    800005c4:	7ec48493          	addi	s1,s1,2028 # 80000dac <test_end+0x3c4>
    800005c8:	00697eb3          	and	t4,s2,t1
    800005cc:	01beec33          	or	s8,t4,s11
    800005d0:	b38efce3          	bgeu	t4,s8,80000108 <crash_backward>
    800005d4:	6af4b223          	sd	a5,1700(s1)
    800005d8:	f2e00293          	li	t0,-210
    800005dc:	ca000893          	li	a7,-864
    800005e0:	8c600a13          	li	s4,-1850
    800005e4:	00100b13          	li	s6,1
    800005e8:	0318ff33          	remu	t5,a7,a7
    800005ec:	03fb1b13          	slli	s6,s6,0x3f
    800005f0:	020b46b3          	div	a3,s6,zero
    800005f4:	00001817          	auipc	a6,0x1
    800005f8:	a8b80813          	addi	a6,a6,-1397 # 8000107f <fromhost+0x3f>
    800005fc:	419cdebb          	sraw	t4,s9,s9
    80000600:	9a000d13          	li	s10,-1632
    80000604:	00100f13          	li	t5,1
    80000608:	40108433          	sub	s0,ra,ra
    8000060c:	adf00713          	li	a4,-1313
    80000610:	000a0b93          	mv	s7,s4
    80000614:	00001d97          	auipc	s11,0x1
    80000618:	fe6d8d93          	addi	s11,s11,-26 # 800015fa <test_memory+0x2fa>
    8000061c:	eeadd183          	lhu	gp,-278(s11)
    80000620:	00ed1fb3          	sll	t6,s10,a4
    80000624:	415d5533          	sra	a0,s10,s5
    80000628:	412ed41b          	sraiw	s0,t4,0x12
    8000062c:	15600393          	li	t2,342
    80000630:	43c814a3          	sh	t3,1065(a6)
    80000634:	03ff1f13          	slli	t5,t5,0x3f
    80000638:	cac00313          	li	t1,-852
    8000063c:	ac0046e3          	bltz	zero,80000108 <crash_backward>
    80000640:	00001997          	auipc	s3,0x1
    80000644:	98698993          	addi	s3,s3,-1658 # 80000fc6 <test_end+0x5de>
    80000648:	e6a00a93          	li	s5,-406
    8000064c:	93b18713          	addi	a4,gp,-1733 # 8000184b <_end+0x13b>
    80000650:	2aa00793          	li	a5,682
    80000654:	fff00113          	li	sp,-1
    80000658:	01614133          	xor	sp,sp,s6
    8000065c:	50f98e03          	lb	t3,1295(s3)
    80000660:	fff00693          	li	a3,-1
    80000664:	c4371403          	lh	s0,-957(a4)
    80000668:	00fa193b          	sllw	s2,s4,a5
    8000066c:	cff18e13          	addi	t3,gp,-769 # 80001c0f <_end+0x4ff>
    80000670:	0026fc33          	and	s8,a3,sp
    80000674:	52800813          	li	a6,1320
    80000678:	09b00193          	li	gp,155
    8000067c:	4108053b          	subw	a0,a6,a6
    80000680:	035addb3          	divu	s11,s5,s5
    80000684:	0318fd33          	remu	s10,a7,a7
    80000688:	70c00713          	li	a4,1804
    8000068c:	0273f4bb          	remuw	s1,t2,t2
    80000690:	01e6c6b3          	xor	a3,a3,t5
    80000694:	00d4f8b3          	and	a7,s1,a3
    80000698:	ae3e4403          	lbu	s0,-1309(t3)
    8000069c:	01e2eeb3          	or	t4,t0,t5
    800006a0:	000b8093          	mv	ra,s7
    800006a4:	0166e5b3          	or	a1,a3,s6
    800006a8:	00e1f9b3          	and	s3,gp,a4
    800006ac:	02635233          	divu	tp,t1,t1
    800006b0:	0353d633          	divu	a2,t2,s5
    800006b4:	00001a17          	auipc	s4,0x1
    800006b8:	0f8a0a13          	addi	s4,s4,248 # 800017ac <_end+0x9c>
    800006bc:	8d400813          	li	a6,-1836
    800006c0:	00001d97          	auipc	s11,0x1
    800006c4:	0dbd8d93          	addi	s11,s11,219 # 8000179b <_end+0x8b>
    800006c8:	00000197          	auipc	gp,0x0
    800006cc:	5e318193          	addi	gp,gp,1507 # 80000cab <test_end+0x2c3>
    800006d0:	0319b233          	mulhu	tp,s3,a7
    800006d4:	036b89bb          	mulw	s3,s7,s6
    800006d8:	df9dbea3          	sd	s9,-515(s11)
    800006dc:	00001b97          	auipc	s7,0x1
    800006e0:	f9cb8b93          	addi	s7,s7,-100 # 80001678 <test_memory+0x378>
    800006e4:	02529cb3          	mulh	s9,t0,t0
    800006e8:	00001617          	auipc	a2,0x1
    800006ec:	06d60613          	addi	a2,a2,109 # 80001755 <_end+0x45>
    800006f0:	00000d17          	auipc	s10,0x0
    800006f4:	6fad0d13          	addi	s10,s10,1786 # 80000dea <test_end+0x402>
    800006f8:	97018f93          	addi	t6,gp,-1680 # 80001880 <_end+0x170>
    800006fc:	5b400313          	li	t1,1460
    80000700:	02cee6bb          	remw	a3,t4,a2
    80000704:	01083933          	sltu	s2,a6,a6
    80000708:	18c30893          	addi	a7,t1,396
    8000070c:	5ead1923          	sh	a0,1522(s10)
    80000710:	2d135263          	bge	t1,a7,800009d4 <crash_forward>
    80000714:	00000a97          	auipc	s5,0x0
    80000718:	629a8a93          	addi	s5,s5,1577 # 80000d3d <test_end+0x355>
    8000071c:	00000393          	li	t2,0
    80000720:	c69607a3          	sb	s1,-913(a2)
    80000724:	df0a6503          	lwu	a0,-528(s4)
    80000728:	00001f17          	auipc	t5,0x1
    8000072c:	c37f0f13          	addi	t5,t5,-969 # 8000135f <test_memory+0x5f>
    80000730:	00000713          	li	a4,0
    80000734:	1a6f1ea3          	sh	t1,445(t5)
    80000738:	eb100a13          	li	s4,-335
    8000073c:	b8818813          	addi	a6,gp,-1144 # 80001a98 <_end+0x388>
    80000740:	00100413          	li	s0,1
    80000744:	a1918693          	addi	a3,gp,-1511 # 80001929 <_end+0x219>
    80000748:	ab3fb023          	sd	s3,-1376(t6)
    8000074c:	00001597          	auipc	a1,0x1
    80000750:	ca058593          	addi	a1,a1,-864 # 800013ec <test_memory+0xec>
    80000754:	6d400293          	li	t0,1748
    80000758:	00001917          	auipc	s2,0x1
    8000075c:	07490913          	addi	s2,s2,116 # 800017cc <_end+0xbc>
    80000760:	9ae3e4e3          	bltu	t2,a4,80000108 <crash_backward>
    80000764:	14f5a423          	sw	a5,328(a1)
    80000768:	e0691203          	lh	tp,-506(s2)
    8000076c:	913a0d93          	addi	s11,s4,-1773
    80000770:	00001e97          	auipc	t4,0x1
    80000774:	b09e8e93          	addi	t4,t4,-1271 # 80001279 <reg_x15_output+0x1>
    80000778:	d60bb483          	ld	s1,-672(s7)
    8000077c:	000498bb          	sllw	a7,s1,zero
    80000780:	6d91e103          	lwu	sp,1753(gp) # 800025e9 <__global_pointer$+0x6d9>
    80000784:	da76b603          	ld	a2,-601(a3)
    80000788:	00000b93          	li	s7,0
    8000078c:	0252ecbb          	remw	s9,t0,t0
    80000790:	024804b3          	mul	s1,a6,tp
    80000794:	9c418b13          	addi	s6,gp,-1596 # 800018d4 <_end+0x1c4>
    80000798:	108ea5a3          	sw	s0,267(t4)
    8000079c:	23ba6c63          	bltu	s4,s11,800009d4 <crash_forward>
    800007a0:	7f3aec03          	lwu	s8,2035(s5)
    800007a4:	5fa00313          	li	t1,1530
    800007a8:	00633533          	sltu	a0,t1,t1
    800007ac:	02452633          	mulhsu	a2,a0,tp
    800007b0:	411884bb          	subw	s1,a7,a7
    800007b4:	ea000d93          	li	s11,-352
    800007b8:	03f41413          	slli	s0,s0,0x3f
    800007bc:	8de85983          	lhu	s3,-1826(a6)
    800007c0:	00000697          	auipc	a3,0x0
    800007c4:	50368693          	addi	a3,a3,1283 # 80000cc3 <test_end+0x2db>
    800007c8:	fff00093          	li	ra,-1
    800007cc:	000291bb          	sllw	gp,t0,zero
    800007d0:	e8d00513          	li	a0,-371
    800007d4:	e0e00593          	li	a1,-498
    800007d8:	ae600f13          	li	t5,-1306
    800007dc:	6fd6a103          	lw	sp,1789(a3)
    800007e0:	c25b2a23          	sw	t0,-972(s6)
    800007e4:	35100993          	li	s3,849
    800007e8:	40500e93          	li	t4,1029
    800007ec:	02f2d1b3          	divu	gp,t0,a5
    800007f0:	00bda333          	slt	t1,s11,a1
    800007f4:	f5000c93          	li	s9,-176
    800007f8:	fa850c13          	addi	s8,a0,-88
    800007fc:	77c00393          	li	t2,1916
    80000800:	00420abb          	addw	s5,tp,tp
    80000804:	f6200913          	li	s2,-158
    80000808:	00001717          	auipc	a4,0x1
    8000080c:	bcd70713          	addi	a4,a4,-1075 # 800013d5 <test_memory+0xd5>
    80000810:	007cba33          	sltu	s4,s9,t2
    80000814:	01293d33          	sltu	s10,s2,s2
    80000818:	01ef1fbb          	sllw	t6,t5,t5
    8000081c:	20674883          	lbu	a7,518(a4)
    80000820:	00001b17          	auipc	s6,0x1
    80000824:	b7bb0b13          	addi	s6,s6,-1157 # 8000139b <test_memory+0x9b>
    80000828:	26a00d93          	li	s11,618
    8000082c:	81900493          	li	s1,-2023
    80000830:	947fe713          	ori	a4,t6,-1721
    80000834:	02a628b3          	mulhsu	a7,a2,a0
    80000838:	061b2683          	lw	a3,97(s6)
    8000083c:	03bde5bb          	remw	a1,s11,s11
    80000840:	00001d17          	auipc	s10,0x1
    80000844:	85bd0d13          	addi	s10,s10,-1957 # 8000109b <fromhost+0x5b>
    80000848:	36400813          	li	a6,868
    8000084c:	471d6f03          	lwu	t5,1137(s10)
    80000850:	0080c0b3          	xor	ra,ra,s0
    80000854:	00000213          	li	tp,0
    80000858:	0014fe33          	and	t3,s1,ra
    8000085c:	00000893          	li	a7,0
    80000860:	01de82b3          	add	t0,t4,t4
    80000864:	97500393          	li	t2,-1675
    80000868:	00001717          	auipc	a4,0x1
    8000086c:	b3970713          	addi	a4,a4,-1223 # 800013a1 <test_memory+0xa1>
    80000870:	6cfd4313          	xori	t1,s10,1743
    80000874:	02998633          	mul	a2,s3,s1
    80000878:	48900113          	li	sp,1161
    8000087c:	025bca3b          	divw	s4,s7,t0
    80000880:	00100693          	li	a3,1
    80000884:	00000e97          	auipc	t4,0x0
    80000888:	74ce8e93          	addi	t4,t4,1868 # 80000fd0 <test_end+0x5e8>
    8000088c:	00000b17          	auipc	s6,0x0
    80000890:	674b0b13          	addi	s6,s6,1652 # 80000f00 <test_end+0x518>
    80000894:	03f69693          	slli	a3,a3,0x3f
    80000898:	40b5d2bb          	sraw	t0,a1,a1
    8000089c:	4f780193          	addi	gp,a6,1271
    800008a0:	fff00593          	li	a1,-1
    800008a4:	00000817          	auipc	a6,0x0
    800008a8:	46a80813          	addi	a6,a6,1130 # 80000d0e <test_end+0x326>
    800008ac:	4b3b1c23          	sh	s3,1208(s6)
    800008b0:	008167b3          	or	a5,sp,s0
    800008b4:	0023f933          	and	s2,t2,sp
    800008b8:	00000f93          	li	t6,0
    800008bc:	00000297          	auipc	t0,0x0
    800008c0:	78628293          	addi	t0,t0,1926 # 80001042 <fromhost+0x2>
    800008c4:	00b65233          	srl	tp,a2,a1
    800008c8:	62282983          	lw	s3,1570(a6)
    800008cc:	10fe0463          	beq	t3,a5,800009d4 <crash_forward>
    800008d0:	41188db3          	sub	s11,a7,a7
    800008d4:	00d5c5b3          	xor	a1,a1,a3
    800008d8:	4c300513          	li	a0,1219
    800008dc:	6e300093          	li	ra,1763
    800008e0:	91c00793          	li	a5,-1764
    800008e4:	00001a97          	auipc	s5,0x1
    800008e8:	9a6a8a93          	addi	s5,s5,-1626 # 8000128a <reg_x17_output+0x2>
    800008ec:	00100e13          	li	t3,1
    800008f0:	146aac83          	lw	s9,326(s5)
    800008f4:	123733a3          	sd	gp,295(a4)
    800008f8:	0010ec33          	or	s8,ra,ra
    800008fc:	be818313          	addi	t1,gp,-1048 # 80001af8 <_end+0x3e8>
    80000900:	01085133          	srl	sp,a6,a6
    80000904:	529e8b83          	lb	s7,1321(t4)
    80000908:	00001217          	auipc	tp,0x1
    8000090c:	e9420213          	addi	tp,tp,-364 # 8000179c <_end+0x8c>
    80000910:	016114bb          	sllw	s1,sp,s6
    80000914:	02f52933          	mulhsu	s2,a0,a5
    80000918:	bb518d93          	addi	s11,gp,-1099 # 80001ac5 <_end+0x3b5>
    8000091c:	0273aa33          	mulhsu	s4,t2,t2
    80000920:	a1f31123          	sh	t6,-1534(t1)
    80000924:	03fe1e13          	slli	t3,t3,0x3f
    80000928:	00bf7f33          	and	t5,t5,a1
    8000092c:	2ec29a23          	sh	a2,756(t0)
    80000930:	dc621403          	lh	s0,-570(tp) # fffffffffffffdc6 <__global_pointer$+0xffffffff7fffdeb6>
    80000934:	00df6d33          	or	s10,t5,a3
    80000938:	9b6dc603          	lbu	a2,-1610(s11)
    8000093c:	fded6663          	bltu	s10,t5,80000108 <crash_backward>
    80000940:	fff00393          	li	t2,-1
    80000944:	01c3c3b3          	xor	t2,t2,t3
    80000948:	007a71b3          	and	gp,s4,t2
    8000094c:	01c1eb33          	or	s6,gp,t3
    80000950:	0040006f          	j	80000954 <reg_dump>

0000000080000954 <reg_dump>:
    80000954:	00001097          	auipc	ra,0x1
    80000958:	dac08093          	addi	ra,ra,-596 # 80001700 <loop_count>
    8000095c:	0000a103          	lw	sp,0(ra)
    80000960:	fff10193          	addi	gp,sp,-1
    80000964:	0030a023          	sw	gp,0(ra)
    80000968:	840110e3          	bnez	sp,800001a8 <pseg_0>
    8000096c:	00001097          	auipc	ra,0x1
    80000970:	89408093          	addi	ra,ra,-1900 # 80001200 <begin_signature>
    80000974:	0000b023          	sd	zero,0(ra)
    80000978:	0020b823          	sd	sp,16(ra)
    8000097c:	0030bc23          	sd	gp,24(ra)
    80000980:	0270bc23          	sd	t2,56(ra)
    80000984:	0480b023          	sd	s0,64(ra)
    80000988:	0490b423          	sd	s1,72(ra)
    8000098c:	04a0b823          	sd	a0,80(ra)
    80000990:	04b0bc23          	sd	a1,88(ra)
    80000994:	06c0b023          	sd	a2,96(ra)
    80000998:	06d0b423          	sd	a3,104(ra)
    8000099c:	06f0bc23          	sd	a5,120(ra)
    800009a0:	0910b423          	sd	a7,136(ra)
    800009a4:	0920b823          	sd	s2,144(ra)
    800009a8:	0930bc23          	sd	s3,152(ra)
    800009ac:	0b40b023          	sd	s4,160(ra)
    800009b0:	0b60b823          	sd	s6,176(ra)
    800009b4:	0b70bc23          	sd	s7,184(ra)
    800009b8:	0d80b023          	sd	s8,192(ra)
    800009bc:	0d90b423          	sd	s9,200(ra)
    800009c0:	0da0b823          	sd	s10,208(ra)
    800009c4:	0fc0b023          	sd	t3,224(ra)
    800009c8:	0fe0b823          	sd	t5,240(ra)
    800009cc:	0ff0bc23          	sd	t6,248(ra)
    800009d0:	0180006f          	j	800009e8 <test_end>

00000000800009d4 <crash_forward>:
    800009d4:	0ff0000f          	fence
    800009d8:	00018063          	beqz	gp,800009d8 <crash_forward+0x4>
    800009dc:	00119193          	slli	gp,gp,0x1
    800009e0:	0011e193          	ori	gp,gp,1
    800009e4:	00000073          	ecall

00000000800009e8 <test_end>:
    800009e8:	0ff0000f          	fence
    800009ec:	00100193          	li	gp,1
    800009f0:	00000073          	ecall
    800009f4:	c0001073          	unimp
	...

Disassembly of section .tohost:

0000000080001000 <tohost>:
	...

0000000080001040 <fromhost>:
	...
