
test.elf:     file format elf64-littleriscv


Disassembly of section .text.init:

0000000080000000 <_start>:
    80000000:	0580006f          	j	80000058 <reset_vector>

0000000080000004 <trap_vector>:
    80000004:	34202f73          	csrr	t5,mcause
    80000008:	00800f93          	li	t6,8
    8000000c:	05ff0063          	beq	t5,t6,8000004c <write_tohost>
    80000010:	00900f93          	li	t6,9
    80000014:	03ff0c63          	beq	t5,t6,8000004c <write_tohost>
    80000018:	00b00f93          	li	t6,11
    8000001c:	03ff0863          	beq	t5,t6,8000004c <write_tohost>
    80000020:	00000f13          	li	t5,0
    80000024:	000f0463          	beqz	t5,8000002c <trap_vector+0x28>
    80000028:	000f0067          	jr	t5
    8000002c:	34202f73          	csrr	t5,mcause
    80000030:	000f5463          	bgez	t5,80000038 <handle_exception>
    80000034:	0140006f          	j	80000048 <other_exception>

0000000080000038 <handle_exception>:
    80000038:	34102e73          	csrr	t3,mepc
    8000003c:	004e0e13          	addi	t3,t3,4
    80000040:	341e1073          	csrw	mepc,t3
    80000044:	30200073          	mret

0000000080000048 <other_exception>:
    80000048:	5391e193          	ori	gp,gp,1337

000000008000004c <write_tohost>:
    8000004c:	00001f17          	auipc	t5,0x1
    80000050:	fa3f2a23          	sw	gp,-76(t5) # 80001000 <tohost>
    80000054:	ff9ff06f          	j	8000004c <write_tohost>

0000000080000058 <reset_vector>:
    80000058:	f1402573          	csrr	a0,mhartid
    8000005c:	00051063          	bnez	a0,8000005c <reset_vector+0x4>
    80000060:	00000297          	auipc	t0,0x0
    80000064:	01028293          	addi	t0,t0,16 # 80000070 <reset_vector+0x18>
    80000068:	30529073          	csrw	mtvec,t0
    8000006c:	18005073          	csrwi	satp,0
    80000070:	00000297          	auipc	t0,0x0
    80000074:	01c28293          	addi	t0,t0,28 # 8000008c <reset_vector+0x34>
    80000078:	30529073          	csrw	mtvec,t0
    8000007c:	fff00293          	li	t0,-1
    80000080:	3b029073          	csrw	pmpaddr0,t0
    80000084:	01f00293          	li	t0,31
    80000088:	3a029073          	csrw	pmpcfg0,t0
    8000008c:	00000297          	auipc	t0,0x0
    80000090:	01828293          	addi	t0,t0,24 # 800000a4 <reset_vector+0x4c>
    80000094:	30529073          	csrw	mtvec,t0
    80000098:	30205073          	csrwi	medeleg,0
    8000009c:	30305073          	csrwi	mideleg,0
    800000a0:	30405073          	csrwi	mie,0
    800000a4:	00000193          	li	gp,0
    800000a8:	00000297          	auipc	t0,0x0
    800000ac:	f5c28293          	addi	t0,t0,-164 # 80000004 <trap_vector>
    800000b0:	30529073          	csrw	mtvec,t0
    800000b4:	00100513          	li	a0,1
    800000b8:	01f51513          	slli	a0,a0,0x1f
    800000bc:	00055863          	bgez	a0,800000cc <reset_vector+0x74>
    800000c0:	0ff0000f          	fence
    800000c4:	00100193          	li	gp,1
    800000c8:	00000073          	ecall
    800000cc:	00000293          	li	t0,0
    800000d0:	00028e63          	beqz	t0,800000ec <reset_vector+0x94>
    800000d4:	10529073          	csrw	stvec,t0
    800000d8:	0000b2b7          	lui	t0,0xb
    800000dc:	1092829b          	addiw	t0,t0,265
    800000e0:	30229073          	csrw	medeleg,t0
    800000e4:	30202373          	csrr	t1,medeleg
    800000e8:	f66290e3          	bne	t0,t1,80000048 <other_exception>
    800000ec:	30005073          	csrwi	mstatus,0
    800000f0:	00000297          	auipc	t0,0x0
    800000f4:	01428293          	addi	t0,t0,20 # 80000104 <reset_vector+0xac>
    800000f8:	34129073          	csrw	mepc,t0
    800000fc:	f1402573          	csrr	a0,mhartid
    80000100:	30200073          	mret
    80000104:	0180006f          	j	8000011c <test_start>

0000000080000108 <crash_backward>:
    80000108:	0ff0000f          	fence
    8000010c:	00018063          	beqz	gp,8000010c <crash_backward+0x4>
    80000110:	00119193          	slli	gp,gp,0x1
    80000114:	0011e193          	ori	gp,gp,1
    80000118:	00000073          	ecall

000000008000011c <test_start>:
    8000011c:	00001f97          	auipc	t6,0x1
    80000120:	fe4f8f93          	addi	t6,t6,-28 # 80001100 <hidden_data>
    80000124:	000fb003          	ld	zero,0(t6)
    80000128:	008fb083          	ld	ra,8(t6)
    8000012c:	010fb103          	ld	sp,16(t6)
    80000130:	018fb183          	ld	gp,24(t6)
    80000134:	020fb203          	ld	tp,32(t6)
    80000138:	028fb283          	ld	t0,40(t6)
    8000013c:	030fb303          	ld	t1,48(t6)
    80000140:	038fb383          	ld	t2,56(t6)
    80000144:	040fb403          	ld	s0,64(t6)
    80000148:	048fb483          	ld	s1,72(t6)
    8000014c:	050fb503          	ld	a0,80(t6)
    80000150:	058fb583          	ld	a1,88(t6)
    80000154:	060fb603          	ld	a2,96(t6)
    80000158:	068fb683          	ld	a3,104(t6)
    8000015c:	070fb703          	ld	a4,112(t6)
    80000160:	078fb783          	ld	a5,120(t6)
    80000164:	080fb803          	ld	a6,128(t6)
    80000168:	088fb883          	ld	a7,136(t6)
    8000016c:	090fb903          	ld	s2,144(t6)
    80000170:	098fb983          	ld	s3,152(t6)
    80000174:	0a0fba03          	ld	s4,160(t6)
    80000178:	0a8fba83          	ld	s5,168(t6)
    8000017c:	0b0fbb03          	ld	s6,176(t6)
    80000180:	0b8fbb83          	ld	s7,184(t6)
    80000184:	0c0fbc03          	ld	s8,192(t6)
    80000188:	0c8fbc83          	ld	s9,200(t6)
    8000018c:	0d0fbd03          	ld	s10,208(t6)
    80000190:	0d8fbd83          	ld	s11,216(t6)
    80000194:	0e0fbe03          	ld	t3,224(t6)
    80000198:	0e8fbe83          	ld	t4,232(t6)
    8000019c:	0f0fbf03          	ld	t5,240(t6)
    800001a0:	0f8fbf83          	ld	t6,248(t6)
    800001a4:	0040006f          	j	800001a8 <pseg_0>

00000000800001a8 <pseg_0>:
    800001a8:	96d00613          	li	a2,-1683
    800001ac:	0210f7b3          	remu	a5,ra,ra
    800001b0:	ad218f13          	addi	t5,gp,-1326 # 800019e2 <_end+0x2d2>
    800001b4:	eea60c93          	addi	s9,a2,-278
    800001b8:	00001817          	auipc	a6,0x1
    800001bc:	38a80813          	addi	a6,a6,906 # 80001542 <test_memory+0x242>
    800001c0:	0007523b          	srlw	tp,a4,zero
    800001c4:	f57b92e3          	bne	s7,s7,80000108 <crash_backward>
    800001c8:	15400a93          	li	s5,340
    800001cc:	40c6553b          	sraw	a0,a2,a2
    800001d0:	a8718b93          	addi	s7,gp,-1401 # 80001997 <_end+0x287>
    800001d4:	9e300d93          	li	s11,-1565
    800001d8:	f39668e3          	bltu	a2,s9,80000108 <crash_backward>
    800001dc:	ca318413          	addi	s0,gp,-861 # 80001bb3 <_end+0x4a3>
    800001e0:	95ef2c03          	lw	s8,-1698(t5)
    800001e4:	a8945903          	lhu	s2,-1399(s0)
    800001e8:	f20040e3          	bltz	zero,80000108 <crash_backward>
    800001ec:	b96bb4a3          	sd	s6,-1143(s7)
    800001f0:	0329673b          	remw	a4,s2,s2
    800001f4:	92fd8e13          	addi	t3,s11,-1745
    800001f8:	00001a17          	auipc	s4,0x1
    800001fc:	f83a0a13          	addi	s4,s4,-125 # 8000117b <reg_x15_init+0x3>
    80000200:	f6c81823          	sh	a2,-144(a6)
    80000204:	1e7a4583          	lbu	a1,487(s4)
    80000208:	00001317          	auipc	t1,0x1
    8000020c:	29b30313          	addi	t1,t1,667 # 800014a3 <test_memory+0x1a3>
    80000210:	00001517          	auipc	a0,0x1
    80000214:	f2350513          	addi	a0,a0,-221 # 80001133 <reg_x6_init+0x3>
    80000218:	ab518093          	addi	ra,gp,-1355 # 800019c5 <_end+0x2b5>
    8000021c:	df788693          	addi	a3,a7,-521
    80000220:	7b200213          	li	tp,1970
    80000224:	00100e93          	li	t4,1
    80000228:	97c18113          	addi	sp,gp,-1668 # 8000188c <_end+0x17c>
    8000022c:	00423c33          	sltu	s8,tp,tp
    80000230:	ca816d03          	lwu	s10,-856(sp)
    80000234:	baa0cc83          	lbu	s9,-1110(ra)
    80000238:	03a29893          	slli	a7,t0,0x3a
    8000023c:	24954783          	lbu	a5,585(a0)
    80000240:	034a6f3b          	remw	t5,s4,s4
    80000244:	4b3a8193          	addi	gp,s5,1203
    80000248:	7b000713          	li	a4,1968
    8000024c:	03fe9e93          	slli	t4,t4,0x3f
    80000250:	bd900f93          	li	t6,-1063
    80000254:	fff00493          	li	s1,-1
    80000258:	01d4c4b3          	xor	s1,s1,t4
    8000025c:	00e77db3          	and	s11,a4,a4
    80000260:	ce400a13          	li	s4,-796
    80000264:	53700b93          	li	s7,1335
    80000268:	683ade63          	bge	s5,gp,80000904 <crash_forward>
    8000026c:	00a72633          	slt	a2,a4,a0
    80000270:	0094fb33          	and	s6,s1,s1
    80000274:	28500813          	li	a6,645
    80000278:	410b893b          	subw	s2,s7,a6
    8000027c:	16d36283          	lwu	t0,365(t1)
    80000280:	9d700e13          	li	t3,-1577
    80000284:	d94f8393          	addi	t2,t6,-620
    80000288:	b3118613          	addi	a2,gp,-1231 # 80001a41 <_end+0x331>
    8000028c:	0210e333          	rem	t1,ra,ra
    80000290:	667fca63          	blt	t6,t2,80000904 <crash_forward>
    80000294:	a8624713          	xori	a4,tp,-1402
    80000298:	e74a18e3          	bne	s4,s4,80000108 <crash_backward>
    8000029c:	3c000213          	li	tp,960
    800002a0:	01ca15bb          	sllw	a1,s4,t3
    800002a4:	00708dbb          	addw	s11,ra,t2
    800002a8:	3e120913          	addi	s2,tp,993 # 3e1 <_start-0x7ffffc1f>
    800002ac:	00001097          	auipc	ra,0x1
    800002b0:	45408093          	addi	ra,ra,1108 # 80001700 <loop_count>
    800002b4:	55800813          	li	a6,1368
    800002b8:	01f00a93          	li	s5,31
    800002bc:	e0846d13          	ori	s10,s0,-504
    800002c0:	f4000113          	li	sp,-192
    800002c4:	7e800413          	li	s0,2024
    800002c8:	01db69b3          	or	s3,s6,t4
    800002cc:	e7900b93          	li	s7,-391
    800002d0:	00001397          	auipc	t2,0x1
    800002d4:	ac138393          	addi	t2,t2,-1343 # 80000d91 <test_end+0x479>
    800002d8:	945637a3          	sd	t0,-1713(a2)
    800002dc:	59f3a203          	lw	tp,1439(t2)
    800002e0:	019c85b3          	add	a1,s9,s9
    800002e4:	00a5093b          	addw	s2,a0,a0
    800002e8:	00001a17          	auipc	s4,0x1
    800002ec:	4e2a0a13          	addi	s4,s4,1250 # 800017ca <_end+0xba>
    800002f0:	bd6a6d83          	lwu	s11,-1066(s4)
    800002f4:	00840c3b          	addw	s8,s0,s0
    800002f8:	0029ef33          	or	t5,s3,sp
    800002fc:	03296333          	rem	t1,s2,s2
    80000300:	017bb1b3          	sltu	gp,s7,s7
    80000304:	015a853b          	addw	a0,s5,s5
    80000308:	00005d33          	srl	s10,zero,zero
    8000030c:	00001f97          	auipc	t6,0x1
    80000310:	0aaf8f93          	addi	t6,t6,170 # 800013b6 <test_memory+0xb6>
    80000314:	f4d08d23          	sb	a3,-166(ra)
    80000318:	262fbe03          	ld	t3,610(t6)
    8000031c:	a6a88713          	addi	a4,a7,-1430
    80000320:	017be8b3          	or	a7,s7,s7
    80000324:	00bcd233          	srl	tp,s9,a1
    80000328:	00001797          	auipc	a5,0x1
    8000032c:	2d078793          	addi	a5,a5,720 # 800015f8 <test_memory+0x2f8>
    80000330:	1047c683          	lbu	a3,260(a5)
    80000334:	00000593          	li	a1,0
    80000338:	00000613          	li	a2,0
    8000033c:	43a00493          	li	s1,1082
    80000340:	01ffad33          	slt	s10,t6,t6
    80000344:	00001197          	auipc	gp,0x1
    80000348:	a8918193          	addi	gp,gp,-1399 # 80000dcd <test_end+0x4b5>
    8000034c:	402852b3          	sra	t0,a6,sp
    80000350:	00001e97          	auipc	t4,0x1
    80000354:	3b3e8e93          	addi	t4,t4,947 # 80001703 <loop_count+0x3>
    80000358:	00000913          	li	s2,0
    8000035c:	00000c13          	li	s8,0
    80000360:	acb00713          	li	a4,-1333
    80000364:	da0042e3          	bltz	zero,80000108 <crash_backward>
    80000368:	00001817          	auipc	a6,0x1
    8000036c:	ed980813          	addi	a6,a6,-295 # 80001241 <reg_x8_output+0x1>
    80000370:	03de88b3          	mul	a7,t4,t4
    80000374:	00f05e13          	srli	t3,zero,0xf
    80000378:	e8ee8d83          	lb	s11,-370(t4)
    8000037c:	92d18793          	addi	a5,gp,-1747 # 8000183d <_end+0x12d>
    80000380:	00e76b33          	or	s6,a4,a4
    80000384:	000e0b93          	mv	s7,t3
    80000388:	f0e18d13          	addi	s10,gp,-242 # 80001e1e <_end+0x70e>
    8000038c:	865d1f23          	sh	t0,-1922(s10)
    80000390:	d5c78da3          	sb	t3,-677(a5)
    80000394:	20f81103          	lh	sp,527(a6)
    80000398:	5e500213          	li	tp,1509
    8000039c:	0044d6b3          	srl	a3,s1,tp
    800003a0:	00001397          	auipc	t2,0x1
    800003a4:	d2138393          	addi	t2,t2,-735 # 800010c1 <fromhost+0x81>
    800003a8:	00001a97          	auipc	s5,0x1
    800003ac:	441a8a93          	addi	s5,s5,1089 # 800017e9 <_end+0xd9>
    800003b0:	7cf1c983          	lbu	s3,1999(gp) # 800026df <__global_pointer$+0x7cf>
    800003b4:	40000f93          	li	t6,1024
    800003b8:	4ce3cc83          	lbu	s9,1230(t2)
    800003bc:	de5ad303          	lhu	t1,-539(s5)
    800003c0:	00000513          	li	a0,0
    800003c4:	d4c5c2e3          	blt	a1,a2,80000108 <crash_backward>
    800003c8:	00000a13          	li	s4,0
    800003cc:	03ffd0b3          	divu	ra,t6,t6
    800003d0:	000b8f13          	mv	t5,s7
    800003d4:	d3ebeae3          	bltu	s7,t5,80000108 <crash_backward>
    800003d8:	abf18413          	addi	s0,gp,-1345 # 800019cf <_end+0x2bf>
    800003dc:	00100a93          	li	s5,1
    800003e0:	0368b1b3          	mulhu	gp,a7,s6
    800003e4:	02d6e6b3          	rem	a3,a3,a3
    800003e8:	00e710b3          	sll	ra,a4,a4
    800003ec:	4139863b          	subw	a2,s3,s3
    800003f0:	00001f97          	auipc	t6,0x1
    800003f4:	924f8f93          	addi	t6,t6,-1756 # 80000d14 <test_end+0x3fc>
    800003f8:	00001d97          	auipc	s11,0x1
    800003fc:	25cd8d93          	addi	s11,s11,604 # 80001654 <test_memory+0x354>
    80000400:	03fa9a93          	slli	s5,s5,0x3f
    80000404:	b8e18a13          	addi	s4,gp,-1138 # 80001a9e <_end+0x38e>
    80000408:	6b700813          	li	a6,1719
    8000040c:	7c6f9783          	lh	a5,1990(t6)
    80000410:	00001217          	auipc	tp,0x1
    80000414:	0a120213          	addi	tp,tp,161 # 800014b1 <test_memory+0x1b1>
    80000418:	8e700e13          	li	t3,-1817
    8000041c:	beea2b23          	sw	a4,-1034(s4)
    80000420:	e9cdef03          	lwu	t5,-356(s11)
    80000424:	cc143b03          	ld	s6,-831(s0)
    80000428:	fff00d13          	li	s10,-1
    8000042c:	015d4d33          	xor	s10,s10,s5
    80000430:	ab500b93          	li	s7,-1355
    80000434:	037e053b          	mulw	a0,t3,s7
    80000438:	03085c3b          	divuw	s8,a6,a6
    8000043c:	92318913          	addi	s2,gp,-1757 # 80001833 <_end+0x123>
    80000440:	69190c93          	addi	s9,s2,1681
    80000444:	ee218493          	addi	s1,gp,-286 # 80001df2 <_end+0x6e2>
    80000448:	c2996383          	lwu	t2,-983(s2)
    8000044c:	00100293          	li	t0,1
    80000450:	d3300513          	li	a0,-717
    80000454:	32200c93          	li	s9,802
    80000458:	02c656b3          	divu	a3,a2,a2
    8000045c:	03f29293          	slli	t0,t0,0x3f
    80000460:	00001617          	auipc	a2,0x1
    80000464:	ec460613          	addi	a2,a2,-316 # 80001324 <test_memory+0x24>
    80000468:	7d500b93          	li	s7,2005
    8000046c:	06b21703          	lh	a4,107(tp) # 6b <_start-0x7fffff95>
    80000470:	00001797          	auipc	a5,0x1
    80000474:	d5678793          	addi	a5,a5,-682 # 800011c6 <reg_x24_init+0x6>
    80000478:	3cb79a23          	sh	a1,980(a5)
    8000047c:	39862f03          	lw	t5,920(a2)
    80000480:	037543bb          	divw	t2,a0,s7
    80000484:	00001417          	auipc	s0,0x1
    80000488:	98040413          	addi	s0,s0,-1664 # 80000e04 <test_end+0x4ec>
    8000048c:	00001617          	auipc	a2,0x1
    80000490:	19960613          	addi	a2,a2,409 # 80001625 <test_memory+0x325>
    80000494:	82c49e83          	lh	t4,-2004(s1)
    80000498:	00100693          	li	a3,1
    8000049c:	64e40ca3          	sb	a4,1625(s0)
    800004a0:	015abfb3          	sltu	t6,s5,s5
    800004a4:	00c67833          	and	a6,a2,a2
    800004a8:	019c9e33          	sll	t3,s9,s9
    800004ac:	03f69693          	slli	a3,a3,0x3f
    800004b0:	01ae7133          	and	sp,t3,s10
    800004b4:	030c33b3          	mulhu	t2,s8,a6
    800004b8:	01516333          	or	t1,sp,s5
    800004bc:	98600513          	li	a0,-1658
    800004c0:	02a550bb          	divuw	ra,a0,a0
    800004c4:	2f000c93          	li	s9,752
    800004c8:	fff00213          	li	tp,-1
    800004cc:	9e600a13          	li	s4,-1562
    800004d0:	7bd00793          	li	a5,1981
    800004d4:	99700b93          	li	s7,-1641
    800004d8:	0377eebb          	remw	t4,a5,s7
    800004dc:	01cc8493          	addi	s1,s9,28
    800004e0:	00100393          	li	t2,1
    800004e4:	a2500193          	li	gp,-1499
    800004e8:	fff00593          	li	a1,-1
    800004ec:	003a5dbb          	srlw	s11,s4,gp
    800004f0:	0055c5b3          	xor	a1,a1,t0
    800004f4:	d1b63f03          	ld	t5,-741(a2)
    800004f8:	00b179b3          	and	s3,sp,a1
    800004fc:	00d24233          	xor	tp,tp,a3
    80000500:	409cf263          	bgeu	s9,s1,80000904 <crash_forward>
    80000504:	03f39393          	slli	t2,t2,0x3f
    80000508:	0059e8b3          	or	a7,s3,t0
    8000050c:	00001517          	auipc	a0,0x1
    80000510:	a1750513          	addi	a0,a0,-1513 # 80000f23 <test_end+0x60b>
    80000514:	2fa00b13          	li	s6,762
    80000518:	004bf733          	and	a4,s7,tp
    8000051c:	fff00413          	li	s0,-1
    80000520:	f2b00f13          	li	t5,-213
    80000524:	cf018613          	addi	a2,gp,-784 # 80001c00 <_end+0x4f0>
    80000528:	03d8f2b3          	remu	t0,a7,t4
    8000052c:	004c9b9b          	slliw	s7,s9,0x4
    80000530:	00000a13          	li	s4,0
    80000534:	02094ab3          	div	s5,s2,zero
    80000538:	c8e8c813          	xori	a6,a7,-882
    8000053c:	00780db3          	add	s11,a6,t2
    80000540:	99e00d13          	li	s10,-1634
    80000544:	03ad27b3          	mulhsu	a5,s10,s10
    80000548:	00744433          	xor	s0,s0,t2
    8000054c:	00001597          	auipc	a1,0x1
    80000550:	98058593          	addi	a1,a1,-1664 # 80000ecc <test_end+0x5b4>
    80000554:	74c5ce83          	lbu	t4,1868(a1)
    80000558:	02b5f9b3          	remu	s3,a1,a1
    8000055c:	ecc00313          	li	t1,-308
    80000560:	81d63023          	sd	t4,-2048(a2)
    80000564:	53f00493          	li	s1,1343
    80000568:	026f51bb          	divuw	gp,t5,t1
    8000056c:	726b0913          	addi	s2,s6,1830
    80000570:	0294e8bb          	remw	a7,s1,s1
    80000574:	00000c93          	li	s9,0
    80000578:	72354083          	lbu	ra,1827(a0)
    8000057c:	00d66c33          	or	s8,a2,a3
    80000580:	00001097          	auipc	ra,0x1
    80000584:	1b108093          	addi	ra,ra,433 # 80001731 <_end+0x21>
    80000588:	00001d97          	auipc	s11,0x1
    8000058c:	21fd8d93          	addi	s11,s11,543 # 800017a7 <_end+0x97>
    80000590:	006338b3          	sltu	a7,t1,t1
    80000594:	58c00f13          	li	t5,1420
    80000598:	00001297          	auipc	t0,0x1
    8000059c:	e6428293          	addi	t0,t0,-412 # 800013fc <test_memory+0xfc>
    800005a0:	27d283a3          	sb	t4,615(t0)
    800005a4:	00001d17          	auipc	s10,0x1
    800005a8:	904d0d13          	addi	s10,s10,-1788 # 80000ea8 <test_end+0x590>
    800005ac:	34ec5c63          	bge	s8,a4,80000904 <crash_forward>
    800005b0:	f630bba3          	sd	gp,-137(ra)
    800005b4:	00001517          	auipc	a0,0x1
    800005b8:	c1e50513          	addi	a0,a0,-994 # 800011d2 <reg_x26_init+0x2>
    800005bc:	01bdcbb3          	xor	s7,s11,s11
    800005c0:	b5f00193          	li	gp,-1185
    800005c4:	b52b02e3          	beq	s6,s2,80000108 <crash_backward>
    800005c8:	008bffb3          	and	t6,s7,s0
    800005cc:	00000913          	li	s2,0
    800005d0:	4c055a83          	lhu	s5,1216(a0)
    800005d4:	014a1333          	sll	t1,s4,s4
    800005d8:	79ad1103          	lh	sp,1946(s10)
    800005dc:	00001797          	auipc	a5,0x1
    800005e0:	bc378793          	addi	a5,a5,-1085 # 8000119f <reg_x19_init+0x7>
    800005e4:	00001097          	auipc	ra,0x1
    800005e8:	e1108093          	addi	ra,ra,-495 # 800013f5 <test_memory+0xf5>
    800005ec:	00000693          	li	a3,0
    800005f0:	023184bb          	mulw	s1,gp,gp
    800005f4:	ce218593          	addi	a1,gp,-798 # 80001bf2 <_end+0x4e2>
    800005f8:	01ef0ebb          	addw	t4,t5,t5
    800005fc:	4277c703          	lbu	a4,1063(a5)
    80000600:	d37dc603          	lbu	a2,-713(s11)
    80000604:	00080893          	mv	a7,a6
    80000608:	00088b13          	mv	s6,a7
    8000060c:	007e6e33          	or	t3,t3,t2
    80000610:	8f65a323          	sw	s6,-1818(a1)
    80000614:	cc200b93          	li	s7,-830
    80000618:	2f9a1663          	bne	s4,s9,80000904 <crash_forward>
    8000061c:	1230b283          	ld	t0,291(ra)
    80000620:	baa18493          	addi	s1,gp,-1110 # 80001aba <_end+0x3aa>
    80000624:	2b400593          	li	a1,692
    80000628:	0306c233          	div	tp,a3,a6
    8000062c:	00a52c33          	slt	s8,a0,a0
    80000630:	87600193          	li	gp,-1930
    80000634:	3f200d13          	li	s10,1010
    80000638:	00001997          	auipc	s3,0x1
    8000063c:	ca098993          	addi	s3,s3,-864 # 800012d8 <reg_x27_output>
    80000640:	3c49d803          	lhu	a6,964(s3)
    80000644:	fed00c93          	li	s9,-19
    80000648:	97e4b683          	ld	a3,-1666(s1)
    8000064c:	b6000f13          	li	t5,-1184
    80000650:	88500d93          	li	s11,-1915
    80000654:	41b5da33          	sra	s4,a1,s11
    80000658:	039cc63b          	divw	a2,s9,s9
    8000065c:	037bc133          	div	sp,s7,s7
    80000660:	03ad3733          	mulhu	a4,s10,s10
    80000664:	00100b93          	li	s7,1
    80000668:	28004e63          	bltz	zero,80000904 <crash_forward>
    8000066c:	03fb9b93          	slli	s7,s7,0x3f
    80000670:	c7c00613          	li	a2,-900
    80000674:	ad900813          	li	a6,-1319
    80000678:	00000497          	auipc	s1,0x0
    8000067c:	5ee48493          	addi	s1,s1,1518 # 80000c66 <test_end+0x34e>
    80000680:	a9cfc4e3          	blt	t6,t3,80000108 <crash_backward>
    80000684:	7624a203          	lw	tp,1890(s1)
    80000688:	016b40b3          	xor	ra,s6,s6
    8000068c:	a46f0913          	addi	s2,t5,-1466
    80000690:	a694cce3          	blt	s1,s1,80000108 <crash_backward>
    80000694:	00001897          	auipc	a7,0x1
    80000698:	e4588893          	addi	a7,a7,-443 # 800014d9 <test_memory+0x1d9>
    8000069c:	0231e7b3          	rem	a5,gp,gp
    800006a0:	00001497          	auipc	s1,0x1
    800006a4:	deb48493          	addi	s1,s1,-533 # 8000148b <test_memory+0x18b>
    800006a8:	252f0e63          	beq	t5,s2,80000904 <crash_forward>
    800006ac:	03064cbb          	divw	s9,a2,a6
    800006b0:	30a00113          	li	sp,778
    800006b4:	00001397          	auipc	t2,0x1
    800006b8:	b4838393          	addi	t2,t2,-1208 # 800011fc <reg_x31_init+0x4>
    800006bc:	1e38db03          	lhu	s6,483(a7)
    800006c0:	c3700a93          	li	s5,-969
    800006c4:	44310593          	addi	a1,sp,1091
    800006c8:	b9418c93          	addi	s9,gp,-1132 # 80001aa4 <_end+0x394>
    800006cc:	b3400513          	li	a0,-1228
    800006d0:	0da00d93          	li	s11,218
    800006d4:	a225cae3          	blt	a1,sp,80000108 <crash_backward>
    800006d8:	000a8a13          	mv	s4,s5
    800006dc:	31b38f83          	lb	t6,795(t2)
    800006e0:	026160b3          	rem	ra,sp,t1
    800006e4:	02214e3b          	divw	t3,sp,sp
    800006e8:	2c800813          	li	a6,712
    800006ec:	0c480913          	addi	s2,a6,196
    800006f0:	0214a203          	lw	tp,33(s1)
    800006f4:	5a52c393          	xori	t2,t0,1445
    800006f8:	a1300693          	li	a3,-1517
    800006fc:	035aceb3          	div	t4,s5,s5
    80000700:	000a0713          	mv	a4,s4
    80000704:	b54ceb03          	lwu	s6,-1196(s9)
    80000708:	02a1f33b          	remuw	t1,gp,a0
    8000070c:	ea800793          	li	a5,-344
    80000710:	02ddb9b3          	mulhu	s3,s11,a3
    80000714:	00001f97          	auipc	t6,0x1
    80000718:	07bf8f93          	addi	t6,t6,123 # 8000178f <_end+0x7f>
    8000071c:	fff00c13          	li	s8,-1
    80000720:	01ad75b3          	and	a1,s10,s10
    80000724:	017c4c33          	xor	s8,s8,s7
    80000728:	111ec113          	xori	sp,t4,273
    8000072c:	deff8023          	sb	a5,-544(t6)
    80000730:	018bf2b3          	and	t0,s7,s8
    80000734:	40f78433          	sub	s0,a5,a5
    80000738:	a0318613          	addi	a2,gp,-1533 # 80001913 <_end+0x203>
    8000073c:	0172ed33          	or	s10,t0,s7
    80000740:	00000f17          	auipc	t5,0x0
    80000744:	53ef0f13          	addi	t5,t5,1342 # 80000c7e <test_end+0x366>
    80000748:	70bf3923          	sd	a1,1810(t5)
    8000074c:	a7d63883          	ld	a7,-1411(a2)
    80000750:	4142d39b          	sraiw	t2,t0,0x14
    80000754:	b1400193          	li	gp,-1260
    80000758:	c6000f93          	li	t6,-928
    8000075c:	00001b97          	auipc	s7,0x1
    80000760:	aa5b8b93          	addi	s7,s7,-1371 # 80001201 <begin_signature+0x1>
    80000764:	0031a633          	slt	a2,gp,gp
    80000768:	01dc8e33          	add	t3,s9,t4
    8000076c:	18c00813          	li	a6,396
    80000770:	00001117          	auipc	sp,0x1
    80000774:	bdf10113          	addi	sp,sp,-1057 # 8000134f <test_memory+0x4f>
    80000778:	3d10cd13          	xori	s10,ra,977
    8000077c:	010858bb          	srlw	a7,a6,a6
    80000780:	00d68233          	add	tp,a3,a3
    80000784:	00001217          	auipc	tp,0x1
    80000788:	ee720213          	addi	tp,tp,-281 # 8000166b <test_memory+0x36b>
    8000078c:	03ffef3b          	remw	t5,t6,t6
    80000790:	03ce6dbb          	remw	s11,t3,t3
    80000794:	00001397          	auipc	t2,0x1
    80000798:	d8f38393          	addi	t2,t2,-625 # 80001523 <test_memory+0x223>
    8000079c:	31210223          	sb	s2,772(sp)
    800007a0:	1a1b98a3          	sh	ra,433(s7)
    800007a4:	d2523603          	ld	a2,-731(tp) # fffffffffffffd25 <__global_pointer$+0xffffffff7fffde15>
    800007a8:	00001a97          	auipc	s5,0x1
    800007ac:	cd7a8a93          	addi	s5,s5,-809 # 8000147f <test_memory+0x17f>
    800007b0:	06c00113          	li	sp,108
    800007b4:	00001317          	auipc	t1,0x1
    800007b8:	a6b30313          	addi	t1,t1,-1429 # 8000121f <reg_x3_output+0x7>
    800007bc:	c3200d13          	li	s10,-974
    800007c0:	013c8fb3          	add	t6,s9,s3
    800007c4:	0231d2bb          	divuw	t0,gp,gp
    800007c8:	4ec00b93          	li	s7,1260
    800007cc:	1c300813          	li	a6,451
    800007d0:	00001997          	auipc	s3,0x1
    800007d4:	d3898993          	addi	s3,s3,-712 # 80001508 <test_memory+0x208>
    800007d8:	98c18893          	addi	a7,gp,-1652 # 8000189c <_end+0x18c>
    800007dc:	03ad5e3b          	divuw	t3,s10,s10
    800007e0:	0371023b          	mulw	tp,sp,s7
    800007e4:	00000697          	auipc	a3,0x0
    800007e8:	7dd68693          	addi	a3,a3,2013 # 80000fc1 <test_end+0x6a9>
    800007ec:	030e793b          	remuw	s2,t3,a6
    800007f0:	47132c03          	lw	s8,1137(t1)
    800007f4:	0222c0b3          	div	ra,t0,sp
    800007f8:	0eb38ea3          	sb	a1,253(t2)
    800007fc:	0231ea3b          	remw	s4,gp,gp
    80000800:	00000797          	auipc	a5,0x0
    80000804:	65d78793          	addi	a5,a5,1629 # 80000e5d <test_end+0x545>
    80000808:	ce88b623          	sd	s0,-788(a7)
    8000080c:	00001b17          	auipc	s6,0x1
    80000810:	fd1b0b13          	addi	s6,s6,-47 # 800017dd <_end+0xcd>
    80000814:	00000e97          	auipc	t4,0x0
    80000818:	71fe8e93          	addi	t4,t4,1823 # 80000f33 <test_end+0x61b>
    8000081c:	b1100f13          	li	t5,-1263
    80000820:	698e8583          	lb	a1,1688(t4)
    80000824:	56c80193          	addi	gp,a6,1388
    80000828:	1dc9e703          	lwu	a4,476(s3)
    8000082c:	1b1ad503          	lhu	a0,433(s5)
    80000830:	70b6afa3          	sw	a1,1823(a3)
    80000834:	6cb00493          	li	s1,1739
    80000838:	03734c3b          	divw	s8,t1,s7
    8000083c:	a2718513          	addi	a0,gp,-1497 # 80001937 <_end+0x227>
    80000840:	efef0d93          	addi	s11,t5,-258
    80000844:	00100113          	li	sp,1
    80000848:	0294b433          	mulhu	s0,s1,s1
    8000084c:	03f11113          	slli	sp,sp,0x3f
    80000850:	00000397          	auipc	t2,0x0
    80000854:	7db38393          	addi	t2,t2,2011 # 8000102b <tohost+0x2b>
    80000858:	0016529b          	srliw	t0,a2,0x1
    8000085c:	57d3e883          	lwu	a7,1405(t2)
    80000860:	b7551a83          	lh	s5,-1163(a0)
    80000864:	fff00593          	li	a1,-1
    80000868:	0025c5b3          	xor	a1,a1,sp
    8000086c:	08001c63          	bnez	zero,80000904 <crash_forward>
    80000870:	00b670b3          	and	ra,a2,a1
    80000874:	5317cc83          	lbu	s9,1329(a5)
    80000878:	0020ea33          	or	s4,ra,sp
    8000087c:	ba0b0923          	sb	zero,-1102(s6)
    80000880:	0040006f          	j	80000884 <reg_dump>

0000000080000884 <reg_dump>:
    80000884:	00001097          	auipc	ra,0x1
    80000888:	e7c08093          	addi	ra,ra,-388 # 80001700 <loop_count>
    8000088c:	0000a103          	lw	sp,0(ra)
    80000890:	fff10193          	addi	gp,sp,-1
    80000894:	0030a023          	sw	gp,0(ra)
    80000898:	900118e3          	bnez	sp,800001a8 <pseg_0>
    8000089c:	00001097          	auipc	ra,0x1
    800008a0:	96408093          	addi	ra,ra,-1692 # 80001200 <begin_signature>
    800008a4:	0000b023          	sd	zero,0(ra)
    800008a8:	0020b823          	sd	sp,16(ra)
    800008ac:	0030bc23          	sd	gp,24(ra)
    800008b0:	0240b023          	sd	tp,32(ra)
    800008b4:	0250b423          	sd	t0,40(ra)
    800008b8:	0480b023          	sd	s0,64(ra)
    800008bc:	0490b423          	sd	s1,72(ra)
    800008c0:	04b0bc23          	sd	a1,88(ra)
    800008c4:	06c0b023          	sd	a2,96(ra)
    800008c8:	06e0b823          	sd	a4,112(ra)
    800008cc:	0900b023          	sd	a6,128(ra)
    800008d0:	0910b423          	sd	a7,136(ra)
    800008d4:	0920b823          	sd	s2,144(ra)
    800008d8:	0b40b023          	sd	s4,160(ra)
    800008dc:	0b50b423          	sd	s5,168(ra)
    800008e0:	0b70bc23          	sd	s7,184(ra)
    800008e4:	0d80b023          	sd	s8,192(ra)
    800008e8:	0d90b423          	sd	s9,200(ra)
    800008ec:	0da0b823          	sd	s10,208(ra)
    800008f0:	0db0bc23          	sd	s11,216(ra)
    800008f4:	0fc0b023          	sd	t3,224(ra)
    800008f8:	0fe0b823          	sd	t5,240(ra)
    800008fc:	0ff0bc23          	sd	t6,248(ra)
    80000900:	0180006f          	j	80000918 <test_end>

0000000080000904 <crash_forward>:
    80000904:	0ff0000f          	fence
    80000908:	00018063          	beqz	gp,80000908 <crash_forward+0x4>
    8000090c:	00119193          	slli	gp,gp,0x1
    80000910:	0011e193          	ori	gp,gp,1
    80000914:	00000073          	ecall

0000000080000918 <test_end>:
    80000918:	0ff0000f          	fence
    8000091c:	00100193          	li	gp,1
    80000920:	00000073          	ecall
    80000924:	c0001073          	unimp
	...

Disassembly of section .tohost:

0000000080001000 <tohost>:
	...

0000000080001040 <fromhost>:
	...
