
test.elf:     file format elf64-littleriscv


Disassembly of section .text.init:

0000000080000000 <_start>:
    80000000:	0580006f          	j	80000058 <reset_vector>

0000000080000004 <trap_vector>:
    80000004:	34202f73          	csrr	t5,mcause
    80000008:	00800f93          	li	t6,8
    8000000c:	05ff0063          	beq	t5,t6,8000004c <write_tohost>
    80000010:	00900f93          	li	t6,9
    80000014:	03ff0c63          	beq	t5,t6,8000004c <write_tohost>
    80000018:	00b00f93          	li	t6,11
    8000001c:	03ff0863          	beq	t5,t6,8000004c <write_tohost>
    80000020:	00000f13          	li	t5,0
    80000024:	000f0463          	beqz	t5,8000002c <trap_vector+0x28>
    80000028:	000f0067          	jr	t5
    8000002c:	34202f73          	csrr	t5,mcause
    80000030:	000f5463          	bgez	t5,80000038 <handle_exception>
    80000034:	0140006f          	j	80000048 <other_exception>

0000000080000038 <handle_exception>:
    80000038:	34102e73          	csrr	t3,mepc
    8000003c:	004e0e13          	addi	t3,t3,4
    80000040:	341e1073          	csrw	mepc,t3
    80000044:	30200073          	mret

0000000080000048 <other_exception>:
    80000048:	5391e193          	ori	gp,gp,1337

000000008000004c <write_tohost>:
    8000004c:	00001f17          	auipc	t5,0x1
    80000050:	fa3f2a23          	sw	gp,-76(t5) # 80001000 <tohost>
    80000054:	ff9ff06f          	j	8000004c <write_tohost>

0000000080000058 <reset_vector>:
    80000058:	f1402573          	csrr	a0,mhartid
    8000005c:	00051063          	bnez	a0,8000005c <reset_vector+0x4>
    80000060:	00000297          	auipc	t0,0x0
    80000064:	01028293          	addi	t0,t0,16 # 80000070 <reset_vector+0x18>
    80000068:	30529073          	csrw	mtvec,t0
    8000006c:	18005073          	csrwi	satp,0
    80000070:	00000297          	auipc	t0,0x0
    80000074:	01c28293          	addi	t0,t0,28 # 8000008c <reset_vector+0x34>
    80000078:	30529073          	csrw	mtvec,t0
    8000007c:	fff00293          	li	t0,-1
    80000080:	3b029073          	csrw	pmpaddr0,t0
    80000084:	01f00293          	li	t0,31
    80000088:	3a029073          	csrw	pmpcfg0,t0
    8000008c:	00000297          	auipc	t0,0x0
    80000090:	01828293          	addi	t0,t0,24 # 800000a4 <reset_vector+0x4c>
    80000094:	30529073          	csrw	mtvec,t0
    80000098:	30205073          	csrwi	medeleg,0
    8000009c:	30305073          	csrwi	mideleg,0
    800000a0:	30405073          	csrwi	mie,0
    800000a4:	00000193          	li	gp,0
    800000a8:	00000297          	auipc	t0,0x0
    800000ac:	f5c28293          	addi	t0,t0,-164 # 80000004 <trap_vector>
    800000b0:	30529073          	csrw	mtvec,t0
    800000b4:	00100513          	li	a0,1
    800000b8:	01f51513          	slli	a0,a0,0x1f
    800000bc:	00055863          	bgez	a0,800000cc <reset_vector+0x74>
    800000c0:	0ff0000f          	fence
    800000c4:	00100193          	li	gp,1
    800000c8:	00000073          	ecall
    800000cc:	00000293          	li	t0,0
    800000d0:	00028e63          	beqz	t0,800000ec <reset_vector+0x94>
    800000d4:	10529073          	csrw	stvec,t0
    800000d8:	0000b2b7          	lui	t0,0xb
    800000dc:	1092829b          	addiw	t0,t0,265
    800000e0:	30229073          	csrw	medeleg,t0
    800000e4:	30202373          	csrr	t1,medeleg
    800000e8:	f66290e3          	bne	t0,t1,80000048 <other_exception>
    800000ec:	30005073          	csrwi	mstatus,0
    800000f0:	00000297          	auipc	t0,0x0
    800000f4:	01428293          	addi	t0,t0,20 # 80000104 <reset_vector+0xac>
    800000f8:	34129073          	csrw	mepc,t0
    800000fc:	f1402573          	csrr	a0,mhartid
    80000100:	30200073          	mret
    80000104:	0180006f          	j	8000011c <test_start>

0000000080000108 <crash_backward>:
    80000108:	0ff0000f          	fence
    8000010c:	00018063          	beqz	gp,8000010c <crash_backward+0x4>
    80000110:	00119193          	slli	gp,gp,0x1
    80000114:	0011e193          	ori	gp,gp,1
    80000118:	00000073          	ecall

000000008000011c <test_start>:
    8000011c:	00001f97          	auipc	t6,0x1
    80000120:	fe4f8f93          	addi	t6,t6,-28 # 80001100 <hidden_data>
    80000124:	000fb003          	ld	zero,0(t6)
    80000128:	008fb083          	ld	ra,8(t6)
    8000012c:	010fb103          	ld	sp,16(t6)
    80000130:	018fb183          	ld	gp,24(t6)
    80000134:	020fb203          	ld	tp,32(t6)
    80000138:	028fb283          	ld	t0,40(t6)
    8000013c:	030fb303          	ld	t1,48(t6)
    80000140:	038fb383          	ld	t2,56(t6)
    80000144:	040fb403          	ld	s0,64(t6)
    80000148:	048fb483          	ld	s1,72(t6)
    8000014c:	050fb503          	ld	a0,80(t6)
    80000150:	058fb583          	ld	a1,88(t6)
    80000154:	060fb603          	ld	a2,96(t6)
    80000158:	068fb683          	ld	a3,104(t6)
    8000015c:	070fb703          	ld	a4,112(t6)
    80000160:	078fb783          	ld	a5,120(t6)
    80000164:	080fb803          	ld	a6,128(t6)
    80000168:	088fb883          	ld	a7,136(t6)
    8000016c:	090fb903          	ld	s2,144(t6)
    80000170:	098fb983          	ld	s3,152(t6)
    80000174:	0a0fba03          	ld	s4,160(t6)
    80000178:	0a8fba83          	ld	s5,168(t6)
    8000017c:	0b0fbb03          	ld	s6,176(t6)
    80000180:	0b8fbb83          	ld	s7,184(t6)
    80000184:	0c0fbc03          	ld	s8,192(t6)
    80000188:	0c8fbc83          	ld	s9,200(t6)
    8000018c:	0d0fbd03          	ld	s10,208(t6)
    80000190:	0d8fbd83          	ld	s11,216(t6)
    80000194:	0e0fbe03          	ld	t3,224(t6)
    80000198:	0e8fbe83          	ld	t4,232(t6)
    8000019c:	0f0fbf03          	ld	t5,240(t6)
    800001a0:	0f8fbf83          	ld	t6,248(t6)
    800001a4:	0040006f          	j	800001a8 <pseg_0>

00000000800001a8 <pseg_0>:
    800001a8:	00001c17          	auipc	s8,0x1
    800001ac:	e95c0c13          	addi	s8,s8,-363 # 8000103d <tohost+0x3d>
    800001b0:	54fc23a3          	sw	a5,1351(s8)
    800001b4:	80000d13          	li	s10,-2048
    800001b8:	04600693          	li	a3,70
    800001bc:	0339db33          	divu	s6,s3,s3
    800001c0:	99e00a13          	li	s4,-1634
    800001c4:	00d687b3          	add	a5,a3,a3
    800001c8:	e6d00093          	li	ra,-403
    800001cc:	d0e00393          	li	t2,-754
    800001d0:	0073843b          	addw	s0,t2,t2
    800001d4:	418c52b3          	sra	t0,s8,s8
    800001d8:	b5118a93          	addi	s5,gp,-1199 # 80001a61 <_end+0x351>
    800001dc:	79900713          	li	a4,1945
    800001e0:	bfdad883          	lhu	a7,-1027(s5)
    800001e4:	f21092e3          	bne	ra,ra,80000108 <crash_backward>
    800001e8:	964bf613          	andi	a2,s7,-1692
    800001ec:	00100513          	li	a0,1
    800001f0:	97c00313          	li	t1,-1668
    800001f4:	02e385b3          	mul	a1,t2,a4
    800001f8:	401d04b3          	sub	s1,s10,ra
    800001fc:	414a09bb          	subw	s3,s4,s4
    80000200:	00100e13          	li	t3,1
    80000204:	a7f00113          	li	sp,-1409
    80000208:	03f51513          	slli	a0,a0,0x3f
    8000020c:	00e8023b          	addw	tp,a6,a4
    80000210:	02216db3          	rem	s11,sp,sp
    80000214:	03fe1e13          	slli	t3,t3,0x3f
    80000218:	fff00c93          	li	s9,-1
    8000021c:	01ccccb3          	xor	s9,s9,t3
    80000220:	a0d00913          	li	s2,-1523
    80000224:	019d7f33          	and	t5,s10,s9
    80000228:	01233fb3          	sltu	t6,t1,s2
    8000022c:	01cd6eb3          	or	t4,s10,t3
    80000230:	79df4863          	blt	t5,t4,800009c0 <crash_forward>
    80000234:	fff00193          	li	gp,-1
    80000238:	00a1c1b3          	xor	gp,gp,a0
    8000023c:	00327bb3          	and	s7,tp,gp
    80000240:	00abe833          	or	a6,s7,a0
    80000244:	77786e63          	bltu	a6,s7,800009c0 <crash_forward>
    80000248:	00001197          	auipc	gp,0x1
    8000024c:	5bd18193          	addi	gp,gp,1469 # 80001805 <_end+0xf5>
    80000250:	c831df83          	lhu	t6,-893(gp) # 80001b93 <_end+0x483>
    80000254:	0231bc33          	mulhu	s8,gp,gp
    80000258:	cbf18b93          	addi	s7,gp,-833 # 80001bcf <_end+0x4bf>
    8000025c:	a5b00a93          	li	s5,-1445
    80000260:	0329e5bb          	remw	a1,s3,s2
    80000264:	00001f97          	auipc	t6,0x1
    80000268:	34af8f93          	addi	t6,t6,842 # 800015ae <test_memory+0x2ae>
    8000026c:	d5200e13          	li	t3,-686
    80000270:	14ff8503          	lb	a0,335(t6)
    80000274:	00000793          	li	a5,0
    80000278:	65f00e93          	li	t4,1631
    8000027c:	7b800a13          	li	s4,1976
    80000280:	ad7b9103          	lh	sp,-1321(s7)
    80000284:	45600d93          	li	s11,1110
    80000288:	00001417          	auipc	s0,0x1
    8000028c:	ca840413          	addi	s0,s0,-856 # 80000f30 <test_end+0x55c>
    80000290:	40042803          	lw	a6,1024(s0)
    80000294:	97300893          	li	a7,-1677
    80000298:	00b736b3          	sltu	a3,a4,a1
    8000029c:	40005133          	sra	sp,zero,zero
    800002a0:	00000d13          	li	s10,0
    800002a4:	415a8733          	sub	a4,s5,s5
    800002a8:	014a60b3          	or	ra,s4,s4
    800002ac:	b4700813          	li	a6,-1209
    800002b0:	01dec633          	xor	a2,t4,t4
    800002b4:	03bde3b3          	rem	t2,s11,s11
    800002b8:	00100b13          	li	s6,1
    800002bc:	03083fb3          	mulhu	t6,a6,a6
    800002c0:	8d000193          	li	gp,-1840
    800002c4:	017455b3          	srl	a1,s0,s7
    800002c8:	03fb1b13          	slli	s6,s6,0x3f
    800002cc:	8a788c93          	addi	s9,a7,-1881
    800002d0:	adb00113          	li	sp,-1317
    800002d4:	ad218c13          	addi	s8,gp,-1326 # 800019e2 <_end+0x2d2>
    800002d8:	fff00293          	li	t0,-1
    800002dc:	00100713          	li	a4,1
    800002e0:	0162c2b3          	xor	t0,t0,s6
    800002e4:	005c74b3          	and	s1,s8,t0
    800002e8:	40c3d63b          	sraw	a2,t2,a2
    800002ec:	00001f97          	auipc	t6,0x1
    800002f0:	ed4f8f93          	addi	t6,t6,-300 # 800011c0 <reg_x24_init>
    800002f4:	6da7e663          	bltu	a5,s10,800009c0 <crash_forward>
    800002f8:	afa00693          	li	a3,-1286
    800002fc:	00001a97          	auipc	s5,0x1
    80000300:	fb9a8a93          	addi	s5,s5,-71 # 800012b5 <reg_x22_output+0x5>
    80000304:	e1518313          	addi	t1,gp,-491 # 80001d25 <_end+0x615>
    80000308:	a0918093          	addi	ra,gp,-1527 # 80001919 <_end+0x209>
    8000030c:	0164e233          	or	tp,s1,s6
    80000310:	03f71713          	slli	a4,a4,0x3f
    80000314:	7f600f13          	li	t5,2038
    80000318:	84736983          	lwu	s3,-1977(t1)
    8000031c:	3d9f8403          	lb	s0,985(t6)
    80000320:	fff00d93          	li	s11,-1
    80000324:	7ad00b93          	li	s7,1965
    80000328:	32da94a3          	sh	a3,809(s5)
    8000032c:	d5d08e83          	lb	t4,-675(ra)
    80000330:	0b500f93          	li	t6,181
    80000334:	00100313          	li	t1,1
    80000338:	faf00a93          	li	s5,-81
    8000033c:	0376e53b          	remw	a0,a3,s7
    80000340:	03ee593b          	divuw	s2,t3,t5
    80000344:	00db7233          	and	tp,s6,a3
    80000348:	015fd433          	srl	s0,t6,s5
    8000034c:	03f31313          	slli	t1,t1,0x3f
    80000350:	00088d13          	mv	s10,a7
    80000354:	9e518513          	addi	a0,gp,-1563 # 800018f5 <_end+0x1e5>
    80000358:	02217833          	remu	a6,sp,sp
    8000035c:	00edcdb3          	xor	s11,s11,a4
    80000360:	01b77a33          	and	s4,a4,s11
    80000364:	97018b93          	addi	s7,gp,-1680 # 80001880 <_end+0x170>
    80000368:	00001297          	auipc	t0,0x1
    8000036c:	9fe28293          	addi	t0,t0,-1538 # 80000d66 <test_end+0x392>
    80000370:	69a2a483          	lw	s1,1690(t0)
    80000374:	00ea63b3          	or	t2,s4,a4
    80000378:	00005ebb          	srlw	t4,zero,zero
    8000037c:	d87a76e3          	bgeu	s4,t2,80000108 <crash_backward>
    80000380:	651cf063          	bgeu	s9,a7,800009c0 <crash_forward>
    80000384:	cdebb023          	sd	t5,-832(s7)
    80000388:	000d0c13          	mv	s8,s10
    8000038c:	c4d55683          	lhu	a3,-947(a0)
    80000390:	fff00193          	li	gp,-1
    80000394:	0061c1b3          	xor	gp,gp,t1
    80000398:	82000613          	li	a2,-2016
    8000039c:	003777b3          	and	a5,a4,gp
    800003a0:	af200093          	li	ra,-1294
    800003a4:	4010d5b3          	sra	a1,ra,ra
    800003a8:	02c63b33          	mulhu	s6,a2,a2
    800003ac:	0060e9b3          	or	s3,ra,t1
    800003b0:	01a73933          	sltu	s2,a4,s10
    800003b4:	00001297          	auipc	t0,0x1
    800003b8:	a9028293          	addi	t0,t0,-1392 # 80000e44 <test_end+0x470>
    800003bc:	74d00793          	li	a5,1869
    800003c0:	e3745ab7          	lui	s5,0xe3745
    800003c4:	da518913          	addi	s2,gp,-603 # 80001cb5 <_end+0x5a5>
    800003c8:	00001517          	auipc	a0,0x1
    800003cc:	ecb50513          	addi	a0,a0,-309 # 80001293 <reg_x18_output+0x3>
    800003d0:	02635a3b          	divuw	s4,t1,t1
    800003d4:	19650703          	lb	a4,406(a0)
    800003d8:	015aa433          	slt	s0,s5,s5
    800003dc:	41a40133          	sub	sp,s0,s10
    800003e0:	0210e633          	rem	a2,ra,ra
    800003e4:	023f4233          	div	tp,t5,gp
    800003e8:	00c60833          	add	a6,a2,a2
    800003ec:	00001f97          	auipc	t6,0x1
    800003f0:	997f8f93          	addi	t6,t6,-1641 # 80000d83 <test_end+0x3af>
    800003f4:	00100d93          	li	s11,1
    800003f8:	81393da3          	sd	s3,-2021(s2)
    800003fc:	00100693          	li	a3,1
    80000400:	03f69693          	slli	a3,a3,0x3f
    80000404:	03fd9d93          	slli	s11,s11,0x3f
    80000408:	00001217          	auipc	tp,0x1
    8000040c:	e0a20213          	addi	tp,tp,-502 # 80001212 <reg_x2_output+0x2>
    80000410:	fff00993          	li	s3,-1
    80000414:	00001417          	auipc	s0,0x1
    80000418:	30040413          	addi	s0,s0,768 # 80001714 <_end+0x4>
    8000041c:	c0500193          	li	gp,-1019
    80000420:	fff00f13          	li	t5,-1
    80000424:	38500613          	li	a2,901
    80000428:	00df4f33          	xor	t5,t5,a3
    8000042c:	02e7ea3b          	remw	s4,a5,a4
    80000430:	02f7f333          	remu	t1,a5,a5
    80000434:	01e4fc33          	and	s8,s1,t5
    80000438:	00dfe8b3          	or	a7,t6,a3
    8000043c:	6b900913          	li	s2,1721
    80000440:	d7c45503          	lhu	a0,-644(s0)
    80000444:	00c64733          	xor	a4,a2,a2
    80000448:	ac418e93          	addi	t4,gp,-1340 # 800019d4 <_end+0x2c4>
    8000044c:	00001497          	auipc	s1,0x1
    80000450:	b7248493          	addi	s1,s1,-1166 # 80000fbe <test_end+0x5ea>
    80000454:	00001597          	auipc	a1,0x1
    80000458:	a8d58593          	addi	a1,a1,-1395 # 80000ee1 <test_end+0x50d>
    8000045c:	64df90a3          	sh	a3,1601(t6)
    80000460:	4129013b          	subw	sp,s2,s2
    80000464:	b1d18813          	addi	a6,gp,-1251 # 80001a2d <_end+0x31d>
    80000468:	4b24bb03          	ld	s6,1202(s1)
    8000046c:	01b9c9b3          	xor	s3,s3,s11
    80000470:	17300093          	li	ra,371
    80000474:	bc783da3          	sd	t2,-1061(a6)
    80000478:	6b808b93          	addi	s7,ra,1720
    8000047c:	3f623a83          	ld	s5,1014(tp) # 3f6 <_start-0x7ffffc0a>
    80000480:	013673b3          	and	t2,a2,s3
    80000484:	5370de63          	bge	ra,s7,800009c0 <crash_forward>
    80000488:	6635afa3          	sw	gp,1663(a1)
    8000048c:	7202ec83          	lwu	s9,1824(t0)
    80000490:	01b3ee33          	or	t3,t2,s11
    80000494:	4073db3b          	sraw	s6,t2,t2
    80000498:	00001597          	auipc	a1,0x1
    8000049c:	96b58593          	addi	a1,a1,-1685 # 80000e03 <test_end+0x42f>
    800004a0:	51f00393          	li	t2,1311
    800004a4:	6d35d883          	lhu	a7,1747(a1)
    800004a8:	02c67d3b          	remuw	s10,a2,a2
    800004ac:	03291533          	mulh	a0,s2,s2
    800004b0:	00000317          	auipc	t1,0x0
    800004b4:	7d930313          	addi	t1,t1,2009 # 80000c89 <test_end+0x2b5>
    800004b8:	a88b14b7          	lui	s1,0xa88b1
    800004bc:	00100f93          	li	t6,1
    800004c0:	00100793          	li	a5,1
    800004c4:	03ff9f93          	slli	t6,t6,0x3f
    800004c8:	68838f13          	addi	t5,t2,1672
    800004cc:	c3e3fee3          	bgeu	t2,t5,80000108 <crash_backward>
    800004d0:	00001217          	auipc	tp,0x1
    800004d4:	10f20213          	addi	tp,tp,271 # 800015df <test_memory+0x2df>
    800004d8:	760327a3          	sw	zero,1903(t1)
    800004dc:	03f79793          	slli	a5,a5,0x3f
    800004e0:	0108b633          	sltu	a2,a7,a6
    800004e4:	00100513          	li	a0,1
    800004e8:	022144bb          	divw	s1,sp,sp
    800004ec:	00068713          	mv	a4,a3
    800004f0:	00001417          	auipc	s0,0x1
    800004f4:	c1240413          	addi	s0,s0,-1006 # 80001102 <hidden_data+0x2>
    800004f8:	fb720023          	sb	s7,-96(tp) # ffffffffffffffa0 <__global_pointer$+0xffffffff7fffe090>
    800004fc:	00108abb          	addw	s5,ra,ra
    80000500:	000c0913          	mv	s2,s8
    80000504:	00090813          	mv	a6,s2
    80000508:	00070d93          	mv	s11,a4
    8000050c:	03f51513          	slli	a0,a0,0x3f
    80000510:	f3518213          	addi	tp,gp,-203 # 80001e45 <_end+0x735>
    80000514:	fff00593          	li	a1,-1
    80000518:	51c00393          	li	t2,1308
    8000051c:	00a5c5b3          	xor	a1,a1,a0
    80000520:	0175d693          	srli	a3,a1,0x17
    80000524:	88323903          	ld	s2,-1917(tp) # fffffffffffff883 <__global_pointer$+0xffffffff7fffd973>
    80000528:	ea318293          	addi	t0,gp,-349 # 80001db3 <_end+0x6a3>
    8000052c:	00100f13          	li	t5,1
    80000530:	c9d18313          	addi	t1,gp,-867 # 80001bad <_end+0x49d>
    80000534:	bdb76ae3          	bltu	a4,s11,80000108 <crash_backward>
    80000538:	fff00a13          	li	s4,-1
    8000053c:	50140983          	lb	s3,1281(s0)
    80000540:	883286a3          	sb	gp,-1907(t0)
    80000544:	0073f633          	and	a2,t2,t2
    80000548:	fff00093          	li	ra,-1
    8000054c:	51716b93          	ori	s7,sp,1303
    80000550:	00fa4a33          	xor	s4,s4,a5
    80000554:	a21331a3          	sd	ra,-1501(t1)
    80000558:	00bf7b33          	and	s6,t5,a1
    8000055c:	01f0c0b3          	xor	ra,ra,t6
    80000560:	c4000e13          	li	t3,-960
    80000564:	03ff1f13          	slli	t5,t5,0x3f
    80000568:	0019feb3          	and	t4,s3,ra
    8000056c:	01f6e133          	or	sp,a3,t6
    80000570:	014ffc33          	and	s8,t6,s4
    80000574:	fff00893          	li	a7,-1
    80000578:	01e8c8b3          	xor	a7,a7,t5
    8000057c:	00ab6d33          	or	s10,s6,a0
    80000580:	b5ce0193          	addi	gp,t3,-1188
    80000584:	43c1fe63          	bgeu	gp,t3,800009c0 <crash_forward>
    80000588:	00fc6cb3          	or	s9,s8,a5
    8000058c:	011874b3          	and	s1,a6,a7
    80000590:	08100b13          	li	s6,129
    80000594:	00001297          	auipc	t0,0x1
    80000598:	f7728293          	addi	t0,t0,-137 # 8000150b <test_memory+0x20b>
    8000059c:	016b2bb3          	slt	s7,s6,s6
    800005a0:	79700593          	li	a1,1943
    800005a4:	2e900d93          	li	s11,745
    800005a8:	79800193          	li	gp,1944
    800005ac:	41085633          	sra	a2,a6,a6
    800005b0:	90600713          	li	a4,-1786
    800005b4:	eb900393          	li	t2,-327
    800005b8:	01b586b3          	add	a3,a1,s11
    800005bc:	01e4eab3          	or	s5,s1,t5
    800005c0:	01da143b          	sllw	s0,s4,t4
    800005c4:	b42e82e3          	beq	t4,sp,80000108 <crash_backward>
    800005c8:	00e74933          	xor	s2,a4,a4
    800005cc:	0052b983          	ld	s3,5(t0)
    800005d0:	00000d13          	li	s10,0
    800005d4:	17200613          	li	a2,370
    800005d8:	00001917          	auipc	s2,0x1
    800005dc:	0d190913          	addi	s2,s2,209 # 800016a9 <test_memory+0x3a9>
    800005e0:	00001c97          	auipc	s9,0x1
    800005e4:	0ebc8c93          	addi	s9,s9,235 # 800016cb <test_memory+0x3cb>
    800005e8:	d6195e83          	lhu	t4,-671(s2)
    800005ec:	c5a00d93          	li	s11,-934
    800005f0:	7c000b13          	li	s6,1984
    800005f4:	41660bb3          	sub	s7,a2,s6
    800005f8:	02719533          	mulh	a0,gp,t2
    800005fc:	e7600213          	li	tp,-394
    80000600:	00001c17          	auipc	s8,0x1
    80000604:	820c0c13          	addi	s8,s8,-2016 # 80000e20 <test_end+0x44c>
    80000608:	7ab00093          	li	ra,1963
    8000060c:	0073f7b3          	and	a5,t2,t2
    80000610:	02109a33          	mulh	s4,ra,ra
    80000614:	00000313          	li	t1,0
    80000618:	5da00293          	li	t0,1498
    8000061c:	00001697          	auipc	a3,0x1
    80000620:	dfe68693          	addi	a3,a3,-514 # 8000141a <test_memory+0x11a>
    80000624:	518c4703          	lbu	a4,1304(s8)
    80000628:	40528133          	sub	sp,t0,t0
    8000062c:	3954ca63          	blt	s1,s5,800009c0 <crash_forward>
    80000630:	3ee00e13          	li	t3,1006
    80000634:	386d4663          	blt	s10,t1,800009c0 <crash_forward>
    80000638:	f306a123          	sw	a6,-222(a3)
    8000063c:	01bd85b3          	add	a1,s11,s11
    80000640:	01c25833          	srl	a6,tp,t3
    80000644:	d3bcaea3          	sw	s11,-707(s9)
    80000648:	6f2a2413          	slti	s0,s4,1778
    8000064c:	00001997          	auipc	s3,0x1
    80000650:	06398993          	addi	s3,s3,99 # 800016af <test_memory+0x3af>
    80000654:	d659cf83          	lbu	t6,-667(s3)
    80000658:	6e900493          	li	s1,1769
    8000065c:	f7300a13          	li	s4,-141
    80000660:	11900293          	li	t0,281
    80000664:	00001697          	auipc	a3,0x1
    80000668:	cc868693          	addi	a3,a3,-824 # 8000132c <test_memory+0x2c>
    8000066c:	0079ddbb          	srlw	s11,s3,t2
    80000670:	30000593          	li	a1,768
    80000674:	4c288193          	addi	gp,a7,1218
    80000678:	02b58b33          	mul	s6,a1,a1
    8000067c:	81400c93          	li	s9,-2028
    80000680:	03c147bb          	divw	a5,sp,t3
    80000684:	00001617          	auipc	a2,0x1
    80000688:	87f60613          	addi	a2,a2,-1921 # 80000f03 <test_end+0x52f>
    8000068c:	0294d53b          	divuw	a0,s1,s1
    80000690:	039a09b3          	mul	s3,s4,s9
    80000694:	01db9f1b          	slliw	t5,s7,0x1d
    80000698:	a9618e13          	addi	t3,gp,-1386 # 800019a6 <_end+0x296>
    8000069c:	e6000813          	li	a6,-416
    800006a0:	34c6b303          	ld	t1,844(a3)
    800006a4:	7af65a83          	lhu	s5,1967(a2)
    800006a8:	8f66ee93          	ori	t4,a3,-1802
    800006ac:	000a8b93          	mv	s7,s5
    800006b0:	00001097          	auipc	ra,0x1
    800006b4:	e3608093          	addi	ra,ra,-458 # 800014e6 <test_memory+0x1e6>
    800006b8:	02216433          	rem	s0,sp,sp
    800006bc:	03f0b523          	sd	t6,42(ra)
    800006c0:	00000917          	auipc	s2,0x0
    800006c4:	7df90913          	addi	s2,s2,2015 # 80000e9f <test_end+0x4cb>
    800006c8:	030298b3          	mulh	a7,t0,a6
    800006cc:	50196703          	lwu	a4,1281(s2)
    800006d0:	408453bb          	sraw	t2,s0,s0
    800006d4:	000b8c13          	mv	s8,s7
    800006d8:	2eb5c463          	blt	a1,a1,800009c0 <crash_forward>
    800006dc:	d03e0f83          	lb	t6,-765(t3)
    800006e0:	07900c93          	li	s9,121
    800006e4:	98200113          	li	sp,-1662
    800006e8:	b6452093          	slti	ra,a0,-1180
    800006ec:	26a00293          	li	t0,618
    800006f0:	af500913          	li	s2,-1291
    800006f4:	f1700e13          	li	t3,-233
    800006f8:	2cf00593          	li	a1,719
    800006fc:	8a590993          	addi	s3,s2,-1883
    80000700:	0221723b          	remuw	tp,sp,sp
    80000704:	005ca7b3          	slt	a5,s9,t0
    80000708:	03ce3a33          	mulhu	s4,t3,t3
    8000070c:	e3c18f13          	addi	t5,gp,-452 # 80001d4c <_end+0x63c>
    80000710:	50500813          	li	a6,1285
    80000714:	2b8be663          	bltu	s7,s8,800009c0 <crash_forward>
    80000718:	2b396463          	bltu	s2,s3,800009c0 <crash_forward>
    8000071c:	c7d00c13          	li	s8,-899
    80000720:	00001917          	auipc	s2,0x1
    80000724:	c6a90913          	addi	s2,s2,-918 # 8000138a <test_memory+0x8a>
    80000728:	02215ebb          	divuw	t4,sp,sp
    8000072c:	02424cbb          	divw	s9,tp,tp
    80000730:	f0d00293          	li	t0,-243
    80000734:	00001e97          	auipc	t4,0x1
    80000738:	ea6e8e93          	addi	t4,t4,-346 # 800015da <test_memory+0x2da>
    8000073c:	04bec103          	lbu	sp,75(t4)
    80000740:	21300893          	li	a7,531
    80000744:	018c60b3          	or	ra,s8,s8
    80000748:	24494983          	lbu	s3,580(s2)
    8000074c:	00000f97          	auipc	t6,0x0
    80000750:	7d1f8f93          	addi	t6,t6,2001 # 80000f1d <test_end+0x549>
    80000754:	00528bb3          	add	s7,t0,t0
    80000758:	f4800113          	li	sp,-184
    8000075c:	e9c18713          	addi	a4,gp,-356 # 80001dac <_end+0x69c>
    80000760:	93a74183          	lbu	gp,-1734(a4)
    80000764:	851f0d03          	lb	s10,-1967(t5)
    80000768:	0143de33          	srl	t3,t2,s4
    8000076c:	e1010e93          	addi	t4,sp,-496
    80000770:	99d16ce3          	bltu	sp,t4,80000108 <crash_backward>
    80000774:	82100213          	li	tp,-2015
    80000778:	00100b13          	li	s6,1
    8000077c:	03fb1b13          	slli	s6,s6,0x3f
    80000780:	a4818f13          	addi	t5,gp,-1464 # 80001958 <_end+0x248>
    80000784:	403a5133          	sra	sp,s4,gp
    80000788:	97500b93          	li	s7,-1675
    8000078c:	0042c7b3          	xor	a5,t0,tp
    80000790:	1a988a93          	addi	s5,a7,425
    80000794:	48ff8383          	lb	t2,1167(t6)
    80000798:	97bb8c93          	addi	s9,s7,-1669
    8000079c:	3f900693          	li	a3,1017
    800007a0:	fff00d93          	li	s11,-1
    800007a4:	7ca00993          	li	s3,1994
    800007a8:	01084d33          	xor	s10,a6,a6
    800007ac:	16798913          	addi	s2,s3,359
    800007b0:	d37f2423          	sw	s7,-728(t5)
    800007b4:	02e73d33          	mulhu	s10,a4,a4
    800007b8:	00100393          	li	t2,1
    800007bc:	03f39393          	slli	t2,t2,0x3f
    800007c0:	02d8763b          	remuw	a2,a6,a3
    800007c4:	21a00c93          	li	s9,538
    800007c8:	2ee00793          	li	a5,750
    800007cc:	1f298a63          	beq	s3,s2,800009c0 <crash_forward>
    800007d0:	76000713          	li	a4,1888
    800007d4:	00001097          	auipc	ra,0x1
    800007d8:	e2008093          	addi	ra,ra,-480 # 800015f4 <test_memory+0x2f4>
    800007dc:	034a0f3b          	mulw	t5,s4,s4
    800007e0:	07100e93          	li	t4,113
    800007e4:	03d7c233          	div	tp,a5,t4
    800007e8:	1c94ec63          	bltu	s1,s1,800009c0 <crash_forward>
    800007ec:	00001e17          	auipc	t3,0x1
    800007f0:	a14e0e13          	addi	t3,t3,-1516 # 80001200 <begin_signature>
    800007f4:	4d700513          	li	a0,1239
    800007f8:	00100993          	li	s3,1
    800007fc:	00e74c33          	xor	s8,a4,a4
    80000800:	d8f0ca03          	lbu	s4,-625(ra)
    80000804:	016dcdb3          	xor	s11,s11,s6
    80000808:	d5700e93          	li	t4,-681
    8000080c:	430e1183          	lh	gp,1072(t3)
    80000810:	00100893          	li	a7,1
    80000814:	02a5e4b3          	rem	s1,a1,a0
    80000818:	fff00b93          	li	s7,-1
    8000081c:	8b2e8813          	addi	a6,t4,-1870
    80000820:	87000c13          	li	s8,-1936
    80000824:	02d060bb          	remw	ra,zero,a3
    80000828:	02a95a33          	divu	s4,s2,a0
    8000082c:	018c5733          	srl	a4,s8,s8
    80000830:	01bb7433          	and	s0,s6,s11
    80000834:	673c8f93          	addi	t6,s9,1651
    80000838:	03f99993          	slli	s3,s3,0x3f
    8000083c:	00000697          	auipc	a3,0x0
    80000840:	40d68693          	addi	a3,a3,1037 # 80000c49 <test_end+0x275>
    80000844:	007bcbb3          	xor	s7,s7,t2
    80000848:	7596cf03          	lbu	t5,1881(a3)
    8000084c:	03f89893          	slli	a7,a7,0x3f
    80000850:	fff00913          	li	s2,-1
    80000854:	fff00d13          	li	s10,-1
    80000858:	417bd53b          	sraw	a0,s7,s7
    8000085c:	41a75c1b          	sraiw	s8,a4,0x1a
    80000860:	00001197          	auipc	gp,0x1
    80000864:	bef18193          	addi	gp,gp,-1041 # 8000144f <test_memory+0x14f>
    80000868:	011d4d33          	xor	s10,s10,a7
    8000086c:	01a8f7b3          	and	a5,a7,s10
    80000870:	025496b3          	mulh	a3,s1,t0
    80000874:	01394933          	xor	s2,s2,s3
    80000878:	0177f133          	and	sp,a5,s7
    8000087c:	007ee2b3          	or	t0,t4,t2
    80000880:	7f000093          	li	ra,2032
    80000884:	0120f233          	and	tp,ra,s2
    80000888:	53a00c13          	li	s8,1338
    8000088c:	0117e633          	or	a2,a5,a7
    80000890:	03cd9513          	slli	a0,s11,0x3c
    80000894:	03bdda33          	divu	s4,s11,s11
    80000898:	016b6333          	or	t1,s6,s6
    8000089c:	00001f17          	auipc	t5,0x1
    800008a0:	b66f0f13          	addi	t5,t5,-1178 # 80001402 <test_memory+0x102>
    800008a4:	0137eab3          	or	s5,a5,s3
    800008a8:	00001717          	auipc	a4,0x1
    800008ac:	bfb70713          	addi	a4,a4,-1029 # 800014a3 <test_memory+0x1a3>
    800008b0:	00528533          	add	a0,t0,t0
    800008b4:	f3572c83          	lw	s9,-203(a4)
    800008b8:	00000e17          	auipc	t3,0x0
    800008bc:	5b8e0e13          	addi	t3,t3,1464 # 80000e70 <test_end+0x49c>
    800008c0:	def00693          	li	a3,-529
    800008c4:	84c7c2e3          	blt	a5,a2,80000108 <crash_backward>
    800008c8:	00001397          	auipc	t2,0x1
    800008cc:	d9638393          	addi	t2,t2,-618 # 8000165e <test_memory+0x35e>
    800008d0:	7d500993          	li	s3,2005
    800008d4:	0180dfbb          	srlw	t6,ra,s8
    800008d8:	00000b93          	li	s7,0
    800008dc:	01549293          	slli	t0,s1,0x15
    800008e0:	826474e3          	bgeu	s0,t1,80000108 <crash_backward>
    800008e4:	9c218813          	addi	a6,gp,-1598 # 800018d2 <_end+0x1c2>
    800008e8:	15118483          	lb	s1,337(gp) # 80002061 <__global_pointer$+0x151>
    800008ec:	fee3d903          	lhu	s2,-18(t2)
    800008f0:	ad400513          	li	a0,-1324
    800008f4:	00d68ebb          	addw	t4,a3,a3
    800008f8:	00000a17          	auipc	s4,0x0
    800008fc:	771a0a13          	addi	s4,s4,1905 # 80001069 <fromhost+0x29>
    80000900:	ce384103          	lbu	sp,-797(a6)
    80000904:	753e3423          	sd	s3,1864(t3)
    80000908:	5bfa1ea3          	sh	t6,1469(s4)
    8000090c:	00000317          	auipc	t1,0x0
    80000910:	76d30313          	addi	t1,t1,1901 # 80001079 <fromhost+0x39>
    80000914:	00000213          	li	tp,0
    80000918:	015f83b3          	add	t2,t6,s5
    8000091c:	58000193          	li	gp,1408
    80000920:	1b8f1583          	lh	a1,440(t5)
    80000924:	3d900893          	li	a7,985
    80000928:	00a99ab3          	sll	s5,s3,a0
    8000092c:	0311e633          	rem	a2,gp,a7
    80000930:	5a8333a3          	sd	s0,1447(t1)
    80000934:	0040006f          	j	80000938 <reg_dump>

0000000080000938 <reg_dump>:
    80000938:	00001097          	auipc	ra,0x1
    8000093c:	dc808093          	addi	ra,ra,-568 # 80001700 <loop_count>
    80000940:	0000a103          	lw	sp,0(ra)
    80000944:	fff10193          	addi	gp,sp,-1
    80000948:	0030a023          	sw	gp,0(ra)
    8000094c:	84011ee3          	bnez	sp,800001a8 <pseg_0>
    80000950:	00001097          	auipc	ra,0x1
    80000954:	8b008093          	addi	ra,ra,-1872 # 80001200 <begin_signature>
    80000958:	0000b023          	sd	zero,0(ra)
    8000095c:	0020b823          	sd	sp,16(ra)
    80000960:	0030bc23          	sd	gp,24(ra)
    80000964:	0240b023          	sd	tp,32(ra)
    80000968:	0250b423          	sd	t0,40(ra)
    8000096c:	0270bc23          	sd	t2,56(ra)
    80000970:	0480b023          	sd	s0,64(ra)
    80000974:	0490b423          	sd	s1,72(ra)
    80000978:	04a0b823          	sd	a0,80(ra)
    8000097c:	04b0bc23          	sd	a1,88(ra)
    80000980:	06c0b023          	sd	a2,96(ra)
    80000984:	06d0b423          	sd	a3,104(ra)
    80000988:	06f0bc23          	sd	a5,120(ra)
    8000098c:	0910b423          	sd	a7,136(ra)
    80000990:	0920b823          	sd	s2,144(ra)
    80000994:	0930bc23          	sd	s3,152(ra)
    80000998:	0b50b423          	sd	s5,168(ra)
    8000099c:	0b60b823          	sd	s6,176(ra)
    800009a0:	0b70bc23          	sd	s7,184(ra)
    800009a4:	0d80b023          	sd	s8,192(ra)
    800009a8:	0d90b423          	sd	s9,200(ra)
    800009ac:	0da0b823          	sd	s10,208(ra)
    800009b0:	0db0bc23          	sd	s11,216(ra)
    800009b4:	0fd0b423          	sd	t4,232(ra)
    800009b8:	0ff0bc23          	sd	t6,248(ra)
    800009bc:	0180006f          	j	800009d4 <test_end>

00000000800009c0 <crash_forward>:
    800009c0:	0ff0000f          	fence
    800009c4:	00018063          	beqz	gp,800009c4 <crash_forward+0x4>
    800009c8:	00119193          	slli	gp,gp,0x1
    800009cc:	0011e193          	ori	gp,gp,1
    800009d0:	00000073          	ecall

00000000800009d4 <test_end>:
    800009d4:	0ff0000f          	fence
    800009d8:	00100193          	li	gp,1
    800009dc:	00000073          	ecall
    800009e0:	c0001073          	unimp
	...

Disassembly of section .tohost:

0000000080001000 <tohost>:
	...

0000000080001040 <fromhost>:
	...
