
test.elf:     file format elf64-littleriscv


Disassembly of section .text:

0000000080000000 <_start>:
    80000000:	00001137          	lui	sp,0x1
    80000004:	8001011b          	addiw	sp,sp,-2048
    80000008:	00000097          	auipc	ra,0x0
    8000000c:	17808093          	addi	ra,ra,376 # 80000180 <data>
    80000010:	03300513          	li	a0,51
    80000014:	00a0b023          	sd	a0,0(ra)
    80000018:	002080b3          	add	ra,ra,sp
    8000001c:	07700593          	li	a1,119
    80000020:	00b0b023          	sd	a1,0(ra)
    80000024:	002080b3          	add	ra,ra,sp
    80000028:	0bb00613          	li	a2,187
    8000002c:	00c0b023          	sd	a2,0(ra)
    80000030:	002080b3          	add	ra,ra,sp
    80000034:	0ff00693          	li	a3,255
    80000038:	00d0b023          	sd	a3,0(ra)
    8000003c:	002080b3          	add	ra,ra,sp
    80000040:	06700713          	li	a4,103
    80000044:	00e0b023          	sd	a4,0(ra)
    80000048:	002080b3          	add	ra,ra,sp
    8000004c:	0ef00793          	li	a5,239
    80000050:	00f0b023          	sd	a5,0(ra)
    80000054:	002080b3          	add	ra,ra,sp
    80000058:	00100813          	li	a6,1
    8000005c:	0100b023          	sd	a6,0(ra)
    80000060:	002080b3          	add	ra,ra,sp
    80000064:	02300893          	li	a7,35
    80000068:	0110b023          	sd	a7,0(ra)
    8000006c:	002080b3          	add	ra,ra,sp
    80000070:	04500913          	li	s2,69
    80000074:	0120b023          	sd	s2,0(ra)
    80000078:	002080b3          	add	ra,ra,sp
    8000007c:	07700993          	li	s3,119
    80000080:	0130b023          	sd	s3,0(ra)
    80000084:	002080b3          	add	ra,ra,sp
    80000088:	08900a13          	li	s4,137
    8000008c:	0140b023          	sd	s4,0(ra)
    80000090:	002080b3          	add	ra,ra,sp
    80000094:	0ab00a93          	li	s5,171
    80000098:	0150b023          	sd	s5,0(ra)
    8000009c:	002080b3          	add	ra,ra,sp
    800000a0:	0cd00b13          	li	s6,205
    800000a4:	0160b023          	sd	s6,0(ra)
    800000a8:	002080b3          	add	ra,ra,sp
    800000ac:	0ef00b93          	li	s7,239
    800000b0:	0170b023          	sd	s7,0(ra)
    800000b4:	002080b3          	add	ra,ra,sp
    800000b8:	00200c13          	li	s8,2
    800000bc:	0180b023          	sd	s8,0(ra)
    800000c0:	002080b3          	add	ra,ra,sp
    800000c4:	04600c93          	li	s9,70
    800000c8:	0190b023          	sd	s9,0(ra)
    800000cc:	00000097          	auipc	ra,0x0
    800000d0:	0b408093          	addi	ra,ra,180 # 80000180 <data>
    800000d4:	0000ba03          	ld	s4,0(ra)
    800000d8:	002080b3          	add	ra,ra,sp
    800000dc:	0000ba03          	ld	s4,0(ra)
    800000e0:	002080b3          	add	ra,ra,sp
    800000e4:	0000ba03          	ld	s4,0(ra)
    800000e8:	002080b3          	add	ra,ra,sp
    800000ec:	0000ba03          	ld	s4,0(ra)
    800000f0:	002080b3          	add	ra,ra,sp
    800000f4:	0000ba03          	ld	s4,0(ra)
    800000f8:	002080b3          	add	ra,ra,sp
    800000fc:	0000ba03          	ld	s4,0(ra)
    80000100:	002080b3          	add	ra,ra,sp
    80000104:	0000ba03          	ld	s4,0(ra)
    80000108:	002080b3          	add	ra,ra,sp
    8000010c:	0000ba03          	ld	s4,0(ra)
    80000110:	002080b3          	add	ra,ra,sp
    80000114:	0000ba03          	ld	s4,0(ra)
    80000118:	002080b3          	add	ra,ra,sp
    8000011c:	0000ba03          	ld	s4,0(ra)
    80000120:	002080b3          	add	ra,ra,sp
    80000124:	0000ba03          	ld	s4,0(ra)
    80000128:	002080b3          	add	ra,ra,sp
    8000012c:	0000ba03          	ld	s4,0(ra)
    80000130:	002080b3          	add	ra,ra,sp
    80000134:	0000ba03          	ld	s4,0(ra)
    80000138:	002080b3          	add	ra,ra,sp
    8000013c:	0000ba03          	ld	s4,0(ra)
    80000140:	002080b3          	add	ra,ra,sp
    80000144:	0000ba03          	ld	s4,0(ra)
    80000148:	002080b3          	add	ra,ra,sp
    8000014c:	0000ba03          	ld	s4,0(ra)
    80000150:	002080b3          	add	ra,ra,sp
    80000154:	00000013          	nop
    80000158:	00000013          	nop
    8000015c:	00000013          	nop
    80000160:	00100513          	li	a0,1
    80000164:	000805b7          	lui	a1,0x80
    80000168:	0015859b          	addiw	a1,a1,1
    8000016c:	00c59593          	slli	a1,a1,0xc

0000000080000170 <_finish_loop>:
    80000170:	00a5a023          	sw	a0,0(a1) # 80000 <_start-0x7ff80000>
    80000174:	ffdff06f          	j	80000170 <_finish_loop>
