
test.elf:     file format elf64-littleriscv


Disassembly of section .text.init:

0000000080000000 <_start>:
    80000000:	0580006f          	j	80000058 <reset_vector>

0000000080000004 <trap_vector>:
    80000004:	34202f73          	csrr	t5,mcause
    80000008:	00800f93          	li	t6,8
    8000000c:	05ff0063          	beq	t5,t6,8000004c <write_tohost>
    80000010:	00900f93          	li	t6,9
    80000014:	03ff0c63          	beq	t5,t6,8000004c <write_tohost>
    80000018:	00b00f93          	li	t6,11
    8000001c:	03ff0863          	beq	t5,t6,8000004c <write_tohost>
    80000020:	00000f13          	li	t5,0
    80000024:	000f0463          	beqz	t5,8000002c <trap_vector+0x28>
    80000028:	000f0067          	jr	t5
    8000002c:	34202f73          	csrr	t5,mcause
    80000030:	000f5463          	bgez	t5,80000038 <handle_exception>
    80000034:	0140006f          	j	80000048 <other_exception>

0000000080000038 <handle_exception>:
    80000038:	34102e73          	csrr	t3,mepc
    8000003c:	004e0e13          	addi	t3,t3,4
    80000040:	341e1073          	csrw	mepc,t3
    80000044:	30200073          	mret

0000000080000048 <other_exception>:
    80000048:	5391e193          	ori	gp,gp,1337

000000008000004c <write_tohost>:
    8000004c:	00001f17          	auipc	t5,0x1
    80000050:	fa3f2a23          	sw	gp,-76(t5) # 80001000 <tohost>
    80000054:	ff9ff06f          	j	8000004c <write_tohost>

0000000080000058 <reset_vector>:
    80000058:	f1402573          	csrr	a0,mhartid
    8000005c:	00051063          	bnez	a0,8000005c <reset_vector+0x4>
    80000060:	00000297          	auipc	t0,0x0
    80000064:	01028293          	addi	t0,t0,16 # 80000070 <reset_vector+0x18>
    80000068:	30529073          	csrw	mtvec,t0
    8000006c:	18005073          	csrwi	satp,0
    80000070:	00000297          	auipc	t0,0x0
    80000074:	01c28293          	addi	t0,t0,28 # 8000008c <reset_vector+0x34>
    80000078:	30529073          	csrw	mtvec,t0
    8000007c:	fff00293          	li	t0,-1
    80000080:	3b029073          	csrw	pmpaddr0,t0
    80000084:	01f00293          	li	t0,31
    80000088:	3a029073          	csrw	pmpcfg0,t0
    8000008c:	00000297          	auipc	t0,0x0
    80000090:	01828293          	addi	t0,t0,24 # 800000a4 <reset_vector+0x4c>
    80000094:	30529073          	csrw	mtvec,t0
    80000098:	30205073          	csrwi	medeleg,0
    8000009c:	30305073          	csrwi	mideleg,0
    800000a0:	30405073          	csrwi	mie,0
    800000a4:	00000193          	li	gp,0
    800000a8:	00000297          	auipc	t0,0x0
    800000ac:	f5c28293          	addi	t0,t0,-164 # 80000004 <trap_vector>
    800000b0:	30529073          	csrw	mtvec,t0
    800000b4:	00100513          	li	a0,1
    800000b8:	01f51513          	slli	a0,a0,0x1f
    800000bc:	00055863          	bgez	a0,800000cc <reset_vector+0x74>
    800000c0:	0ff0000f          	fence
    800000c4:	00100193          	li	gp,1
    800000c8:	00000073          	ecall
    800000cc:	00000293          	li	t0,0
    800000d0:	00028e63          	beqz	t0,800000ec <reset_vector+0x94>
    800000d4:	10529073          	csrw	stvec,t0
    800000d8:	0000b2b7          	lui	t0,0xb
    800000dc:	1092829b          	addiw	t0,t0,265
    800000e0:	30229073          	csrw	medeleg,t0
    800000e4:	30202373          	csrr	t1,medeleg
    800000e8:	f66290e3          	bne	t0,t1,80000048 <other_exception>
    800000ec:	30005073          	csrwi	mstatus,0
    800000f0:	00000297          	auipc	t0,0x0
    800000f4:	01428293          	addi	t0,t0,20 # 80000104 <reset_vector+0xac>
    800000f8:	34129073          	csrw	mepc,t0
    800000fc:	f1402573          	csrr	a0,mhartid
    80000100:	30200073          	mret
    80000104:	0180006f          	j	8000011c <test_start>

0000000080000108 <crash_backward>:
    80000108:	0ff0000f          	fence
    8000010c:	00018063          	beqz	gp,8000010c <crash_backward+0x4>
    80000110:	00119193          	slli	gp,gp,0x1
    80000114:	0011e193          	ori	gp,gp,1
    80000118:	00000073          	ecall

000000008000011c <test_start>:
    8000011c:	00001f97          	auipc	t6,0x1
    80000120:	fe4f8f93          	addi	t6,t6,-28 # 80001100 <hidden_data>
    80000124:	000fb003          	ld	zero,0(t6)
    80000128:	008fb083          	ld	ra,8(t6)
    8000012c:	010fb103          	ld	sp,16(t6)
    80000130:	018fb183          	ld	gp,24(t6)
    80000134:	020fb203          	ld	tp,32(t6)
    80000138:	028fb283          	ld	t0,40(t6)
    8000013c:	030fb303          	ld	t1,48(t6)
    80000140:	038fb383          	ld	t2,56(t6)
    80000144:	040fb403          	ld	s0,64(t6)
    80000148:	048fb483          	ld	s1,72(t6)
    8000014c:	050fb503          	ld	a0,80(t6)
    80000150:	058fb583          	ld	a1,88(t6)
    80000154:	060fb603          	ld	a2,96(t6)
    80000158:	068fb683          	ld	a3,104(t6)
    8000015c:	070fb703          	ld	a4,112(t6)
    80000160:	078fb783          	ld	a5,120(t6)
    80000164:	080fb803          	ld	a6,128(t6)
    80000168:	088fb883          	ld	a7,136(t6)
    8000016c:	090fb903          	ld	s2,144(t6)
    80000170:	098fb983          	ld	s3,152(t6)
    80000174:	0a0fba03          	ld	s4,160(t6)
    80000178:	0a8fba83          	ld	s5,168(t6)
    8000017c:	0b0fbb03          	ld	s6,176(t6)
    80000180:	0b8fbb83          	ld	s7,184(t6)
    80000184:	0c0fbc03          	ld	s8,192(t6)
    80000188:	0c8fbc83          	ld	s9,200(t6)
    8000018c:	0d0fbd03          	ld	s10,208(t6)
    80000190:	0d8fbd83          	ld	s11,216(t6)
    80000194:	0e0fbe03          	ld	t3,224(t6)
    80000198:	0e8fbe83          	ld	t4,232(t6)
    8000019c:	0f0fbf03          	ld	t5,240(t6)
    800001a0:	0f8fbf83          	ld	t6,248(t6)
    800001a4:	0040006f          	j	800001a8 <pseg_0>

00000000800001a8 <pseg_0>:
    800001a8:	c4d18793          	addi	a5,gp,-947 # 80001b5d <_end+0x44d>
    800001ac:	0141f733          	and	a4,gp,s4
    800001b0:	030c9c93          	slli	s9,s9,0x30
    800001b4:	cd600d93          	li	s11,-810
    800001b8:	84a00c13          	li	s8,-1974
    800001bc:	0d800b93          	li	s7,216
    800001c0:	b2000893          	li	a7,-1248
    800001c4:	a8418293          	addi	t0,gp,-1404 # 80001994 <_end+0x284>
    800001c8:	03bd8e3b          	mulw	t3,s11,s11
    800001cc:	97800a13          	li	s4,-1672
    800001d0:	00000393          	li	t2,0
    800001d4:	c7c2b803          	ld	a6,-900(t0)
    800001d8:	a337b183          	ld	gp,-1485(a5)
    800001dc:	00001097          	auipc	ra,0x1
    800001e0:	c0c08093          	addi	ra,ra,-1012 # 80000de8 <test_end+0x47c>
    800001e4:	6480b483          	ld	s1,1608(ra)
    800001e8:	00000693          	li	a3,0
    800001ec:	03ffcfbb          	divw	t6,t6,t6
    800001f0:	038c693b          	remw	s2,s8,s8
    800001f4:	e6c00293          	li	t0,-404
    800001f8:	00001597          	auipc	a1,0x1
    800001fc:	a6f58593          	addi	a1,a1,-1425 # 80000c67 <test_end+0x2fb>
    80000200:	00001617          	auipc	a2,0x1
    80000204:	deb60613          	addi	a2,a2,-533 # 80000feb <test_end+0x67f>
    80000208:	d0400f93          	li	t6,-764
    8000020c:	c0f18c13          	addi	s8,gp,-1009 # 80001b1f <_end+0x40f>
    80000210:	905c0d83          	lb	s11,-1787(s8)
    80000214:	02842d33          	mulhsu	s10,s0,s0
    80000218:	0118e533          	or	a0,a7,a7
    8000021c:	48961e03          	lh	t3,1161(a2)
    80000220:	00001997          	auipc	s3,0x1
    80000224:	17e98993          	addi	s3,s3,382 # 8000139e <test_memory+0x9e>
    80000228:	2ba98b23          	sb	s10,694(s3)
    8000022c:	90400b13          	li	s6,-1788
    80000230:	36200793          	li	a5,866
    80000234:	6f600093          	li	ra,1782
    80000238:	7ca5aaa3          	sw	a0,2005(a1)
    8000023c:	31d00c93          	li	s9,797
    80000240:	0273a233          	mulhsu	tp,t2,t2
    80000244:	014b8133          	add	sp,s7,s4
    80000248:	016b0eb3          	add	t4,s6,s6
    8000024c:	593fa313          	slti	t1,t6,1427
    80000250:	b4600413          	li	s0,-1210
    80000254:	03f2e4bb          	remw	s1,t0,t6
    80000258:	0361f1b3          	remu	gp,gp,s6
    8000025c:	c5c00f13          	li	t5,-932
    80000260:	0397e733          	rem	a4,a5,s9
    80000264:	55f00813          	li	a6,1375
    80000268:	4100893b          	subw	s2,ra,a6
    8000026c:	03e40abb          	mulw	s5,s0,t5
    80000270:	00001997          	auipc	s3,0x1
    80000274:	e3d98993          	addi	s3,s3,-451 # 800010ad <fromhost+0x6d>
    80000278:	b7e00b93          	li	s7,-1154
    8000027c:	ac600d93          	li	s11,-1338
    80000280:	fe1b8793          	addi	a5,s7,-31
    80000284:	9e900613          	li	a2,-1559
    80000288:	b7100213          	li	tp,-1167
    8000028c:	00100e93          	li	t4,1
    80000290:	03fe9e93          	slli	t4,t4,0x3f
    80000294:	b6b00b13          	li	s6,-1173
    80000298:	41bd883b          	subw	a6,s11,s11
    8000029c:	00001c97          	auipc	s9,0x1
    800002a0:	ad8c8c93          	addi	s9,s9,-1320 # 80000d74 <test_end+0x408>
    800002a4:	00001a97          	auipc	s5,0x1
    800002a8:	c6aa8a93          	addi	s5,s5,-918 # 80000f0e <test_end+0x5a2>
    800002ac:	02c60d33          	mul	s10,a2,a2
    800002b0:	00100893          	li	a7,1
    800002b4:	4079e503          	lwu	a0,1031(s3)
    800002b8:	00001097          	auipc	ra,0x1
    800002bc:	0a908093          	addi	ra,ra,169 # 80001361 <test_memory+0x61>
    800002c0:	03f89893          	slli	a7,a7,0x3f
    800002c4:	01623333          	sltu	t1,tp,s6
    800002c8:	fba08383          	lb	t2,-70(ra)
    800002cc:	788aaf23          	sw	s0,1950(s5)
    800002d0:	00001117          	auipc	sp,0x1
    800002d4:	e8f10113          	addi	sp,sp,-369 # 8000115f <reg_x11_init+0x7>
    800002d8:	00001697          	auipc	a3,0x1
    800002dc:	ebb68693          	addi	a3,a3,-325 # 80001193 <reg_x18_init+0x3>
    800002e0:	a9018a13          	addi	s4,gp,-1392 # 800019a0 <_end+0x290>
    800002e4:	fff00413          	li	s0,-1
    800002e8:	00001617          	auipc	a2,0x1
    800002ec:	23960613          	addi	a2,a2,569 # 80001521 <test_memory+0x221>
    800002f0:	01296bb3          	or	s7,s2,s2
    800002f4:	416959b3          	sra	s3,s2,s6
    800002f8:	2f112f83          	lw	t6,753(sp)
    800002fc:	69bcbe23          	sd	s11,1692(s9)
    80000300:	fff00e13          	li	t3,-1
    80000304:	01144433          	xor	s0,s0,a7
    80000308:	2c56b6a3          	sd	t0,717(a3)
    8000030c:	b28a0b23          	sb	s0,-1226(s4)
    80000310:	01832cb3          	slt	s9,t1,s8
    80000314:	008074b3          	and	s1,zero,s0
    80000318:	408550b3          	sra	ra,a0,s0
    8000031c:	00001797          	auipc	a5,0x1
    80000320:	18d78793          	addi	a5,a5,397 # 800014a9 <test_memory+0x1a9>
    80000324:	00a5113b          	sllw	sp,a0,a0
    80000328:	01de4e33          	xor	t3,t3,t4
    8000032c:	08b00d13          	li	s10,139
    80000330:	00001217          	auipc	tp,0x1
    80000334:	d1820213          	addi	tp,tp,-744 # 80001048 <fromhost+0x8>
    80000338:	00050393          	mv	t2,a0
    8000033c:	00038693          	mv	a3,t2
    80000340:	01cbfc33          	and	s8,s7,t3
    80000344:	01de6733          	or	a4,t3,t4
    80000348:	0114e5b3          	or	a1,s1,a7
    8000034c:	69021a83          	lh	s5,1680(tp) # 690 <_start-0x7ffff970>
    80000350:	34ad0813          	addi	a6,s10,842
    80000354:	10762d83          	lw	s11,263(a2)
    80000358:	00100313          	li	t1,1
    8000035c:	00001a17          	auipc	s4,0x1
    80000360:	e34a0a13          	addi	s4,s4,-460 # 80001190 <reg_x18_init>
    80000364:	00001517          	auipc	a0,0x1
    80000368:	b7f50513          	addi	a0,a0,-1153 # 80000ee3 <test_end+0x577>
    8000036c:	48ca1c83          	lh	s9,1164(s4)
    80000370:	00001917          	auipc	s2,0x1
    80000374:	26490913          	addi	s2,s2,612 # 800015d4 <test_memory+0x2d4>
    80000378:	f8579283          	lh	t0,-123(a5)
    8000037c:	00001197          	auipc	gp,0x1
    80000380:	15718193          	addi	gp,gp,343 # 800014d3 <test_memory+0x1d3>
    80000384:	40985b9b          	sraiw	s7,a6,0x9
    80000388:	61d74393          	xori	t2,a4,1565
    8000038c:	00001217          	auipc	tp,0x1
    80000390:	14d20213          	addi	tp,tp,333 # 800014d9 <test_memory+0x1d9>
    80000394:	0be20683          	lb	a3,190(tp) # be <_start-0x7fffff42>
    80000398:	034533b3          	mulhu	t2,a0,s4
    8000039c:	2dc00813          	li	a6,732
    800003a0:	d3400a13          	li	s4,-716
    800003a4:	024c0db3          	mul	s11,s8,tp
    800003a8:	f9900c13          	li	s8,-103
    800003ac:	03f31313          	slli	t1,t1,0x3f
    800003b0:	fff00b13          	li	s6,-1
    800003b4:	41885233          	sra	tp,a6,s8
    800003b8:	00b7139b          	slliw	t2,a4,0xb
    800003bc:	00100e13          	li	t3,1
    800003c0:	00001717          	auipc	a4,0x1
    800003c4:	d1670713          	addi	a4,a4,-746 # 800010d6 <fromhost+0x96>
    800003c8:	b2900c13          	li	s8,-1239
    800003cc:	03fe1e13          	slli	t3,t3,0x3f
    800003d0:	47671083          	lh	ra,1142(a4)
    800003d4:	ef118c93          	addi	s9,gp,-271 # 80001e01 <_end+0x6f1>
    800003d8:	fff00693          	li	a3,-1
    800003dc:	014a4633          	xor	a2,s4,s4
    800003e0:	a7518d13          	addi	s10,gp,-1419 # 80001985 <_end+0x275>
    800003e4:	018c1833          	sll	a6,s8,s8
    800003e8:	f8c96f03          	lwu	t5,-116(s2)
    800003ec:	0851a6a3          	sw	t0,141(gp) # 80001f9d <__global_pointer$+0x8d>
    800003f0:	01c6c6b3          	xor	a3,a3,t3
    800003f4:	0186539b          	srliw	t2,a2,0x18
    800003f8:	d6018493          	addi	s1,gp,-672 # 80001c70 <_end+0x560>
    800003fc:	b58d21a3          	sw	s8,-1213(s10)
    80000400:	9f04bc03          	ld	s8,-1552(s1)
    80000404:	00000413          	li	s0,0
    80000408:	00dcfeb3          	and	t4,s9,a3
    8000040c:	9c718193          	addi	gp,gp,-1593 # 800018d7 <_end+0x1c7>
    80000410:	c0a00913          	li	s2,-1014
    80000414:	88fcc103          	lbu	sp,-1905(s9)
    80000418:	0294e83b          	remw	a6,s1,s1
    8000041c:	00000213          	li	tp,0
    80000420:	00001617          	auipc	a2,0x1
    80000424:	ca760613          	addi	a2,a2,-857 # 800010c7 <fromhost+0x87>
    80000428:	006b4b33          	xor	s6,s6,t1
    8000042c:	550524a3          	sw	a6,1353(a0)
    80000430:	016579b3          	and	s3,a0,s6
    80000434:	0323dabb          	divuw	s5,t2,s2
    80000438:	01ca6bb3          	or	s7,s4,t3
    8000043c:	b3000d13          	li	s10,-1232
    80000440:	93c18113          	addi	sp,gp,-1732 # 8000184c <_end+0x13c>
    80000444:	ab21c703          	lbu	a4,-1358(gp) # 800019c2 <_end+0x2b2>
    80000448:	abf90593          	addi	a1,s2,-1345
    8000044c:	29700393          	li	t2,663
    80000450:	50b96463          	bltu	s2,a1,80000958 <crash_forward>
    80000454:	00001c97          	auipc	s9,0x1
    80000458:	c69c8c93          	addi	s9,s9,-919 # 800010bd <fromhost+0x7d>
    8000045c:	00001d97          	auipc	s11,0x1
    80000460:	348d8d93          	addi	s11,s11,840 # 800017a4 <_end+0x94>
    80000464:	00001f17          	auipc	t5,0x1
    80000468:	26df0f13          	addi	t5,t5,621 # 800016d1 <test_memory+0x3d1>
    8000046c:	03b68abb          	mulw	s5,a3,s11
    80000470:	0069efb3          	or	t6,s3,t1
    80000474:	00001517          	auipc	a0,0x1
    80000478:	9c650513          	addi	a0,a0,-1594 # 80000e3a <test_end+0x4ce>
    8000047c:	00001e17          	auipc	t3,0x1
    80000480:	fbee0e13          	addi	t3,t3,-66 # 8000143a <test_memory+0x13a>
    80000484:	00001797          	auipc	a5,0x1
    80000488:	2dd78793          	addi	a5,a5,733 # 80001761 <_end+0x51>
    8000048c:	0252fc33          	remu	s8,t0,t0
    80000490:	2dd66a03          	lwu	s4,733(a2)
    80000494:	027d74b3          	remu	s1,s10,t2
    80000498:	e7700993          	li	s3,-393
    8000049c:	ae614283          	lbu	t0,-1306(sp)
    800004a0:	d7fd89a3          	sb	t6,-653(s11)
    800004a4:	0339efbb          	remw	t6,s3,s3
    800004a8:	00001617          	auipc	a2,0x1
    800004ac:	d3760613          	addi	a2,a2,-713 # 800011df <reg_x27_init+0x7>
    800004b0:	53d00713          	li	a4,1341
    800004b4:	01fdc8b3          	xor	a7,s11,t6
    800004b8:	4f850da3          	sb	s8,1275(a0)
    800004bc:	017d15b3          	sll	a1,s10,s7
    800004c0:	00001e97          	auipc	t4,0x1
    800004c4:	979e8e93          	addi	t4,t4,-1671 # 80000e39 <test_end+0x4cd>
    800004c8:	df1f0083          	lb	ra,-527(t5)
    800004cc:	f86e1b23          	sh	t1,-106(t3)
    800004d0:	69000d93          	li	s11,1680
    800004d4:	2f3c8803          	lb	a6,755(s9)
    800004d8:	09d00f93          	li	t6,157
    800004dc:	2517039b          	addiw	t2,a4,593
    800004e0:	00001097          	auipc	ra,0x1
    800004e4:	e7408093          	addi	ra,ra,-396 # 80001354 <test_memory+0x54>
    800004e8:	4147d393          	srai	t2,a5,0x14
    800004ec:	00001a17          	auipc	s4,0x1
    800004f0:	1e0a0a13          	addi	s4,s4,480 # 800016cc <test_memory+0x3cc>
    800004f4:	00001597          	auipc	a1,0x1
    800004f8:	eab58593          	addi	a1,a1,-341 # 8000139f <test_memory+0x9f>
    800004fc:	b0c00913          	li	s2,-1268
    80000500:	18359103          	lh	sp,387(a1)
    80000504:	4b8f8493          	addi	s1,t6,1208
    80000508:	e4ca1d03          	lh	s10,-436(s4)
    8000050c:	4d7ea683          	lw	a3,1239(t4)
    80000510:	7e970193          	addi	gp,a4,2025
    80000514:	3740b983          	ld	s3,884(ra)
    80000518:	00100313          	li	t1,1
    8000051c:	01bdf8b3          	and	a7,s11,s11
    80000520:	c447a7a3          	sw	tp,-945(a5)
    80000524:	03f31313          	slli	t1,t1,0x3f
    80000528:	00001b17          	auipc	s6,0x1
    8000052c:	286b0b13          	addi	s6,s6,646 # 800017ae <_end+0x9e>
    80000530:	75d00d13          	li	s10,1885
    80000534:	a7300e93          	li	t4,-1421
    80000538:	00100393          	li	t2,1
    8000053c:	fff00213          	li	tp,-1
    80000540:	03bd4f33          	div	t5,s10,s11
    80000544:	03f39393          	slli	t2,t2,0x3f
    80000548:	cd600d93          	li	s11,-810
    8000054c:	ba000513          	li	a0,-1120
    80000550:	e0eb0da3          	sb	a4,-485(s6)
    80000554:	b7418793          	addi	a5,gp,-1164 # 80001a84 <_end+0x374>
    80000558:	00001e17          	auipc	t3,0x1
    8000055c:	8fce0e13          	addi	t3,t3,-1796 # 80000e54 <test_end+0x4e8>
    80000560:	fff00993          	li	s3,-1
    80000564:	010518b3          	sll	a7,a0,a6
    80000568:	51100113          	li	sp,1297
    8000056c:	0079c9b3          	xor	s3,s3,t2
    80000570:	01dd34b3          	sltu	s1,s10,t4
    80000574:	87e90b93          	addi	s7,s2,-1922
    80000578:	013e76b3          	and	a3,t3,s3
    8000057c:	007fe833          	or	a6,t6,t2
    80000580:	3ff10593          	addi	a1,sp,1023
    80000584:	a297cc83          	lbu	s9,-1495(a5)
    80000588:	fbe50293          	addi	t0,a0,-66
    8000058c:	00001097          	auipc	ra,0x1
    80000590:	db508093          	addi	ra,ra,-587 # 80001341 <test_memory+0x41>
    80000594:	747e1923          	sh	t2,1874(t3)
    80000598:	d80d8a13          	addi	s4,s11,-640
    8000059c:	3aa2fe63          	bgeu	t0,a0,80000958 <crash_forward>
    800005a0:	b74d84e3          	beq	s11,s4,80000108 <crash_backward>
    800005a4:	00624233          	xor	tp,tp,t1
    800005a8:	a6918b93          	addi	s7,gp,-1431 # 80001979 <_end+0x269>
    800005ac:	b4370ee3          	beq	a4,gp,80000108 <crash_backward>
    800005b0:	00001297          	auipc	t0,0x1
    800005b4:	c1328293          	addi	t0,t0,-1005 # 800011c3 <reg_x24_init+0x3>
    800005b8:	bdbbdd83          	lhu	s11,-1061(s7)
    800005bc:	00f0af83          	lw	t6,15(ra)
    800005c0:	00001517          	auipc	a0,0x1
    800005c4:	fe150513          	addi	a0,a0,-31 # 800015a1 <test_memory+0x2a1>
    800005c8:	0043fc33          	and	s8,t2,tp
    800005cc:	15752c83          	lw	s9,343(a0)
    800005d0:	3902a8a3          	sw	a6,913(t0)
    800005d4:	17600713          	li	a4,374
    800005d8:	ee200f13          	li	t5,-286
    800005dc:	e8818593          	addi	a1,gp,-376 # 80001d98 <_end+0x688>
    800005e0:	40e70933          	sub	s2,a4,a4
    800005e4:	19d3bd37          	lui	s10,0x19d3b
    800005e8:	00001197          	auipc	gp,0x1
    800005ec:	c7c18193          	addi	gp,gp,-900 # 80001264 <reg_x12_output+0x4>
    800005f0:	7d500113          	li	sp,2005
    800005f4:	3601a483          	lw	s1,864(gp) # 80002270 <__global_pointer$+0x360>
    800005f8:	fe000e13          	li	t3,-32
    800005fc:	00606ab3          	or	s5,zero,t1
    80000600:	3e963403          	ld	s0,1001(a2)
    80000604:	3e400093          	li	ra,996
    80000608:	e2300993          	li	s3,-477
    8000060c:	6d700913          	li	s2,1751
    80000610:	01311fb3          	sll	t6,sp,s3
    80000614:	ab100d13          	li	s10,-1359
    80000618:	90318693          	addi	a3,gp,-1789 # 80001813 <_end+0x103>
    8000061c:	d8200b13          	li	s6,-638
    80000620:	ee700413          	li	s0,-281
    80000624:	81559823          	sh	s5,-2032(a1)
    80000628:	01ef1ebb          	sllw	t4,t5,t5
    8000062c:	00100293          	li	t0,1
    80000630:	00000797          	auipc	a5,0x0
    80000634:	6fc78793          	addi	a5,a5,1788 # 80000d2c <test_end+0x3c0>
    80000638:	db400d93          	li	s11,-588
    8000063c:	03f29293          	slli	t0,t0,0x3f
    80000640:	d3569883          	lh	a7,-715(a3)
    80000644:	032083bb          	mulw	t2,ra,s2
    80000648:	bb618113          	addi	sp,gp,-1098 # 80001ac6 <_end+0x3b6>
    8000064c:	016b0cb3          	add	s9,s6,s6
    80000650:	b58d0713          	addi	a4,s10,-1192 # 19d3ab58 <_start-0x662c54a8>
    80000654:	03ce3a33          	mulhu	s4,t3,t3
    80000658:	91213e83          	ld	t4,-1774(sp)
    8000065c:	31cf019b          	addiw	gp,t5,796
    80000660:	407d5b1b          	sraiw	s6,s10,0x7
    80000664:	67278423          	sb	s2,1640(a5)
    80000668:	41b4563b          	sraw	a2,s0,s11
    8000066c:	403189b3          	sub	s3,gp,gp
    80000670:	fff00513          	li	a0,-1
    80000674:	0262583b          	divuw	a6,tp,t1
    80000678:	0f000a13          	li	s4,240
    8000067c:	22f00893          	li	a7,559
    80000680:	00554533          	xor	a0,a0,t0
    80000684:	00affbb3          	and	s7,t6,a0
    80000688:	2ced4863          	blt	s10,a4,80000958 <crash_forward>
    8000068c:	011a16bb          	sllw	a3,s4,a7
    80000690:	c2200f13          	li	t5,-990
    80000694:	41675093          	srai	ra,a4,0x16
    80000698:	005564b3          	or	s1,a0,t0
    8000069c:	003183bb          	addw	t2,gp,gp
    800006a0:	03f6ba33          	mulhu	s4,a3,t6
    800006a4:	b4900593          	li	a1,-1207
    800006a8:	02b5eb3b          	remw	s6,a1,a1
    800006ac:	24f00713          	li	a4,591
    800006b0:	01bd913b          	sllw	sp,s11,s11
    800006b4:	83b00a93          	li	s5,-1989
    800006b8:	cec18b13          	addi	s6,gp,-788 # 80001bfc <_end+0x4ec>
    800006bc:	8c3b3a23          	sd	gp,-1836(s6)
    800006c0:	b8c00393          	li	t2,-1140
    800006c4:	02bf7fbb          	remuw	t6,t5,a1
    800006c8:	bdb00793          	li	a5,-1061
    800006cc:	035ad233          	divu	tp,s5,s5
    800006d0:	6f000c93          	li	s9,1776
    800006d4:	00630633          	add	a2,t1,t1
    800006d8:	e4100893          	li	a7,-447
    800006dc:	3538bc13          	sltiu	s8,a7,851
    800006e0:	419c8433          	sub	s0,s9,s9
    800006e4:	60e00693          	li	a3,1550
    800006e8:	03973eb3          	mulhu	t4,a4,s9
    800006ec:	02f39a33          	mulh	s4,t2,a5
    800006f0:	41188933          	sub	s2,a7,a7
    800006f4:	96618813          	addi	a6,gp,-1690 # 80001876 <_end+0x166>
    800006f8:	b9c80d83          	lb	s11,-1124(a6)
    800006fc:	00000e93          	li	t4,0
    80000700:	025af33b          	remuw	t1,s5,t0
    80000704:	00001c97          	auipc	s9,0x1
    80000708:	b58c8c93          	addi	s9,s9,-1192 # 8000125c <reg_x11_output+0x4>
    8000070c:	bb418613          	addi	a2,gp,-1100 # 80001ac4 <_end+0x3b4>
    80000710:	8a000f93          	li	t6,-1888
    80000714:	24006263          	bltu	zero,zero,80000958 <crash_forward>
    80000718:	417bde3b          	sraw	t3,s7,s7
    8000071c:	00100413          	li	s0,1
    80000720:	00000793          	li	a5,0
    80000724:	03ffcc3b          	divw	s8,t6,t6
    80000728:	c0f18393          	addi	t2,gp,-1009 # 80001b1f <_end+0x40f>
    8000072c:	d6b18513          	addi	a0,gp,-661 # 80001c7b <_end+0x56b>
    80000730:	b593aa83          	lw	s5,-1191(t2)
    80000734:	cfd00893          	li	a7,-771
    80000738:	a2553283          	ld	t0,-1499(a0)
    8000073c:	ae862203          	lw	tp,-1304(a2)
    80000740:	03f41413          	slli	s0,s0,0x3f
    80000744:	02d6b1b3          	mulhu	gp,a3,a3
    80000748:	96100b93          	li	s7,-1695
    8000074c:	fff00b13          	li	s6,-1
    80000750:	01789133          	sll	sp,a7,s7
    80000754:	008b4b33          	xor	s6,s6,s0
    80000758:	0162ff33          	and	t5,t0,s6
    8000075c:	0086e733          	or	a4,a3,s0
    80000760:	1eef0c63          	beq	t5,a4,80000958 <crash_forward>
    80000764:	00001497          	auipc	s1,0x1
    80000768:	ca148493          	addi	s1,s1,-863 # 80001405 <test_memory+0x105>
    8000076c:	430ca583          	lw	a1,1072(s9)
    80000770:	2864a3a3          	sw	t1,647(s1)
    80000774:	d6000913          	li	s2,-672
    80000778:	12800213          	li	tp,296
    8000077c:	00000797          	auipc	a5,0x0
    80000780:	79a78793          	addi	a5,a5,1946 # 80000f16 <test_end+0x5aa>
    80000784:	00001b17          	auipc	s6,0x1
    80000788:	c52b0b13          	addi	s6,s6,-942 # 800013d6 <test_memory+0xd6>
    8000078c:	00d6bfb3          	sltu	t6,a3,a3
    80000790:	16bb01a3          	sb	a1,355(s6)
    80000794:	00000e97          	auipc	t4,0x0
    80000798:	7f8e8e93          	addi	t4,t4,2040 # 80000f8c <test_end+0x620>
    8000079c:	41ef0d33          	sub	s10,t5,t5
    800007a0:	40eea423          	sw	a4,1032(t4)
    800007a4:	50d00493          	li	s1,1293
    800007a8:	b1500893          	li	a7,-1259
    800007ac:	e2a00513          	li	a0,-470
    800007b0:	e1218c93          	addi	s9,gp,-494 # 80001d22 <_end+0x612>
    800007b4:	00210d3b          	addw	s10,sp,sp
    800007b8:	da000693          	li	a3,-608
    800007bc:	b1f18613          	addi	a2,gp,-1249 # 80001a2f <_end+0x31f>
    800007c0:	41be0133          	sub	sp,t3,s11
    800007c4:	00001317          	auipc	t1,0x1
    800007c8:	b0e30313          	addi	t1,t1,-1266 # 800012d2 <reg_x26_output+0x2>
    800007cc:	25b31d23          	sh	s11,602(t1)
    800007d0:	02d6beb3          	mulhu	t4,a3,a3
    800007d4:	06b46f93          	ori	t6,s0,107
    800007d8:	b1562383          	lw	t2,-1259(a2)
    800007dc:	7c3787a3          	sb	gp,1999(a5)
    800007e0:	25120193          	addi	gp,tp,593 # 251 <_start-0x7ffffdaf>
    800007e4:	00000297          	auipc	t0,0x0
    800007e8:	71128293          	addi	t0,t0,1809 # 80000ef5 <test_end+0x589>
    800007ec:	bc818393          	addi	t2,gp,-1080 # 80001ad8 <_end+0x3c8>
    800007f0:	29600e13          	li	t3,662
    800007f4:	73700093          	li	ra,1847
    800007f8:	16320063          	beq	tp,gp,80000958 <crash_forward>
    800007fc:	da700c13          	li	s8,-601
    80000800:	52100d93          	li	s11,1313
    80000804:	e3100993          	li	s3,-463
    80000808:	91acaa03          	lw	s4,-1766(s9)
    8000080c:	00000a93          	li	s5,0
    80000810:	bab39823          	sh	a1,-1104(t2)
    80000814:	f133061b          	addiw	a2,t1,-237
    80000818:	0014d833          	srl	a6,s1,ra
    8000081c:	00001b17          	auipc	s6,0x1
    80000820:	9a2b0b13          	addi	s6,s6,-1630 # 800011be <reg_x23_init+0x6>
    80000824:	ef300693          	li	a3,-269
    80000828:	7c02a9a3          	sw	zero,2003(t0)
    8000082c:	81c00313          	li	t1,-2020
    80000830:	02d6ca3b          	divw	s4,a3,a3
    80000834:	01c565b3          	or	a1,a0,t3
    80000838:	00000b93          	li	s7,0
    8000083c:	9c030113          	addi	sp,t1,-1600
    80000840:	b6318613          	addi	a2,gp,-1181 # 80001a73 <_end+0x363>
    80000844:	008d523b          	srlw	tp,s10,s0
    80000848:	00001e97          	auipc	t4,0x1
    8000084c:	802e8e93          	addi	t4,t4,-2046 # 8000104a <fromhost+0xa>
    80000850:	01b8d43b          	srlw	s0,a7,s11
    80000854:	41290733          	sub	a4,s2,s2
    80000858:	008452bb          	srlw	t0,s0,s0
    8000085c:	70300d13          	li	s10,1795
    80000860:	00001597          	auipc	a1,0x1
    80000864:	aef58593          	addi	a1,a1,-1297 # 8000134f <test_memory+0x4f>
    80000868:	00b58a33          	add	s4,a1,a1
    8000086c:	00001197          	auipc	gp,0x1
    80000870:	a3c18193          	addi	gp,gp,-1476 # 800012a8 <reg_x21_output>
    80000874:	d0e00693          	li	a3,-754
    80000878:	cd318213          	addi	tp,gp,-813 # 80001be3 <_end+0x4d3>
    8000087c:	00000117          	auipc	sp,0x0
    80000880:	62610113          	addi	sp,sp,1574 # 80000ea2 <test_end+0x536>
    80000884:	d0e00913          	li	s2,-754
    80000888:	033c4f33          	div	t5,s8,s3
    8000088c:	0273aa33          	mulhsu	s4,t2,t2
    80000890:	2f01b383          	ld	t2,752(gp) # 80002200 <__global_pointer$+0x2f0>
    80000894:	00001097          	auipc	ra,0x1
    80000898:	dd308093          	addi	ra,ra,-557 # 80001667 <test_memory+0x367>
    8000089c:	0031be33          	sltu	t3,gp,gp
    800008a0:	b9b18c93          	addi	s9,gp,-1125 # 80001aab <_end+0x39b>
    800008a4:	43d3d493          	srai	s1,t2,0x3d
    800008a8:	2dced783          	lhu	a5,732(t4)
    800008ac:	03ad6fb3          	rem	t6,s10,s10
    800008b0:	91118b93          	addi	s7,gp,-1775 # 80001821 <_end+0x111>
    800008b4:	90a20823          	sb	a0,-1776(tp) # fffffffffffff910 <__global_pointer$+0xffffffff7fffda00>
    800008b8:	a3ecb2a3          	sd	t5,-1499(s9)
    800008bc:	e4eb90a3          	sh	a4,-447(s7)
    800008c0:	fbd59503          	lh	a0,-67(a1)
    800008c4:	c3f619a3          	sh	t6,-973(a2)
    800008c8:	cd10a803          	lw	a6,-815(ra)
    800008cc:	012688b3          	add	a7,a3,s2
    800008d0:	455b0223          	sb	s5,1092(s6)
    800008d4:	7c015283          	lhu	t0,1984(sp)
    800008d8:	0040006f          	j	800008dc <reg_dump>

00000000800008dc <reg_dump>:
    800008dc:	00001097          	auipc	ra,0x1
    800008e0:	e2408093          	addi	ra,ra,-476 # 80001700 <loop_count>
    800008e4:	0000a103          	lw	sp,0(ra)
    800008e8:	fff10193          	addi	gp,sp,-1
    800008ec:	0030a023          	sw	gp,0(ra)
    800008f0:	8a011ce3          	bnez	sp,800001a8 <pseg_0>
    800008f4:	00001097          	auipc	ra,0x1
    800008f8:	90c08093          	addi	ra,ra,-1780 # 80001200 <begin_signature>
    800008fc:	0000b023          	sd	zero,0(ra)
    80000900:	0250b423          	sd	t0,40(ra)
    80000904:	0260b823          	sd	t1,48(ra)
    80000908:	0270bc23          	sd	t2,56(ra)
    8000090c:	0480b023          	sd	s0,64(ra)
    80000910:	0490b423          	sd	s1,72(ra)
    80000914:	04a0b823          	sd	a0,80(ra)
    80000918:	06d0b423          	sd	a3,104(ra)
    8000091c:	06e0b823          	sd	a4,112(ra)
    80000920:	06f0bc23          	sd	a5,120(ra)
    80000924:	0900b023          	sd	a6,128(ra)
    80000928:	0910b423          	sd	a7,136(ra)
    8000092c:	0920b823          	sd	s2,144(ra)
    80000930:	0930bc23          	sd	s3,152(ra)
    80000934:	0b40b023          	sd	s4,160(ra)
    80000938:	0b50b423          	sd	s5,168(ra)
    8000093c:	0d80b023          	sd	s8,192(ra)
    80000940:	0da0b823          	sd	s10,208(ra)
    80000944:	0db0bc23          	sd	s11,216(ra)
    80000948:	0fc0b023          	sd	t3,224(ra)
    8000094c:	0fe0b823          	sd	t5,240(ra)
    80000950:	0ff0bc23          	sd	t6,248(ra)
    80000954:	0180006f          	j	8000096c <test_end>

0000000080000958 <crash_forward>:
    80000958:	0ff0000f          	fence
    8000095c:	00018063          	beqz	gp,8000095c <crash_forward+0x4>
    80000960:	00119193          	slli	gp,gp,0x1
    80000964:	0011e193          	ori	gp,gp,1
    80000968:	00000073          	ecall

000000008000096c <test_end>:
    8000096c:	0ff0000f          	fence
    80000970:	00100193          	li	gp,1
    80000974:	00000073          	ecall
    80000978:	c0001073          	unimp
	...

Disassembly of section .tohost:

0000000080001000 <tohost>:
	...

0000000080001040 <fromhost>:
	...
