
test.elf:     file format elf64-littleriscv


Disassembly of section .text.init:

0000000080000000 <_start>:
    80000000:	0580006f          	j	80000058 <reset_vector>

0000000080000004 <trap_vector>:
    80000004:	34202f73          	csrr	t5,mcause
    80000008:	00800f93          	li	t6,8
    8000000c:	05ff0063          	beq	t5,t6,8000004c <write_tohost>
    80000010:	00900f93          	li	t6,9
    80000014:	03ff0c63          	beq	t5,t6,8000004c <write_tohost>
    80000018:	00b00f93          	li	t6,11
    8000001c:	03ff0863          	beq	t5,t6,8000004c <write_tohost>
    80000020:	00000f13          	li	t5,0
    80000024:	000f0463          	beqz	t5,8000002c <trap_vector+0x28>
    80000028:	000f0067          	jr	t5
    8000002c:	34202f73          	csrr	t5,mcause
    80000030:	000f5463          	bgez	t5,80000038 <handle_exception>
    80000034:	0140006f          	j	80000048 <other_exception>

0000000080000038 <handle_exception>:
    80000038:	34102e73          	csrr	t3,mepc
    8000003c:	004e0e13          	addi	t3,t3,4
    80000040:	341e1073          	csrw	mepc,t3
    80000044:	30200073          	mret

0000000080000048 <other_exception>:
    80000048:	5391e193          	ori	gp,gp,1337

000000008000004c <write_tohost>:
    8000004c:	00001f17          	auipc	t5,0x1
    80000050:	fa3f2a23          	sw	gp,-76(t5) # 80001000 <tohost>
    80000054:	ff9ff06f          	j	8000004c <write_tohost>

0000000080000058 <reset_vector>:
    80000058:	f1402573          	csrr	a0,mhartid
    8000005c:	00051063          	bnez	a0,8000005c <reset_vector+0x4>
    80000060:	00000297          	auipc	t0,0x0
    80000064:	01028293          	addi	t0,t0,16 # 80000070 <reset_vector+0x18>
    80000068:	30529073          	csrw	mtvec,t0
    8000006c:	18005073          	csrwi	satp,0
    80000070:	00000297          	auipc	t0,0x0
    80000074:	01c28293          	addi	t0,t0,28 # 8000008c <reset_vector+0x34>
    80000078:	30529073          	csrw	mtvec,t0
    8000007c:	fff00293          	li	t0,-1
    80000080:	3b029073          	csrw	pmpaddr0,t0
    80000084:	01f00293          	li	t0,31
    80000088:	3a029073          	csrw	pmpcfg0,t0
    8000008c:	00000297          	auipc	t0,0x0
    80000090:	01828293          	addi	t0,t0,24 # 800000a4 <reset_vector+0x4c>
    80000094:	30529073          	csrw	mtvec,t0
    80000098:	30205073          	csrwi	medeleg,0
    8000009c:	30305073          	csrwi	mideleg,0
    800000a0:	30405073          	csrwi	mie,0
    800000a4:	00000193          	li	gp,0
    800000a8:	00000297          	auipc	t0,0x0
    800000ac:	f5c28293          	addi	t0,t0,-164 # 80000004 <trap_vector>
    800000b0:	30529073          	csrw	mtvec,t0
    800000b4:	00100513          	li	a0,1
    800000b8:	01f51513          	slli	a0,a0,0x1f
    800000bc:	00055863          	bgez	a0,800000cc <reset_vector+0x74>
    800000c0:	0ff0000f          	fence
    800000c4:	00100193          	li	gp,1
    800000c8:	00000073          	ecall
    800000cc:	00000293          	li	t0,0
    800000d0:	00028e63          	beqz	t0,800000ec <reset_vector+0x94>
    800000d4:	10529073          	csrw	stvec,t0
    800000d8:	0000b2b7          	lui	t0,0xb
    800000dc:	1092829b          	addiw	t0,t0,265
    800000e0:	30229073          	csrw	medeleg,t0
    800000e4:	30202373          	csrr	t1,medeleg
    800000e8:	f66290e3          	bne	t0,t1,80000048 <other_exception>
    800000ec:	30005073          	csrwi	mstatus,0
    800000f0:	00000297          	auipc	t0,0x0
    800000f4:	01428293          	addi	t0,t0,20 # 80000104 <reset_vector+0xac>
    800000f8:	34129073          	csrw	mepc,t0
    800000fc:	f1402573          	csrr	a0,mhartid
    80000100:	30200073          	mret
    80000104:	0180006f          	j	8000011c <test_start>

0000000080000108 <crash_backward>:
    80000108:	0ff0000f          	fence
    8000010c:	00018063          	beqz	gp,8000010c <crash_backward+0x4>
    80000110:	00119193          	slli	gp,gp,0x1
    80000114:	0011e193          	ori	gp,gp,1
    80000118:	00000073          	ecall

000000008000011c <test_start>:
    8000011c:	00001f97          	auipc	t6,0x1
    80000120:	fe4f8f93          	addi	t6,t6,-28 # 80001100 <hidden_data>
    80000124:	000fb003          	ld	zero,0(t6)
    80000128:	008fb083          	ld	ra,8(t6)
    8000012c:	010fb103          	ld	sp,16(t6)
    80000130:	018fb183          	ld	gp,24(t6)
    80000134:	020fb203          	ld	tp,32(t6)
    80000138:	028fb283          	ld	t0,40(t6)
    8000013c:	030fb303          	ld	t1,48(t6)
    80000140:	038fb383          	ld	t2,56(t6)
    80000144:	040fb403          	ld	s0,64(t6)
    80000148:	048fb483          	ld	s1,72(t6)
    8000014c:	050fb503          	ld	a0,80(t6)
    80000150:	058fb583          	ld	a1,88(t6)
    80000154:	060fb603          	ld	a2,96(t6)
    80000158:	068fb683          	ld	a3,104(t6)
    8000015c:	070fb703          	ld	a4,112(t6)
    80000160:	078fb783          	ld	a5,120(t6)
    80000164:	080fb803          	ld	a6,128(t6)
    80000168:	088fb883          	ld	a7,136(t6)
    8000016c:	090fb903          	ld	s2,144(t6)
    80000170:	098fb983          	ld	s3,152(t6)
    80000174:	0a0fba03          	ld	s4,160(t6)
    80000178:	0a8fba83          	ld	s5,168(t6)
    8000017c:	0b0fbb03          	ld	s6,176(t6)
    80000180:	0b8fbb83          	ld	s7,184(t6)
    80000184:	0c0fbc03          	ld	s8,192(t6)
    80000188:	0c8fbc83          	ld	s9,200(t6)
    8000018c:	0d0fbd03          	ld	s10,208(t6)
    80000190:	0d8fbd83          	ld	s11,216(t6)
    80000194:	0e0fbe03          	ld	t3,224(t6)
    80000198:	0e8fbe83          	ld	t4,232(t6)
    8000019c:	0f0fbf03          	ld	t5,240(t6)
    800001a0:	0f8fbf83          	ld	t6,248(t6)
    800001a4:	0040006f          	j	800001a8 <pseg_0>

00000000800001a8 <pseg_0>:
    800001a8:	c4d18793          	addi	a5,gp,-947 # 80001b5d <_end+0x44d>
    800001ac:	0141f733          	and	a4,gp,s4
    800001b0:	030c9c93          	slli	s9,s9,0x30
    800001b4:	cd600d93          	li	s11,-810
    800001b8:	84a00c13          	li	s8,-1974
    800001bc:	0d800b93          	li	s7,216
    800001c0:	b2000893          	li	a7,-1248
    800001c4:	a8418293          	addi	t0,gp,-1404 # 80001994 <_end+0x284>
    800001c8:	03bd8e3b          	mulw	t3,s11,s11
    800001cc:	97800a13          	li	s4,-1672
    800001d0:	00000393          	li	t2,0
    800001d4:	c7c2b803          	ld	a6,-900(t0)
    800001d8:	a337b183          	ld	gp,-1485(a5)
    800001dc:	00001097          	auipc	ra,0x1
    800001e0:	c0c08093          	addi	ra,ra,-1012 # 80000de8 <test_end+0x47c>
    800001e4:	6480b483          	ld	s1,1608(ra)
    800001e8:	00000693          	li	a3,0
    800001ec:	03ffcfbb          	divw	t6,t6,t6
    800001f0:	038c693b          	remw	s2,s8,s8
    800001f4:	e6c00293          	li	t0,-404
    800001f8:	00001597          	auipc	a1,0x1
    800001fc:	a6f58593          	addi	a1,a1,-1425 # 80000c67 <test_end+0x2fb>
    80000200:	00001617          	auipc	a2,0x1
    80000204:	deb60613          	addi	a2,a2,-533 # 80000feb <test_end+0x67f>
    80000208:	d0400f93          	li	t6,-764
    8000020c:	c0f18c13          	addi	s8,gp,-1009 # 80001b1f <_end+0x40f>
    80000210:	905c0d83          	lb	s11,-1787(s8)
    80000214:	02842d33          	mulhsu	s10,s0,s0
    80000218:	0118e533          	or	a0,a7,a7
    8000021c:	48961e03          	lh	t3,1161(a2)
    80000220:	00001997          	auipc	s3,0x1
    80000224:	17e98993          	addi	s3,s3,382 # 8000139e <test_memory+0x9e>
    80000228:	2ba98b23          	sb	s10,694(s3)
    8000022c:	90400b13          	li	s6,-1788
    80000230:	36200793          	li	a5,866
    80000234:	6f600093          	li	ra,1782
    80000238:	7ca5aaa3          	sw	a0,2005(a1)
    8000023c:	31d00c93          	li	s9,797
    80000240:	0273a233          	mulhsu	tp,t2,t2
    80000244:	014b8133          	add	sp,s7,s4
    80000248:	016b0eb3          	add	t4,s6,s6
    8000024c:	593fa313          	slti	t1,t6,1427
    80000250:	b4600413          	li	s0,-1210
    80000254:	03f2e4bb          	remw	s1,t0,t6
    80000258:	0361f1b3          	remu	gp,gp,s6
    8000025c:	c5c00f13          	li	t5,-932
    80000260:	0397e733          	rem	a4,a5,s9
    80000264:	55f00813          	li	a6,1375
    80000268:	4100893b          	subw	s2,ra,a6
    8000026c:	03e40abb          	mulw	s5,s0,t5
    80000270:	00001997          	auipc	s3,0x1
    80000274:	e3d98993          	addi	s3,s3,-451 # 800010ad <fromhost+0x6d>
    80000278:	b7e00b93          	li	s7,-1154
    8000027c:	ac600d93          	li	s11,-1338
    80000280:	fe1b8793          	addi	a5,s7,-31
    80000284:	9e900613          	li	a2,-1559
    80000288:	b7100213          	li	tp,-1167
    8000028c:	00100e93          	li	t4,1
    80000290:	03fe9e93          	slli	t4,t4,0x3f
    80000294:	b6b00b13          	li	s6,-1173
    80000298:	41bd883b          	subw	a6,s11,s11
    8000029c:	00001c97          	auipc	s9,0x1
    800002a0:	ad8c8c93          	addi	s9,s9,-1320 # 80000d74 <test_end+0x408>
    800002a4:	00001a97          	auipc	s5,0x1
    800002a8:	c6aa8a93          	addi	s5,s5,-918 # 80000f0e <test_end+0x5a2>
    800002ac:	02c60d33          	mul	s10,a2,a2
    800002b0:	00100893          	li	a7,1
    800002b4:	4079e503          	lwu	a0,1031(s3)
    800002b8:	00001097          	auipc	ra,0x1
    800002bc:	0a908093          	addi	ra,ra,169 # 80001361 <test_memory+0x61>
    800002c0:	03f89893          	slli	a7,a7,0x3f
    800002c4:	01623333          	sltu	t1,tp,s6
    800002c8:	fba08383          	lb	t2,-70(ra)
    800002cc:	788aaf23          	sw	s0,1950(s5)
    800002d0:	00001117          	auipc	sp,0x1
    800002d4:	e8f10113          	addi	sp,sp,-369 # 8000115f <reg_x11_init+0x7>
    800002d8:	00001697          	auipc	a3,0x1
    800002dc:	ebb68693          	addi	a3,a3,-325 # 80001193 <reg_x18_init+0x3>
    800002e0:	a9018a13          	addi	s4,gp,-1392 # 800019a0 <_end+0x290>
    800002e4:	fff00413          	li	s0,-1
    800002e8:	00001617          	auipc	a2,0x1
    800002ec:	23960613          	addi	a2,a2,569 # 80001521 <test_memory+0x221>
    800002f0:	01296bb3          	or	s7,s2,s2
    800002f4:	416959b3          	sra	s3,s2,s6
    800002f8:	2f112f83          	lw	t6,753(sp)
    800002fc:	69bcbe23          	sd	s11,1692(s9)
    80000300:	fff00e13          	li	t3,-1
    80000304:	01144433          	xor	s0,s0,a7
    80000308:	2c56b6a3          	sd	t0,717(a3)
    8000030c:	b28a0b23          	sb	s0,-1226(s4)
    80000310:	01832cb3          	slt	s9,t1,s8
    80000314:	008074b3          	and	s1,zero,s0
    80000318:	408550b3          	sra	ra,a0,s0
    8000031c:	00001797          	auipc	a5,0x1
    80000320:	18d78793          	addi	a5,a5,397 # 800014a9 <test_memory+0x1a9>
    80000324:	00a5113b          	sllw	sp,a0,a0
    80000328:	01de4e33          	xor	t3,t3,t4
    8000032c:	08b00d13          	li	s10,139
    80000330:	00001217          	auipc	tp,0x1
    80000334:	d1820213          	addi	tp,tp,-744 # 80001048 <fromhost+0x8>
    80000338:	00050393          	mv	t2,a0
    8000033c:	00038693          	mv	a3,t2
    80000340:	01cbfc33          	and	s8,s7,t3
    80000344:	01de6733          	or	a4,t3,t4
    80000348:	0114e5b3          	or	a1,s1,a7
    8000034c:	69021a83          	lh	s5,1680(tp) # 690 <_start-0x7ffff970>
    80000350:	34ad0813          	addi	a6,s10,842
    80000354:	10762d83          	lw	s11,263(a2)
    80000358:	00100313          	li	t1,1
    8000035c:	00001a17          	auipc	s4,0x1
    80000360:	e34a0a13          	addi	s4,s4,-460 # 80001190 <reg_x18_init>
    80000364:	00001517          	auipc	a0,0x1
    80000368:	b7f50513          	addi	a0,a0,-1153 # 80000ee3 <test_end+0x577>
    8000036c:	48ca1c83          	lh	s9,1164(s4)
    80000370:	00001917          	auipc	s2,0x1
    80000374:	26490913          	addi	s2,s2,612 # 800015d4 <test_memory+0x2d4>
    80000378:	f8579283          	lh	t0,-123(a5)
    8000037c:	00001197          	auipc	gp,0x1
    80000380:	15718193          	addi	gp,gp,343 # 800014d3 <test_memory+0x1d3>
    80000384:	40985b9b          	sraiw	s7,a6,0x9
    80000388:	61d74393          	xori	t2,a4,1565
    8000038c:	00001217          	auipc	tp,0x1
    80000390:	14d20213          	addi	tp,tp,333 # 800014d9 <test_memory+0x1d9>
    80000394:	0be20683          	lb	a3,190(tp) # be <_start-0x7fffff42>
    80000398:	034533b3          	mulhu	t2,a0,s4
    8000039c:	2dc00813          	li	a6,732
    800003a0:	d3400a13          	li	s4,-716
    800003a4:	024c0db3          	mul	s11,s8,tp
    800003a8:	f9900c13          	li	s8,-103
    800003ac:	03f31313          	slli	t1,t1,0x3f
    800003b0:	fff00b13          	li	s6,-1
    800003b4:	41885233          	sra	tp,a6,s8
    800003b8:	00b7139b          	slliw	t2,a4,0xb
    800003bc:	00100e13          	li	t3,1
    800003c0:	00001717          	auipc	a4,0x1
    800003c4:	d1670713          	addi	a4,a4,-746 # 800010d6 <fromhost+0x96>
    800003c8:	b2900c13          	li	s8,-1239
    800003cc:	03fe1e13          	slli	t3,t3,0x3f
    800003d0:	47671083          	lh	ra,1142(a4)
    800003d4:	ef118c93          	addi	s9,gp,-271 # 80001e01 <_end+0x6f1>
    800003d8:	fff00693          	li	a3,-1
    800003dc:	014a4633          	xor	a2,s4,s4
    800003e0:	a7518d13          	addi	s10,gp,-1419 # 80001985 <_end+0x275>
    800003e4:	018c1833          	sll	a6,s8,s8
    800003e8:	f8c96f03          	lwu	t5,-116(s2)
    800003ec:	0851a6a3          	sw	t0,141(gp) # 80001f9d <__global_pointer$+0x8d>
    800003f0:	01c6c6b3          	xor	a3,a3,t3
    800003f4:	0186539b          	srliw	t2,a2,0x18
    800003f8:	d6018493          	addi	s1,gp,-672 # 80001c70 <_end+0x560>
    800003fc:	b58d21a3          	sw	s8,-1213(s10)
    80000400:	9f04bc03          	ld	s8,-1552(s1)
    80000404:	00000413          	li	s0,0
    80000408:	00dcfeb3          	and	t4,s9,a3
    8000040c:	9c718193          	addi	gp,gp,-1593 # 800018d7 <_end+0x1c7>
    80000410:	c0a00913          	li	s2,-1014
    80000414:	88fcc103          	lbu	sp,-1905(s9)
    80000418:	0294e83b          	remw	a6,s1,s1
    8000041c:	00000213          	li	tp,0
    80000420:	00001617          	auipc	a2,0x1
    80000424:	ca760613          	addi	a2,a2,-857 # 800010c7 <fromhost+0x87>
    80000428:	006b4b33          	xor	s6,s6,t1
    8000042c:	550524a3          	sw	a6,1353(a0)
    80000430:	016579b3          	and	s3,a0,s6
    80000434:	0323dabb          	divuw	s5,t2,s2
    80000438:	01ca6bb3          	or	s7,s4,t3
    8000043c:	b3000d13          	li	s10,-1232
    80000440:	93c18113          	addi	sp,gp,-1732 # 8000184c <_end+0x13c>
    80000444:	ab21c703          	lbu	a4,-1358(gp) # 800019c2 <_end+0x2b2>
    80000448:	abf90593          	addi	a1,s2,-1345
    8000044c:	29700393          	li	t2,663
    80000450:	50b96463          	bltu	s2,a1,80000958 <crash_forward>
    80000454:	00001c97          	auipc	s9,0x1
    80000458:	c69c8c93          	addi	s9,s9,-919 # 800010bd <fromhost+0x7d>
    8000045c:	00001d97          	auipc	s11,0x1
    80000460:	348d8d93          	addi	s11,s11,840 # 800017a4 <_end+0x94>
    80000464:	00001f17          	auipc	t5,0x1
    80000468:	26df0f13          	addi	t5,t5,621 # 800016d1 <test_memory+0x3d1>
    8000046c:	03b68abb          	mulw	s5,a3,s11
    80000470:	0069efb3          	or	t6,s3,t1
    80000474:	00001517          	auipc	a0,0x1
    80000478:	9c650513          	addi	a0,a0,-1594 # 80000e3a <test_end+0x4ce>
    8000047c:	00001e17          	auipc	t3,0x1
    80000480:	fbee0e13          	addi	t3,t3,-66 # 8000143a <test_memory+0x13a>
    80000484:	00001797          	auipc	a5,0x1
    80000488:	2dd78793          	addi	a5,a5,733 # 80001761 <_end+0x51>
    8000048c:	0252fc33          	remu	s8,t0,t0
    80000490:	2dd66a03          	lwu	s4,733(a2)
    80000494:	027d74b3          	remu	s1,s10,t2
    80000498:	e7700993          	li	s3,-393
    8000049c:	ae614283          	lbu	t0,-1306(sp)
    800004a0:	d7fd89a3          	sb	t6,-653(s11)
    800004a4:	0339efbb          	remw	t6,s3,s3
    800004a8:	00001617          	auipc	a2,0x1
    800004ac:	d3760613          	addi	a2,a2,-713 # 800011df <reg_x27_init+0x7>
    800004b0:	53d00713          	li	a4,1341
    800004b4:	01fdc8b3          	xor	a7,s11,t6
    800004b8:	4f850da3          	sb	s8,1275(a0)
    800004bc:	017d15b3          	sll	a1,s10,s7
    800004c0:	00001e97          	auipc	t4,0x1
    800004c4:	979e8e93          	addi	t4,t4,-1671 # 80000e39 <test_end+0x4cd>
    800004c8:	df1f0083          	lb	ra,-527(t5)
    800004cc:	f86e1b23          	sh	t1,-106(t3)
    800004d0:	69000d93          	li	s11,1680
    800004d4:	2f3c8803          	lb	a6,755(s9)
    800004d8:	09d00f93          	li	t6,157
    800004dc:	2517039b          	addiw	t2,a4,593
    800004e0:	00001097          	auipc	ra,0x1
    800004e4:	e7408093          	addi	ra,ra,-396 # 80001354 <test_memory+0x54>
    800004e8:	4147d393          	srai	t2,a5,0x14
    800004ec:	00001a17          	auipc	s4,0x1
    800004f0:	1e0a0a13          	addi	s4,s4,480 # 800016cc <test_memory+0x3cc>
    800004f4:	00001597          	auipc	a1,0x1
    800004f8:	eab58593          	addi	a1,a1,-341 # 8000139f <test_memory+0x9f>
    800004fc:	b0c00913          	li	s2,-1268
    80000500:	18359103          	lh	sp,387(a1)
    80000504:	4b8f8493          	addi	s1,t6,1208
    80000508:	e4ca1d03          	lh	s10,-436(s4)
    8000050c:	4d7ea683          	lw	a3,1239(t4)
    80000510:	7e970193          	addi	gp,a4,2025
    80000514:	3740b983          	ld	s3,884(ra)
    80000518:	00100313          	li	t1,1
    8000051c:	01bdf8b3          	and	a7,s11,s11
    80000520:	c447a7a3          	sw	tp,-945(a5)
    80000524:	03f31313          	slli	t1,t1,0x3f
    80000528:	00001b17          	auipc	s6,0x1
    8000052c:	286b0b13          	addi	s6,s6,646 # 800017ae <_end+0x9e>
    80000530:	75d00d13          	li	s10,1885
    80000534:	a7300e93          	li	t4,-1421
    80000538:	00100393          	li	t2,1
    8000053c:	fff00213          	li	tp,-1
    80000540:	03bd4f33          	div	t5,s10,s11
    80000544:	03f39393          	slli	t2,t2,0x3f
    80000548:	cd600d93          	li	s11,-810
    8000054c:	ba000513          	li	a0,-1120
    80000550:	e0eb0da3          	sb	a4,-485(s6)
    80000554:	b7418793          	addi	a5,gp,-1164 # 80001a84 <_end+0x374>
    80000558:	00001e17          	auipc	t3,0x1
    8000055c:	8fce0e13          	addi	t3,t3,-1796 # 80000e54 <test_end+0x4e8>
    80000560:	fff00993          	li	s3,-1
    80000564:	010518b3          	sll	a7,a0,a6
    80000568:	51100113          	li	sp,1297
    8000056c:	0079c9b3          	xor	s3,s3,t2
    80000570:	01dd34b3          	sltu	s1,s10,t4
    80000574:	87e90b93          	addi	s7,s2,-1922
    80000578:	013e76b3          	and	a3,t3,s3
    8000057c:	007fe833          	or	a6,t6,t2
    80000580:	3ff10593          	addi	a1,sp,1023
    80000584:	a297cc83          	lbu	s9,-1495(a5)
    80000588:	fbe50293          	addi	t0,a0,-66
    8000058c:	00001097          	auipc	ra,0x1
    80000590:	db508093          	addi	ra,ra,-587 # 80001341 <test_memory+0x41>
    80000594:	747e1923          	sh	t2,1874(t3)
    80000598:	d80d8a13          	addi	s4,s11,-640
    8000059c:	3aa2fe63          	bgeu	t0,a0,80000958 <crash_forward>
    800005a0:	b74d84e3          	beq	s11,s4,80000108 <crash_backward>
    800005a4:	00624233          	xor	tp,tp,t1
    800005a8:	a6918b93          	addi	s7,gp,-1431 # 80001979 <_end+0x269>
    800005ac:	b4370ee3          	beq	a4,gp,80000108 <crash_backward>
    800005b0:	00001297          	auipc	t0,0x1
    800005b4:	c1328293          	addi	t0,t0,-1005 # 800011c3 <reg_x24_init+0x3>
    800005b8:	bdbbdd83          	lhu	s11,-1061(s7)
    800005bc:	00f0af83          	lw	t6,15(ra)
    800005c0:	00001517          	auipc	a0,0x1
    800005c4:	fe150513          	addi	a0,a0,-31 # 800015a1 <test_memory+0x2a1>
    800005c8:	0043fc33          	and	s8,t2,tp
    800005cc:	15752c83          	lw	s9,343(a0)
    800005d0:	3902a8a3          	sw	a6,913(t0)
    800005d4:	17600713          	li	a4,374
    800005d8:	ee200f13          	li	t5,-286
    800005dc:	e8818593          	addi	a1,gp,-376 # 80001d98 <_end+0x688>
    800005e0:	40e70933          	sub	s2,a4,a4
    800005e4:	19d3bd37          	lui	s10,0x19d3b
    800005e8:	00001197          	auipc	gp,0x1
    800005ec:	c7c18193          	addi	gp,gp,-900 # 80001264 <reg_x12_output+0x4>
    800005f0:	7d500113          	li	sp,2005
    800005f4:	3601a483          	lw	s1,864(gp) # 80002270 <__global_pointer$+0x360>
    800005f8:	fe000e13          	li	t3,-32
    800005fc:	00606ab3          	or	s5,zero,t1
    80000600:	3e963403          	ld	s0,1001(a2)
    80000604:	3e400093          	li	ra,996
    80000608:	e2300993          	li	s3,-477
    8000060c:	6d700913          	li	s2,1751
    80000610:	01311fb3          	sll	t6,sp,s3
    80000614:	ab100d13          	li	s10,-1359
    80000618:	90318693          	addi	a3,gp,-1789 # 80001813 <_end+0x103>
    8000061c:	d8200b13          	li	s6,-638
    80000620:	ee700413          	li	s0,-281
    80000624:	81559823          	sh	s5,-2032(a1)
    80000628:	01ef1ebb          	sllw	t4,t5,t5
    8000062c:	00100293          	li	t0,1
    80000630:	00000797          	auipc	a5,0x0
    80000634:	6fc78793          	addi	a5,a5,1788 # 80000d2c <test_end+0x3c0>
    80000638:	db400d93          	li	s11,-588
    8000063c:	03f29293          	slli	t0,t0,0x3f
    80000640:	d3569883          	lh	a7,-715(a3)
    80000644:	032083bb          	mulw	t2,ra,s2
    80000648:	bb618113          	addi	sp,gp,-1098 # 80001ac6 <_end+0x3b6>
    8000064c:	016b0cb3          	add	s9,s6,s6
    80000650:	b58d0713          	addi	a4,s10,-1192 # 19d3ab58 <_start-0x662c54a8>
    80000654:	03ce3a33          	mulhu	s4,t3,t3
    80000658:	91213e83          	ld	t4,-1774(sp)
    8000065c:	31cf019b          	addiw	gp,t5,796
    80000660:	407d5b1b          	sraiw	s6,s10,0x7
    80000664:	67278423          	sb	s2,1640(a5)
    80000668:	41b4563b          	sraw	a2,s0,s11
    8000066c:	403189b3          	sub	s3,gp,gp
    80000670:	fff00513          	li	a0,-1
    80000674:	0262583b          	divuw	a6,tp,t1
    80000678:	0f000a13          	li	s4,240
    8000067c:	22f00893          	li	a7,559
    80000680:	00554533          	xor	a0,a0,t0
    80000684:	00affbb3          	and	s7,t6,a0
    80000688:	2ced4863          	blt	s10,a4,80000958 <crash_forward>
    8000068c:	011a16bb          	sllw	a3,s4,a7
    80000690:	c2200f13          	li	t5,-990
    80000694:	41675093          	srai	ra,a4,0x16
    80000698:	005564b3          	or	s1,a0,t0
    8000069c:	003183bb          	addw	t2,gp,gp
    800006a0:	03f6ba33          	mulhu	s4,a3,t6
    800006a4:	b4900593          	li	a1,-1207
    800006a8:	02b5eb3b          	remw	s6,a1,a1
    800006ac:	24f00713          	li	a4,591
    800006b0:	01bd913b          	sllw	sp,s11,s11
    800006b4:	83b00a93          	li	s5,-1989
    800006b8:	cec18b13          	addi	s6,gp,-788 # 80001bfc <_end+0x4ec>
    800006bc:	8c3b3a23          	sd	gp,-1836(s6)
    800006c0:	b8c00393          	li	t2,-1140
    800006c4:	02bf7fbb          	remuw	t6,t5,a1
    800006c8:	bdb00793          	li	a5,-1061
    800006cc:	035ad233          	divu	tp,s5,s5
    800006d0:	6f000c93          	li	s9,1776
    800006d4:	00630633          	add	a2,t1,t1
    800006d8:	e4100893          	li	a7,-447
    800006dc:	3538bc13          	sltiu	s8,a7,851
    800006e0:	419c8433          	sub	s0,s9,s9
    800006e4:	60e00693          	li	a3,1550
    800006e8:	03973eb3          	mulhu	t4,a4,s9
    800006ec:	02f39a33          	mulh	s4,t2,a5
    800006f0:	41188933          	sub	s2,a7,a7
    800006f4:	96618813          	addi	a6,gp,-1690 # 80001876 <_end+0x166>
    800006f8:	b9c80d83          	lb	s11,-1124(a6)
    800006fc:	00000e93          	li	t4,0
    80000700:	025af33b          	remuw	t1,s5,t0
    80000704:	00001c97          	auipc	s9,0x1
    80000708:	b58c8c93          	addi	s9,s9,-1192 # 8000125c <reg_x11_output+0x4>
    8000070c:	bb418613          	addi	a2,gp,-1100 # 80001ac4 <_end+0x3b4>
    80000710:	8a000f93          	li	t6,-1888
    80000714:	24006263          	bltu	zero,zero,80000958 <crash_forward>
    80000718:	417bde3b          	sraw	t3,s7,s7
    8000071c:	00100413          	li	s0,1
    80000720:	00000793          	li	a5,0
    80000724:	03ffcc3b          	divw	s8,t6,t6
    80000728:	c0f18393          	addi	t2,gp,-1009 # 80001b1f <_end+0x40f>
    8000072c:	d6b18513          	addi	a0,gp,-661 # 80001c7b <_end+0x56b>
    80000730:	b593aa83          	lw	s5,-1191(t2)
    80000734:	cfd00893          	li	a7,-771
    80000738:	a2553283          	ld	t0,-1499(a0)
    8000073c:	ae862203          	lw	tp,-1304(a2)
    80000740:	03f41413          	slli	s0,s0,0x3f
    80000744:	02d6b1b3          	mulhu	gp,a3,a3
    80000748:	96100b93          	li	s7,-1695
    8000074c:	fff00b13          	li	s6,-1
    80000750:	01789133          	sll	sp,a7,s7
    80000754:	008b4b33          	xor	s6,s6,s0
    80000758:	0162ff33          	and	t5,t0,s6
    8000075c:	0086e733          	or	a4,a3,s0
    80000760:	1eef0c63          	beq	t5,a4,80000958 <crash_forward>
    80000764:	00001497          	auipc	s1,0x1
    80000768:	ca148493          	addi	s1,s1,-863 # 80001405 <test_memory+0x105>
    8000076c:	430ca583          	lw	a1,1072(s9)
    80000770:	2864a3a3          	sw	t1,647(s1)
    80000774:	d6000913          	li	s2,-672
    80000778:	12800213          	li	tp,296
    8000077c:	00000797          	auipc	a5,0x0
    80000780:	79a78793          	addi	a5,a5,1946 # 80000f16 <test_end+0x5aa>
    80000784:	00001b17          	auipc	s6,0x1
    80000788:	c52b0b13          	addi	s6,s6,-942 # 800013d6 <test_memory+0xd6>
    8000078c:	00d6bfb3          	sltu	t6,a3,a3
    80000790:	16bb01a3          	sb	a1,355(s6)
    80000794:	00000e97          	auipc	t4,0x0
    80000798:	7f8e8e93          	addi	t4,t4,2040 # 80000f8c <test_end+0x620>
    8000079c:	41ef0d33          	sub	s10,t5,t5
    800007a0:	40eea423          	sw	a4,1032(t4)
    800007a4:	50d00493          	li	s1,1293
    800007a8:	b1500893          	li	a7,-1259
    800007ac:	e2a00513          	li	a0,-470
    800007b0:	e1218c93          	addi	s9,gp,-494 # 80001d22 <_end+0x612>
    800007b4:	00210d3b          	addw	s10,sp,sp
    800007b8:	da000693          	li	a3,-608
    800007bc:	b1f18613          	addi	a2,gp,-1249 # 80001a2f <_end+0x31f>
    800007c0:	41be0133          	sub	sp,t3,s11
    800007c4:	00001317          	auipc	t1,0x1
    800007c8:	b0e30313          	addi	t1,t1,-1266 # 800012d2 <reg_x26_output+0x2>
    800007cc:	25b31d23          	sh	s11,602(t1)
    800007d0:	02d6beb3          	mulhu	t4,a3,a3
    800007d4:	06b46f93          	ori	t6,s0,107
    800007d8:	b1562383          	lw	t2,-1259(a2)
    800007dc:	7c3787a3          	sb	gp,1999(a5)
    800007e0:	25120193          	addi	gp,tp,593 # 251 <_start-0x7ffffdaf>
    800007e4:	00000297          	auipc	t0,0x0
    800007e8:	71128293          	addi	t0,t0,1809 # 80000ef5 <test_end+0x589>
    800007ec:	bc818393          	addi	t2,gp,-1080 # 80001ad8 <_end+0x3c8>
    800007f0:	29600e13          	li	t3,662
    800007f4:	73700093          	li	ra,1847
    800007f8:	16320063          	beq	tp,gp,80000958 <crash_forward>
    800007fc:	da700c13          	li	s8,-601
    80000800:	52100d93          	li	s11,1313
    80000804:	e3100993          	li	s3,-463
    80000808:	91acaa03          	lw	s4,-1766(s9)
    8000080c:	00000a93          	li	s5,0
    80000810:	bab39823          	sh	a1,-1104(t2)
    80000814:	f133061b          	addiw	a2,t1,-237
    80000818:	0014d833          	srl	a6,s1,ra
    8000081c:	00001b17          	auipc	s6,0x1
    80000820:	9a2b0b13          	addi	s6,s6,-1630 # 800011be <reg_x23_init+0x6>
    80000824:	ef300693          	li	a3,-269
    80000828:	7c02a9a3          	sw	zero,2003(t0)
    8000082c:	81c00313          	li	t1,-2020
    80000830:	02d6ca3b          	divw	s4,a3,a3
    80000834:	01c565b3          	or	a1,a0,t3
    80000838:	00000b93          	li	s7,0
    8000083c:	9c030113          	addi	sp,t1,-1600
    80000840:	b6318613          	addi	a2,gp,-1181 # 80001a73 <_end+0x363>
    80000844:	008d523b          	srlw	tp,s10,s0
    80000848:	00001e97          	auipc	t4,0x1
    8000084c:	802e8e93          	addi	t4,t4,-2046 # 8000104a <fromhost+0xa>
    80000850:	01b8d43b          	srlw	s0,a7,s11
    80000854:	41290733          	sub	a4,s2,s2
    80000858:	008452bb          	srlw	t0,s0,s0
    8000085c:	70300d13          	li	s10,1795
    80000860:	00001597          	auipc	a1,0x1
    80000864:	aef58593          	addi	a1,a1,-1297 # 8000134f <test_memory+0x4f>
    80000868:	00b58a33          	add	s4,a1,a1
    8000086c:	00001197          	auipc	gp,0x1
    80000870:	a3c18193          	addi	gp,gp,-1476 # 800012a8 <reg_x21_output>
    80000874:	d0e00693          	li	a3,-754
    80000878:	cd318213          	addi	tp,gp,-813 # 80001be3 <_end+0x4d3>
    8000087c:	00000117          	auipc	sp,0x0
    80000880:	62610113          	addi	sp,sp,1574 # 80000ea2 <test_end+0x536>
    80000884:	d0e00913          	li	s2,-754
    80000888:	033c4f33          	div	t5,s8,s3
    8000088c:	0273aa33          	mulhsu	s4,t2,t2
    80000890:	2f01b383          	ld	t2,752(gp) # 80002200 <__global_pointer$+0x2f0>
    80000894:	00001097          	auipc	ra,0x1
    80000898:	dd308093          	addi	ra,ra,-557 # 80001667 <test_memory+0x367>
    8000089c:	0031be33          	sltu	t3,gp,gp
    800008a0:	b9b18c93          	addi	s9,gp,-1125 # 80001aab <_end+0x39b>
    800008a4:	43d3d493          	srai	s1,t2,0x3d
    800008a8:	2dced783          	lhu	a5,732(t4)
    800008ac:	03ad6fb3          	rem	t6,s10,s10
    800008b0:	91118b93          	addi	s7,gp,-1775 # 80001821 <_end+0x111>
    800008b4:	90a20823          	sb	a0,-1776(tp) # fffffffffffff910 <__global_pointer$+0xffffffff7fffda00>
    800008b8:	a3ecb2a3          	sd	t5,-1499(s9)
    800008bc:	e4eb90a3          	sh	a4,-447(s7)
    800008c0:	fbd59503          	lh	a0,-67(a1)
    800008c4:	c3f619a3          	sh	t6,-973(a2)
    800008c8:	cd10a803          	lw	a6,-815(ra)
    800008cc:	012688b3          	add	a7,a3,s2
    800008d0:	455b0223          	sb	s5,1092(s6)
    800008d4:	7c015283          	lhu	t0,1984(sp)
    800008d8:	0040006f          	j	800008dc <reg_dump>

00000000800008dc <reg_dump>:
    800008dc:	00001097          	auipc	ra,0x1
    800008e0:	e2408093          	addi	ra,ra,-476 # 80001700 <loop_count>
    800008e4:	0000a103          	lw	sp,0(ra)
    800008e8:	fff10193          	addi	gp,sp,-1
    800008ec:	0030a023          	sw	gp,0(ra)
    800008f0:	8a011ce3          	bnez	sp,800001a8 <pseg_0>
    800008f4:	00001097          	auipc	ra,0x1
    800008f8:	90c08093          	addi	ra,ra,-1780 # 80001200 <begin_signature>
    800008fc:	0000b023          	sd	zero,0(ra)
    80000900:	0250b423          	sd	t0,40(ra)
    80000904:	0260b823          	sd	t1,48(ra)
    80000908:	0270bc23          	sd	t2,56(ra)
    8000090c:	0480b023          	sd	s0,64(ra)
    80000910:	0490b423          	sd	s1,72(ra)
    80000914:	04a0b823          	sd	a0,80(ra)
    80000918:	06d0b423          	sd	a3,104(ra)
    8000091c:	06e0b823          	sd	a4,112(ra)
    80000920:	06f0bc23          	sd	a5,120(ra)
    80000924:	0900b023          	sd	a6,128(ra)
    80000928:	0910b423          	sd	a7,136(ra)
    8000092c:	0920b823          	sd	s2,144(ra)
    80000930:	0930bc23          	sd	s3,152(ra)
    80000934:	0b40b023          	sd	s4,160(ra)
    80000938:	0b50b423          	sd	s5,168(ra)
    8000093c:	0d80b023          	sd	s8,192(ra)
    80000940:	0da0b823          	sd	s10,208(ra)
    80000944:	0db0bc23          	sd	s11,216(ra)
    80000948:	0fc0b023          	sd	t3,224(ra)
    8000094c:	0fe0b823          	sd	t5,240(ra)
    80000950:	0ff0bc23          	sd	t6,248(ra)
    80000954:	0180006f          	j	8000096c <test_end>

0000000080000958 <crash_forward>:
    80000958:	0ff0000f          	fence
    8000095c:	00018063          	beqz	gp,8000095c <crash_forward+0x4>
    80000960:	00119193          	slli	gp,gp,0x1
    80000964:	0011e193          	ori	gp,gp,1
    80000968:	00000073          	ecall

000000008000096c <test_end>:
    8000096c:	0ff0000f          	fence
    80000970:	00100193          	li	gp,1
    80000974:	00000073          	ecall
    80000978:	c0001073          	unimp
	...

Disassembly of section .tohost:

0000000080001000 <tohost>:
	...

0000000080001040 <fromhost>:
	...

Disassembly of section .data:

0000000080001100 <hidden_data>:
    80001100:	09f1                	addi	s3,s3,28
    80001102:	a4cc                	fsd	fa1,136(s1)
    80001104:	9994                	0x9994
    80001106:	9071                	srli	s0,s0,0x3c

0000000080001108 <reg_x1_init>:
    80001108:	c6b8                	sw	a4,72(a3)
    8000110a:	41e5                	li	gp,25
    8000110c:	f4d5                	bnez	s1,800010b8 <fromhost+0x78>
    8000110e:	8f51                	or	a4,a4,a2

0000000080001110 <reg_x2_init>:
    80001110:	1af32e17          	auipc	t3,0x1af32
    80001114:	01ea                	slli	gp,gp,0x1a
    80001116:	d502                	sw	zero,168(sp)

0000000080001118 <reg_x3_init>:
    80001118:	8004                	0x8004
    8000111a:	ffff                	0xffff
    8000111c:	ffff                	0xffff
    8000111e:	ffff                	0xffff

0000000080001120 <reg_x4_init>:
	...

0000000080001128 <reg_x5_init>:
    80001128:	80000007          	0x80000007
    8000112c:	ffff                	0xffff
    8000112e:	ffff                	0xffff

0000000080001130 <reg_x6_init>:
    80001130:	35b4                	fld	fa3,104(a1)
    80001132:	addd                	j	80001828 <_end+0x118>
    80001134:	e152                	sd	s4,128(sp)
    80001136:	39e0                	fld	fs0,240(a1)

0000000080001138 <reg_x7_init>:
    80001138:	d1ba                	sw	a4,224(sp)
    8000113a:	d53dba3b          	0xd53dba3b
    8000113e:	8910                	0x8910

0000000080001140 <reg_x8_init>:
    80001140:	a7a4                	fsd	fs1,72(a5)
    80001142:	31c0                	fld	fs0,160(a1)
    80001144:	d376                	sw	t4,164(sp)
    80001146:	a048                	fsd	fa0,128(s0)

0000000080001148 <reg_x9_init>:
    80001148:	0000                	unimp
    8000114a:	8000                	0x8000
    8000114c:	ffff                	0xffff
    8000114e:	ffff                	0xffff

0000000080001150 <reg_x10_init>:
    80001150:	00000003          	lb	zero,0(zero) # 0 <_start-0x80000000>
    80001154:	0000                	unimp
    80001156:	0800                	addi	s0,sp,16

0000000080001158 <reg_x11_init>:
    80001158:	f41e                	sd	t2,40(sp)
    8000115a:	d90a                	sw	sp,176(sp)
    8000115c:	cfa2                	sw	s0,220(sp)
    8000115e:	          	0x80019433

0000000080001160 <reg_x12_init>:
    80001160:	8001                	c.srli64	s0
    80001162:	ffff                	0xffff
    80001164:	ffff                	0xffff
    80001166:	ffff                	0xffff

0000000080001168 <reg_x13_init>:
    80001168:	711d                	addi	sp,sp,-96
    8000116a:	6b10216b          	0x6b10216b
    8000116e:	d0de                	sw	s7,96(sp)

0000000080001170 <reg_x14_init>:
    80001170:	a8de55ab          	0xa8de55ab
    80001174:	a384                	fsd	fs1,0(a5)
    80001176:	2eaa                	fld	ft9,136(sp)

0000000080001178 <reg_x15_init>:
    80001178:	e096                	sd	t0,64(sp)
    8000117a:	cc429b7b          	0xcc429b7b
    8000117e:	          	0xfff76aa7

0000000080001180 <reg_x16_init>:
    80001180:	fffffff7          	0xfffffff7
    80001184:	ffff                	0xffff
    80001186:	ffff                	0xffff

0000000080001188 <reg_x17_init>:
    80001188:	6668                	ld	a0,200(a2)
    8000118a:	7014                	ld	a3,32(s0)
    8000118c:	2eeee263          	bltu	t4,a4,80001470 <test_memory+0x170>

0000000080001190 <reg_x18_init>:
    80001190:	57aa                	lw	a5,168(sp)
    80001192:	5f9f 6114 645a      	0x645a61145f9f

0000000080001198 <reg_x19_init>:
    80001198:	8d3e                	mv	s10,a5
    8000119a:	f0a3f0d7          	0xf0a3f0d7
    8000119e:	3cd8                	fld	fa4,184(s1)

00000000800011a0 <reg_x20_init>:
    800011a0:	1ac9                	addi	s5,s5,-14
    800011a2:	2c97805b          	0x2c97805b
    800011a6:	532e                	lw	t1,232(sp)

00000000800011a8 <reg_x21_init>:
    800011a8:	6294                	ld	a3,0(a3)
    800011aa:	9968                	0x9968
    800011ac:	6244                	ld	s1,128(a2)
    800011ae:	e572                	sd	t3,136(sp)

00000000800011b0 <reg_x22_init>:
    800011b0:	46a4                	lw	s1,72(a3)
    800011b2:	5f5fa723          	sw	s5,1518(t6)
    800011b6:	5abd                	li	s5,-17

00000000800011b8 <reg_x23_init>:
    800011b8:	a080                	fsd	fs0,0(s1)
    800011ba:	a1ba                	fsd	fa4,192(sp)
    800011bc:	c95a769b          	0xc95a769b

00000000800011c0 <reg_x24_init>:
    800011c0:	ff89                	bnez	a5,800010da <fromhost+0x9a>
    800011c2:	ffff                	0xffff
    800011c4:	ffff                	0xffff
    800011c6:	ffff                	0xffff

00000000800011c8 <reg_x25_init>:
    800011c8:	4b6cceb7          	lui	t4,0x4b6cc
    800011cc:	03ad                	addi	t2,t2,11
    800011ce:	0f44                	addi	s1,sp,916

00000000800011d0 <reg_x26_init>:
	...

00000000800011d8 <reg_x27_init>:
    800011d8:	2bd5                	addiw	s7,s7,21
    800011da:	aa14                	fsd	fa3,16(a2)
    800011dc:	91ec                	0x91ec
    800011de:	3e06                	fld	ft8,96(sp)

00000000800011e0 <reg_x28_init>:
    800011e0:	c7b451e7          	0xc7b451e7
    800011e4:	0fd7262f          	amoswap.w.aqrl	a2,t4,(a4)

00000000800011e8 <reg_x29_init>:
    800011e8:	2e7a                	fld	ft8,408(sp)
    800011ea:	d892                	sw	tp,112(sp)
    800011ec:	eac4                	sd	s1,144(a3)
    800011ee:	b6c2                	fsd	fa6,360(sp)

00000000800011f0 <reg_x30_init>:
    800011f0:	ef9c                	sd	a5,24(a5)
    800011f2:	9e30                	0x9e30
    800011f4:	cf90                	sw	a2,24(a5)
    800011f6:	65d0                	ld	a2,136(a1)

00000000800011f8 <reg_x31_init>:
    800011f8:	8f7e                	mv	t5,t6
    800011fa:	b116                	fsd	ft5,160(sp)
    800011fc:	02f9                	addi	t0,t0,30
    800011fe:	7918                	ld	a4,48(a0)

0000000080001200 <begin_signature>:
    80001200:	f81e2593          	slti	a1,t3,-127
    80001204:	c368                	sw	a0,68(a4)
    80001206:	          	0x7445ee47

0000000080001208 <reg_x1_output>:
    80001208:	7445                	lui	s0,0xffff1
    8000120a:	9aed                	andi	a3,a3,-5
    8000120c:	0b85b4bb          	0xb85b4bb

0000000080001210 <reg_x2_output>:
    80001210:	05a0                	addi	s0,sp,712
    80001212:	b859                	j	80000aa8 <test_end+0x13c>
    80001214:	d739                	beqz	a4,80001162 <reg_x12_init+0x2>
    80001216:	8dd4                	0x8dd4

0000000080001218 <reg_x3_output>:
    80001218:	9fe2                	add	t6,t6,s8
    8000121a:	a57e58bb          	0xa57e58bb
    8000121e:	          	addiw	s9,t5,920

0000000080001220 <reg_x4_output>:
    80001220:	b44f398f          	0xb44f398f
    80001224:	698f6733          	0x698f6733

0000000080001228 <reg_x5_output>:
    80001228:	b9f5                	j	80000f24 <test_end+0x5b8>
    8000122a:	91ae                	add	gp,gp,a1
    8000122c:	b495                	j	80000c90 <test_end+0x324>
    8000122e:	          	0x4caf264b

0000000080001230 <reg_x6_output>:
    80001230:	b87f4caf          	0xb87f4caf
    80001234:	238a                	fld	ft7,128(sp)
    80001236:	3cb6                	fld	fs9,360(sp)

0000000080001238 <reg_x7_output>:
    80001238:	8d9f 93f2 a519      	0xa51993f28d9f
    8000123e:	0a1f        	0x8e622a0a1f

0000000080001240 <reg_x8_output>:
    80001240:	622a                	ld	tp,136(sp)
    80001242:	008e                	slli	ra,ra,0x3
    80001244:	5e1c                	lw	a5,56(a2)
    80001246:	6576                	ld	a0,344(sp)

0000000080001248 <reg_x9_output>:
    80001248:	95cc                	0x95cc
    8000124a:	102d                	c.nop	-21
    8000124c:	4444                	lw	s1,12(s0)
    8000124e:	4d6a                	lw	s10,152(sp)

0000000080001250 <reg_x10_output>:
    80001250:	63c99333          	0x63c99333
    80001254:	10f9                	addi	ra,ra,-2
    80001256:	3d30                	fld	fa2,120(a0)

0000000080001258 <reg_x11_output>:
    80001258:	4bbea883          	lw	a7,1211(t4) # 4b6cc4bb <_start-0x34933b45>
    8000125c:	3d9a                	fld	fs11,416(sp)
    8000125e:	          	jal	a3,800ba224 <__global_pointer$+0xb8314>

0000000080001260 <reg_x12_output>:
    80001260:	a8a27c7b          	0xa8a27c7b
    80001264:	ae154923          	0xae154923

0000000080001268 <reg_x13_output>:
    80001268:	8380                	0x8380
    8000126a:	d7d9                	beqz	a5,800011f8 <reg_x31_init>
    8000126c:	8d4d                	or	a0,a0,a1
    8000126e:	c0f1                	beqz	s1,80001332 <test_memory+0x32>

0000000080001270 <reg_x14_output>:
    80001270:	aee8                	fsd	fa0,216(a3)
    80001272:	8462                	mv	s0,s8
    80001274:	f998                	sd	a4,48(a1)
    80001276:	c10e                	sw	gp,128(sp)

0000000080001278 <reg_x15_output>:
    80001278:	0dff                	0xdff
    8000127a:	34e74807          	flq	fa6,846(a4)
    8000127e:	8dcc                	0x8dcc

0000000080001280 <reg_x16_output>:
    80001280:	f788                	sd	a0,40(a5)
    80001282:	37d8                	fld	fa4,168(a5)
    80001284:	7a91                	lui	s5,0xfffe4
    80001286:	14ed                	addi	s1,s1,-5

0000000080001288 <reg_x17_output>:
    80001288:	63da                	ld	t2,400(sp)
    8000128a:	161fc587          	flq	fa1,353(t6)
    8000128e:	          	fnmadd.d	fs2,ft6,fa2,fs6,unknown

0000000080001290 <reg_x18_output>:
    80001290:	0e7eb2c3          	fmadd.q	ft5,ft9,ft7,ft1,rup
    80001294:	3905                	addiw	s2,s2,-31
    80001296:	          	0xfdd6438b

0000000080001298 <reg_x19_output>:
    80001298:	fdd6                	sd	s5,248(sp)
    8000129a:	6e60                	ld	s0,216(a2)
    8000129c:	e054180f          	0xe054180f

00000000800012a0 <reg_x20_output>:
    800012a0:	9ed0                	0x9ed0
    800012a2:	22c2                	fld	ft5,16(sp)
    800012a4:	5a70                	lw	a2,116(a2)
    800012a6:	feec                	sd	a1,248(a3)

00000000800012a8 <reg_x21_output>:
    800012a8:	8b38                	0x8b38
    800012aa:	3fc9                	addiw	t6,t6,-14
    800012ac:	fa89                	bnez	a3,800011be <reg_x23_init+0x6>
    800012ae:	989e                	add	a7,a7,t2

00000000800012b0 <reg_x22_output>:
    800012b0:	e16a                	sd	s10,128(sp)
    800012b2:	4309                	li	t1,2
    800012b4:	58d9                	li	a7,-10
    800012b6:	ffce                	sd	s3,504(sp)

00000000800012b8 <reg_x23_output>:
    800012b8:	509f c14a 7bc3      	0x7bc3c14a509f
    800012be:	775c                	ld	a5,168(a4)

00000000800012c0 <reg_x24_output>:
    800012c0:	34c2                	fld	fs1,48(sp)
    800012c2:	db102ecf          	fnmadd.d	ft9,ft0,fa7,fs11,rdn
    800012c6:	d4c6                	sw	a7,104(sp)

00000000800012c8 <reg_x25_output>:
    800012c8:	200d                	0x200d
    800012ca:	b43db9cb          	0xb43db9cb
    800012ce:	          	0x6fb702bb

00000000800012d0 <reg_x26_output>:
    800012d0:	5d536fb7          	lui	t6,0x5d536
    800012d4:	dd414d37          	lui	s10,0xdd414

00000000800012d8 <reg_x27_output>:
    800012d8:	3e46                	fld	ft8,112(sp)
    800012da:	36cc                	fld	fa1,168(a3)
    800012dc:	ccde                	sw	s7,88(sp)
    800012de:	2d66                	fld	fs10,88(sp)

00000000800012e0 <reg_x28_output>:
    800012e0:	dd44                	sw	s1,60(a0)
    800012e2:	46d1                	li	a3,20
    800012e4:	fd84                	sd	s1,56(a1)
    800012e6:	a29e                	fsd	ft7,320(sp)

00000000800012e8 <reg_x29_output>:
    800012e8:	c95d                	beqz	a0,8000139e <test_memory+0x9e>
    800012ea:	f9c8                	sd	a0,176(a1)
    800012ec:	bf4e7357          	0xbf4e7357

00000000800012f0 <reg_x30_output>:
    800012f0:	1739                	addi	a4,a4,-18
    800012f2:	a15e                	fsd	fs7,128(sp)
    800012f4:	bbb5c143          	fmadd.d	ft2,fa1,fs11,fs7,rmm

00000000800012f8 <reg_x31_output>:
    800012f8:	ad40748b          	0xad40748b
    800012fc:	b0d4                	fsd	fa3,160(s1)
    800012fe:	488d                	li	a7,3

0000000080001300 <test_memory>:
    80001300:	582d                	li	a6,-21
    80001302:	02b8                	addi	a4,sp,328
    80001304:	6622                	ld	a2,8(sp)
    80001306:	2025                	0x2025
    80001308:	ad42                	fsd	fa6,152(sp)
    8000130a:	db80                	sw	s0,48(a5)
    8000130c:	06d1                	addi	a3,a3,20
    8000130e:	ef62                	sd	s8,408(sp)
    80001310:	78b2                	ld	a7,296(sp)
    80001312:	ebc0                	sd	s0,144(a5)
    80001314:	79bc73a7          	0x79bc73a7
    80001318:	7d81                	lui	s11,0xfffe0
    8000131a:	a232                	fsd	fa2,256(sp)
    8000131c:	f646                	sd	a7,296(sp)
    8000131e:	238d                	addiw	t2,t2,3
    80001320:	0bca                	slli	s7,s7,0x12
    80001322:	e7ff                	0xe7ff
    80001324:	0105                	addi	sp,sp,1
    80001326:	8ea9                	xor	a3,a3,a0
    80001328:	bf69                	j	800012c2 <reg_x24_output+0x2>
    8000132a:	550c3833          	0x550c3833
    8000132e:	0e3a                	slli	t3,t3,0xe
    80001330:	4e9a                	lw	t4,132(sp)
    80001332:	a312573f 761047ba 	0x761047baa312573f
    8000133a:	15781497          	auipc	s1,0x15781
    8000133e:	c7cd                	beqz	a5,800013e8 <test_memory+0xe8>
    80001340:	df5d                	beqz	a4,800012fe <reg_x31_output+0x6>
    80001342:	b68fcfab          	0xb68fcfab
    80001346:	56c6                	lw	a3,112(sp)
    80001348:	5f95                	li	t6,-27
    8000134a:	7712                	ld	a4,288(sp)
    8000134c:	2b72644b          	fnmsub.d	fs0,ft4,fs7,ft5,unknown
    80001350:	6f9a                	ld	t6,384(sp)
    80001352:	8ab2278b          	0x8ab2278b
    80001356:	da90                	sw	a2,48(a3)
    80001358:	1475                	addi	s0,s0,-3
    8000135a:	28d6                	fld	fa7,336(sp)
    8000135c:	40cd                	li	ra,19
    8000135e:	e47f                	0xe47f
    80001360:	e599                	bnez	a1,8000136e <test_memory+0x6e>
    80001362:	edd9                	bnez	a1,80001400 <test_memory+0x100>
    80001364:	2fe0                	fld	fs0,216(a5)
    80001366:	481b13ab          	0x481b13ab
    8000136a:	0a2e                	slli	s4,s4,0xb
    8000136c:	f336                	sd	a3,416(sp)
    8000136e:	caa2                	sw	s0,84(sp)
    80001370:	ebcda113          	slti	sp,s11,-324
    80001374:	eebc                	sd	a5,88(a3)
    80001376:	d8e2                	sw	s8,112(sp)
    80001378:	febd                	bnez	a3,800012f6 <reg_x30_output+0x6>
    8000137a:	ba58                	fsd	fa4,176(a2)
    8000137c:	314f054f          	fnmadd.s	fa0,ft10,fs4,ft6,rne
    80001380:	d728                	sw	a0,104(a4)
    80001382:	ae1f ab62 c618      	0xc618ab62ae1f
    80001388:	cc65                	beqz	s0,80001480 <test_memory+0x180>
    8000138a:	a159c54b          	fnmsub.s	fa0,fs3,fs5,fs4,rmm
    8000138e:	3995bb13          	sltiu	s6,a1,921
    80001392:	b6ea                	fsd	fs10,360(sp)
    80001394:	b8ec                	fsd	fa1,240(s1)
    80001396:	6e59                	lui	t3,0x16
    80001398:	714d                	addi	sp,sp,-336
    8000139a:	03a5                	addi	t2,t2,9
    8000139c:	7b30                	ld	a2,112(a4)
    8000139e:	f528                	sd	a0,104(a0)
    800013a0:	5d25                	li	s10,-23
    800013a2:	e13df75b          	0xe13df75b
    800013a6:	3da2                	fld	fs11,40(sp)
    800013a8:	6770                	ld	a2,200(a4)
    800013aa:	8d2c                	0x8d2c
    800013ac:	4838a7a7          	fsw	ft3,1167(a7)
    800013b0:	9368                	0x9368
    800013b2:	5ea6                	lw	t4,104(sp)
    800013b4:	a4fe                	fsd	ft11,72(sp)
    800013b6:	4865                	li	a6,25
    800013b8:	355d                	addiw	a0,a0,-9
    800013ba:	eb30                	sd	a2,80(a4)
    800013bc:	063c                	addi	a5,sp,776
    800013be:	1c0a                	slli	s8,s8,0x22
    800013c0:	2ba2                	fld	fs7,8(sp)
    800013c2:	f7e370ab          	0xf7e370ab
    800013c6:	62d2                	ld	t0,272(sp)
    800013c8:	9a4d                	andi	a2,a2,-13
    800013ca:	572c                	lw	a1,104(a4)
    800013cc:	20f2                	fld	ft1,280(sp)
    800013ce:	b9ff                	0xb9ff
    800013d0:	4f06                	lw	t5,64(sp)
    800013d2:	ee1a                	sd	t1,280(sp)
    800013d4:	fd31                	bnez	a0,80001330 <test_memory+0x30>
    800013d6:	605e                	0x605e
    800013d8:	e778                	sd	a4,200(a4)
    800013da:	506a                	0x506a
    800013dc:	a670                	fsd	fa2,200(a2)
    800013de:	00fc                	addi	a5,sp,76
    800013e0:	10a1ec23          	0x10a1ec23
    800013e4:	8885                	andi	s1,s1,1
    800013e6:	f125                	bnez	a0,80001346 <test_memory+0x46>
    800013e8:	d24f1aa3          	sh	tp,-715(t5)
    800013ec:	e270                	sd	a2,192(a2)
    800013ee:	3a29                	addiw	s4,s4,-22
    800013f0:	659e                	ld	a1,448(sp)
    800013f2:	db16                	sw	t0,180(sp)
    800013f4:	66cd                	lui	a3,0x13
    800013f6:	8dfddf0f          	0x8dfddf0f
    800013fa:	d860e9c3          	fmadd.s	fs3,ft1,ft6,fs11,unknown
    800013fe:	d395                	beqz	a5,80001322 <test_memory+0x22>
    80001400:	f821                	bnez	s0,80001350 <test_memory+0x50>
    80001402:	b39a96fb          	0xb39a96fb
    80001406:	5c14                	lw	a3,56(s0)
    80001408:	5c0f512b          	0x5c0f512b
    8000140c:	e442                	sd	a6,8(sp)
    8000140e:	da40                	sw	s0,52(a2)
    80001410:	196c0b93          	addi	s7,s8,406
    80001414:	15f8be9b          	0x15f8be9b
    80001418:	7fa1                	lui	t6,0xfffe8
    8000141a:	e190                	sd	a2,0(a1)
    8000141c:	05ce                	slli	a1,a1,0x13
    8000141e:	4aa5                	li	s5,9
    80001420:	e389                	bnez	a5,80001422 <test_memory+0x122>
    80001422:	9061                	srli	s0,s0,0x38
    80001424:	455f 0ea0 2833      	0x28330ea0455f
    8000142a:	1495                	addi	s1,s1,-27
    8000142c:	39e4                	fld	fs1,240(a1)
    8000142e:	a3d5                	j	80001a12 <_end+0x302>
    80001430:	da3d62fb          	0xda3d62fb
    80001434:	0565                	addi	a0,a0,25
    80001436:	99eb02eb          	0x99eb02eb
    8000143a:	6522                	ld	a0,8(sp)
    8000143c:	861c                	0x861c
    8000143e:	27ee                	fld	fa5,216(sp)
    80001440:	d73a                	sw	a4,172(sp)
    80001442:	2b01                	sext.w	s6,s6
    80001444:	f105ea53          	0xf105ea53
    80001448:	2a1c                	fld	fa5,16(a2)
    8000144a:	ff24                	sd	s1,120(a4)
    8000144c:	9aba                	add	s5,s5,a4
    8000144e:	fe21531b          	0xfe21531b
    80001452:	a0c1                	j	80001512 <test_memory+0x212>
    80001454:	5c7f                	0x5c7f
    80001456:	c7b712bb          	0xc7b712bb
    8000145a:	2ecdc677          	0x2ecdc677
    8000145e:	eb16                	sd	t0,400(sp)
    80001460:	7209bb8b          	0x7209bb8b
    80001464:	249b73b7          	lui	t2,0x249b7
    80001468:	efdc                	sd	a5,152(a5)
    8000146a:	1cdf 7a91 9a1f      	0x9a1f7a911cdf
    80001470:	3204                	fld	fs1,32(a2)
    80001472:	5929                	li	s2,-22
    80001474:	123e                	slli	tp,tp,0x2f
    80001476:	e02e                	sd	a1,0(sp)
    80001478:	d7b4                	sw	a3,104(a5)
    8000147a:	740fa647          	0x740fa647
    8000147e:	32c2f41b          	0x32c2f41b
    80001482:	7d4c                	ld	a1,184(a0)
    80001484:	2c14                	fld	fa3,24(s0)
    80001486:	31fd                	addiw	gp,gp,-1
    80001488:	df7d                	beqz	a4,80001486 <test_memory+0x186>
    8000148a:	b210593f 38d69110 	0x38d69110b210593f
    80001492:	4984                	lw	s1,16(a1)
    80001494:	be7a                	fsd	ft10,312(sp)
    80001496:	7c65                	lui	s8,0xffff9
    80001498:	a2e6                	fsd	fs9,320(sp)
    8000149a:	d965                	beqz	a0,8000148a <test_memory+0x18a>
    8000149c:	192d                	addi	s2,s2,-21
    8000149e:	4009                	c.li	zero,2
    800014a0:	639e                	ld	t2,448(sp)
    800014a2:	c19a                	sw	t1,192(sp)
    800014a4:	7a023bb3          	0x7a023bb3
    800014a8:	3a9c                	fld	fa5,48(a3)
    800014aa:	f0cc                	sd	a1,160(s1)
    800014ac:	b748                	fsd	fa0,168(a4)
    800014ae:	466d                	li	a2,27
    800014b0:	247d                	addiw	s0,s0,31
    800014b2:	07e2                	slli	a5,a5,0x18
    800014b4:	6f10                	ld	a2,24(a4)
    800014b6:	6669                	lui	a2,0x1a
    800014b8:	8324                	0x8324
    800014ba:	61ae                	ld	gp,200(sp)
    800014bc:	711d                	addi	sp,sp,-96
    800014be:	dcba                	sw	a4,120(sp)
    800014c0:	93ce                	add	t2,t2,s3
    800014c2:	f59c                	sd	a5,40(a1)
    800014c4:	1d26                	slli	s10,s10,0x29
    800014c6:	9629                	srai	a2,a2,0x2a
    800014c8:	b3fe7ceb          	0xb3fe7ceb
    800014cc:	662e                	ld	a2,200(sp)
    800014ce:	380c                	fld	fa1,48(s0)
    800014d0:	a115                	j	800018f4 <_end+0x1e4>
    800014d2:	e4621c07          	0xe4621c07
    800014d6:	199bb793          	sltiu	a5,s7,409
    800014da:	e002                	sd	zero,0(sp)
    800014dc:	2ad82eef          	jal	t4,80083f88 <__global_pointer$+0x82078>
    800014e0:	ee339277          	0xee339277
    800014e4:	796e21bf 295f0aaf 	0x295f0aaf796e21bf
    800014ec:	591d                	li	s2,-25
    800014ee:	876bdc43          	fmadd.q	fs8,fs7,fs6,fa6,unknown
    800014f2:	966c                	0x966c
    800014f4:	ddd4                	sw	a3,60(a1)
    800014f6:	32fd                	addiw	t0,t0,-1
    800014f8:	6549                	lui	a0,0x12
    800014fa:	59fc                	lw	a5,116(a1)
    800014fc:	c664                	sw	s1,76(a2)
    800014fe:	076e                	slli	a4,a4,0x1b
    80001500:	f2b2                	sd	a2,352(sp)
    80001502:	6cac                	ld	a1,88(s1)
    80001504:	0615                	addi	a2,a2,5
    80001506:	8ebe                	mv	t4,a5
    80001508:	2f42                	fld	ft10,16(sp)
    8000150a:	1b3a                	slli	s6,s6,0x2e
    8000150c:	d14c                	sw	a1,36(a0)
    8000150e:	48b5                	li	a7,13
    80001510:	3f84                	fld	fs1,56(a5)
    80001512:	b169                	j	8000119c <reg_x19_init+0x4>
    80001514:	7651                	lui	a2,0xffff4
    80001516:	d635                	beqz	a2,80001482 <test_memory+0x182>
    80001518:	2982                	fld	fs3,0(sp)
    8000151a:	0b6c                	addi	a1,sp,412
    8000151c:	5c55                	li	s8,-11
    8000151e:	00c0                	addi	s0,sp,68
    80001520:	1854160b          	0x1854160b
    80001524:	9682                	jalr	a3
    80001526:	c676                	sw	t4,12(sp)
    80001528:	6b92                	ld	s7,256(sp)
    8000152a:	8e86                	mv	t4,ra
    8000152c:	2f5d                	addiw	t5,t5,23
    8000152e:	7284                	ld	s1,32(a3)
    80001530:	f314                	sd	a3,32(a4)
    80001532:	84bd                	srai	s1,s1,0xf
    80001534:	90c5                	srli	s1,s1,0x31
    80001536:	41d4                	lw	a3,4(a1)
    80001538:	40bfa46f          	jal	s0,800fc142 <__global_pointer$+0xfa232>
    8000153c:	cc344747          	0xcc344747
    80001540:	c42a0703          	lb	a4,-958(s4)
    80001544:	63a6                	ld	t2,72(sp)
    80001546:	14a080a7          	0x14a080a7
    8000154a:	79d6                	ld	s3,368(sp)
    8000154c:	fbd6                	sd	s5,496(sp)
    8000154e:	79e2                	ld	s3,56(sp)
    80001550:	9008                	0x9008
    80001552:	eedd                	bnez	a3,80001610 <test_memory+0x310>
    80001554:	54a1                	li	s1,-24
    80001556:	d0c8                	sw	a0,36(s1)
    80001558:	958a                	add	a1,a1,sp
    8000155a:	e4e1                	bnez	s1,80001622 <test_memory+0x322>
    8000155c:	1fdd                	addi	t6,t6,-9
    8000155e:	4d86                	lw	s11,64(sp)
    80001560:	b0ce238f          	0xb0ce238f
    80001564:	86e5                	srai	a3,a3,0x19
    80001566:	8604                	0x8604
    80001568:	d46e4203          	lbu	tp,-698(t3) # 15d46 <_start-0x7ffea2ba>
    8000156c:	7f9c                	ld	a5,56(a5)
    8000156e:	f15a                	sd	s6,160(sp)
    80001570:	9afd                	andi	a3,a3,-1
    80001572:	1aa6                	slli	s5,s5,0x29
    80001574:	7d5bba5b          	0x7d5bba5b
    80001578:	9424                	0x9424
    8000157a:	8240                	0x8240
    8000157c:	6165                	addi	sp,sp,112
    8000157e:	a196                	fsd	ft5,192(sp)
    80001580:	9798                	0x9798
    80001582:	b1e1                	j	8000124a <reg_x9_output+0x2>
    80001584:	76e5                	lui	a3,0xffff9
    80001586:	cdbd                	beqz	a1,80001604 <test_memory+0x304>
    80001588:	bedd0c63          	beq	s10,a3,80000980 <test_end+0x14>
    8000158c:	ec7e                	sd	t6,24(sp)
    8000158e:	1730                	addi	a2,sp,936
    80001590:	d1c6                	sw	a7,224(sp)
    80001592:	27eb7373          	csrrci	t1,0x27e,22
    80001596:	b5e0c357          	0xb5e0c357
    8000159a:	f3fa                	sd	t5,480(sp)
    8000159c:	c97e9a4b          	fnmsub.s	fs4,ft9,fs7,fs9,rtz
    800015a0:	a779                	j	80001d2e <_end+0x61e>
    800015a2:	ec12fd6f          	jal	s10,7ff31462 <_start-0xceb9e>
    800015a6:	a2a9                	j	800016f0 <test_memory+0x3f0>
    800015a8:	1bfe                	slli	s7,s7,0x3f
    800015aa:	97a9                	srai	a5,a5,0x2a
    800015ac:	85c115ab          	0x85c115ab
    800015b0:	9de9                	0x9de9
    800015b2:	6cae                	ld	s9,200(sp)
    800015b4:	1d4e                	slli	s10,s10,0x33
    800015b6:	853586c7          	0x853586c7
    800015ba:	2ca1e967          	0x2ca1e967
    800015be:	ca84c4cb          	fnmsub.d	fs1,fs1,fs0,fs9,rmm
    800015c2:	f324                	sd	s1,96(a4)
    800015c4:	d51a                	sw	t1,168(sp)
    800015c6:	d67e                	sw	t6,44(sp)
    800015c8:	8726                	mv	a4,s1
    800015ca:	c7f4                	sw	a3,76(a5)
    800015cc:	b836                	fsd	fa3,48(sp)
    800015ce:	5722f5bf f1063d4d 	0xf1063d4d5722f5bf
    800015d6:	47efa73b          	0x47efa73b
    800015da:	ab7a                	fsd	ft10,400(sp)
    800015dc:	9e9e                	add	t4,t4,t2
    800015de:	23fc                	fld	fa5,192(a5)
    800015e0:	957d                	srai	a0,a0,0x3f
    800015e2:	585e                	lw	a6,244(sp)
    800015e4:	5b72                	lw	s6,60(sp)
    800015e6:	15fd                	addi	a1,a1,-1
    800015e8:	00c0                	addi	s0,sp,68
    800015ea:	f52d                	bnez	a0,80001554 <test_memory+0x254>
    800015ec:	5399                	li	t2,-26
    800015ee:	4bb1                	li	s7,12
    800015f0:	55e0                	lw	s0,108(a1)
    800015f2:	9c9792e7          	0x9c9792e7
    800015f6:	4f94                	lw	a3,24(a5)
    800015f8:	95ae                	add	a1,a1,a1
    800015fa:	48b6                	lw	a7,76(sp)
    800015fc:	7b1d                	lui	s6,0xfffe7
    800015fe:	5eb2                	lw	t4,44(sp)
    80001600:	751d                	lui	a0,0xfffe7
    80001602:	5d5e                	lw	s10,244(sp)
    80001604:	1d4df7cf          	0x1d4df7cf
    80001608:	56c6                	lw	a3,112(sp)
    8000160a:	92310e23          	sb	gp,-1732(sp)
    8000160e:	5012                	0x5012
    80001610:	4b48d5c3          	fmadd.d	fa1,fa7,fs4,fs1,unknown
    80001614:	990d                	andi	a0,a0,-29
    80001616:	42a6                	lw	t0,72(sp)
    80001618:	3e65                	addiw	t3,t3,-7
    8000161a:	69b1                	lui	s3,0xc
    8000161c:	c219                	beqz	a2,80001622 <test_memory+0x322>
    8000161e:	8321                	srli	a4,a4,0x8
    80001620:	3890                	fld	fa2,48(s1)
    80001622:	3f29                	addiw	t5,t5,-22
    80001624:	96ad                	srai	a3,a3,0x2b
    80001626:	7ff9                	lui	t6,0xffffe
    80001628:	40c6                	lw	ra,80(sp)
    8000162a:	5b24                	lw	s1,112(a4)
    8000162c:	41ba                	lw	gp,140(sp)
    8000162e:	1ff5                	addi	t6,t6,-3
    80001630:	a824                	fsd	fs1,80(s0)
    80001632:	76b0                	ld	a2,104(a3)
    80001634:	cb72                	sw	t3,148(sp)
    80001636:	5d54                	lw	a3,60(a0)
    80001638:	80dc                	0x80dc
    8000163a:	e9369557          	0xe9369557
    8000163e:	26b8                	fld	fa4,72(a3)
    80001640:	6bf8                	ld	a4,208(a5)
    80001642:	80dd                	srli	s1,s1,0x17
    80001644:	ccca                	sw	s2,88(sp)
    80001646:	f432                	sd	a2,40(sp)
    80001648:	7e62                	ld	t3,56(sp)
    8000164a:	51ec                	lw	a1,100(a1)
    8000164c:	9a13dbdb          	0x9a13dbdb
    80001650:	b68d                	j	800011b2 <reg_x22_init+0x2>
    80001652:	4021                	c.li	zero,8
    80001654:	8158                	0x8158
    80001656:	912f46e7          	0x912f46e7
    8000165a:	9976                	add	s2,s2,t4
    8000165c:	da136c3b          	0xda136c3b
    80001660:	82e8                	0x82e8
    80001662:	868a                	mv	a3,sp
    80001664:	95611bab          	0x95611bab
    80001668:	45ce                	lw	a1,208(sp)
    8000166a:	6f92                	ld	t6,256(sp)
    8000166c:	9e9c                	0x9e9c
    8000166e:	ca9d                	beqz	a3,800016a4 <test_memory+0x3a4>
    80001670:	553c                	lw	a5,104(a0)
    80001672:	dc72                	sw	t3,56(sp)
    80001674:	d0b77d53          	0xd0b77d53
    80001678:	6f4e                	ld	t5,208(sp)
    8000167a:	213d                	addiw	sp,sp,15
    8000167c:	ed92                	sd	tp,216(sp)
    8000167e:	c49e                	sw	t2,72(sp)
    80001680:	d2e9                	beqz	a3,80001642 <test_memory+0x342>
    80001682:	d2d2                	sw	s4,100(sp)
    80001684:	5e204617          	auipc	a2,0x5e204
    80001688:	0255                	addi	tp,tp,21
    8000168a:	c3be                	sw	a5,196(sp)
    8000168c:	34e8                	fld	fa0,232(s1)
    8000168e:	9e3d                	addw	a2,a2,a5
    80001690:	65a5                	lui	a1,0x9
    80001692:	13804c03          	lbu	s8,312(zero) # 138 <_start-0x7ffffec8>
    80001696:	d67e                	sw	t6,44(sp)
    80001698:	40b30d7b          	0x40b30d7b
    8000169c:	7693e6c7          	fmsub.q	fa3,ft7,fs1,fa4,unknown
    800016a0:	5df8                	lw	a4,124(a1)
    800016a2:	47e2                	lw	a5,24(sp)
    800016a4:	b499                	j	800010ea <fromhost+0xaa>
    800016a6:	2e25                	addiw	t3,t3,9
    800016a8:	62d5                	lui	t0,0x15
    800016aa:	29cc                	fld	fa1,144(a1)
    800016ac:	ef11                	bnez	a4,800016c8 <test_memory+0x3c8>
    800016ae:	48edf31b          	0x48edf31b
    800016b2:	8e49                	or	a2,a2,a0
    800016b4:	55f8                	lw	a4,108(a1)
    800016b6:	88dc                	0x88dc
    800016b8:	c6ce                	sw	s3,76(sp)
    800016ba:	e15a                	sd	s6,128(sp)
    800016bc:	e90d                	bnez	a0,800016ee <test_memory+0x3ee>
    800016be:	6d067223          	0x6d067223
    800016c2:	9384                	0x9384
    800016c4:	e9fe                	sd	t6,208(sp)
    800016c6:	0cbd                	addi	s9,s9,15
    800016c8:	b83e                	fsd	fa5,48(sp)
    800016ca:	8b4a65b3          	0x8b4a65b3
    800016ce:	a27074e3          	bgeu	zero,t2,800010f6 <fromhost+0xb6>
    800016d2:	e190                	sd	a2,0(a1)
    800016d4:	515e                	lw	sp,244(sp)
    800016d6:	25b4ebeb          	0x25b4ebeb
    800016da:	8981                	andi	a1,a1,0
    800016dc:	66ff6dbb          	0x66ff6dbb
    800016e0:	5d61fa77          	0x5d61fa77
    800016e4:	07dd                	addi	a5,a5,23
    800016e6:	fcd4                	sd	a3,184(s1)
    800016e8:	a416                	fsd	ft5,8(sp)
    800016ea:	7bc6                	ld	s7,112(sp)
    800016ec:	8e2a                	mv	t3,a0
    800016ee:	8f00                	0x8f00
    800016f0:	cca8ea3b          	0xcca8ea3b
    800016f4:	fbe75957          	0xfbe75957
    800016f8:	fa6c                	sd	a1,240(a2)
    800016fa:	ecea                	sd	s10,88(sp)
    800016fc:	9d9536cb          	0x9d9536cb

0000000080001700 <loop_count>:
    80001700:	0040                	addi	s0,sp,4
	...

Disassembly of section .riscv.attributes:

0000000000000000 <.riscv.attributes>:
   0:	2d41                	addiw	s10,s10,16
   2:	0000                	unimp
   4:	7200                	ld	s0,32(a2)
   6:	7369                	lui	t1,0xffffa
   8:	01007663          	bgeu	zero,a6,14 <_start-0x7fffffec>
   c:	00000023          	sb	zero,0(zero) # 0 <_start-0x80000000>
  10:	7205                	lui	tp,0xfffe1
  12:	3676                	fld	fa2,376(sp)
  14:	6934                	ld	a3,80(a0)
  16:	7032                	0x7032
  18:	5f30                	lw	a2,120(a4)
  1a:	326d                	addiw	tp,tp,-5
  1c:	3070                	fld	fa2,224(s0)
  1e:	615f 7032 5f30      	0x5f307032615f
  24:	3266                	fld	ft4,120(sp)
  26:	3070                	fld	fa2,224(s0)
  28:	645f 7032 0030      	0x307032645f
