
test.elf:     file format elf64-littleriscv


Disassembly of section .text:

0000000080000000 <_start>:
    80000000:	00080137          	lui	sp,0x80
    80000004:	0011011b          	addiw	sp,sp,1
    80000008:	00c11113          	slli	sp,sp,0xc
    8000000c:	00a00513          	li	a0,10
    80000010:	008000ef          	jal	ra,80000018 <func1>
    80000014:	0640006f          	j	80000078 <fin>

0000000080000018 <func1>:
    80000018:	02050663          	beqz	a0,80000044 <_func_fin1>
    8000001c:	fe010113          	addi	sp,sp,-32 # 7ffe0 <_start-0x7ff80020>
    80000020:	00a13023          	sd	a0,0(sp)
    80000024:	00113423          	sd	ra,8(sp)
    80000028:	fff50513          	addi	a0,a0,-1
    8000002c:	01c000ef          	jal	ra,80000048 <func2>
    80000030:	00813083          	ld	ra,8(sp)
    80000034:	00013683          	ld	a3,0(sp)
    80000038:	02010113          	addi	sp,sp,32
    8000003c:	00d50533          	add	a0,a0,a3
    80000040:	00008067          	ret

0000000080000044 <_func_fin1>:
    80000044:	00008067          	ret

0000000080000048 <func2>:
    80000048:	02050663          	beqz	a0,80000074 <_func_fin2>
    8000004c:	fe010113          	addi	sp,sp,-32
    80000050:	00a13023          	sd	a0,0(sp)
    80000054:	00113423          	sd	ra,8(sp)
    80000058:	fff50513          	addi	a0,a0,-1
    8000005c:	fbdff0ef          	jal	ra,80000018 <func1>
    80000060:	00813083          	ld	ra,8(sp)
    80000064:	00013683          	ld	a3,0(sp)
    80000068:	02010113          	addi	sp,sp,32
    8000006c:	00d50533          	add	a0,a0,a3
    80000070:	00008067          	ret

0000000080000074 <_func_fin2>:
    80000074:	00008067          	ret

0000000080000078 <fin>:
    80000078:	00000013          	nop
    8000007c:	00000013          	nop
    80000080:	00000013          	nop
    80000084:	00100513          	li	a0,1
    80000088:	000805b7          	lui	a1,0x80
    8000008c:	0015859b          	addiw	a1,a1,1
    80000090:	00c59593          	slli	a1,a1,0xc

0000000080000094 <_finish_loop>:
    80000094:	00a5a023          	sw	a0,0(a1) # 80000 <_start-0x7ff80000>
    80000098:	ffdff06f          	j	80000094 <_finish_loop>
