
test.elf:     file format elf64-littleriscv


Disassembly of section .text.init:

0000000080000000 <_start>:
    80000000:	0580006f          	j	80000058 <reset_vector>

0000000080000004 <trap_vector>:
    80000004:	34202f73          	csrr	t5,mcause
    80000008:	00800f93          	li	t6,8
    8000000c:	05ff0063          	beq	t5,t6,8000004c <write_tohost>
    80000010:	00900f93          	li	t6,9
    80000014:	03ff0c63          	beq	t5,t6,8000004c <write_tohost>
    80000018:	00b00f93          	li	t6,11
    8000001c:	03ff0863          	beq	t5,t6,8000004c <write_tohost>
    80000020:	00000f13          	li	t5,0
    80000024:	000f0463          	beqz	t5,8000002c <trap_vector+0x28>
    80000028:	000f0067          	jr	t5
    8000002c:	34202f73          	csrr	t5,mcause
    80000030:	000f5463          	bgez	t5,80000038 <handle_exception>
    80000034:	0140006f          	j	80000048 <other_exception>

0000000080000038 <handle_exception>:
    80000038:	34102e73          	csrr	t3,mepc
    8000003c:	004e0e13          	addi	t3,t3,4
    80000040:	341e1073          	csrw	mepc,t3
    80000044:	30200073          	mret

0000000080000048 <other_exception>:
    80000048:	5391e193          	ori	gp,gp,1337

000000008000004c <write_tohost>:
    8000004c:	00001f17          	auipc	t5,0x1
    80000050:	fa3f2a23          	sw	gp,-76(t5) # 80001000 <tohost>
    80000054:	ff9ff06f          	j	8000004c <write_tohost>

0000000080000058 <reset_vector>:
    80000058:	f1402573          	csrr	a0,mhartid
    8000005c:	00051063          	bnez	a0,8000005c <reset_vector+0x4>
    80000060:	00000297          	auipc	t0,0x0
    80000064:	01028293          	addi	t0,t0,16 # 80000070 <reset_vector+0x18>
    80000068:	30529073          	csrw	mtvec,t0
    8000006c:	18005073          	csrwi	satp,0
    80000070:	00000297          	auipc	t0,0x0
    80000074:	01c28293          	addi	t0,t0,28 # 8000008c <reset_vector+0x34>
    80000078:	30529073          	csrw	mtvec,t0
    8000007c:	fff00293          	li	t0,-1
    80000080:	3b029073          	csrw	pmpaddr0,t0
    80000084:	01f00293          	li	t0,31
    80000088:	3a029073          	csrw	pmpcfg0,t0
    8000008c:	00000297          	auipc	t0,0x0
    80000090:	01828293          	addi	t0,t0,24 # 800000a4 <reset_vector+0x4c>
    80000094:	30529073          	csrw	mtvec,t0
    80000098:	30205073          	csrwi	medeleg,0
    8000009c:	30305073          	csrwi	mideleg,0
    800000a0:	30405073          	csrwi	mie,0
    800000a4:	00000193          	li	gp,0
    800000a8:	00000297          	auipc	t0,0x0
    800000ac:	f5c28293          	addi	t0,t0,-164 # 80000004 <trap_vector>
    800000b0:	30529073          	csrw	mtvec,t0
    800000b4:	00100513          	li	a0,1
    800000b8:	01f51513          	slli	a0,a0,0x1f
    800000bc:	00055863          	bgez	a0,800000cc <reset_vector+0x74>
    800000c0:	0ff0000f          	fence
    800000c4:	00100193          	li	gp,1
    800000c8:	00000073          	ecall
    800000cc:	00000293          	li	t0,0
    800000d0:	00028e63          	beqz	t0,800000ec <reset_vector+0x94>
    800000d4:	10529073          	csrw	stvec,t0
    800000d8:	0000b2b7          	lui	t0,0xb
    800000dc:	1092829b          	addiw	t0,t0,265
    800000e0:	30229073          	csrw	medeleg,t0
    800000e4:	30202373          	csrr	t1,medeleg
    800000e8:	f66290e3          	bne	t0,t1,80000048 <other_exception>
    800000ec:	30005073          	csrwi	mstatus,0
    800000f0:	00000297          	auipc	t0,0x0
    800000f4:	01428293          	addi	t0,t0,20 # 80000104 <reset_vector+0xac>
    800000f8:	34129073          	csrw	mepc,t0
    800000fc:	f1402573          	csrr	a0,mhartid
    80000100:	30200073          	mret
    80000104:	0180006f          	j	8000011c <test_start>

0000000080000108 <crash_backward>:
    80000108:	0ff0000f          	fence
    8000010c:	00018063          	beqz	gp,8000010c <crash_backward+0x4>
    80000110:	00119193          	slli	gp,gp,0x1
    80000114:	0011e193          	ori	gp,gp,1
    80000118:	00000073          	ecall

000000008000011c <test_start>:
    8000011c:	00001f97          	auipc	t6,0x1
    80000120:	fe4f8f93          	addi	t6,t6,-28 # 80001100 <hidden_data>
    80000124:	000fb003          	ld	zero,0(t6)
    80000128:	008fb083          	ld	ra,8(t6)
    8000012c:	010fb103          	ld	sp,16(t6)
    80000130:	018fb183          	ld	gp,24(t6)
    80000134:	020fb203          	ld	tp,32(t6)
    80000138:	028fb283          	ld	t0,40(t6)
    8000013c:	030fb303          	ld	t1,48(t6)
    80000140:	038fb383          	ld	t2,56(t6)
    80000144:	040fb403          	ld	s0,64(t6)
    80000148:	048fb483          	ld	s1,72(t6)
    8000014c:	050fb503          	ld	a0,80(t6)
    80000150:	058fb583          	ld	a1,88(t6)
    80000154:	060fb603          	ld	a2,96(t6)
    80000158:	068fb683          	ld	a3,104(t6)
    8000015c:	070fb703          	ld	a4,112(t6)
    80000160:	078fb783          	ld	a5,120(t6)
    80000164:	080fb803          	ld	a6,128(t6)
    80000168:	088fb883          	ld	a7,136(t6)
    8000016c:	090fb903          	ld	s2,144(t6)
    80000170:	098fb983          	ld	s3,152(t6)
    80000174:	0a0fba03          	ld	s4,160(t6)
    80000178:	0a8fba83          	ld	s5,168(t6)
    8000017c:	0b0fbb03          	ld	s6,176(t6)
    80000180:	0b8fbb83          	ld	s7,184(t6)
    80000184:	0c0fbc03          	ld	s8,192(t6)
    80000188:	0c8fbc83          	ld	s9,200(t6)
    8000018c:	0d0fbd03          	ld	s10,208(t6)
    80000190:	0d8fbd83          	ld	s11,216(t6)
    80000194:	0e0fbe03          	ld	t3,224(t6)
    80000198:	0e8fbe83          	ld	t4,232(t6)
    8000019c:	0f0fbf03          	ld	t5,240(t6)
    800001a0:	0f8fbf83          	ld	t6,248(t6)
    800001a4:	0040006f          	j	800001a8 <pseg_0>

00000000800001a8 <pseg_0>:
    800001a8:	de718f13          	addi	t5,gp,-537 # 80001cf7 <_end+0x5e7>
    800001ac:	941f4b03          	lbu	s6,-1727(t5)
    800001b0:	55100a93          	li	s5,1361
    800001b4:	9b500713          	li	a4,-1611
    800001b8:	02e7023b          	mulw	tp,a4,a4
    800001bc:	00001117          	auipc	sp,0x1
    800001c0:	30e10113          	addi	sp,sp,782 # 800014ca <test_memory+0x1ca>
    800001c4:	b9318993          	addi	s3,gp,-1133 # 80001aa3 <_end+0x393>
    800001c8:	00000813          	li	a6,0
    800001cc:	7a800313          	li	t1,1960
    800001d0:	00080e93          	mv	t4,a6
    800001d4:	000e8693          	mv	a3,t4
    800001d8:	be0a3593          	sltiu	a1,s4,-1056
    800001dc:	00216433          	or	s0,sp,sp
    800001e0:	00100d93          	li	s11,1
    800001e4:	03bde2bb          	remw	t0,s11,s11
    800001e8:	668a8f93          	addi	t6,s5,1640
    800001ec:	3ea30c93          	addi	s9,t1,1002
    800001f0:	ec212903          	lw	s2,-318(sp)
    800001f4:	03fd9d93          	slli	s11,s11,0x3f
    800001f8:	00001897          	auipc	a7,0x1
    800001fc:	f3388893          	addi	a7,a7,-205 # 8000112b <reg_x5_init+0x3>
    80000200:	00001597          	auipc	a1,0x1
    80000204:	cdf58593          	addi	a1,a1,-801 # 80000edf <test_end+0x4bf>
    80000208:	412954bb          	sraw	s1,s2,s2
    8000020c:	00000a13          	li	s4,0
    80000210:	7cd5ec83          	lwu	s9,1997(a1)
    80000214:	44100313          	li	t1,1089
    80000218:	46f8c183          	lbu	gp,1135(a7)
    8000021c:	83400393          	li	t2,-1996
    80000220:	039c85bb          	mulw	a1,s9,s9
    80000224:	66230693          	addi	a3,t1,1634
    80000228:	00d6de33          	srl	t3,a3,a3
    8000022c:	00001c97          	auipc	s9,0x1
    80000230:	18fc8c93          	addi	s9,s9,399 # 800013bb <test_memory+0xbb>
    80000234:	00001817          	auipc	a6,0x1
    80000238:	0fa80813          	addi	a6,a6,250 # 8000132e <test_memory+0x2e>
    8000023c:	73c00e93          	li	t4,1852
    80000240:	016e7bb3          	and	s7,t3,s6
    80000244:	00100213          	li	tp,1
    80000248:	12fcd403          	lhu	s0,303(s9)
    8000024c:	0073cc33          	xor	s8,t2,t2
    80000250:	fff00d13          	li	s10,-1
    80000254:	03deff33          	remu	t5,t4,t4
    80000258:	03f21213          	slli	tp,tp,0x3f
    8000025c:	c259d783          	lhu	a5,-987(s3)
    80000260:	00100113          	li	sp,1
    80000264:	7ad30463          	beq	t1,a3,80000a0c <crash_forward>
    80000268:	ef318513          	addi	a0,gp,-269 # 80001e03 <_end+0x6f3>
    8000026c:	fee82483          	lw	s1,-18(a6)
    80000270:	83851fa3          	sh	s8,-1985(a0)
    80000274:	03f11113          	slli	sp,sp,0x3f
    80000278:	01bd4d33          	xor	s10,s10,s11
    8000027c:	fff00713          	li	a4,-1
    80000280:	01a6f0b3          	and	ra,a3,s10
    80000284:	01b0e633          	or	a2,ra,s11
    80000288:	01deea33          	or	s4,t4,t4
    8000028c:	dde00393          	li	t2,-546
    80000290:	00000513          	li	a0,0
    80000294:	6c800b93          	li	s7,1736
    80000298:	00474733          	xor	a4,a4,tp
    8000029c:	017bd5b3          	srl	a1,s7,s7
    800002a0:	00e8fab3          	and	s5,a7,a4
    800002a4:	004de933          	or	s2,s11,tp
    800002a8:	00000693          	li	a3,0
    800002ac:	e52afee3          	bgeu	s5,s2,80000108 <crash_backward>
    800002b0:	0275ac33          	mulhsu	s8,a1,t2
    800002b4:	02738a3b          	mulw	s4,t2,t2
    800002b8:	00100493          	li	s1,1
    800002bc:	b3400413          	li	s0,-1228
    800002c0:	e4d564e3          	bltu	a0,a3,80000108 <crash_backward>
    800002c4:	93a40193          	addi	gp,s0,-1734
    800002c8:	031209bb          	mulw	s3,tp,a7
    800002cc:	fff00293          	li	t0,-1
    800002d0:	36500313          	li	t1,869
    800002d4:	7281dc63          	bge	gp,s0,80000a0c <crash_forward>
    800002d8:	026338b3          	mulhu	a7,t1,t1
    800002dc:	03234bb3          	div	s7,t1,s2
    800002e0:	00100913          	li	s2,1
    800002e4:	00001597          	auipc	a1,0x1
    800002e8:	eb458593          	addi	a1,a1,-332 # 80001198 <reg_x19_init>
    800002ec:	00001e17          	auipc	t3,0x1
    800002f0:	10ce0e13          	addi	t3,t3,268 # 800013f8 <test_memory+0xf8>
    800002f4:	03f91913          	slli	s2,s2,0x3f
    800002f8:	5eb00813          	li	a6,1515
    800002fc:	fff00693          	li	a3,-1
    80000300:	0126c6b3          	xor	a3,a3,s2
    80000304:	44400613          	li	a2,1092
    80000308:	aed00d93          	li	s11,-1299
    8000030c:	01b60233          	add	tp,a2,s11
    80000310:	00001397          	auipc	t2,0x1
    80000314:	1aa38393          	addi	t2,t2,426 # 800014ba <test_memory+0x1ba>
    80000318:	00d9fd33          	and	s10,s3,a3
    8000031c:	f7118713          	addi	a4,gp,-143 # 80001e81 <_end+0x771>
    80000320:	00001a97          	auipc	s5,0x1
    80000324:	2a0a8a93          	addi	s5,s5,672 # 800015c0 <test_memory+0x2c0>
    80000328:	26d59423          	sh	a3,616(a1)
    8000032c:	00001517          	auipc	a0,0x1
    80000330:	28350513          	addi	a0,a0,643 # 800015af <test_memory+0x2af>
    80000334:	ea451ba3          	sh	tp,-329(a0)
    80000338:	058e6783          	lwu	a5,88(t3)
    8000033c:	030840bb          	divw	ra,a6,a6
    80000340:	012d6a33          	or	s4,s10,s2
    80000344:	ddaa62e3          	bltu	s4,s10,80000108 <crash_backward>
    80000348:	825700a3          	sb	t0,-2015(a4)
    8000034c:	fd6adc03          	lhu	s8,-42(s5)
    80000350:	1e63c983          	lbu	s3,486(t2)
    80000354:	03f49493          	slli	s1,s1,0x3f
    80000358:	fff00f13          	li	t5,-1
    8000035c:	009f4f33          	xor	t5,t5,s1
    80000360:	01ea7eb3          	and	t4,s4,t5
    80000364:	0022c2b3          	xor	t0,t0,sp
    80000368:	009eecb3          	or	s9,t4,s1
    8000036c:	d99e8ee3          	beq	t4,s9,80000108 <crash_backward>
    80000370:	005bfb33          	and	s6,s7,t0
    80000374:	002b6fb3          	or	t6,s6,sp
    80000378:	696fda63          	bge	t6,s6,80000a0c <crash_forward>
    8000037c:	63400493          	li	s1,1588
    80000380:	e9c18993          	addi	s3,gp,-356 # 80001dac <_end+0x69c>
    80000384:	00001197          	auipc	gp,0x1
    80000388:	10118193          	addi	gp,gp,257 # 80001485 <test_memory+0x185>
    8000038c:	02006a3b          	remw	s4,zero,zero
    80000390:	fd400a93          	li	s5,-44
    80000394:	3cd00113          	li	sp,973
    80000398:	a2f18b13          	addi	s6,gp,-1489 # 8000193f <_end+0x22f>
    8000039c:	00211db3          	sll	s11,sp,sp
    800003a0:	001abeb3          	sltu	t4,s5,ra
    800003a4:	a3718213          	addi	tp,gp,-1481 # 80001947 <_end+0x237>
    800003a8:	00001417          	auipc	s0,0x1
    800003ac:	f1440413          	addi	s0,s0,-236 # 800012bc <reg_x23_output+0x4>
    800003b0:	7b200f93          	li	t6,1970
    800003b4:	0094c633          	xor	a2,s1,s1
    800003b8:	00b318bb          	sllw	a7,t1,a1
    800003bc:	a9d21383          	lh	t2,-1379(tp) # fffffffffffffa9d <__global_pointer$+0xffffffff7fffdb8d>
    800003c0:	96200c13          	li	s8,-1694
    800003c4:	00001817          	auipc	a6,0x1
    800003c8:	2c080813          	addi	a6,a6,704 # 80001684 <test_memory+0x384>
    800003cc:	00001d97          	auipc	s11,0x1
    800003d0:	c25d8d93          	addi	s11,s11,-987 # 80000ff1 <test_end+0x5d1>
    800003d4:	cd7b30a3          	sd	s7,-831(s6)
    800003d8:	00001797          	auipc	a5,0x1
    800003dc:	27578793          	addi	a5,a5,629 # 8000164d <test_memory+0x34d>
    800003e0:	00001e97          	auipc	t4,0x1
    800003e4:	f16e8e93          	addi	t4,t4,-234 # 800012f6 <reg_x30_output+0x6>
    800003e8:	2fee8483          	lb	s1,766(t4)
    800003ec:	fac80583          	lb	a1,-84(a6)
    800003f0:	b2500713          	li	a4,-1243
    800003f4:	00001a17          	auipc	s4,0x1
    800003f8:	367a0a13          	addi	s4,s4,871 # 8000175b <_end+0x4b>
    800003fc:	8549d903          	lhu	s2,-1964(s3)
    80000400:	00100213          	li	tp,1
    80000404:	03f21213          	slli	tp,tp,0x3f
    80000408:	419d9103          	lh	sp,1049(s11)
    8000040c:	f881c283          	lbu	t0,-120(gp) # 80001e98 <_end+0x788>
    80000410:	cb1a09a3          	sb	a7,-845(s4)
    80000414:	5f400513          	li	a0,1524
    80000418:	02effe3b          	remuw	t3,t6,a4
    8000041c:	f637a083          	lw	ra,-157(a5)
    80000420:	00001317          	auipc	t1,0x1
    80000424:	1a530313          	addi	t1,t1,421 # 800015c5 <test_memory+0x2c5>
    80000428:	39c00693          	li	a3,924
    8000042c:	038afcb3          	remu	s9,s5,s8
    80000430:	fff00393          	li	t2,-1
    80000434:	48500913          	li	s2,1157
    80000438:	ce900793          	li	a5,-791
    8000043c:	00001717          	auipc	a4,0x1
    80000440:	cdc70713          	addi	a4,a4,-804 # 80001118 <reg_x3_init>
    80000444:	03188e33          	mul	t3,a7,a7
    80000448:	8d978e93          	addi	t4,a5,-1831
    8000044c:	0043c3b3          	xor	t2,t2,tp
    80000450:	02dc1093          	slli	ra,s8,0x2d
    80000454:	cbd7cae3          	blt	a5,t4,80000108 <crash_backward>
    80000458:	0cb35d03          	lhu	s10,203(t1)
    8000045c:	0ec41b83          	lh	s7,236(s0)
    80000460:	00001117          	auipc	sp,0x1
    80000464:	2d310113          	addi	sp,sp,723 # 80001733 <_end+0x23>
    80000468:	02d50f33          	mul	t5,a0,a3
    8000046c:	0077f8b3          	and	a7,a5,t2
    80000470:	59bd9e63          	bne	s11,s11,80000a0c <crash_forward>
    80000474:	0048e633          	or	a2,a7,tp
    80000478:	c9912983          	lw	s3,-871(sp)
    8000047c:	01294a33          	xor	s4,s2,s2
    80000480:	00100293          	li	t0,1
    80000484:	49400113          	li	sp,1172
    80000488:	00001f97          	auipc	t6,0x1
    8000048c:	cfdf8f93          	addi	t6,t6,-771 # 80001185 <reg_x16_init+0x5>
    80000490:	4ea00a13          	li	s4,1258
    80000494:	68c00993          	li	s3,1676
    80000498:	00001b97          	auipc	s7,0x1
    8000049c:	e2ab8b93          	addi	s7,s7,-470 # 800012c2 <reg_x24_output+0x2>
    800004a0:	a09aef13          	ori	t5,s5,-1527
    800004a4:	0d600913          	li	s2,214
    800004a8:	baf18213          	addi	tp,gp,-1105 # 80001abf <_end+0x3af>
    800004ac:	90400c93          	li	s9,-1788
    800004b0:	009c2c33          	slt	s8,s8,s1
    800004b4:	458fafa3          	sw	s8,1119(t6)
    800004b8:	fd800793          	li	a5,-40
    800004bc:	00001697          	auipc	a3,0x1
    800004c0:	29468693          	addi	a3,a3,660 # 80001750 <_end+0x40>
    800004c4:	2bc00413          	li	s0,700
    800004c8:	032a01bb          	mulw	gp,s4,s2
    800004cc:	00001e97          	auipc	t4,0x1
    800004d0:	f83e8e93          	addi	t4,t4,-125 # 8000144f <test_memory+0x14f>
    800004d4:	baa56a93          	ori	s5,a0,-1110
    800004d8:	03cfc3bb          	divw	t2,t6,t3
    800004dc:	0399e0bb          	remw	ra,s3,s9
    800004e0:	00001e17          	auipc	t3,0x1
    800004e4:	f01e0e13          	addi	t3,t3,-255 # 800013e1 <test_memory+0xe1>
    800004e8:	3b3ba723          	sw	s3,942(s7)
    800004ec:	01d0163b          	sllw	a2,zero,t4
    800004f0:	4cd74b03          	lbu	s6,1229(a4)
    800004f4:	00000913          	li	s2,0
    800004f8:	02f17d3b          	remuw	s10,sp,a5
    800004fc:	92722ca3          	sw	t2,-1735(tp) # fffffffffffff939 <__global_pointer$+0xffffffff7fffda29>
    80000500:	c0518a13          	addi	s4,gp,-1019 # 80001b15 <_end+0x405>
    80000504:	25aeaca3          	sw	s10,601(t4)
    80000508:	00000f13          	li	t5,0
    8000050c:	ab3a1da3          	sh	s3,-1349(s4)
    80000510:	ff207893          	andi	a7,zero,-14
    80000514:	00000a93          	li	s5,0
    80000518:	24100d13          	li	s10,577
    8000051c:	00c658bb          	srlw	a7,a2,a2
    80000520:	00001217          	auipc	tp,0x1
    80000524:	81920213          	addi	tp,tp,-2023 # 80000d39 <test_end+0x319>
    80000528:	00000193          	li	gp,0
    8000052c:	f586e583          	lwu	a1,-168(a3)
    80000530:	2ed40313          	addi	t1,s0,749
    80000534:	4dbdec63          	bltu	s11,s11,80000a0c <crash_forward>
    80000538:	76724083          	lbu	ra,1895(tp) # 767 <_start-0x7ffff899>
    8000053c:	017f3733          	sltu	a4,t5,s7
    80000540:	ec600793          	li	a5,-314
    80000544:	dcb00393          	li	t2,-565
    80000548:	00028a13          	mv	s4,t0
    8000054c:	c9500893          	li	a7,-875
    80000550:	02f7ccb3          	div	s9,a5,a5
    80000554:	4073d633          	sra	a2,t2,t2
    80000558:	03082593          	slti	a1,a6,48
    8000055c:	00d00bbb          	addw	s7,zero,a3
    80000560:	03800c13          	li	s8,56
    80000564:	ba3ac2e3          	blt	s5,gp,80000108 <crash_backward>
    80000568:	038d6fb3          	rem	t6,s10,s8
    8000056c:	001249b3          	xor	s3,tp,ra
    80000570:	02d15eb3          	divu	t4,sp,a3
    80000574:	0318f233          	remu	tp,a7,a7
    80000578:	00001b17          	auipc	s6,0x1
    8000057c:	c99b0b13          	addi	s6,s6,-871 # 80001211 <reg_x2_output+0x1>
    80000580:	000a0113          	mv	sp,s4
    80000584:	03f29293          	slli	t0,t0,0x3f
    80000588:	40318fb3          	sub	t6,gp,gp
    8000058c:	fff00493          	li	s1,-1
    80000590:	00100793          	li	a5,1
    80000594:	0054c4b3          	xor	s1,s1,t0
    80000598:	009e1503          	lh	a0,9(t3)
    8000059c:	4239dd13          	srai	s10,s3,0x23
    800005a0:	00000e97          	auipc	t4,0x0
    800005a4:	783e8e93          	addi	t4,t4,1923 # 80000d23 <test_end+0x303>
    800005a8:	50c32613          	slti	a2,t1,1292
    800005ac:	00001c17          	auipc	s8,0x1
    800005b0:	cbcc0c13          	addi	s8,s8,-836 # 80001268 <reg_x13_output>
    800005b4:	00001217          	auipc	tp,0x1
    800005b8:	93a20213          	addi	tp,tp,-1734 # 80000eee <test_end+0x4ce>
    800005bc:	00001a97          	auipc	s5,0x1
    800005c0:	e0aa8a93          	addi	s5,s5,-502 # 800013c6 <test_memory+0xc6>
    800005c4:	4c120b83          	lb	s7,1217(tp) # 4c1 <_start-0x7ffffb3f>
    800005c8:	c8718893          	addi	a7,gp,-889 # 80001b97 <_end+0x487>
    800005cc:	920893a3          	sh	zero,-1753(a7)
    800005d0:	1ef00713          	li	a4,495
    800005d4:	3dab16a3          	sh	s10,973(s6)
    800005d8:	00001917          	auipc	s2,0x1
    800005dc:	8cd90913          	addi	s2,s2,-1843 # 80000ea5 <test_end+0x485>
    800005e0:	0092f833          	and	a6,t0,s1
    800005e4:	ebc00193          	li	gp,-324
    800005e8:	00586db3          	or	s11,a6,t0
    800005ec:	86100693          	li	a3,-1951
    800005f0:	f8468093          	addi	ra,a3,-124
    800005f4:	00001417          	auipc	s0,0x1
    800005f8:	c8a40413          	addi	s0,s0,-886 # 8000127e <reg_x15_output+0x6>
    800005fc:	795eb383          	ld	t2,1941(t4)
    80000600:	00376cb3          	or	s9,a4,gp
    80000604:	03f79793          	slli	a5,a5,0x3f
    80000608:	2aeae983          	lwu	s3,686(s5)
    8000060c:	fff00313          	li	t1,-1
    80000610:	1ec406a3          	sb	a2,493(s0)
    80000614:	00f34333          	xor	t1,t1,a5
    80000618:	006cf133          	and	sp,s9,t1
    8000061c:	b0c18693          	addi	a3,gp,-1268 # 80001a1c <_end+0x30c>
    80000620:	00f16a33          	or	s4,sp,a5
    80000624:	54600613          	li	a2,1350
    80000628:	6cb923a3          	sw	a1,1735(s2)
    8000062c:	9326dd03          	lhu	s10,-1742(a3)
    80000630:	24200093          	li	ra,578
    80000634:	0073a833          	slt	a6,t2,t2
    80000638:	78d00513          	li	a0,1933
    8000063c:	abb18193          	addi	gp,gp,-1349 # 800019cb <_end+0x2bb>
    80000640:	72608393          	addi	t2,ra,1830
    80000644:	ac0042e3          	bltz	zero,80000108 <crash_backward>
    80000648:	02a514b3          	mulh	s1,a0,a0
    8000064c:	e4d00e13          	li	t3,-435
    80000650:	00008793          	mv	a5,ra
    80000654:	00001997          	auipc	s3,0x1
    80000658:	9d598993          	addi	s3,s3,-1579 # 80001029 <tohost+0x29>
    8000065c:	302c5583          	lhu	a1,770(s8)
    80000660:	aa70d4e3          	bge	ra,t2,80000108 <crash_backward>
    80000664:	c3a18b13          	addi	s6,gp,-966 # 80001b4a <_end+0x43a>
    80000668:	03c64db3          	div	s11,a2,t3
    8000066c:	08400c93          	li	s9,132
    80000670:	cad1a883          	lw	a7,-851(gp) # 80001bbd <_end+0x4ad>
    80000674:	00000297          	auipc	t0,0x0
    80000678:	5a828293          	addi	t0,t0,1448 # 80000c1c <test_end+0x1fc>
    8000067c:	019c823b          	addw	tp,s9,s9
    80000680:	b2eb0923          	sb	a4,-1230(s6)
    80000684:	df218813          	addi	a6,gp,-526 # 80001d02 <_end+0x5f2>
    80000688:	3831c263          	blt	gp,gp,80000a0c <crash_forward>
    8000068c:	00001317          	auipc	t1,0x1
    80000690:	eab30313          	addi	t1,t1,-341 # 80001537 <test_memory+0x237>
    80000694:	00001e97          	auipc	t4,0x1
    80000698:	eb9e8e93          	addi	t4,t4,-327 # 8000154d <test_memory+0x24d>
    8000069c:	dad18a93          	addi	s5,gp,-595 # 80001cbd <_end+0x5ad>
    800006a0:	984ac403          	lbu	s0,-1660(s5)
    800006a4:	00001b17          	auipc	s6,0x1
    800006a8:	c43b0b13          	addi	s6,s6,-957 # 800012e7 <reg_x28_output+0x7>
    800006ac:	6ea29223          	sh	a0,1764(t0)
    800006b0:	8f480683          	lb	a3,-1804(a6)
    800006b4:	79d00493          	li	s1,1949
    800006b8:	00272633          	slt	a2,a4,sp
    800006bc:	0bb30f23          	sb	s11,190(t1)
    800006c0:	00078b93          	mv	s7,a5
    800006c4:	3a2b10a3          	sh	sp,929(s6)
    800006c8:	00100213          	li	tp,1
    800006cc:	fbbebf03          	ld	t5,-69(t4)
    800006d0:	2bb00193          	li	gp,699
    800006d4:	fa800d93          	li	s11,-88
    800006d8:	03f21213          	slli	tp,tp,0x3f
    800006dc:	275a8a9b          	addiw	s5,s5,629
    800006e0:	3f100413          	li	s0,1009
    800006e4:	9eb00f13          	li	t5,-1557
    800006e8:	41b5873b          	subw	a4,a1,s11
    800006ec:	43e48a13          	addi	s4,s1,1086
    800006f0:	b0500893          	li	a7,-1275
    800006f4:	f4a18f93          	addi	t6,gp,-182 # 80001e5a <_end+0x74a>
    800006f8:	00001b17          	auipc	s6,0x1
    800006fc:	0bab0b13          	addi	s6,s6,186 # 800017b2 <_end+0xa2>
    80000700:	0118ecb3          	or	s9,a7,a7
    80000704:	e9d00393          	li	t2,-355
    80000708:	3177e263          	bltu	a5,s7,80000a0c <crash_forward>
    8000070c:	2e99bba3          	sd	s1,759(s3)
    80000710:	cc6b3603          	ld	a2,-826(s6)
    80000714:	bdd00693          	li	a3,-1059
    80000718:	9e9a48e3          	blt	s4,s1,80000108 <crash_backward>
    8000071c:	b66d8113          	addi	sp,s11,-1178
    80000720:	028402b3          	mul	t0,s0,s0
    80000724:	a3100c13          	li	s8,-1487
    80000728:	02df0833          	mul	a6,t5,a3
    8000072c:	88af9e23          	sh	a0,-1892(t6)
    80000730:	e3200593          	li	a1,-462
    80000734:	0271e0b3          	rem	ra,gp,t2
    80000738:	9db178e3          	bgeu	sp,s11,80000108 <crash_backward>
    8000073c:	00001997          	auipc	s3,0x1
    80000740:	ac498993          	addi	s3,s3,-1340 # 80001200 <begin_signature>
    80000744:	02bc0933          	mul	s2,s8,a1
    80000748:	01669093          	slli	ra,a3,0x16
    8000074c:	00000f93          	li	t6,0
    80000750:	40a9a023          	sw	a0,1024(s3)
    80000754:	43a05b13          	srai	s6,zero,0x3a
    80000758:	0369d1bb          	divuw	gp,s3,s6
    8000075c:	7d4e3a13          	sltiu	s4,t3,2004
    80000760:	c7e00d93          	li	s11,-898
    80000764:	fff00d13          	li	s10,-1
    80000768:	9fe18293          	addi	t0,gp,-1538 # 8000190e <_end+0x1fe>
    8000076c:	004d4d33          	xor	s10,s10,tp
    80000770:	01a6fe33          	and	t3,a3,s10
    80000774:	03bde93b          	remw	s2,s11,s11
    80000778:	00100e93          	li	t4,1
    8000077c:	01539bbb          	sllw	s7,t2,s5
    80000780:	004ae533          	or	a0,s5,tp
    80000784:	03fe9e93          	slli	t4,t4,0x3f
    80000788:	fff00f13          	li	t5,-1
    8000078c:	29c55063          	bge	a0,t3,80000a0c <crash_forward>
    80000790:	00000117          	auipc	sp,0x0
    80000794:	70410113          	addi	sp,sp,1796 # 80000e94 <test_end+0x474>
    80000798:	afb28ba3          	sb	s11,-1289(t0)
    8000079c:	00001897          	auipc	a7,0x1
    800007a0:	89a88893          	addi	a7,a7,-1894 # 80001036 <tohost+0x36>
    800007a4:	5aa00a9b          	addiw	s5,zero,1450
    800007a8:	1fa00c13          	li	s8,506
    800007ac:	00000c93          	li	s9,0
    800007b0:	959fece3          	bltu	t6,s9,80000108 <crash_backward>
    800007b4:	af900793          	li	a5,-1287
    800007b8:	2da00613          	li	a2,730
    800007bc:	a1600993          	li	s3,-1514
    800007c0:	00001297          	auipc	t0,0x1
    800007c4:	8d828293          	addi	t0,t0,-1832 # 80001098 <fromhost+0x58>
    800007c8:	ca118c93          	addi	s9,gp,-863 # 80001bb1 <_end+0x4a1>
    800007cc:	47829903          	lh	s2,1144(t0)
    800007d0:	00001d97          	auipc	s11,0x1
    800007d4:	f68d8d93          	addi	s11,s11,-152 # 80001738 <_end+0x28>
    800007d8:	038c60b3          	rem	ra,s8,s8
    800007dc:	00001717          	auipc	a4,0x1
    800007e0:	f9570713          	addi	a4,a4,-107 # 80001771 <_end+0x61>
    800007e4:	ce971da3          	sh	s1,-773(a4)
    800007e8:	01df4f33          	xor	t5,t5,t4
    800007ec:	aac18413          	addi	s0,gp,-1364 # 800019bc <_end+0x2ac>
    800007f0:	00001917          	auipc	s2,0x1
    800007f4:	f7790913          	addi	s2,s2,-137 # 80001767 <_end+0x57>
    800007f8:	03ece233          	rem	tp,s9,t5
    800007fc:	032902bb          	mulw	t0,s2,s2
    80000800:	4348d303          	lhu	t1,1076(a7)
    80000804:	a8718213          	addi	tp,gp,-1401 # 80001997 <_end+0x287>
    80000808:	00001f97          	auipc	t6,0x1
    8000080c:	a0ff8f93          	addi	t6,t6,-1521 # 80001217 <reg_x2_output+0x7>
    80000810:	00c7883b          	addw	a6,a5,a2
    80000814:	005bb1b3          	sltu	gp,s7,t0
    80000818:	01e4f6b3          	and	a3,s1,t5
    8000081c:	0139ce33          	xor	t3,s3,s3
    80000820:	00100b93          	li	s7,1
    80000824:	bf4dbc23          	sd	s4,-1032(s11)
    80000828:	033985bb          	mulw	a1,s3,s3
    8000082c:	eab94083          	lbu	ra,-341(s2)
    80000830:	03fb9b93          	slli	s7,s7,0x3f
    80000834:	977cbd03          	ld	s10,-1673(s9)
    80000838:	01dbe3b3          	or	t2,s7,t4
    8000083c:	fff00513          	li	a0,-1
    80000840:	97f25283          	lhu	t0,-1665(tp) # fffffffffffff97f <__global_pointer$+0xffffffff7fffda6f>
    80000844:	01754533          	xor	a0,a0,s7
    80000848:	82a00893          	li	a7,-2006
    8000084c:	0eafaca3          	sw	a0,249(t6)
    80000850:	0318e733          	rem	a4,a7,a7
    80000854:	00a37a33          	and	s4,t1,a0
    80000858:	a4c46483          	lwu	s1,-1460(s0)
    8000085c:	7e016b03          	lwu	s6,2016(sp)
    80000860:	01786ab3          	or	s5,a6,s7
    80000864:	034de5bb          	remw	a1,s11,s4
    80000868:	41ffddb3          	sra	s11,t6,t6
    8000086c:	e5f00f93          	li	t6,-417
    80000870:	f79c00b7          	lui	ra,0xf79c0
    80000874:	a12e3c13          	sltiu	s8,t3,-1518
    80000878:	90e18893          	addi	a7,gp,-1778 # 8000181e <_end+0x10e>
    8000087c:	d5c00913          	li	s2,-676
    80000880:	00001d17          	auipc	s10,0x1
    80000884:	dd2d0d13          	addi	s10,s10,-558 # 80001652 <test_memory+0x352>
    80000888:	d928a983          	lw	s3,-622(a7)
    8000088c:	032ffe3b          	remuw	t3,t6,s2
    80000890:	00001117          	auipc	sp,0x1
    80000894:	f2710113          	addi	sp,sp,-217 # 800017b7 <_end+0xa7>
    80000898:	025287b3          	mul	a5,t0,t0
    8000089c:	bf313ca3          	sd	s3,-1031(sp)
    800008a0:	a5700493          	li	s1,-1449
    800008a4:	afb00713          	li	a4,-1285
    800008a8:	8676f0e3          	bgeu	a3,t2,80000108 <crash_backward>
    800008ac:	d29d2923          	sw	s1,-718(s10)
    800008b0:	00100293          	li	t0,1
    800008b4:	88900813          	li	a6,-1911
    800008b8:	e0600213          	li	tp,-506
    800008bc:	03f29293          	slli	t0,t0,0x3f
    800008c0:	95218113          	addi	sp,gp,-1710 # 80001862 <_end+0x152>
    800008c4:	d3c12923          	sw	t3,-718(sp)
    800008c8:	02e77533          	remu	a0,a4,a4
    800008cc:	030701bb          	mulw	gp,a4,a6
    800008d0:	5cb00793          	li	a5,1483
    800008d4:	00001b97          	auipc	s7,0x1
    800008d8:	e99b8b93          	addi	s7,s7,-359 # 8000176d <_end+0x5d>
    800008dc:	02694a33          	div	s4,s2,t1
    800008e0:	0a4f3393          	sltiu	t2,t5,164
    800008e4:	834a12e3          	bne	s4,s4,80000108 <crash_backward>
    800008e8:	0244bcb3          	mulhu	s9,s1,tp
    800008ec:	02f7df3b          	divuw	t5,a5,a5
    800008f0:	c7800593          	li	a1,-904
    800008f4:	dc1bada3          	sw	ra,-549(s7)
    800008f8:	00100693          	li	a3,1
    800008fc:	00100913          	li	s2,1
    80000900:	03f91913          	slli	s2,s2,0x3f
    80000904:	ab358e13          	addi	t3,a1,-1357
    80000908:	81c5e0e3          	bltu	a1,t3,80000108 <crash_backward>
    8000090c:	39700093          	li	ra,919
    80000910:	038c3133          	mulhu	sp,s8,s8
    80000914:	03f69693          	slli	a3,a3,0x3f
    80000918:	d1400493          	li	s1,-748
    8000091c:	fff00413          	li	s0,-1
    80000920:	a3e00d93          	li	s11,-1474
    80000924:	00d44433          	xor	s0,s0,a3
    80000928:	fff00893          	li	a7,-1
    8000092c:	4073df33          	sra	t5,t2,t2
    80000930:	0128c8b3          	xor	a7,a7,s2
    80000934:	fff00313          	li	t1,-1
    80000938:	d3648213          	addi	tp,s1,-714
    8000093c:	cead8e93          	addi	t4,s11,-790
    80000940:	fc44c463          	blt	s1,tp,80000108 <crash_backward>
    80000944:	70808d13          	addi	s10,ra,1800 # fffffffff79c0708 <__global_pointer$+0xffffffff779be7f8>
    80000948:	008af9b3          	and	s3,s5,s0
    8000094c:	01107c33          	and	s8,zero,a7
    80000950:	00534333          	xor	t1,t1,t0
    80000954:	012c6fb3          	or	t6,s8,s2
    80000958:	00657b33          	and	s6,a0,t1
    8000095c:	fbfc0663          	beq	s8,t6,80000108 <crash_backward>
    80000960:	00566633          	or	a2,a2,t0
    80000964:	00d9eab3          	or	s5,s3,a3
    80000968:	0b3ae263          	bltu	s5,s3,80000a0c <crash_forward>
    8000096c:	0040006f          	j	80000970 <reg_dump>

0000000080000970 <reg_dump>:
    80000970:	00001097          	auipc	ra,0x1
    80000974:	d9008093          	addi	ra,ra,-624 # 80001700 <loop_count>
    80000978:	0000a103          	lw	sp,0(ra)
    8000097c:	fff10193          	addi	gp,sp,-1
    80000980:	0030a023          	sw	gp,0(ra)
    80000984:	820112e3          	bnez	sp,800001a8 <pseg_0>
    80000988:	00001097          	auipc	ra,0x1
    8000098c:	87808093          	addi	ra,ra,-1928 # 80001200 <begin_signature>
    80000990:	0000b023          	sd	zero,0(ra)
    80000994:	0020b823          	sd	sp,16(ra)
    80000998:	0030bc23          	sd	gp,24(ra)
    8000099c:	0240b023          	sd	tp,32(ra)
    800009a0:	0250b423          	sd	t0,40(ra)
    800009a4:	0260b823          	sd	t1,48(ra)
    800009a8:	0270bc23          	sd	t2,56(ra)
    800009ac:	0480b023          	sd	s0,64(ra)
    800009b0:	0490b423          	sd	s1,72(ra)
    800009b4:	04a0b823          	sd	a0,80(ra)
    800009b8:	04b0bc23          	sd	a1,88(ra)
    800009bc:	06c0b023          	sd	a2,96(ra)
    800009c0:	06d0b423          	sd	a3,104(ra)
    800009c4:	06e0b823          	sd	a4,112(ra)
    800009c8:	06f0bc23          	sd	a5,120(ra)
    800009cc:	0900b023          	sd	a6,128(ra)
    800009d0:	0910b423          	sd	a7,136(ra)
    800009d4:	0920b823          	sd	s2,144(ra)
    800009d8:	0930bc23          	sd	s3,152(ra)
    800009dc:	0b40b023          	sd	s4,160(ra)
    800009e0:	0b50b423          	sd	s5,168(ra)
    800009e4:	0b60b823          	sd	s6,176(ra)
    800009e8:	0d80b023          	sd	s8,192(ra)
    800009ec:	0d90b423          	sd	s9,200(ra)
    800009f0:	0da0b823          	sd	s10,208(ra)
    800009f4:	0db0bc23          	sd	s11,216(ra)
    800009f8:	0fc0b023          	sd	t3,224(ra)
    800009fc:	0fd0b423          	sd	t4,232(ra)
    80000a00:	0fe0b823          	sd	t5,240(ra)
    80000a04:	0ff0bc23          	sd	t6,248(ra)
    80000a08:	0180006f          	j	80000a20 <test_end>

0000000080000a0c <crash_forward>:
    80000a0c:	0ff0000f          	fence
    80000a10:	00018063          	beqz	gp,80000a10 <crash_forward+0x4>
    80000a14:	00119193          	slli	gp,gp,0x1
    80000a18:	0011e193          	ori	gp,gp,1
    80000a1c:	00000073          	ecall

0000000080000a20 <test_end>:
    80000a20:	0ff0000f          	fence
    80000a24:	00100193          	li	gp,1
    80000a28:	00000073          	ecall
    80000a2c:	c0001073          	unimp
	...

Disassembly of section .tohost:

0000000080001000 <tohost>:
	...

0000000080001040 <fromhost>:
	...
