
test.elf:     file format elf64-littleriscv


Disassembly of section .text.init:

0000000080000000 <_start>:
    80000000:	0580006f          	j	80000058 <reset_vector>

0000000080000004 <trap_vector>:
    80000004:	34202f73          	csrr	t5,mcause
    80000008:	00800f93          	li	t6,8
    8000000c:	05ff0063          	beq	t5,t6,8000004c <write_tohost>
    80000010:	00900f93          	li	t6,9
    80000014:	03ff0c63          	beq	t5,t6,8000004c <write_tohost>
    80000018:	00b00f93          	li	t6,11
    8000001c:	03ff0863          	beq	t5,t6,8000004c <write_tohost>
    80000020:	00000f13          	li	t5,0
    80000024:	000f0463          	beqz	t5,8000002c <trap_vector+0x28>
    80000028:	000f0067          	jr	t5
    8000002c:	34202f73          	csrr	t5,mcause
    80000030:	000f5463          	bgez	t5,80000038 <handle_exception>
    80000034:	0140006f          	j	80000048 <other_exception>

0000000080000038 <handle_exception>:
    80000038:	34102e73          	csrr	t3,mepc
    8000003c:	004e0e13          	addi	t3,t3,4
    80000040:	341e1073          	csrw	mepc,t3
    80000044:	30200073          	mret

0000000080000048 <other_exception>:
    80000048:	5391e193          	ori	gp,gp,1337

000000008000004c <write_tohost>:
    8000004c:	00001f17          	auipc	t5,0x1
    80000050:	fa3f2a23          	sw	gp,-76(t5) # 80001000 <tohost>
    80000054:	ff9ff06f          	j	8000004c <write_tohost>

0000000080000058 <reset_vector>:
    80000058:	f1402573          	csrr	a0,mhartid
    8000005c:	00051063          	bnez	a0,8000005c <reset_vector+0x4>
    80000060:	00000297          	auipc	t0,0x0
    80000064:	01028293          	addi	t0,t0,16 # 80000070 <reset_vector+0x18>
    80000068:	30529073          	csrw	mtvec,t0
    8000006c:	18005073          	csrwi	satp,0
    80000070:	00000297          	auipc	t0,0x0
    80000074:	01c28293          	addi	t0,t0,28 # 8000008c <reset_vector+0x34>
    80000078:	30529073          	csrw	mtvec,t0
    8000007c:	fff00293          	li	t0,-1
    80000080:	3b029073          	csrw	pmpaddr0,t0
    80000084:	01f00293          	li	t0,31
    80000088:	3a029073          	csrw	pmpcfg0,t0
    8000008c:	00000297          	auipc	t0,0x0
    80000090:	01828293          	addi	t0,t0,24 # 800000a4 <reset_vector+0x4c>
    80000094:	30529073          	csrw	mtvec,t0
    80000098:	30205073          	csrwi	medeleg,0
    8000009c:	30305073          	csrwi	mideleg,0
    800000a0:	30405073          	csrwi	mie,0
    800000a4:	00000193          	li	gp,0
    800000a8:	00000297          	auipc	t0,0x0
    800000ac:	f5c28293          	addi	t0,t0,-164 # 80000004 <trap_vector>
    800000b0:	30529073          	csrw	mtvec,t0
    800000b4:	00100513          	li	a0,1
    800000b8:	01f51513          	slli	a0,a0,0x1f
    800000bc:	00055863          	bgez	a0,800000cc <reset_vector+0x74>
    800000c0:	0ff0000f          	fence
    800000c4:	00100193          	li	gp,1
    800000c8:	00000073          	ecall
    800000cc:	00000293          	li	t0,0
    800000d0:	00028e63          	beqz	t0,800000ec <reset_vector+0x94>
    800000d4:	10529073          	csrw	stvec,t0
    800000d8:	0000b2b7          	lui	t0,0xb
    800000dc:	1092829b          	addiw	t0,t0,265
    800000e0:	30229073          	csrw	medeleg,t0
    800000e4:	30202373          	csrr	t1,medeleg
    800000e8:	f66290e3          	bne	t0,t1,80000048 <other_exception>
    800000ec:	30005073          	csrwi	mstatus,0
    800000f0:	00000297          	auipc	t0,0x0
    800000f4:	01428293          	addi	t0,t0,20 # 80000104 <reset_vector+0xac>
    800000f8:	34129073          	csrw	mepc,t0
    800000fc:	f1402573          	csrr	a0,mhartid
    80000100:	30200073          	mret
    80000104:	0180006f          	j	8000011c <test_start>

0000000080000108 <crash_backward>:
    80000108:	0ff0000f          	fence
    8000010c:	00018063          	beqz	gp,8000010c <crash_backward+0x4>
    80000110:	00119193          	slli	gp,gp,0x1
    80000114:	0011e193          	ori	gp,gp,1
    80000118:	00000073          	ecall

000000008000011c <test_start>:
    8000011c:	00001f97          	auipc	t6,0x1
    80000120:	fe4f8f93          	addi	t6,t6,-28 # 80001100 <hidden_data>
    80000124:	000fb003          	ld	zero,0(t6)
    80000128:	008fb083          	ld	ra,8(t6)
    8000012c:	010fb103          	ld	sp,16(t6)
    80000130:	018fb183          	ld	gp,24(t6)
    80000134:	020fb203          	ld	tp,32(t6)
    80000138:	028fb283          	ld	t0,40(t6)
    8000013c:	030fb303          	ld	t1,48(t6)
    80000140:	038fb383          	ld	t2,56(t6)
    80000144:	040fb403          	ld	s0,64(t6)
    80000148:	048fb483          	ld	s1,72(t6)
    8000014c:	050fb503          	ld	a0,80(t6)
    80000150:	058fb583          	ld	a1,88(t6)
    80000154:	060fb603          	ld	a2,96(t6)
    80000158:	068fb683          	ld	a3,104(t6)
    8000015c:	070fb703          	ld	a4,112(t6)
    80000160:	078fb783          	ld	a5,120(t6)
    80000164:	080fb803          	ld	a6,128(t6)
    80000168:	088fb883          	ld	a7,136(t6)
    8000016c:	090fb903          	ld	s2,144(t6)
    80000170:	098fb983          	ld	s3,152(t6)
    80000174:	0a0fba03          	ld	s4,160(t6)
    80000178:	0a8fba83          	ld	s5,168(t6)
    8000017c:	0b0fbb03          	ld	s6,176(t6)
    80000180:	0b8fbb83          	ld	s7,184(t6)
    80000184:	0c0fbc03          	ld	s8,192(t6)
    80000188:	0c8fbc83          	ld	s9,200(t6)
    8000018c:	0d0fbd03          	ld	s10,208(t6)
    80000190:	0d8fbd83          	ld	s11,216(t6)
    80000194:	0e0fbe03          	ld	t3,224(t6)
    80000198:	0e8fbe83          	ld	t4,232(t6)
    8000019c:	0f0fbf03          	ld	t5,240(t6)
    800001a0:	0f8fbf83          	ld	t6,248(t6)
    800001a4:	0040006f          	j	800001a8 <pseg_0>

00000000800001a8 <pseg_0>:
    800001a8:	00001197          	auipc	gp,0x1
    800001ac:	46418193          	addi	gp,gp,1124 # 8000160c <test_memory+0x30c>
    800001b0:	02a393b3          	mulh	t2,t2,a0
    800001b4:	00001717          	auipc	a4,0x1
    800001b8:	18c70713          	addi	a4,a4,396 # 80001340 <test_memory+0x40>
    800001bc:	f5ef66e3          	bltu	t5,t5,80000108 <crash_backward>
    800001c0:	02bc6cbb          	remw	s9,s8,a1
    800001c4:	b6218213          	addi	tp,gp,-1182 # 80001a72 <_end+0x362>
    800001c8:	00001497          	auipc	s1,0x1
    800001cc:	ea848493          	addi	s1,s1,-344 # 80001070 <fromhost+0x30>
    800001d0:	4a049983          	lh	s3,1184(s1)
    800001d4:	cee18b93          	addi	s7,gp,-786 # 80001bfe <_end+0x4ee>
    800001d8:	80fb82a3          	sb	a5,-2043(s7)
    800001dc:	dec18413          	addi	s0,gp,-532 # 80001cfc <_end+0x5ec>
    800001e0:	00100693          	li	a3,1
    800001e4:	45300593          	li	a1,1107
    800001e8:	00b59f33          	sll	t5,a1,a1
    800001ec:	40b58bb3          	sub	s7,a1,a1
    800001f0:	00001e17          	auipc	t3,0x1
    800001f4:	eece0e13          	addi	t3,t3,-276 # 800010dc <fromhost+0x9c>
    800001f8:	71d97d37          	lui	s10,0x71d97
    800001fc:	81a45303          	lhu	t1,-2022(s0)
    80000200:	00100413          	li	s0,1
    80000204:	d6457d93          	andi	s11,a0,-668
    80000208:	2b4e4103          	lbu	sp,692(t3)
    8000020c:	00100d93          	li	s11,1
    80000210:	db818493          	addi	s1,gp,-584 # 80001cc8 <_end+0x5b8>
    80000214:	32600e93          	li	t4,806
    80000218:	03f41413          	slli	s0,s0,0x3f
    8000021c:	0213cbb3          	div	s7,t2,ra
    80000220:	9d800793          	li	a5,-1576
    80000224:	03ef33b3          	mulhu	t2,t5,t5
    80000228:	9424a623          	sw	sp,-1716(s1)
    8000022c:	fe700f93          	li	t6,-25
    80000230:	bbc00a93          	li	s5,-1092
    80000234:	00841cb3          	sll	s9,s0,s0
    80000238:	03fd9d93          	slli	s11,s11,0x3f
    8000023c:	03f69693          	slli	a3,a3,0x3f
    80000240:	fff00f13          	li	t5,-1
    80000244:	1e9d39b7          	lui	s3,0x1e9d3
    80000248:	3ef00813          	li	a6,1007
    8000024c:	25b74c03          	lbu	s8,603(a4)
    80000250:	00001a17          	auipc	s4,0x1
    80000254:	929a0a13          	addi	s4,s4,-1751 # 80000b79 <test_end+0x1a9>
    80000258:	d3618603          	lb	a2,-714(gp) # 80001c46 <_end+0x536>
    8000025c:	fff00313          	li	t1,-1
    80000260:	01f7a933          	slt	s2,a5,t6
    80000264:	030acb33          	div	s6,s5,a6
    80000268:	00834333          	xor	t1,t1,s0
    8000026c:	2d2e8093          	addi	ra,t4,722
    80000270:	b3d21623          	sh	t4,-1236(tp) # fffffffffffffb2c <__global_pointer$+0xffffffff7fffdc1c>
    80000274:	fff00513          	li	a0,-1
    80000278:	e81ed8e3          	bge	t4,ra,80000108 <crash_backward>
    8000027c:	7d1a16a3          	sh	a7,1997(s4)
    80000280:	0069f5b3          	and	a1,s3,t1
    80000284:	01bf4f33          	xor	t5,t5,s11
    80000288:	008c6d33          	or	s10,s8,s0
    8000028c:	00d54533          	xor	a0,a0,a3
    80000290:	00af72b3          	and	t0,t5,a0
    80000294:	00d8e8b3          	or	a7,a7,a3
    80000298:	01e87133          	and	sp,a6,t5
    8000029c:	01bd6e33          	or	t3,s10,s11
    800002a0:	702e6e63          	bltu	t3,sp,800009bc <crash_forward>
    800002a4:	000c0f13          	mv	t5,s8
    800002a8:	00001217          	auipc	tp,0x1
    800002ac:	4c720213          	addi	tp,tp,1223 # 8000176f <_end+0x5f>
    800002b0:	001be6b3          	or	a3,s7,ra
    800002b4:	00001197          	auipc	gp,0x1
    800002b8:	faa18193          	addi	gp,gp,-86 # 8000125e <reg_x11_output+0x6>
    800002bc:	a4e18d13          	addi	s10,gp,-1458 # 8000195e <_end+0x24e>
    800002c0:	e40014e3          	bnez	zero,80000108 <crash_backward>
    800002c4:	000e8a13          	mv	s4,t4
    800002c8:	00100913          	li	s2,1
    800002cc:	73f00b13          	li	s6,1855
    800002d0:	c4e00493          	li	s1,-946
    800002d4:	2cd00093          	li	ra,717
    800002d8:	41bdd9b3          	sra	s3,s11,s11
    800002dc:	4561a303          	lw	t1,1110(gp) # 80002366 <__global_pointer$+0x456>
    800002e0:	00001717          	auipc	a4,0x1
    800002e4:	e7870713          	addi	a4,a4,-392 # 80001158 <reg_x11_init>
    800002e8:	00001c97          	auipc	s9,0x1
    800002ec:	fb7c8c93          	addi	s9,s9,-73 # 8000129f <reg_x19_output+0x7>
    800002f0:	e18c6ce3          	bltu	s8,s8,80000108 <crash_backward>
    800002f4:	c56d6403          	lwu	s0,-938(s10) # 71d96c56 <_start-0xe2693aa>
    800002f8:	3e9cb603          	ld	a2,1001(s9)
    800002fc:	00001797          	auipc	a5,0x1
    80000300:	10f78793          	addi	a5,a5,271 # 8000140b <test_memory+0x10b>
    80000304:	34400d93          	li	s11,836
    80000308:	000f0893          	mv	a7,t5
    8000030c:	021b2ab3          	mulhsu	s5,s6,ra
    80000310:	dd620f83          	lb	t6,-554(tp) # fffffffffffffdd6 <__global_pointer$+0xffffffff7fffdec6>
    80000314:	03f91913          	slli	s2,s2,0x3f
    80000318:	fff00593          	li	a1,-1
    8000031c:	03b4f533          	remu	a0,s1,s11
    80000320:	13578aa3          	sb	s5,309(a5)
    80000324:	000a0813          	mv	a6,s4
    80000328:	691f4a63          	blt	t5,a7,800009bc <crash_forward>
    8000032c:	dd0a1ee3          	bne	s4,a6,80000108 <crash_backward>
    80000330:	d7018293          	addi	t0,gp,-656 # 80001c80 <_end+0x570>
    80000334:	9682a823          	sw	s0,-1680(t0)
    80000338:	49970383          	lb	t2,1177(a4)
    8000033c:	bed00293          	li	t0,-1043
    80000340:	018c4733          	xor	a4,s8,s8
    80000344:	b5a18f13          	addi	t5,gp,-1190 # 80001a6a <_end+0x35a>
    80000348:	c0e18a13          	addi	s4,gp,-1010 # 80001b1e <_end+0x40e>
    8000034c:	cd428a93          	addi	s5,t0,-812
    80000350:	00001517          	auipc	a0,0x1
    80000354:	40650513          	addi	a0,a0,1030 # 80001756 <_end+0x46>
    80000358:	92200693          	li	a3,-1758
    8000035c:	72c00b13          	li	s6,1836
    80000360:	40948fb3          	sub	t6,s1,s1
    80000364:	00001997          	auipc	s3,0x1
    80000368:	c2898993          	addi	s3,s3,-984 # 80000f8c <test_end+0x5bc>
    8000036c:	4d898ea3          	sb	s8,1245(s3)
    80000370:	c9a00e93          	li	t4,-870
    80000374:	00001e17          	auipc	t3,0x1
    80000378:	df5e0e13          	addi	t3,t3,-523 # 80001169 <reg_x13_init+0x1>
    8000037c:	07c00f93          	li	t6,124
    80000380:	9e718813          	addi	a6,gp,-1561 # 800018f7 <_end+0x1e7>
    80000384:	007240b3          	xor	ra,tp,t2
    80000388:	f0953123          	sd	s1,-254(a0)
    8000038c:	02318cb3          	mul	s9,gp,gp
    80000390:	039cd4b3          	divu	s1,s9,s9
    80000394:	03295dbb          	divuw	s11,s2,s2
    80000398:	abb18213          	addi	tp,gp,-1349 # 800019cb <_end+0x2bb>
    8000039c:	01669c3b          	sllw	s8,a3,s6
    800003a0:	a23f4383          	lbu	t2,-1501(t5)
    800003a4:	b9b819a3          	sh	s11,-1133(a6)
    800003a8:	1d4f8713          	addi	a4,t6,468
    800003ac:	d5f74ee3          	blt	a4,t6,80000108 <crash_backward>
    800003b0:	d3718893          	addi	a7,gp,-713 # 80001c47 <_end+0x537>
    800003b4:	c9618513          	addi	a0,gp,-874 # 80001ba6 <_end+0x496>
    800003b8:	975a1823          	sh	s5,-1680(s4)
    800003bc:	2a400413          	li	s0,676
    800003c0:	4b8e0e23          	sb	s8,1212(t3)
    800003c4:	00b58c3b          	addw	s8,a1,a1
    800003c8:	00001717          	auipc	a4,0x1
    800003cc:	a1c70713          	addi	a4,a4,-1508 # 80000de4 <test_end+0x414>
    800003d0:	91b88823          	sb	s11,-1776(a7)
    800003d4:	028441b3          	div	gp,s0,s0
    800003d8:	027d02bb          	mulw	t0,s10,t2
    800003dc:	00001817          	auipc	a6,0x1
    800003e0:	f8580813          	addi	a6,a6,-123 # 80001361 <test_memory+0x61>
    800003e4:	00100693          	li	a3,1
    800003e8:	fd184f83          	lbu	t6,-47(a6)
    800003ec:	03f69693          	slli	a3,a3,0x3f
    800003f0:	00331c33          	sll	s8,t1,gp
    800003f4:	0125c5b3          	xor	a1,a1,s2
    800003f8:	c0ce8d13          	addi	s10,t4,-1012
    800003fc:	92618893          	addi	a7,gp,-1754 # 80001836 <_end+0x126>
    80000400:	00b6f133          	and	sp,a3,a1
    80000404:	60870b03          	lb	s6,1544(a4)
    80000408:	00001c97          	auipc	s9,0x1
    8000040c:	3e1c8c93          	addi	s9,s9,993 # 800017e9 <_end+0xd9>
    80000410:	00080a13          	mv	s4,a6
    80000414:	00001e17          	auipc	t3,0x1
    80000418:	efee0e13          	addi	t3,t3,-258 # 80001312 <test_memory+0x12>
    8000041c:	67b00793          	li	a5,1659
    80000420:	00001f97          	auipc	t6,0x1
    80000424:	962f8f93          	addi	t6,t6,-1694 # 80000d82 <test_end+0x3b2>
    80000428:	000a0293          	mv	t0,s4
    8000042c:	cc5a4ee3          	blt	s4,t0,80000108 <crash_backward>
    80000430:	00e7043b          	addw	s0,a4,a4
    80000434:	af7200a3          	sb	s7,-1311(tp) # fffffffffffffae1 <__global_pointer$+0xffffffff7fffdbd1>
    80000438:	dc788fa3          	sb	t2,-545(a7)
    8000043c:	00001817          	auipc	a6,0x1
    80000440:	3ca80813          	addi	a6,a6,970 # 80001806 <_end+0xf6>
    80000444:	cee82183          	lw	gp,-786(a6)
    80000448:	aa055483          	lhu	s1,-1376(a0)
    8000044c:	e48caba3          	sw	s0,-425(s9)
    80000450:	31ee3a83          	ld	s5,798(t3)
    80000454:	01266bb3          	or	s7,a2,s2
    80000458:	763fa523          	sw	gp,1898(t6)
    8000045c:	afe00513          	li	a0,-1282
    80000460:	ca2bd4e3          	bge	s7,sp,80000108 <crash_backward>
    80000464:	4c000293          	li	t0,1216
    80000468:	0317c233          	div	tp,a5,a7
    8000046c:	00001e17          	auipc	t3,0x1
    80000470:	914e0e13          	addi	t3,t3,-1772 # 80000d80 <test_end+0x3b0>
    80000474:	fff00993          	li	s3,-1
    80000478:	d9418413          	addi	s0,gp,-620 # 80001ca4 <_end+0x594>
    8000047c:	89c43b03          	ld	s6,-1892(s0)
    80000480:	a0292193          	slti	gp,s2,-1534
    80000484:	73a00313          	li	t1,1850
    80000488:	00001f17          	auipc	t5,0x1
    8000048c:	f4df0f13          	addi	t5,t5,-179 # 800013d5 <test_memory+0xd5>
    80000490:	00001597          	auipc	a1,0x1
    80000494:	ffe58593          	addi	a1,a1,-2 # 8000148e <test_memory+0x18e>
    80000498:	b5200713          	li	a4,-1198
    8000049c:	00d9c9b3          	xor	s3,s3,a3
    800004a0:	13e5eb83          	lwu	s7,318(a1)
    800004a4:	ba250f93          	addi	t6,a0,-1118
    800004a8:	034a24b3          	mulhsu	s1,s4,s4
    800004ac:	7ed00413          	li	s0,2029
    800004b0:	8f300913          	li	s2,-1805
    800004b4:	f63f1383          	lh	t2,-157(t5)
    800004b8:	013d70b3          	and	ra,s10,s3
    800004bc:	00001b97          	auipc	s7,0x1
    800004c0:	b1bb8b93          	addi	s7,s7,-1253 # 80000fd7 <test_end+0x607>
    800004c4:	d1700193          	li	gp,-745
    800004c8:	37bbde83          	lhu	t4,891(s7)
    800004cc:	40678633          	sub	a2,a5,t1
    800004d0:	41290a3b          	subw	s4,s2,s2
    800004d4:	00001497          	auipc	s1,0x1
    800004d8:	cde48493          	addi	s1,s1,-802 # 800011b2 <reg_x22_init+0x2>
    800004dc:	be618f13          	addi	t5,gp,-1050 # 80001af6 <_end+0x3e6>
    800004e0:	02341b33          	mulh	s6,s0,gp
    800004e4:	24649383          	lh	t2,582(s1)
    800004e8:	b0f18a93          	addi	s5,gp,-1265 # 80001a1f <_end+0x30f>
    800004ec:	00deedb3          	or	s11,t4,a3
    800004f0:	02ec55bb          	divuw	a1,s8,a4
    800004f4:	912f2323          	sw	s2,-1786(t5)
    800004f8:	4df56263          	bltu	a0,t6,800009bc <crash_forward>
    800004fc:	02e71cb3          	mulh	s9,a4,a4
    80000500:	760e2883          	lw	a7,1888(t3)
    80000504:	c01de2e3          	bltu	s11,ra,80000108 <crash_backward>
    80000508:	c2d00813          	li	a6,-979
    8000050c:	00001217          	auipc	tp,0x1
    80000510:	b0b20213          	addi	tp,tp,-1269 # 80001017 <tohost+0x17>
    80000514:	00217633          	and	a2,sp,sp
    80000518:	00001e97          	auipc	t4,0x1
    8000051c:	872e8e93          	addi	t4,t4,-1934 # 80000d8a <test_end+0x3ba>
    80000520:	0102bc33          	sltu	s8,t0,a6
    80000524:	3cd00593          	li	a1,973
    80000528:	e4100513          	li	a0,-447
    8000052c:	00030c93          	mv	s9,t1
    80000530:	00100b93          	li	s7,1
    80000534:	67824103          	lbu	sp,1656(tp) # 678 <_start-0x7ffff988>
    80000538:	9b800d93          	li	s11,-1608
    8000053c:	00000d17          	auipc	s10,0x0
    80000540:	690d0d13          	addi	s10,s10,1680 # 80000bcc <test_end+0x1fc>
    80000544:	7acd1223          	sh	a2,1956(s10)
    80000548:	016d1733          	sll	a4,s10,s6
    8000054c:	41b587bb          	subw	a5,a1,s11
    80000550:	00001217          	auipc	tp,0x1
    80000554:	dde20213          	addi	tp,tp,-546 # 8000132e <test_memory+0x2e>
    80000558:	67b00993          	li	s3,1659
    8000055c:	00001397          	auipc	t2,0x1
    80000560:	d1a38393          	addi	t2,t2,-742 # 80001276 <reg_x14_output+0x6>
    80000564:	000c8313          	mv	t1,s9
    80000568:	70ce9023          	sh	a2,1792(t4)
    8000056c:	b2700113          	li	sp,-1241
    80000570:	03fb9b93          	slli	s7,s7,0x3f
    80000574:	00001797          	auipc	a5,0x1
    80000578:	81178793          	addi	a5,a5,-2031 # 80000d85 <test_end+0x3b5>
    8000057c:	3b43b923          	sd	s4,946(t2)
    80000580:	018c26b3          	slt	a3,s8,s8
    80000584:	8ac00e93          	li	t4,-1876
    80000588:	00a510bb          	sllw	ra,a0,a0
    8000058c:	0ca20803          	lb	a6,202(tp) # ca <_start-0x7fffff36>
    80000590:	00bee5b3          	or	a1,t4,a1
    80000594:	00001917          	auipc	s2,0x1
    80000598:	a3e90913          	addi	s2,s2,-1474 # 80000fd2 <test_end+0x602>
    8000059c:	03788f33          	mul	t5,a7,s7
    800005a0:	41c0dd3b          	sraw	s10,ra,t3
    800005a4:	6657a9a3          	sw	t0,1651(a5)
    800005a8:	0339b4b3          	mulhu	s1,s3,s3
    800005ac:	93a00f13          	li	t5,-1734
    800005b0:	01f82633          	slt	a2,a6,t6
    800005b4:	00001597          	auipc	a1,0x1
    800005b8:	e8458593          	addi	a1,a1,-380 # 80001438 <test_memory+0x138>
    800005bc:	0229fc3b          	remuw	s8,s3,sp
    800005c0:	2f600793          	li	a5,758
    800005c4:	88d00213          	li	tp,-1907
    800005c8:	01ded2b3          	srl	t0,t4,t4
    800005cc:	cf700c93          	li	s9,-777
    800005d0:	fff00a13          	li	s4,-1
    800005d4:	6a800713          	li	a4,1704
    800005d8:	d1a00c13          	li	s8,-742
    800005dc:	419f06b3          	sub	a3,t5,s9
    800005e0:	034cf0b3          	remu	ra,s9,s4
    800005e4:	17a59303          	lh	t1,378(a1)
    800005e8:	ad300293          	li	t0,-1325
    800005ec:	4fc70193          	addi	gp,a4,1276
    800005f0:	0252febb          	remuw	t4,t0,t0
    800005f4:	0047b633          	sltu	a2,a5,tp
    800005f8:	bdf18513          	addi	a0,gp,-1057 # 80001aef <_end+0x3df>
    800005fc:	017a4a33          	xor	s4,s4,s7
    80000600:	97b3f813          	andi	a6,t2,-1669
    80000604:	acb18d93          	addi	s11,gp,-1333 # 800019db <_end+0x2cb>
    80000608:	ac152383          	lw	t2,-1343(a0)
    8000060c:	950dbea3          	sd	a6,-1699(s11)
    80000610:	00001d17          	auipc	s10,0x1
    80000614:	14dd0d13          	addi	s10,s10,333 # 8000175d <_end+0x4d>
    80000618:	a2818813          	addi	a6,gp,-1496 # 80001938 <_end+0x228>
    8000061c:	00001d97          	auipc	s11,0x1
    80000620:	b49d8d93          	addi	s11,s11,-1207 # 80001165 <reg_x12_init+0x5>
    80000624:	01407b33          	and	s6,zero,s4
    80000628:	ac3aa0a3          	sw	gp,-1343(s5)
    8000062c:	c1fd6483          	lwu	s1,-993(s10)
    80000630:	00001097          	auipc	ra,0x1
    80000634:	02208093          	addi	ra,ra,34 # 80001652 <test_memory+0x352>
    80000638:	fbd08f23          	sb	t4,-66(ra)
    8000063c:	017b6fb3          	or	t6,s6,s7
    80000640:	45a92403          	lw	s0,1114(s2)
    80000644:	00000217          	auipc	tp,0x0
    80000648:	7fb20213          	addi	tp,tp,2043 # 80000e3f <test_end+0x46f>
    8000064c:	66f00993          	li	s3,1647
    80000650:	376fd663          	bge	t6,s6,800009bc <crash_forward>
    80000654:	3fd00793          	li	a5,1021
    80000658:	033c413b          	divw	sp,s8,s3
    8000065c:	26e00293          	li	t0,622
    80000660:	41200d13          	li	s10,1042
    80000664:	17a00593          	li	a1,378
    80000668:	e8600393          	li	t2,-378
    8000066c:	00100693          	li	a3,1
    80000670:	02a92fb3          	mulhsu	t6,s2,a0
    80000674:	cc218c13          	addi	s8,gp,-830 # 80001bd2 <_end+0x4c2>
    80000678:	0272c53b          	divw	a0,t0,t2
    8000067c:	017bca33          	xor	s4,s7,s7
    80000680:	40b581bb          	subw	gp,a1,a1
    80000684:	834c2123          	sw	s4,-2014(s8)
    80000688:	00001b97          	auipc	s7,0x1
    8000068c:	b3db8b93          	addi	s7,s7,-1219 # 800011c5 <reg_x24_init+0x5>
    80000690:	41fdb9a3          	sd	t6,1043(s11)
    80000694:	03ad5ab3          	divu	s5,s10,s10
    80000698:	956f0413          	addi	s0,t5,-1706
    8000069c:	64a00713          	li	a4,1610
    800006a0:	00001e17          	auipc	t3,0x1
    800006a4:	b3ae0e13          	addi	t3,t3,-1222 # 800011da <reg_x27_init+0x2>
    800006a8:	00001997          	auipc	s3,0x1
    800006ac:	02c98993          	addi	s3,s3,44 # 800016d4 <test_memory+0x3d4>
    800006b0:	293b8083          	lb	ra,659(s7)
    800006b4:	f049eb03          	lwu	s6,-252(s3)
    800006b8:	336e6103          	lwu	sp,822(t3)
    800006bc:	40e7d33b          	sraw	t1,a5,a4
    800006c0:	03f69693          	slli	a3,a3,0x3f
    800006c4:	00136933          	or	s2,t1,ra
    800006c8:	6c6220a3          	sw	t1,1729(tp) # 6c1 <_start-0x7ffff93f>
    800006cc:	fff00613          	li	a2,-1
    800006d0:	00d64633          	xor	a2,a2,a3
    800006d4:	6db00493          	li	s1,1755
    800006d8:	02148893          	addi	a7,s1,33
    800006dc:	00c4ff33          	and	t5,s1,a2
    800006e0:	00d36cb3          	or	s9,t1,a3
    800006e4:	bc886e83          	lwu	t4,-1080(a6)
    800006e8:	d3800c13          	li	s8,-712
    800006ec:	4c200293          	li	t0,1218
    800006f0:	00001b97          	auipc	s7,0x1
    800006f4:	ff9b8b93          	addi	s7,s7,-7 # 800016e9 <test_memory+0x3e9>
    800006f8:	98600693          	li	a3,-1658
    800006fc:	dd600113          	li	sp,-554
    80000700:	84cc0a13          	addi	s4,s8,-1972
    80000704:	40d6d43b          	sraw	s0,a3,a3
    80000708:	d8200a93          	li	s5,-638
    8000070c:	00001717          	auipc	a4,0x1
    80000710:	be070713          	addi	a4,a4,-1056 # 800012ec <reg_x29_output+0x4>
    80000714:	00001f17          	auipc	t5,0x1
    80000718:	a87f0f13          	addi	t5,t5,-1401 # 8000119b <reg_x19_init+0x3>
    8000071c:	00001097          	auipc	ra,0x1
    80000720:	ad108093          	addi	ra,ra,-1327 # 800011ed <reg_x29_init+0x5>
    80000724:	5000a5a3          	sw	zero,1291(ra)
    80000728:	015ab233          	sltu	tp,s5,s5
    8000072c:	3a072e83          	lw	t4,928(a4)
    80000730:	00001c97          	auipc	s9,0x1
    80000734:	d6ec8c93          	addi	s9,s9,-658 # 8000149e <test_memory+0x19e>
    80000738:	0a2cad83          	lw	s11,162(s9)
    8000073c:	000a8593          	mv	a1,s5
    80000740:	ea3bd183          	lhu	gp,-349(s7)
    80000744:	15702813          	slti	a6,zero,343
    80000748:	9d1480e3          	beq	s1,a7,80000108 <crash_backward>
    8000074c:	b5b10313          	addi	t1,sp,-1189
    80000750:	15d00f93          	li	t6,349
    80000754:	4c7f36a3          	sd	t2,1229(t5)
    80000758:	00058993          	mv	s3,a1
    8000075c:	02b5c93b          	divw	s2,a1,a1
    80000760:	c8900e13          	li	t3,-887
    80000764:	8c500793          	li	a5,-1851
    80000768:	00001117          	auipc	sp,0x1
    8000076c:	ea610113          	addi	sp,sp,-346 # 8000160e <test_memory+0x30e>
    80000770:	01cfad33          	slt	s10,t6,t3
    80000774:	00100493          	li	s1,1
    80000778:	25400393          	li	t2,596
    8000077c:	02f7f633          	remu	a2,a5,a5
    80000780:	00001b97          	auipc	s7,0x1
    80000784:	a0cb8b93          	addi	s7,s7,-1524 # 8000118c <reg_x17_init+0x4>
    80000788:	03f49493          	slli	s1,s1,0x3f
    8000078c:	f8a13303          	ld	t1,-118(sp)
    80000790:	03ad76bb          	remuw	a3,s10,s10
    80000794:	03cf1b33          	mulh	s6,t5,t3
    80000798:	448bdd83          	lhu	s11,1096(s7)
    8000079c:	0c700713          	li	a4,199
    800007a0:	03207cbb          	remuw	s9,zero,s2
    800007a4:	00001417          	auipc	s0,0x1
    800007a8:	01d40413          	addi	s0,s0,29 # 800017c1 <_end+0xb1>
    800007ac:	00e73933          	sltu	s2,a4,a4
    800007b0:	016b023b          	addw	tp,s6,s6
    800007b4:	e4000e93          	li	t4,-448
    800007b8:	0263783b          	remuw	a6,t1,t1
    800007bc:	00100b93          	li	s7,1
    800007c0:	dd618693          	addi	a3,gp,-554 # 80001ce6 <_end+0x5d6>
    800007c4:	fff00a13          	li	s4,-1
    800007c8:	00b59e33          	sll	t3,a1,a1
    800007cc:	9fe6dd83          	lhu	s11,-1538(a3)
    800007d0:	00001c97          	auipc	s9,0x1
    800007d4:	c78c8c93          	addi	s9,s9,-904 # 80001448 <test_memory+0x148>
    800007d8:	1f4c9903          	lh	s2,500(s9)
    800007dc:	eea437a3          	sd	a0,-273(s0)
    800007e0:	47e28513          	addi	a0,t0,1150
    800007e4:	03d3b1b3          	mulhu	gp,t2,t4
    800007e8:	01188fb3          	add	t6,a7,a7
    800007ec:	08800713          	li	a4,136
    800007f0:	46900793          	li	a5,1129
    800007f4:	40f75b33          	sra	s6,a4,a5
    800007f8:	00001897          	auipc	a7,0x1
    800007fc:	89488893          	addi	a7,a7,-1900 # 8000108c <fromhost+0x4c>
    80000800:	00001a97          	auipc	s5,0x1
    80000804:	a63a8a93          	addi	s5,s5,-1437 # 80001263 <reg_x12_output+0x3>
    80000808:	00000417          	auipc	s0,0x0
    8000080c:	46040413          	addi	s0,s0,1120 # 80000c68 <test_end+0x298>
    80000810:	27c8ed03          	lwu	s10,636(a7)
    80000814:	726c6813          	ori	a6,s8,1830
    80000818:	6bd43423          	sd	t4,1704(s0)
    8000081c:	185ab083          	ld	ra,389(s5)
    80000820:	3fa00693          	li	a3,1018
    80000824:	03fb9b93          	slli	s7,s7,0x3f
    80000828:	00000717          	auipc	a4,0x0
    8000082c:	76b70713          	addi	a4,a4,1899 # 80000f93 <test_end+0x5c3>
    80000830:	366726a3          	sw	t1,877(a4)
    80000834:	91918e13          	addi	t3,gp,-1767 # 80001829 <_end+0x119>
    80000838:	009a4a33          	xor	s4,s4,s1
    8000083c:	afd18893          	addi	a7,gp,-1283 # 80001a0d <_end+0x2fd>
    80000840:	c6400e93          	li	t4,-924
    80000844:	fff00613          	li	a2,-1
    80000848:	01398d3b          	addw	s10,s3,s3
    8000084c:	02f8483b          	divw	a6,a6,a5
    80000850:	29800993          	li	s3,664
    80000854:	014d7f33          	and	t5,s10,s4
    80000858:	b0fe5d83          	lhu	s11,-1265(t3)
    8000085c:	0088151b          	slliw	a0,a6,0x8
    80000860:	01764633          	xor	a2,a2,s7
    80000864:	00c8f233          	and	tp,a7,a2
    80000868:	ab000393          	li	t2,-1360
    8000086c:	9b78a083          	lw	ra,-1609(a7)
    80000870:	7d498593          	addi	a1,s3,2004
    80000874:	00145093          	srli	ra,s0,0x1
    80000878:	020560b3          	rem	ra,a0,zero
    8000087c:	41ded8bb          	sraw	a7,t4,t4
    80000880:	03a64733          	div	a4,a2,s10
    80000884:	039ea533          	mulhsu	a0,t4,s9
    80000888:	4a900e13          	li	t3,1193
    8000088c:	01726133          	or	sp,tp,s7
    80000890:	86227ce3          	bgeu	tp,sp,80000108 <crash_backward>
    80000894:	41d6d1bb          	sraw	gp,a3,t4
    80000898:	000d8413          	mv	s0,s11
    8000089c:	00001217          	auipc	tp,0x1
    800008a0:	ab320213          	addi	tp,tp,-1357 # 8000134f <test_memory+0x4f>
    800008a4:	00040a93          	mv	s5,s0
    800008a8:	eff38313          	addi	t1,t2,-257
    800008ac:	00001917          	auipc	s2,0x1
    800008b0:	95090913          	addi	s2,s2,-1712 # 800011fc <reg_x31_init+0x4>
    800008b4:	40a5d81b          	sraiw	a6,a1,0xa
    800008b8:	03bfa2b3          	mulhsu	t0,t6,s11
    800008bc:	bd100c93          	li	s9,-1071
    800008c0:	039ceb3b          	remw	s6,s9,s9
    800008c4:	11800893          	li	a7,280
    800008c8:	b8100513          	li	a0,-1151
    800008cc:	00a510b3          	sll	ra,a0,a0
    800008d0:	03087ebb          	remuw	t4,a6,a6
    800008d4:	00038693          	mv	a3,t2
    800008d8:	009f6c33          	or	s8,t5,s1
    800008dc:	fd522103          	lw	sp,-43(tp) # ffffffffffffffd5 <__global_pointer$+0xffffffff7fffe0c5>
    800008e0:	82b984e3          	beq	s3,a1,80000108 <crash_backward>
    800008e4:	01ce5d3b          	srlw	s10,t3,t3
    800008e8:	16188713          	addi	a4,a7,353
    800008ec:	0ce8d863          	bge	a7,a4,800009bc <crash_forward>
    800008f0:	00068813          	mv	a6,a3
    800008f4:	aaa00293          	li	t0,-1366
    800008f8:	0d8f0263          	beq	t5,s8,800009bc <crash_forward>
    800008fc:	a4d18793          	addi	a5,gp,-1459 # 8000195d <_end+0x24d>
    80000900:	0b06ee63          	bltu	a3,a6,800009bc <crash_forward>
    80000904:	3aa95f83          	lhu	t6,938(s2)
    80000908:	c5d7b1a3          	sd	t4,-957(a5)
    8000090c:	0252beb3          	mulhu	t4,t0,t0
    80000910:	00630db3          	add	s11,t1,t1
    80000914:	c7b00193          	li	gp,-901
    80000918:	e0418613          	addi	a2,gp,-508 # 80001d14 <_end+0x604>
    8000091c:	03084bbb          	divw	s7,a6,a6
    80000920:	fec1c463          	blt	gp,a2,80000108 <crash_backward>
    80000924:	0040006f          	j	80000928 <reg_dump>

0000000080000928 <reg_dump>:
    80000928:	00001097          	auipc	ra,0x1
    8000092c:	dd808093          	addi	ra,ra,-552 # 80001700 <loop_count>
    80000930:	0000a103          	lw	sp,0(ra)
    80000934:	fff10193          	addi	gp,sp,-1
    80000938:	0030a023          	sw	gp,0(ra)
    8000093c:	860116e3          	bnez	sp,800001a8 <pseg_0>
    80000940:	00001097          	auipc	ra,0x1
    80000944:	8c008093          	addi	ra,ra,-1856 # 80001200 <begin_signature>
    80000948:	0000b023          	sd	zero,0(ra)
    8000094c:	0020b823          	sd	sp,16(ra)
    80000950:	0030bc23          	sd	gp,24(ra)
    80000954:	0250b423          	sd	t0,40(ra)
    80000958:	0260b823          	sd	t1,48(ra)
    8000095c:	0270bc23          	sd	t2,56(ra)
    80000960:	0480b023          	sd	s0,64(ra)
    80000964:	0490b423          	sd	s1,72(ra)
    80000968:	04a0b823          	sd	a0,80(ra)
    8000096c:	04b0bc23          	sd	a1,88(ra)
    80000970:	06c0b023          	sd	a2,96(ra)
    80000974:	06d0b423          	sd	a3,104(ra)
    80000978:	06e0b823          	sd	a4,112(ra)
    8000097c:	0900b023          	sd	a6,128(ra)
    80000980:	0910b423          	sd	a7,136(ra)
    80000984:	0930bc23          	sd	s3,152(ra)
    80000988:	0b40b023          	sd	s4,160(ra)
    8000098c:	0b50b423          	sd	s5,168(ra)
    80000990:	0b60b823          	sd	s6,176(ra)
    80000994:	0b70bc23          	sd	s7,184(ra)
    80000998:	0d80b023          	sd	s8,192(ra)
    8000099c:	0d90b423          	sd	s9,200(ra)
    800009a0:	0da0b823          	sd	s10,208(ra)
    800009a4:	0db0bc23          	sd	s11,216(ra)
    800009a8:	0fc0b023          	sd	t3,224(ra)
    800009ac:	0fd0b423          	sd	t4,232(ra)
    800009b0:	0fe0b823          	sd	t5,240(ra)
    800009b4:	0ff0bc23          	sd	t6,248(ra)
    800009b8:	0180006f          	j	800009d0 <test_end>

00000000800009bc <crash_forward>:
    800009bc:	0ff0000f          	fence
    800009c0:	00018063          	beqz	gp,800009c0 <crash_forward+0x4>
    800009c4:	00119193          	slli	gp,gp,0x1
    800009c8:	0011e193          	ori	gp,gp,1
    800009cc:	00000073          	ecall

00000000800009d0 <test_end>:
    800009d0:	0ff0000f          	fence
    800009d4:	00100193          	li	gp,1
    800009d8:	00000073          	ecall
    800009dc:	c0001073          	unimp
	...

Disassembly of section .tohost:

0000000080001000 <tohost>:
	...

0000000080001040 <fromhost>:
	...
