
test.elf:     file format elf64-littleriscv


Disassembly of section .text.init:

0000000080000000 <_start>:
    80000000:	0580006f          	j	80000058 <reset_vector>

0000000080000004 <trap_vector>:
    80000004:	34202f73          	csrr	t5,mcause
    80000008:	00800f93          	li	t6,8
    8000000c:	05ff0063          	beq	t5,t6,8000004c <write_tohost>
    80000010:	00900f93          	li	t6,9
    80000014:	03ff0c63          	beq	t5,t6,8000004c <write_tohost>
    80000018:	00b00f93          	li	t6,11
    8000001c:	03ff0863          	beq	t5,t6,8000004c <write_tohost>
    80000020:	00000f13          	li	t5,0
    80000024:	000f0463          	beqz	t5,8000002c <trap_vector+0x28>
    80000028:	000f0067          	jr	t5
    8000002c:	34202f73          	csrr	t5,mcause
    80000030:	000f5463          	bgez	t5,80000038 <handle_exception>
    80000034:	0140006f          	j	80000048 <other_exception>

0000000080000038 <handle_exception>:
    80000038:	34102e73          	csrr	t3,mepc
    8000003c:	004e0e13          	addi	t3,t3,4
    80000040:	341e1073          	csrw	mepc,t3
    80000044:	30200073          	mret

0000000080000048 <other_exception>:
    80000048:	5391e193          	ori	gp,gp,1337

000000008000004c <write_tohost>:
    8000004c:	00001f17          	auipc	t5,0x1
    80000050:	fa3f2a23          	sw	gp,-76(t5) # 80001000 <tohost>
    80000054:	ff9ff06f          	j	8000004c <write_tohost>

0000000080000058 <reset_vector>:
    80000058:	f1402573          	csrr	a0,mhartid
    8000005c:	00051063          	bnez	a0,8000005c <reset_vector+0x4>
    80000060:	00000297          	auipc	t0,0x0
    80000064:	01028293          	addi	t0,t0,16 # 80000070 <reset_vector+0x18>
    80000068:	30529073          	csrw	mtvec,t0
    8000006c:	18005073          	csrwi	satp,0
    80000070:	00000297          	auipc	t0,0x0
    80000074:	01c28293          	addi	t0,t0,28 # 8000008c <reset_vector+0x34>
    80000078:	30529073          	csrw	mtvec,t0
    8000007c:	fff00293          	li	t0,-1
    80000080:	3b029073          	csrw	pmpaddr0,t0
    80000084:	01f00293          	li	t0,31
    80000088:	3a029073          	csrw	pmpcfg0,t0
    8000008c:	00000297          	auipc	t0,0x0
    80000090:	01828293          	addi	t0,t0,24 # 800000a4 <reset_vector+0x4c>
    80000094:	30529073          	csrw	mtvec,t0
    80000098:	30205073          	csrwi	medeleg,0
    8000009c:	30305073          	csrwi	mideleg,0
    800000a0:	30405073          	csrwi	mie,0
    800000a4:	00000193          	li	gp,0
    800000a8:	00000297          	auipc	t0,0x0
    800000ac:	f5c28293          	addi	t0,t0,-164 # 80000004 <trap_vector>
    800000b0:	30529073          	csrw	mtvec,t0
    800000b4:	00100513          	li	a0,1
    800000b8:	01f51513          	slli	a0,a0,0x1f
    800000bc:	00055863          	bgez	a0,800000cc <reset_vector+0x74>
    800000c0:	0ff0000f          	fence
    800000c4:	00100193          	li	gp,1
    800000c8:	00000073          	ecall
    800000cc:	00000293          	li	t0,0
    800000d0:	00028e63          	beqz	t0,800000ec <reset_vector+0x94>
    800000d4:	10529073          	csrw	stvec,t0
    800000d8:	0000b2b7          	lui	t0,0xb
    800000dc:	1092829b          	addiw	t0,t0,265
    800000e0:	30229073          	csrw	medeleg,t0
    800000e4:	30202373          	csrr	t1,medeleg
    800000e8:	f66290e3          	bne	t0,t1,80000048 <other_exception>
    800000ec:	30005073          	csrwi	mstatus,0
    800000f0:	00000297          	auipc	t0,0x0
    800000f4:	01428293          	addi	t0,t0,20 # 80000104 <reset_vector+0xac>
    800000f8:	34129073          	csrw	mepc,t0
    800000fc:	f1402573          	csrr	a0,mhartid
    80000100:	30200073          	mret
    80000104:	0180006f          	j	8000011c <test_start>

0000000080000108 <crash_backward>:
    80000108:	0ff0000f          	fence
    8000010c:	00018063          	beqz	gp,8000010c <crash_backward+0x4>
    80000110:	00119193          	slli	gp,gp,0x1
    80000114:	0011e193          	ori	gp,gp,1
    80000118:	00000073          	ecall

000000008000011c <test_start>:
    8000011c:	00001f97          	auipc	t6,0x1
    80000120:	fe4f8f93          	addi	t6,t6,-28 # 80001100 <hidden_data>
    80000124:	000fb003          	ld	zero,0(t6)
    80000128:	008fb083          	ld	ra,8(t6)
    8000012c:	010fb103          	ld	sp,16(t6)
    80000130:	018fb183          	ld	gp,24(t6)
    80000134:	020fb203          	ld	tp,32(t6)
    80000138:	028fb283          	ld	t0,40(t6)
    8000013c:	030fb303          	ld	t1,48(t6)
    80000140:	038fb383          	ld	t2,56(t6)
    80000144:	040fb403          	ld	s0,64(t6)
    80000148:	048fb483          	ld	s1,72(t6)
    8000014c:	050fb503          	ld	a0,80(t6)
    80000150:	058fb583          	ld	a1,88(t6)
    80000154:	060fb603          	ld	a2,96(t6)
    80000158:	068fb683          	ld	a3,104(t6)
    8000015c:	070fb703          	ld	a4,112(t6)
    80000160:	078fb783          	ld	a5,120(t6)
    80000164:	080fb803          	ld	a6,128(t6)
    80000168:	088fb883          	ld	a7,136(t6)
    8000016c:	090fb903          	ld	s2,144(t6)
    80000170:	098fb983          	ld	s3,152(t6)
    80000174:	0a0fba03          	ld	s4,160(t6)
    80000178:	0a8fba83          	ld	s5,168(t6)
    8000017c:	0b0fbb03          	ld	s6,176(t6)
    80000180:	0b8fbb83          	ld	s7,184(t6)
    80000184:	0c0fbc03          	ld	s8,192(t6)
    80000188:	0c8fbc83          	ld	s9,200(t6)
    8000018c:	0d0fbd03          	ld	s10,208(t6)
    80000190:	0d8fbd83          	ld	s11,216(t6)
    80000194:	0e0fbe03          	ld	t3,224(t6)
    80000198:	0e8fbe83          	ld	t4,232(t6)
    8000019c:	0f0fbf03          	ld	t5,240(t6)
    800001a0:	0f8fbf83          	ld	t6,248(t6)
    800001a4:	0040006f          	j	800001a8 <pseg_0>

00000000800001a8 <pseg_0>:
    800001a8:	ad400d93          	li	s11,-1324
    800001ac:	01d8f3b3          	and	t2,a7,t4
    800001b0:	00001217          	auipc	tp,0x1
    800001b4:	00420213          	addi	tp,tp,4 # 800011b4 <reg_x22_init+0x4>
    800001b8:	022dbcb3          	mulhu	s9,s11,sp
    800001bc:	53a21283          	lh	t0,1338(tp) # 53a <_start-0x7ffffac6>
    800001c0:	023a5b93          	srli	s7,s4,0x23
    800001c4:	036b043b          	mulw	s0,s6,s6
    800001c8:	ce000813          	li	a6,-800
    800001cc:	41bdd1b3          	sra	gp,s11,s11
    800001d0:	00001597          	auipc	a1,0x1
    800001d4:	d9958593          	addi	a1,a1,-615 # 80000f69 <test_end+0x5f1>
    800001d8:	00001117          	auipc	sp,0x1
    800001dc:	e0010113          	addi	sp,sp,-512 # 80000fd8 <test_end+0x660>
    800001e0:	80e00313          	li	t1,-2034
    800001e4:	88397d13          	andi	s10,s2,-1917
    800001e8:	32e00e93          	li	t4,814
    800001ec:	40e750b3          	sra	ra,a4,a4
    800001f0:	40630f3b          	subw	t5,t1,t1
    800001f4:	a6718a93          	addi	s5,gp,-1433 # 80001977 <_end+0x267>
    800001f8:	3f159b03          	lh	s6,1009(a1)
    800001fc:	009a19bb          	sllw	s3,s4,s1
    80000200:	42d15a13          	srai	s4,sp,0x2d
    80000204:	00001597          	auipc	a1,0x1
    80000208:	22758593          	addi	a1,a1,551 # 8000142b <test_memory+0x12b>
    8000020c:	0985a2a3          	sw	s8,133(a1)
    80000210:	bedaae03          	lw	t3,-1043(s5)
    80000214:	5da00693          	li	a3,1498
    80000218:	00de8933          	add	s2,t4,a3
    8000021c:	0329733b          	remuw	t1,s2,s2
    80000220:	c2f00293          	li	t0,-977
    80000224:	67114703          	lbu	a4,1649(sp)
    80000228:	ec628213          	addi	tp,t0,-314
    8000022c:	0159f433          	and	s0,s3,s5
    80000230:	63700e93          	li	t4,1591
    80000234:	00a507bb          	addw	a5,a0,a0
    80000238:	ec42c8e3          	blt	t0,tp,80000108 <crash_backward>
    8000023c:	9df00893          	li	a7,-1569
    80000240:	72f00993          	li	s3,1839
    80000244:	6ca00d13          	li	s10,1738
    80000248:	aeb00b93          	li	s7,-1301
    8000024c:	4179d3b3          	sra	t2,s3,s7
    80000250:	03cb1d93          	slli	s11,s6,0x3c
    80000254:	00001a97          	auipc	s5,0x1
    80000258:	15da8a93          	addi	s5,s5,349 # 800013b1 <test_memory+0xb1>
    8000025c:	fdc00f93          	li	t6,-36
    80000260:	03f814b3          	mulh	s1,a6,t6
    80000264:	00001597          	auipc	a1,0x1
    80000268:	fbc58593          	addi	a1,a1,-68 # 80001220 <reg_x4_output>
    8000026c:	97700c13          	li	s8,-1673
    80000270:	00001117          	auipc	sp,0x1
    80000274:	ce610113          	addi	sp,sp,-794 # 80000f56 <test_end+0x5de>
    80000278:	00001997          	auipc	s3,0x1
    8000027c:	b1998993          	addi	s3,s3,-1255 # 80000d91 <test_end+0x419>
    80000280:	00001917          	auipc	s2,0x1
    80000284:	c0390913          	addi	s2,s2,-1021 # 80000e83 <test_end+0x50b>
    80000288:	00001417          	auipc	s0,0x1
    8000028c:	c2840413          	addi	s0,s0,-984 # 80000eb0 <test_end+0x538>
    80000290:	018c2533          	slt	a0,s8,s8
    80000294:	2cc00f93          	li	t6,716
    80000298:	06958313          	addi	t1,a1,105
    8000029c:	00001f17          	auipc	t5,0x1
    800002a0:	308f0f13          	addi	t5,t5,776 # 800015a4 <test_memory+0x2a4>
    800002a4:	03aefa3b          	remuw	s4,t4,s10
    800002a8:	0318c633          	div	a2,a7,a7
    800002ac:	e1c00813          	li	a6,-484
    800002b0:	26e00093          	li	ra,622
    800002b4:	00001297          	auipc	t0,0x1
    800002b8:	bfd28293          	addi	t0,t0,-1027 # 80000eb1 <test_end+0x539>
    800002bc:	030f83b3          	mul	t2,t6,a6
    800002c0:	035f9c93          	slli	s9,t6,0x35
    800002c4:	4031ddbb          	sraw	s11,gp,gp
    800002c8:	cfc00513          	li	a0,-772
    800002cc:	104f1183          	lh	gp,260(t5)
    800002d0:	a0418213          	addi	tp,gp,-1532 # 80001914 <_end+0x204>
    800002d4:	28d00893          	li	a7,653
    800002d8:	63a28a23          	sb	s10,1588(t0)
    800002dc:	0118fa33          	and	s4,a7,a7
    800002e0:	52c41483          	lh	s1,1324(s0)
    800002e4:	be550c13          	addi	s8,a0,-1051
    800002e8:	1ee08b13          	addi	s6,ra,494
    800002ec:	58c11783          	lh	a5,1420(sp)
    800002f0:	03bd9333          	mulh	t1,s11,s11
    800002f4:	7b59c703          	lbu	a4,1973(s3)
    800002f8:	00001d97          	auipc	s11,0x1
    800002fc:	cd3d8d93          	addi	s11,s11,-813 # 80000fcb <test_end+0x653>
    80000300:	56f91b83          	lh	s7,1391(s2)
    80000304:	00001317          	auipc	t1,0x1
    80000308:	fd430313          	addi	t1,t1,-44 # 800012d8 <reg_x27_output>
    8000030c:	00001897          	auipc	a7,0x1
    80000310:	b2d88893          	addi	a7,a7,-1235 # 80000e39 <test_end+0x4c1>
    80000314:	7f500413          	li	s0,2037
    80000318:	00001a17          	auipc	s4,0x1
    8000031c:	452a0a13          	addi	s4,s4,1106 # 8000176a <_end+0x5a>
    80000320:	a1118813          	addi	a6,gp,-1519 # 80001921 <_end+0x211>
    80000324:	dce18b93          	addi	s7,gp,-562 # 80001cde <_end+0x5ce>
    80000328:	0052e6b3          	or	a3,t0,t0
    8000032c:	019884b3          	add	s1,a7,s9
    80000330:	894bdc83          	lhu	s9,-1900(s7)
    80000334:	00038c13          	mv	s8,t2
    80000338:	cefa0603          	lb	a2,-785(s4)
    8000033c:	cbb86183          	lwu	gp,-837(a6)
    80000340:	7408b3a3          	sd	zero,1863(a7)
    80000344:	42e5b423          	sd	a4,1064(a1)
    80000348:	98700f93          	li	t6,-1657
    8000034c:	41ffdb3b          	sraw	s6,t6,t6
    80000350:	0b235383          	lhu	t2,178(t1)
    80000354:	08800e93          	li	t4,136
    80000358:	5bcd8283          	lb	t0,1468(s11)
    8000035c:	297a8e03          	lb	t3,663(s5)
    80000360:	000c0513          	mv	a0,s8
    80000364:	00001497          	auipc	s1,0x1
    80000368:	bef48493          	addi	s1,s1,-1041 # 80000f53 <test_end+0x5db>
    8000036c:	00001117          	auipc	sp,0x1
    80000370:	29010113          	addi	sp,sp,656 # 800015fc <test_memory+0x2fc>
    80000374:	01f437b3          	sltu	a5,s0,t6
    80000378:	5bd00313          	li	t1,1469
    8000037c:	efd00613          	li	a2,-259
    80000380:	c2f21823          	sh	a5,-976(tp) # fffffffffffffc30 <__global_pointer$+0xffffffff7fffdd20>
    80000384:	00100913          	li	s2,1
    80000388:	03f91913          	slli	s2,s2,0x3f
    8000038c:	0f7e8d13          	addi	s10,t4,247
    80000390:	d8016f03          	lwu	t5,-640(sp)
    80000394:	fff00293          	li	t0,-1
    80000398:	0122c2b3          	xor	t0,t0,s2
    8000039c:	43e00a13          	li	s4,1086
    800003a0:	0c200813          	li	a6,194
    800003a4:	14a00c93          	li	s9,330
    800003a8:	d7ae80e3          	beq	t4,s10,80000108 <crash_backward>
    800003ac:	0055f1b3          	and	gp,a1,t0
    800003b0:	039ca3b3          	mulhsu	t2,s9,s9
    800003b4:	0121eb33          	or	s6,gp,s2
    800003b8:	3cf4db83          	lhu	s7,975(s1)
    800003bc:	35000d93          	li	s11,848
    800003c0:	010a26b3          	slt	a3,s4,a6
    800003c4:	039cd7b3          	divu	a5,s9,s9
    800003c8:	6e300713          	li	a4,1763
    800003cc:	ecf00d13          	li	s10,-305
    800003d0:	03a7723b          	remuw	tp,a4,s10
    800003d4:	b4b00c93          	li	s9,-1205
    800003d8:	00100193          	li	gp,1
    800003dc:	57700e13          	li	t3,1399
    800003e0:	4afe0a93          	addi	s5,t3,1199
    800003e4:	00804eb3          	xor	t4,zero,s0
    800003e8:	03275a3b          	divuw	s4,a4,s2
    800003ec:	9b800393          	li	t2,-1608
    800003f0:	e82c8493          	addi	s1,s9,-382
    800003f4:	0273d2b3          	divu	t0,t2,t2
    800003f8:	dcc00f13          	li	t5,-564
    800003fc:	00209a3b          	sllw	s4,ra,sp
    80000400:	d00044e3          	bltz	zero,80000108 <crash_backward>
    80000404:	40f7853b          	subw	a0,a5,a5
    80000408:	db718c93          	addi	s9,gp,-585 # 80001cc7 <_end+0x5b7>
    8000040c:	03bde0bb          	remw	ra,s11,s11
    80000410:	02c318b3          	mulh	a7,t1,a2
    80000414:	999cb483          	ld	s1,-1639(s9)
    80000418:	02f546b3          	div	a3,a0,a5
    8000041c:	c8600993          	li	s3,-890
    80000420:	03f19193          	slli	gp,gp,0x3f
    80000424:	90c00d13          	li	s10,-1780
    80000428:	18300593          	li	a1,387
    8000042c:	415e5e9b          	sraiw	t4,t3,0x15
    80000430:	013f0fb3          	add	t6,t5,s3
    80000434:	41ad023b          	subw	tp,s10,s10
    80000438:	fff00b13          	li	s6,-1
    8000043c:	00001497          	auipc	s1,0x1
    80000440:	b5348493          	addi	s1,s1,-1197 # 80000f8f <test_end+0x617>
    80000444:	00001417          	auipc	s0,0x1
    80000448:	ad240413          	addi	s0,s0,-1326 # 80000f16 <test_end+0x59e>
    8000044c:	00001d97          	auipc	s11,0x1
    80000450:	247d8d93          	addi	s11,s11,583 # 80001693 <test_memory+0x393>
    80000454:	68d00e93          	li	t4,1677
    80000458:	c8f18813          	addi	a6,gp,-881 # 80001b9f <_end+0x48f>
    8000045c:	00001697          	auipc	a3,0x1
    80000460:	18d68693          	addi	a3,a3,397 # 800015e9 <test_memory+0x2e9>
    80000464:	9cf18393          	addi	t2,gp,-1585 # 800018df <_end+0x1cf>
    80000468:	003b4b33          	xor	s6,s6,gp
    8000046c:	4e001c63          	bnez	zero,80000964 <crash_forward>
    80000470:	016d48b3          	xor	a7,s10,s6
    80000474:	01def533          	and	a0,t4,t4
    80000478:	af13bd03          	ld	s10,-1295(t2)
    8000047c:	00001717          	auipc	a4,0x1
    80000480:	c5c70713          	addi	a4,a4,-932 # 800010d8 <fromhost+0x98>
    80000484:	016e7933          	and	s2,t3,s6
    80000488:	00100c93          	li	s9,1
    8000048c:	f4c68d23          	sb	a2,-166(a3)
    80000490:	57d4ea83          	lwu	s5,1405(s1)
    80000494:	00001997          	auipc	s3,0x1
    80000498:	05198993          	addi	s3,s3,81 # 800014e5 <test_memory+0x1e5>
    8000049c:	0038ebb3          	or	s7,a7,gp
    800004a0:	019caa33          	slt	s4,s9,s9
    800004a4:	03fc9c93          	slli	s9,s9,0x3f
    800004a8:	e7f00c13          	li	s8,-385
    800004ac:	8f300f13          	li	t5,-1805
    800004b0:	00001097          	auipc	ra,0x1
    800004b4:	2d508093          	addi	ra,ra,725 # 80001785 <_end+0x75>
    800004b8:	d7e09aa3          	sh	t5,-651(ra)
    800004bc:	c04f0213          	addi	tp,t5,-1020
    800004c0:	e65dbe03          	ld	t3,-411(s11)
    800004c4:	00001397          	auipc	t2,0x1
    800004c8:	e2838393          	addi	t2,t2,-472 # 800012ec <reg_x29_output+0x4>
    800004cc:	000d0913          	mv	s2,s10
    800004d0:	0385a133          	mulhsu	sp,a1,s8
    800004d4:	cdf00893          	li	a7,-801
    800004d8:	019cdb3b          	srlw	s6,s9,s9
    800004dc:	00000a93          	li	s5,0
    800004e0:	90f85783          	lhu	a5,-1777(a6)
    800004e4:	00000d13          	li	s10,0
    800004e8:	00090e93          	mv	t4,s2
    800004ec:	77642f23          	sw	s6,1918(s0)
    800004f0:	1b338183          	lb	gp,435(t2)
    800004f4:	3a000d93          	li	s11,928
    800004f8:	400a8a33          	sub	s4,s5,zero
    800004fc:	031880b3          	mul	ra,a7,a7
    80000500:	3d672823          	sw	s6,976(a4)
    80000504:	fff00293          	li	t0,-1
    80000508:	00001b97          	auipc	s7,0x1
    8000050c:	86ab8b93          	addi	s7,s7,-1942 # 80000d72 <test_end+0x3fa>
    80000510:	023fe5b3          	rem	a1,t6,gp
    80000514:	0192c2b3          	xor	t0,t0,s9
    80000518:	005c7fb3          	and	t6,s8,t0
    8000051c:	00001597          	auipc	a1,0x1
    80000520:	fcd58593          	addi	a1,a1,-51 # 800014e9 <test_memory+0x1e9>
    80000524:	b4600f13          	li	t5,-1210
    80000528:	00001e97          	auipc	t4,0x1
    8000052c:	c2fe8e93          	addi	t4,t4,-977 # 80001157 <reg_x10_init+0x7>
    80000530:	03f8a933          	mulhsu	s2,a7,t6
    80000534:	01936633          	or	a2,t1,s9
    80000538:	06300393          	li	t2,99
    8000053c:	ece00413          	li	s0,-306
    80000540:	79800693          	li	a3,1944
    80000544:	00843b33          	sltu	s6,s0,s0
    80000548:	0010991b          	slliw	s2,ra,0x1
    8000054c:	0294c933          	div	s2,s1,s1
    80000550:	40cfca63          	blt	t6,a2,80000964 <crash_forward>
    80000554:	ba004ae3          	bltz	zero,80000108 <crash_backward>
    80000558:	0210ca33          	div	s4,ra,ra
    8000055c:	f739a303          	lw	t1,-141(s3)
    80000560:	6b7b8203          	lb	tp,1719(s7)
    80000564:	680d8e13          	addi	t3,s11,1664
    80000568:	03083433          	mulhu	s0,a6,a6
    8000056c:	54d00113          	li	sp,1357
    80000570:	02df64bb          	remw	s1,t5,a3
    80000574:	02c61c33          	mulh	s8,a2,a2
    80000578:	00f188b3          	add	a7,gp,a5
    8000057c:	00001917          	auipc	s2,0x1
    80000580:	b1490913          	addi	s2,s2,-1260 # 80001090 <fromhost+0x50>
    80000584:	00001297          	auipc	t0,0x1
    80000588:	c5928293          	addi	t0,t0,-935 # 800011dd <reg_x27_init+0x5>
    8000058c:	e2f5e083          	lwu	ra,-465(a1)
    80000590:	b3f00b13          	li	s6,-1217
    80000594:	b7cddae3          	bge	s11,t3,80000108 <crash_backward>
    80000598:	25129403          	lh	s0,593(t0)
    8000059c:	00001b97          	auipc	s7,0x1
    800005a0:	173b8b93          	addi	s7,s7,371 # 8000170f <loop_count+0xf>
    800005a4:	49dec783          	lbu	a5,1181(t4)
    800005a8:	002391bb          	sllw	gp,t2,sp
    800005ac:	44700213          	li	tp,1095
    800005b0:	01fc8533          	add	a0,s9,t6
    800005b4:	0a200693          	li	a3,162
    800005b8:	02d208bb          	mulw	a7,tp,a3
    800005bc:	0209cc3b          	divw	s8,s3,zero
    800005c0:	00001e97          	auipc	t4,0x1
    800005c4:	9e1e8e93          	addi	t4,t4,-1567 # 80000fa1 <test_end+0x629>
    800005c8:	00001a97          	auipc	s5,0x1
    800005cc:	b0ca8a93          	addi	s5,s5,-1268 # 800010d4 <fromhost+0x94>
    800005d0:	000b0713          	mv	a4,s6
    800005d4:	0124fe33          	and	t3,s1,s2
    800005d8:	7e400993          	li	s3,2020
    800005dc:	40e5579b          	sraiw	a5,a0,0xe
    800005e0:	387ee283          	lwu	t0,903(t4)
    800005e4:	00001317          	auipc	t1,0x1
    800005e8:	1f430313          	addi	t1,t1,500 # 800017d8 <_end+0xc8>
    800005ec:	2b896603          	lwu	a2,696(s2)
    800005f0:	e0000f13          	li	t5,-512
    800005f4:	00001397          	auipc	t2,0x1
    800005f8:	b6d38393          	addi	t2,t2,-1171 # 80001161 <reg_x12_init+0x1>
    800005fc:	00001e97          	auipc	t4,0x1
    80000600:	9e9e8e93          	addi	t4,t4,-1559 # 80000fe5 <test_end+0x66d>
    80000604:	dd9baaa3          	sw	s9,-555(s7)
    80000608:	bfb00693          	li	a3,-1029
    8000060c:	00001d97          	auipc	s11,0x1
    80000610:	b5bd8d93          	addi	s11,s11,-1189 # 80001167 <reg_x12_init+0x7>
    80000614:	3eba8a03          	lb	s4,1003(s5)
    80000618:	d3af0493          	addi	s1,t5,-710
    8000061c:	328e93a3          	sh	s0,807(t4)
    80000620:	00020113          	mv	sp,tp
    80000624:	00010193          	mv	gp,sp
    80000628:	00070813          	mv	a6,a4
    8000062c:	24a00c13          	li	s8,586
    80000630:	ac311ce3          	bne	sp,gp,80000108 <crash_backward>
    80000634:	a8b18793          	addi	a5,gp,-1397 # 8000199b <_end+0x28b>
    80000638:	018e5513          	srli	a0,t3,0x18
    8000063c:	61e00213          	li	tp,1566
    80000640:	038c0ab3          	mul	s5,s8,s8
    80000644:	413b5fb3          	sra	t6,s6,s3
    80000648:	ad0740e3          	blt	a4,a6,80000108 <crash_backward>
    8000064c:	018c1d33          	sll	s10,s8,s8
    80000650:	5c300f93          	li	t6,1475
    80000654:	0068debb          	srlw	t4,a7,t1
    80000658:	529d8ca3          	sb	s1,1337(s11)
    8000065c:	3a800a93          	li	s5,936
    80000660:	9ed18a13          	addi	s4,gp,-1555 # 800018fd <_end+0x1ed>
    80000664:	404200bb          	subw	ra,tp,tp
    80000668:	415adb3b          	sraw	s6,s5,s5
    8000066c:	9c97ee03          	lwu	t3,-1591(a5)
    80000670:	41c30133          	sub	sp,t1,t3
    80000674:	03f4ccbb          	divw	s9,s1,t6
    80000678:	c7a18b93          	addi	s7,gp,-902 # 80001b8a <_end+0x47a>
    8000067c:	28139583          	lh	a1,641(t2)
    80000680:	c0000993          	li	s3,-1024
    80000684:	02d69433          	mulh	s0,a3,a3
    80000688:	b7a32a23          	sw	s10,-1164(t1)
    8000068c:	9c0bbb23          	sd	zero,-1578(s7)
    80000690:	cb8a0883          	lb	a7,-840(s4)
    80000694:	00100c13          	li	s8,1
    80000698:	0262b1b3          	mulhu	gp,t0,t1
    8000069c:	2c9f6463          	bltu	t5,s1,80000964 <crash_forward>
    800006a0:	03fc1c13          	slli	s8,s8,0x3f
    800006a4:	3f300593          	li	a1,1011
    800006a8:	fff00813          	li	a6,-1
    800006ac:	00001397          	auipc	t2,0x1
    800006b0:	dbc38393          	addi	t2,t2,-580 # 80001468 <test_memory+0x168>
    800006b4:	00000c93          	li	s9,0
    800006b8:	58000113          	li	sp,1408
    800006bc:	03500e93          	li	t4,53
    800006c0:	00100f13          	li	t5,1
    800006c4:	00001a97          	auipc	s5,0x1
    800006c8:	999a8a93          	addi	s5,s5,-1639 # 8000105d <fromhost+0x1d>
    800006cc:	00001b17          	auipc	s6,0x1
    800006d0:	e3fb0b13          	addi	s6,s6,-449 # 8000150b <test_memory+0x20b>
    800006d4:	03ff1f13          	slli	t5,t5,0x3f
    800006d8:	4129093b          	subw	s2,s2,s2
    800006dc:	013ff533          	and	a0,t6,s3
    800006e0:	01deedb3          	or	s11,t4,t4
    800006e4:	df700893          	li	a7,-521
    800006e8:	00001317          	auipc	t1,0x1
    800006ec:	f4c30313          	addi	t1,t1,-180 # 80001634 <test_memory+0x334>
    800006f0:	41188a33          	sub	s4,a7,a7
    800006f4:	00000697          	auipc	a3,0x0
    800006f8:	66168693          	addi	a3,a3,1633 # 80000d55 <test_end+0x3dd>
    800006fc:	dfe18093          	addi	ra,gp,-514 # 80001d0e <_end+0x5fe>
    80000700:	f1030603          	lb	a2,-240(t1)
    80000704:	3dd58793          	addi	a5,a1,989
    80000708:	ab818d93          	addi	s11,gp,-1352 # 800019c8 <_end+0x2b8>
    8000070c:	8ee09a23          	sh	a4,-1804(ra)
    80000710:	fff00e13          	li	t3,-1
    80000714:	9ef58ae3          	beq	a1,a5,80000108 <crash_backward>
    80000718:	01ee4e33          	xor	t3,t3,t5
    8000071c:	00001897          	auipc	a7,0x1
    80000720:	f4088893          	addi	a7,a7,-192 # 8000165c <test_memory+0x35c>
    80000724:	00ffd0b3          	srl	ra,t6,a5
    80000728:	01884833          	xor	a6,a6,s8
    8000072c:	00000a17          	auipc	s4,0x0
    80000730:	618a0a13          	addi	s4,s4,1560 # 80000d44 <test_end+0x3cc>
    80000734:	0da2b613          	sltiu	a2,t0,218
    80000738:	00000993          	li	s3,0
    8000073c:	00211d33          	sll	s10,sp,sp
    80000740:	6ec68223          	sb	a2,1764(a3)
    80000744:	001c8fbb          	addw	t6,s9,ra
    80000748:	48ca8523          	sb	a2,1162(s5)
    8000074c:	00000193          	li	gp,0
    80000750:	00001317          	auipc	t1,0x1
    80000754:	ed430313          	addi	t1,t1,-300 # 80001624 <test_memory+0x324>
    80000758:	43f00593          	li	a1,1087
    8000075c:	010372b3          	and	t0,t1,a6
    80000760:	c18dbe83          	ld	t4,-1000(s11)
    80000764:	07e3d403          	lhu	s0,126(t2)
    80000768:	00000913          	li	s2,0
    8000076c:	0448e503          	lwu	a0,68(a7)
    80000770:	1f299a63          	bne	s3,s2,80000964 <crash_forward>
    80000774:	1e3ce863          	bltu	s9,gp,80000964 <crash_forward>
    80000778:	7cf00093          	li	ra,1999
    8000077c:	01ad093b          	addw	s2,s10,s10
    80000780:	07833e23          	sd	s8,124(t1)
    80000784:	f30b4203          	lbu	tp,-208(s6)
    80000788:	c4d00413          	li	s0,-947
    8000078c:	b2400c93          	li	s9,-1244
    80000790:	419cd1b3          	sra	gp,s9,s9
    80000794:	75fa3623          	sd	t6,1868(s4)
    80000798:	4010dfb3          	sra	t6,ra,ra
    8000079c:	29500993          	li	s3,661
    800007a0:	01c1fbb3          	and	s7,gp,t3
    800007a4:	02845abb          	divuw	s5,s0,s0
    800007a8:	48c00d93          	li	s11,1164
    800007ac:	36400b13          	li	s6,868
    800007b0:	01eee4b3          	or	s1,t4,t5
    800007b4:	9b55ee93          	ori	t4,a1,-1611
    800007b8:	35600913          	li	s2,854
    800007bc:	5f900613          	li	a2,1529
    800007c0:	e2500113          	li	sp,-475
    800007c4:	ad4890b7          	lui	ra,0xad489
    800007c8:	0182e733          	or	a4,t0,s8
    800007cc:	012b123b          	sllw	tp,s6,s2
    800007d0:	02265d3b          	divuw	s10,a2,sp
    800007d4:	00000317          	auipc	t1,0x0
    800007d8:	69530313          	addi	t1,t1,1685 # 80000e69 <test_end+0x4f1>
    800007dc:	92e2f6e3          	bgeu	t0,a4,80000108 <crash_backward>
    800007e0:	03b9f3bb          	remuw	t2,s3,s11
    800007e4:	03ffd8bb          	divuw	a7,t6,t6
    800007e8:	02b59a33          	mulh	s4,a1,a1
    800007ec:	40b587bb          	subw	a5,a1,a1
    800007f0:	b3450c9b          	addiw	s9,a0,-1228
    800007f4:	7f336183          	lwu	gp,2035(t1)
    800007f8:	00100413          	li	s0,1
    800007fc:	03f41413          	slli	s0,s0,0x3f
    80000800:	fff00693          	li	a3,-1
    80000804:	bf800613          	li	a2,-1032
    80000808:	028147b3          	div	a5,sp,s0
    8000080c:	00100313          	li	t1,1
    80000810:	00d6c5b3          	xor	a1,a3,a3
    80000814:	0284ca3b          	divw	s4,s1,s0
    80000818:	00100a13          	li	s4,1
    8000081c:	8e0016e3          	bnez	zero,80000108 <crash_backward>
    80000820:	80800113          	li	sp,-2040
    80000824:	0086c6b3          	xor	a3,a3,s0
    80000828:	00dd7fb3          	and	t6,s10,a3
    8000082c:	47000393          	li	t2,1136
    80000830:	03f31313          	slli	t1,t1,0x3f
    80000834:	0231b0b3          	mulhu	ra,gp,gp
    80000838:	008feab3          	or	s5,t6,s0
    8000083c:	37f00293          	li	t0,895
    80000840:	03bbfc33          	remu	s8,s7,s11
    80000844:	64a00193          	li	gp,1610
    80000848:	fff00f13          	li	t5,-1
    8000084c:	0273a733          	mulhsu	a4,t2,t2
    80000850:	07d00213          	li	tp,125
    80000854:	006f4f33          	xor	t5,t5,t1
    80000858:	40b3d933          	sra	s2,t2,a1
    8000085c:	40c609bb          	subw	s3,a2,a2
    80000860:	a4f18493          	addi	s1,gp,-1457 # 8000195f <_end+0x24f>
    80000864:	0252c53b          	divw	a0,t0,t0
    80000868:	00100713          	li	a4,1
    8000086c:	039cddbb          	divuw	s11,s9,s9
    80000870:	29200b13          	li	s6,658
    80000874:	00000697          	auipc	a3,0x0
    80000878:	45e68693          	addi	a3,a3,1118 # 80000cd2 <test_end+0x35a>
    8000087c:	7fa6a323          	sw	s10,2022(a3)
    80000880:	03fa1a13          	slli	s4,s4,0x3f
    80000884:	00319833          	sll	a6,gp,gp
    80000888:	01edfeb3          	and	t4,s11,t5
    8000088c:	03f71713          	slli	a4,a4,0x3f
    80000890:	00411bbb          	sllw	s7,sp,tp
    80000894:	cb648823          	sb	s6,-848(s1)
    80000898:	fff00c13          	li	s8,-1
    8000089c:	006eed33          	or	s10,t4,t1
    800008a0:	00ec4c33          	xor	s8,s8,a4
    800008a4:	fff00c93          	li	s9,-1
    800008a8:	014cccb3          	xor	s9,s9,s4
    800008ac:	73fb0893          	addi	a7,s6,1855
    800008b0:	018d7933          	and	s2,s10,s8
    800008b4:	0b68e863          	bltu	a7,s6,80000964 <crash_forward>
    800008b8:	019af5b3          	and	a1,s5,s9
    800008bc:	014567b3          	or	a5,a0,s4
    800008c0:	0af5c263          	blt	a1,a5,80000964 <crash_forward>
    800008c4:	00e96433          	or	s0,s2,a4
    800008c8:	0040006f          	j	800008cc <reg_dump>

00000000800008cc <reg_dump>:
    800008cc:	00001097          	auipc	ra,0x1
    800008d0:	e3408093          	addi	ra,ra,-460 # 80001700 <loop_count>
    800008d4:	0000a103          	lw	sp,0(ra)
    800008d8:	fff10193          	addi	gp,sp,-1
    800008dc:	0030a023          	sw	gp,0(ra)
    800008e0:	8c0114e3          	bnez	sp,800001a8 <pseg_0>
    800008e4:	00001097          	auipc	ra,0x1
    800008e8:	91c08093          	addi	ra,ra,-1764 # 80001200 <begin_signature>
    800008ec:	0000b023          	sd	zero,0(ra)
    800008f0:	0020b823          	sd	sp,16(ra)
    800008f4:	0030bc23          	sd	gp,24(ra)
    800008f8:	0240b023          	sd	tp,32(ra)
    800008fc:	0250b423          	sd	t0,40(ra)
    80000900:	0260b823          	sd	t1,48(ra)
    80000904:	0270bc23          	sd	t2,56(ra)
    80000908:	0480b023          	sd	s0,64(ra)
    8000090c:	04a0b823          	sd	a0,80(ra)
    80000910:	04b0bc23          	sd	a1,88(ra)
    80000914:	06c0b023          	sd	a2,96(ra)
    80000918:	06e0b823          	sd	a4,112(ra)
    8000091c:	06f0bc23          	sd	a5,120(ra)
    80000920:	0900b023          	sd	a6,128(ra)
    80000924:	0910b423          	sd	a7,136(ra)
    80000928:	0920b823          	sd	s2,144(ra)
    8000092c:	0930bc23          	sd	s3,152(ra)
    80000930:	0b40b023          	sd	s4,160(ra)
    80000934:	0b50b423          	sd	s5,168(ra)
    80000938:	0b60b823          	sd	s6,176(ra)
    8000093c:	0b70bc23          	sd	s7,184(ra)
    80000940:	0d80b023          	sd	s8,192(ra)
    80000944:	0d90b423          	sd	s9,200(ra)
    80000948:	0da0b823          	sd	s10,208(ra)
    8000094c:	0db0bc23          	sd	s11,216(ra)
    80000950:	0fc0b023          	sd	t3,224(ra)
    80000954:	0fd0b423          	sd	t4,232(ra)
    80000958:	0fe0b823          	sd	t5,240(ra)
    8000095c:	0ff0bc23          	sd	t6,248(ra)
    80000960:	0180006f          	j	80000978 <test_end>

0000000080000964 <crash_forward>:
    80000964:	0ff0000f          	fence
    80000968:	00018063          	beqz	gp,80000968 <crash_forward+0x4>
    8000096c:	00119193          	slli	gp,gp,0x1
    80000970:	0011e193          	ori	gp,gp,1
    80000974:	00000073          	ecall

0000000080000978 <test_end>:
    80000978:	0ff0000f          	fence
    8000097c:	00100193          	li	gp,1
    80000980:	00000073          	ecall
    80000984:	c0001073          	unimp

Disassembly of section .tohost:

0000000080001000 <tohost>:
	...

0000000080001040 <fromhost>:
	...
