
test.elf:     file format elf64-littleriscv


Disassembly of section .text.init:

0000000080000000 <_start>:
    80000000:	0580006f          	j	80000058 <reset_vector>

0000000080000004 <trap_vector>:
    80000004:	34202f73          	csrr	t5,mcause
    80000008:	00800f93          	li	t6,8
    8000000c:	05ff0063          	beq	t5,t6,8000004c <write_tohost>
    80000010:	00900f93          	li	t6,9
    80000014:	03ff0c63          	beq	t5,t6,8000004c <write_tohost>
    80000018:	00b00f93          	li	t6,11
    8000001c:	03ff0863          	beq	t5,t6,8000004c <write_tohost>
    80000020:	00000f13          	li	t5,0
    80000024:	000f0463          	beqz	t5,8000002c <trap_vector+0x28>
    80000028:	000f0067          	jr	t5
    8000002c:	34202f73          	csrr	t5,mcause
    80000030:	000f5463          	bgez	t5,80000038 <handle_exception>
    80000034:	0140006f          	j	80000048 <other_exception>

0000000080000038 <handle_exception>:
    80000038:	34102e73          	csrr	t3,mepc
    8000003c:	004e0e13          	addi	t3,t3,4
    80000040:	341e1073          	csrw	mepc,t3
    80000044:	30200073          	mret

0000000080000048 <other_exception>:
    80000048:	5391e193          	ori	gp,gp,1337

000000008000004c <write_tohost>:
    8000004c:	00001f17          	auipc	t5,0x1
    80000050:	fa3f2a23          	sw	gp,-76(t5) # 80001000 <tohost>
    80000054:	ff9ff06f          	j	8000004c <write_tohost>

0000000080000058 <reset_vector>:
    80000058:	f1402573          	csrr	a0,mhartid
    8000005c:	00051063          	bnez	a0,8000005c <reset_vector+0x4>
    80000060:	00000297          	auipc	t0,0x0
    80000064:	01028293          	addi	t0,t0,16 # 80000070 <reset_vector+0x18>
    80000068:	30529073          	csrw	mtvec,t0
    8000006c:	18005073          	csrwi	satp,0
    80000070:	00000297          	auipc	t0,0x0
    80000074:	01c28293          	addi	t0,t0,28 # 8000008c <reset_vector+0x34>
    80000078:	30529073          	csrw	mtvec,t0
    8000007c:	fff00293          	li	t0,-1
    80000080:	3b029073          	csrw	pmpaddr0,t0
    80000084:	01f00293          	li	t0,31
    80000088:	3a029073          	csrw	pmpcfg0,t0
    8000008c:	00000297          	auipc	t0,0x0
    80000090:	01828293          	addi	t0,t0,24 # 800000a4 <reset_vector+0x4c>
    80000094:	30529073          	csrw	mtvec,t0
    80000098:	30205073          	csrwi	medeleg,0
    8000009c:	30305073          	csrwi	mideleg,0
    800000a0:	30405073          	csrwi	mie,0
    800000a4:	00000193          	li	gp,0
    800000a8:	00000297          	auipc	t0,0x0
    800000ac:	f5c28293          	addi	t0,t0,-164 # 80000004 <trap_vector>
    800000b0:	30529073          	csrw	mtvec,t0
    800000b4:	00100513          	li	a0,1
    800000b8:	01f51513          	slli	a0,a0,0x1f
    800000bc:	00055863          	bgez	a0,800000cc <reset_vector+0x74>
    800000c0:	0ff0000f          	fence
    800000c4:	00100193          	li	gp,1
    800000c8:	00000073          	ecall
    800000cc:	00000293          	li	t0,0
    800000d0:	00028e63          	beqz	t0,800000ec <reset_vector+0x94>
    800000d4:	10529073          	csrw	stvec,t0
    800000d8:	0000b2b7          	lui	t0,0xb
    800000dc:	1092829b          	addiw	t0,t0,265
    800000e0:	30229073          	csrw	medeleg,t0
    800000e4:	30202373          	csrr	t1,medeleg
    800000e8:	f66290e3          	bne	t0,t1,80000048 <other_exception>
    800000ec:	30005073          	csrwi	mstatus,0
    800000f0:	00000297          	auipc	t0,0x0
    800000f4:	01428293          	addi	t0,t0,20 # 80000104 <reset_vector+0xac>
    800000f8:	34129073          	csrw	mepc,t0
    800000fc:	f1402573          	csrr	a0,mhartid
    80000100:	30200073          	mret
    80000104:	0180006f          	j	8000011c <test_start>

0000000080000108 <crash_backward>:
    80000108:	0ff0000f          	fence
    8000010c:	00018063          	beqz	gp,8000010c <crash_backward+0x4>
    80000110:	00119193          	slli	gp,gp,0x1
    80000114:	0011e193          	ori	gp,gp,1
    80000118:	00000073          	ecall

000000008000011c <test_start>:
    8000011c:	00001f97          	auipc	t6,0x1
    80000120:	fe4f8f93          	addi	t6,t6,-28 # 80001100 <hidden_data>
    80000124:	000fb003          	ld	zero,0(t6)
    80000128:	008fb083          	ld	ra,8(t6)
    8000012c:	010fb103          	ld	sp,16(t6)
    80000130:	018fb183          	ld	gp,24(t6)
    80000134:	020fb203          	ld	tp,32(t6)
    80000138:	028fb283          	ld	t0,40(t6)
    8000013c:	030fb303          	ld	t1,48(t6)
    80000140:	038fb383          	ld	t2,56(t6)
    80000144:	040fb403          	ld	s0,64(t6)
    80000148:	048fb483          	ld	s1,72(t6)
    8000014c:	050fb503          	ld	a0,80(t6)
    80000150:	058fb583          	ld	a1,88(t6)
    80000154:	060fb603          	ld	a2,96(t6)
    80000158:	068fb683          	ld	a3,104(t6)
    8000015c:	070fb703          	ld	a4,112(t6)
    80000160:	078fb783          	ld	a5,120(t6)
    80000164:	080fb803          	ld	a6,128(t6)
    80000168:	088fb883          	ld	a7,136(t6)
    8000016c:	090fb903          	ld	s2,144(t6)
    80000170:	098fb983          	ld	s3,152(t6)
    80000174:	0a0fba03          	ld	s4,160(t6)
    80000178:	0a8fba83          	ld	s5,168(t6)
    8000017c:	0b0fbb03          	ld	s6,176(t6)
    80000180:	0b8fbb83          	ld	s7,184(t6)
    80000184:	0c0fbc03          	ld	s8,192(t6)
    80000188:	0c8fbc83          	ld	s9,200(t6)
    8000018c:	0d0fbd03          	ld	s10,208(t6)
    80000190:	0d8fbd83          	ld	s11,216(t6)
    80000194:	0e0fbe03          	ld	t3,224(t6)
    80000198:	0e8fbe83          	ld	t4,232(t6)
    8000019c:	0f0fbf03          	ld	t5,240(t6)
    800001a0:	0f8fbf83          	ld	t6,248(t6)
    800001a4:	0040006f          	j	800001a8 <pseg_0>

00000000800001a8 <pseg_0>:
    800001a8:	38300313          	li	t1,899
    800001ac:	0308753b          	remuw	a0,a6,a6
    800001b0:	d4300613          	li	a2,-701
    800001b4:	cc200b13          	li	s6,-830
    800001b8:	a0218993          	addi	s3,gp,-1534 # 80001912 <_end+0x202>
    800001bc:	00001497          	auipc	s1,0x1
    800001c0:	e5148493          	addi	s1,s1,-431 # 8000100d <tohost+0xd>
    800001c4:	6cc00d13          	li	s10,1740
    800001c8:	49500a93          	li	s5,1173
    800001cc:	00001197          	auipc	gp,0x1
    800001d0:	37918193          	addi	gp,gp,889 # 80001545 <test_memory+0x245>
    800001d4:	0263513b          	divuw	sp,t1,t1
    800001d8:	045294e3          	bne	t0,t0,80000a20 <crash_forward>
    800001dc:	00001f97          	auipc	t6,0x1
    800001e0:	0f7f8f93          	addi	t6,t6,247 # 800012d3 <reg_x26_output+0x3>
    800001e4:	69b4ee03          	lwu	t3,1691(s1)
    800001e8:	2dba8213          	addi	tp,s5,731
    800001ec:	41ad57b3          	sra	a5,s10,s10
    800001f0:	8af60693          	addi	a3,a2,-1873
    800001f4:	026363b3          	rem	t2,t1,t1
    800001f8:	00100593          	li	a1,1
    800001fc:	92518f13          	addi	t5,gp,-1755 # 80001835 <_end+0x125>
    80000200:	00100313          	li	t1,1
    80000204:	262fb6a3          	sd	sp,621(t6)
    80000208:	00fad79b          	srliw	a5,s5,0xf
    8000020c:	0207e0bb          	remw	ra,a5,zero
    80000210:	00d668e3          	bltu	a2,a3,80000a20 <crash_forward>
    80000214:	c0218d13          	addi	s10,gp,-1022 # 80001b12 <_end+0x402>
    80000218:	2cd00293          	li	t0,717
    8000021c:	00001e97          	auipc	t4,0x1
    80000220:	5e7e8e93          	addi	t4,t4,1511 # 80001803 <_end+0xf3>
    80000224:	d8beb2a3          	sd	a1,-635(t4)
    80000228:	03f31313          	slli	t1,t1,0x3f
    8000022c:	fff00493          	li	s1,-1
    80000230:	c0200613          	li	a2,-1022
    80000234:	ec860693          	addi	a3,a2,-312
    80000238:	25600093          	li	ra,598
    8000023c:	ed5266e3          	bltu	tp,s5,80000108 <crash_backward>
    80000240:	0064c4b3          	xor	s1,s1,t1
    80000244:	bb099c03          	lh	s8,-1104(s3)
    80000248:	03a0823b          	mulw	tp,ra,s10
    8000024c:	03f59593          	slli	a1,a1,0x3f
    80000250:	7cd64863          	blt	a2,a3,80000a20 <crash_forward>
    80000254:	05d00c13          	li	s8,93
    80000258:	03ad4233          	div	tp,s10,s10
    8000025c:	f843839b          	addiw	t2,t2,-124
    80000260:	63808f93          	addi	t6,ra,1592
    80000264:	00001417          	auipc	s0,0x1
    80000268:	fee40413          	addi	s0,s0,-18 # 80001252 <reg_x10_output+0x2>
    8000026c:	fff00913          	li	s2,-1
    80000270:	00b94933          	xor	s2,s2,a1
    80000274:	00001e97          	auipc	t4,0x1
    80000278:	4ade8e93          	addi	t4,t4,1197 # 80001721 <_end+0x11>
    8000027c:	0e743f23          	sd	t2,254(s0)
    80000280:	0096fe33          	and	t3,a3,s1
    80000284:	0c01a3a3          	sw	zero,199(gp) # 80001fd7 <__global_pointer$+0xc7>
    80000288:	738c0a93          	addi	s5,s8,1848
    8000028c:	0061e533          	or	a0,gp,t1
    80000290:	01287cb3          	and	s9,a6,s2
    80000294:	f63ee803          	lwu	a6,-157(t4)
    80000298:	e31f0a23          	sb	a7,-460(t5)
    8000029c:	00a519b3          	sll	s3,a0,a0
    800002a0:	00841633          	sll	a2,s0,s0
    800002a4:	00001417          	auipc	s0,0x1
    800002a8:	47940413          	addi	s0,s0,1145 # 8000171d <_end+0xd>
    800002ac:	00bb6bb3          	or	s7,s6,a1
    800002b0:	e2644383          	lbu	t2,-474(s0)
    800002b4:	00100813          	li	a6,1
    800002b8:	025b78b3          	remu	a7,s6,t0
    800002bc:	00001e97          	auipc	t4,0x1
    800002c0:	02fe8e93          	addi	t4,t4,47 # 800012eb <reg_x29_output+0x3>
    800002c4:	275e9da3          	sh	s5,635(t4)
    800002c8:	7a000a13          	li	s4,1952
    800002cc:	018c17b3          	sll	a5,s8,s8
    800002d0:	03f81813          	slli	a6,a6,0x3f
    800002d4:	1ae00713          	li	a4,430
    800002d8:	fff00213          	li	tp,-1
    800002dc:	01024233          	xor	tp,tp,a6
    800002e0:	0042f6b3          	and	a3,t0,tp
    800002e4:	010b61b3          	or	gp,s6,a6
    800002e8:	98e00e93          	li	t4,-1650
    800002ec:	00ea1db3          	sll	s11,s4,a4
    800002f0:	cdb00793          	li	a5,-805
    800002f4:	72ae4663          	blt	t3,a0,80000a20 <crash_forward>
    800002f8:	33900293          	li	t0,825
    800002fc:	f2d00f13          	li	t5,-211
    80000300:	721fe063          	bltu	t6,ra,80000a20 <crash_forward>
    80000304:	03de88bb          	mulw	a7,t4,t4
    80000308:	b0518393          	addi	t2,gp,-1275 # 80001a15 <_end+0x305>
    8000030c:	1d500b13          	li	s6,469
    80000310:	01628abb          	addw	s5,t0,s6
    80000314:	00f7d633          	srl	a2,a5,a5
    80000318:	c4ef0993          	addi	s3,t5,-946
    8000031c:	993d0103          	lb	sp,-1645(s10)
    80000320:	bad3b5a3          	sd	a3,-1109(t2)
    80000324:	df3f42e3          	blt	t5,s3,80000108 <crash_backward>
    80000328:	34a00c13          	li	s8,842
    8000032c:	038c043b          	mulw	s0,s8,s8
    80000330:	03bdbab3          	mulhu	s5,s11,s11
    80000334:	037b9433          	mulh	s0,s7,s7
    80000338:	76800c93          	li	s9,1896
    8000033c:	00100993          	li	s3,1
    80000340:	02006e3b          	remw	t3,zero,zero
    80000344:	038c4f33          	div	t5,s8,s8
    80000348:	b4e00793          	li	a5,-1202
    8000034c:	00100093          	li	ra,1
    80000350:	00001817          	auipc	a6,0x1
    80000354:	d2080813          	addi	a6,a6,-736 # 80001070 <fromhost+0x30>
    80000358:	02f7dbb3          	divu	s7,a5,a5
    8000035c:	00100293          	li	t0,1
    80000360:	cea18f93          	addi	t6,gp,-790 # 80001bfa <_end+0x4ea>
    80000364:	00001597          	auipc	a1,0x1
    80000368:	e8c58593          	addi	a1,a1,-372 # 800011f0 <reg_x30_init>
    8000036c:	03f09093          	slli	ra,ra,0x3f
    80000370:	fff00493          	li	s1,-1
    80000374:	3f05be83          	ld	t4,1008(a1)
    80000378:	03f99993          	slli	s3,s3,0x3f
    8000037c:	ea018393          	addi	t2,gp,-352 # 80001db0 <_end+0x6a0>
    80000380:	f4c00893          	li	a7,-180
    80000384:	00100e93          	li	t4,1
    80000388:	00001717          	auipc	a4,0x1
    8000038c:	0bc70713          	addi	a4,a4,188 # 80001444 <test_memory+0x144>
    80000390:	0014c4b3          	xor	s1,s1,ra
    80000394:	019c9f3b          	sllw	t5,s9,s9
    80000398:	8ec3e203          	lwu	tp,-1812(t2)
    8000039c:	f4a71823          	sh	a0,-176(a4)
    800003a0:	039cfdbb          	remuw	s11,s9,s9
    800003a4:	9d4f9303          	lh	t1,-1580(t6)
    800003a8:	fff00a13          	li	s4,-1
    800003ac:	03fe9e93          	slli	t4,t4,0x3f
    800003b0:	03bdc43b          	divw	s0,s11,s11
    800003b4:	fff00593          	li	a1,-1
    800003b8:	8c688a93          	addi	s5,a7,-1850
    800003bc:	01d5c5b3          	xor	a1,a1,t4
    800003c0:	03e18fb3          	mul	t6,gp,t5
    800003c4:	00b0fe33          	and	t3,ra,a1
    800003c8:	01de6bb3          	or	s7,t3,t4
    800003cc:	c1a00313          	li	t1,-998
    800003d0:	d3cbece3          	bltu	s7,t3,80000108 <crash_backward>
    800003d4:	00001c17          	auipc	s8,0x1
    800003d8:	8a9c0c13          	addi	s8,s8,-1879 # 80000c7d <test_end+0x249>
    800003dc:	785c35a3          	sd	t0,1931(s8)
    800003e0:	32082183          	lw	gp,800(a6)
    800003e4:	6dc00413          	li	s0,1756
    800003e8:	00001797          	auipc	a5,0x1
    800003ec:	bd278793          	addi	a5,a5,-1070 # 80000fba <test_end+0x586>
    800003f0:	3db79f23          	sh	s11,990(a5)
    800003f4:	00100f13          	li	t5,1
    800003f8:	94e18793          	addi	a5,gp,-1714 # 8000185e <_end+0x14e>
    800003fc:	02985233          	divu	tp,a6,s1
    80000400:	009976b3          	and	a3,s2,s1
    80000404:	03f29293          	slli	t0,t0,0x3f
    80000408:	00001597          	auipc	a1,0x1
    8000040c:	29658593          	addi	a1,a1,662 # 8000169e <test_memory+0x39e>
    80000410:	0016e633          	or	a2,a3,ra
    80000414:	9c018e13          	addi	t3,gp,-1600 # 800018d0 <_end+0x1c0>
    80000418:	cbfe1023          	sh	t6,-864(t3)
    8000041c:	03ff1f13          	slli	t5,t5,0x3f
    80000420:	00001397          	auipc	t2,0x1
    80000424:	b5638393          	addi	t2,t2,-1194 # 80000f76 <test_end+0x542>
    80000428:	680d0f9b          	addiw	t6,s10,1664
    8000042c:	e3f00893          	li	a7,-449
    80000430:	fff00c13          	li	s8,-1
    80000434:	01ec4c33          	xor	s8,s8,t5
    80000438:	fff00113          	li	sp,-1
    8000043c:	013a4a33          	xor	s4,s4,s3
    80000440:	00001a97          	auipc	s5,0x1
    80000444:	1a9a8a93          	addi	s5,s5,425 # 800015e9 <test_memory+0x2e9>
    80000448:	45a3dd83          	lhu	s11,1114(t2)
    8000044c:	02634cb3          	div	s9,t1,t1
    80000450:	03147733          	remu	a4,s0,a7
    80000454:	00514133          	xor	sp,sp,t0
    80000458:	014b7d33          	and	s10,s6,s4
    8000045c:	0021f933          	and	s2,gp,sp
    80000460:	018cf833          	and	a6,s9,s8
    80000464:	5ad66e63          	bltu	a2,a3,80000a20 <crash_forward>
    80000468:	00596533          	or	a0,s2,t0
    8000046c:	01e7eeb3          	or	t4,a5,t5
    80000470:	02a506bb          	mulw	a3,a0,a0
    80000474:	f52a8523          	sb	s2,-182(s5)
    80000478:	1b000093          	li	ra,432
    8000047c:	00001217          	auipc	tp,0x1
    80000480:	0f320213          	addi	tp,tp,243 # 8000156f <test_memory+0x26f>
    80000484:	013deb33          	or	s6,s11,s3
    80000488:	dbe7ab83          	lw	s7,-578(a5)
    8000048c:	f0b00493          	li	s1,-245
    80000490:	002b9cb3          	sll	s9,s7,sp
    80000494:	00100713          	li	a4,1
    80000498:	f655af23          	sw	t0,-130(a1)
    8000049c:	00001697          	auipc	a3,0x1
    800004a0:	82e68693          	addi	a3,a3,-2002 # 80000cca <test_end+0x296>
    800004a4:	03f71713          	slli	a4,a4,0x3f
    800004a8:	00001117          	auipc	sp,0x1
    800004ac:	1a310113          	addi	sp,sp,419 # 8000164b <test_memory+0x34b>
    800004b0:	00f7e1b3          	or	gp,a5,a5
    800004b4:	415285bb          	subw	a1,t0,s5
    800004b8:	ff526603          	lwu	a2,-11(tp) # fffffffffffffff5 <__global_pointer$+0xffffffff7fffe0e5>
    800004bc:	7c069283          	lh	t0,1984(a3)
    800004c0:	00ecde33          	srl	t3,s9,a4
    800004c4:	0094afb3          	slt	t6,s1,s1
    800004c8:	d1c00e93          	li	t4,-740
    800004cc:	17100c13          	li	s8,369
    800004d0:	a123cb93          	xori	s7,t2,-1518
    800004d4:	17e00f13          	li	t5,382
    800004d8:	c3ab58e3          	bge	s6,s10,80000108 <crash_backward>
    800004dc:	fff00393          	li	t2,-1
    800004e0:	41ef0cbb          	subw	s9,t5,t5
    800004e4:	018e8ab3          	add	s5,t4,s8
    800004e8:	b2000d93          	li	s11,-1248
    800004ec:	00e3c3b3          	xor	t2,t2,a4
    800004f0:	007c7333          	and	t1,s8,t2
    800004f4:	c4d18413          	addi	s0,gp,-947 # 80001b5d <_end+0x44d>
    800004f8:	00ece8b3          	or	a7,s9,a4
    800004fc:	ac940ea3          	sb	s1,-1315(s0)
    80000500:	fed11503          	lh	a0,-19(sp)
    80000504:	c068d2e3          	bge	a7,t1,80000108 <crash_backward>
    80000508:	01b0b933          	sltu	s2,ra,s11
    8000050c:	c4018813          	addi	a6,gp,-960 # 80001b50 <_end+0x440>
    80000510:	85d83423          	sd	t4,-1976(a6)
    80000514:	00001997          	auipc	s3,0x1
    80000518:	93998993          	addi	s3,s3,-1735 # 80000e4d <test_end+0x419>
    8000051c:	018c073b          	addw	a4,s8,s8
    80000520:	00001a97          	auipc	s5,0x1
    80000524:	fe0a8a93          	addi	s5,s5,-32 # 80001500 <test_memory+0x200>
    80000528:	00100693          	li	a3,1
    8000052c:	03964233          	div	tp,a2,s9
    80000530:	03c90eb3          	mul	t4,s2,t3
    80000534:	27f00313          	li	t1,639
    80000538:	8d400f93          	li	t6,-1836
    8000053c:	00001b97          	auipc	s7,0x1
    80000540:	e85b8b93          	addi	s7,s7,-379 # 800013c1 <test_memory+0xc1>
    80000544:	93600c93          	li	s9,-1738
    80000548:	039c8a33          	mul	s4,s9,s9
    8000054c:	58d00913          	li	s2,1421
    80000550:	266ba9a3          	sw	t1,627(s7)
    80000554:	03f69693          	slli	a3,a3,0x3f
    80000558:	77500513          	li	a0,1909
    8000055c:	00000c17          	auipc	s8,0x0
    80000560:	71ac0c13          	addi	s8,s8,1818 # 80000c76 <test_end+0x242>
    80000564:	a4f18493          	addi	s1,gp,-1457 # 8000195f <_end+0x24f>
    80000568:	3a3178b7          	lui	a7,0x3a317
    8000056c:	7e999e03          	lh	t3,2025(s3)
    80000570:	fff00393          	li	t2,-1
    80000574:	01ff8d33          	add	s10,t6,t6
    80000578:	6b1c2123          	sw	a7,1698(s8)
    8000057c:	d634aea3          	sw	gp,-643(s1)
    80000580:	f5500113          	li	sp,-171
    80000584:	00000d93          	li	s11,0
    80000588:	00d3c3b3          	xor	t2,t2,a3
    8000058c:	cb01cf13          	xori	t5,gp,-848
    80000590:	00000793          	li	a5,0
    80000594:	55a00593          	li	a1,1370
    80000598:	4029563b          	sraw	a2,s2,sp
    8000059c:	00b571b3          	and	gp,a0,a1
    800005a0:	fcea9283          	lh	t0,-50(s5)
    800005a4:	c5c00093          	li	ra,-932
    800005a8:	00134433          	xor	s0,t1,ra
    800005ac:	0077f833          	and	a6,a5,t2
    800005b0:	00001e97          	auipc	t4,0x1
    800005b4:	155e8e93          	addi	t4,t4,341 # 80001705 <loop_count+0x5>
    800005b8:	c4618c93          	addi	s9,gp,-954 # 80001b56 <_end+0x446>
    800005bc:	b40046e3          	bltz	zero,80000108 <crash_backward>
    800005c0:	d1d00613          	li	a2,-739
    800005c4:	00000e17          	auipc	t3,0x0
    800005c8:	74ae0e13          	addi	t3,t3,1866 # 80000d0e <test_end+0x2da>
    800005cc:	00001f17          	auipc	t5,0x1
    800005d0:	916f0f13          	addi	t5,t5,-1770 # 80000ee2 <test_end+0x4ae>
    800005d4:	ae518b93          	addi	s7,gp,-1307 # 800019f5 <_end+0x2e5>
    800005d8:	00001297          	auipc	t0,0x1
    800005dc:	9f628293          	addi	t0,t0,-1546 # 80000fce <test_end+0x59a>
    800005e0:	02c650bb          	divuw	ra,a2,a2
    800005e4:	004dd233          	srl	tp,s11,tp
    800005e8:	c0cba7a3          	sw	a2,-1009(s7)
    800005ec:	b4218a13          	addi	s4,gp,-1214 # 80001a52 <_end+0x342>
    800005f0:	00d86b33          	or	s6,a6,a3
    800005f4:	c9beed03          	lwu	s10,-869(t4)
    800005f8:	00427633          	and	a2,tp,tp
    800005fc:	00100713          	li	a4,1
    80000600:	dbb18d13          	addi	s10,gp,-581 # 80001ccb <_end+0x5bb>
    80000604:	c1618993          	addi	s3,gp,-1002 # 80001b26 <_end+0x416>
    80000608:	610e5883          	lhu	a7,1552(t3)
    8000060c:	00001597          	auipc	a1,0x1
    80000610:	d1558593          	addi	a1,a1,-747 # 80001321 <test_memory+0x21>
    80000614:	811d2b83          	lw	s7,-2031(s10)
    80000618:	41f9d81b          	sraiw	a6,s3,0x1f
    8000061c:	5d8f1a83          	lh	s5,1496(t5)
    80000620:	00001417          	auipc	s0,0x1
    80000624:	15740413          	addi	s0,s0,343 # 80001777 <_end+0x67>
    80000628:	01c5a3b3          	slt	t2,a1,t3
    8000062c:	e3618093          	addi	ra,gp,-458 # 80001d46 <_end+0x636>
    80000630:	03f71713          	slli	a4,a4,0x3f
    80000634:	4662ec03          	lwu	s8,1126(t0)
    80000638:	00001517          	auipc	a0,0x1
    8000063c:	08250513          	addi	a0,a0,130 # 800016ba <test_memory+0x3ba>
    80000640:	fff00f93          	li	t6,-1
    80000644:	00001697          	auipc	a3,0x1
    80000648:	0f268693          	addi	a3,a3,242 # 80001736 <_end+0x26>
    8000064c:	8e69e103          	lwu	sp,-1818(s3)
    80000650:	1915bba3          	sd	a7,407(a1)
    80000654:	d646ad23          	sw	tp,-646(a3)
    80000658:	a6038793          	addi	a5,t2,-1440
    8000065c:	00001e17          	auipc	t3,0x1
    80000660:	eb3e0e13          	addi	t3,t3,-333 # 8000150f <test_memory+0x20f>
    80000664:	882cb483          	ld	s1,-1918(s9)
    80000668:	3a004c63          	bltz	zero,80000a20 <crash_forward>
    8000066c:	00100d93          	li	s11,1
    80000670:	00efcfb3          	xor	t6,t6,a4
    80000674:	98609123          	sh	t1,-1662(ra)
    80000678:	0139c333          	xor	t1,s3,s3
    8000067c:	d4650aa3          	sb	t1,-683(a0)
    80000680:	01fb7933          	and	s2,s6,t6
    80000684:	c3718b93          	addi	s7,gp,-969 # 80001b47 <_end+0x437>
    80000688:	7fcbdf37          	lui	t5,0x7fcbd
    8000068c:	061e2803          	lw	a6,97(t3)
    80000690:	00e861b3          	or	gp,a6,a4
    80000694:	00641c1b          	slliw	s8,s0,0x6
    80000698:	5ef00893          	li	a7,1519
    8000069c:	81fbb4a3          	sd	t6,-2039(s7)
    800006a0:	0118c2b3          	xor	t0,a7,a7
    800006a4:	03fd9d93          	slli	s11,s11,0x3f
    800006a8:	a721d0e3          	bge	gp,s2,80000108 <crash_backward>
    800006ac:	992a2523          	sw	s2,-1654(s4)
    800006b0:	00100393          	li	t2,1
    800006b4:	fff00e93          	li	t4,-1
    800006b8:	f5143203          	ld	tp,-175(s0)
    800006bc:	03f39393          	slli	t2,t2,0x3f
    800006c0:	fff00a93          	li	s5,-1
    800006c4:	007acab3          	xor	s5,s5,t2
    800006c8:	01beceb3          	xor	t4,t4,s11
    800006cc:	00a557b3          	srl	a5,a0,a0
    800006d0:	015975b3          	and	a1,s2,s5
    800006d4:	f8900513          	li	a0,-119
    800006d8:	01d7fb33          	and	s6,a5,t4
    800006dc:	00000093          	li	ra,0
    800006e0:	0075e6b3          	or	a3,a1,t2
    800006e4:	01b4e633          	or	a2,s1,s11
    800006e8:	32004c63          	bltz	zero,80000a20 <crash_forward>
    800006ec:	00000813          	li	a6,0
    800006f0:	007b5e33          	srl	t3,s6,t2
    800006f4:	f3c18293          	addi	t0,gp,-196 # 80001e4c <_end+0x73c>
    800006f8:	01100193          	li	gp,17
    800006fc:	a0cb46e3          	blt	s6,a2,80000108 <crash_backward>
    80000700:	00c677b3          	and	a5,a2,a2
    80000704:	b3b00a13          	li	s4,-1221
    80000708:	6c400313          	li	t1,1732
    8000070c:	73600893          	li	a7,1846
    80000710:	fc200813          	li	a6,-62
    80000714:	22a00d93          	li	s11,554
    80000718:	82f287a3          	sb	a5,-2001(t0)
    8000071c:	9b280613          	addi	a2,a6,-1614
    80000720:	02a54d33          	div	s10,a0,a0
    80000724:	54c00493          	li	s1,1356
    80000728:	00001217          	auipc	tp,0x1
    8000072c:	a1620213          	addi	tp,tp,-1514 # 8000113e <reg_x7_init+0x6>
    80000730:	4d520f23          	sb	s5,1246(tp) # 4de <_start-0x7ffffb22>
    80000734:	4ab18913          	addi	s2,gp,1195 # 800023bb <__global_pointer$+0x4ab>
    80000738:	00989433          	sll	s0,a7,s1
    8000073c:	b0d00f93          	li	t6,-1267
    80000740:	41bddbbb          	sraw	s7,s11,s11
    80000744:	00000513          	li	a0,0
    80000748:	00001217          	auipc	tp,0x1
    8000074c:	f4120213          	addi	tp,tp,-191 # 80001689 <test_memory+0x389>
    80000750:	00000617          	auipc	a2,0x0
    80000754:	5aa60613          	addi	a2,a2,1450 # 80000cfa <test_end+0x2c6>
    80000758:	5c000b13          	li	s6,1472
    8000075c:	00000293          	li	t0,0
    80000760:	2c554063          	blt	a0,t0,80000a20 <crash_forward>
    80000764:	da000693          	li	a3,-608
    80000768:	02d6e5bb          	remw	a1,a3,a3
    8000076c:	7af00793          	li	a5,1967
    80000770:	db725383          	lhu	t2,-585(tp) # fffffffffffffdb7 <__global_pointer$+0xffffffff7fffdea7>
    80000774:	11f00f13          	li	t5,287
    80000778:	00001a97          	auipc	s5,0x1
    8000077c:	ed3a8a93          	addi	s5,s5,-301 # 8000164b <test_memory+0x34b>
    80000780:	42900e13          	li	t3,1065
    80000784:	c2800b93          	li	s7,-984
    80000788:	00001117          	auipc	sp,0x1
    8000078c:	e0e10113          	addi	sp,sp,-498 # 80001596 <test_memory+0x296>
    80000790:	00100293          	li	t0,1
    80000794:	03cb0c33          	mul	s8,s6,t3
    80000798:	00f78ebb          	addw	t4,a5,a5
    8000079c:	026a6733          	rem	a4,s4,t1
    800007a0:	037a55bb          	divuw	a1,s4,s7
    800007a4:	0010c233          	xor	tp,ra,ra
    800007a8:	01ff8e33          	add	t3,t6,t6
    800007ac:	b3318893          	addi	a7,gp,-1229 # 80001a43 <_end+0x333>
    800007b0:	00000a17          	auipc	s4,0x0
    800007b4:	7d9a0a13          	addi	s4,s4,2009 # 80000f89 <test_end+0x555>
    800007b8:	4c3a5b03          	lhu	s6,1219(s4)
    800007bc:	2181a313          	slti	t1,gp,536
    800007c0:	03edc0b3          	div	ra,s11,t5
    800007c4:	2d500993          	li	s3,725
    800007c8:	da612d23          	sw	t1,-582(sp)
    800007cc:	a1f8c483          	lbu	s1,-1505(a7) # 3a316a1f <_start-0x45ce95e1>
    800007d0:	95ab8d13          	addi	s10,s7,-1702
    800007d4:	00100e93          	li	t4,1
    800007d8:	00001717          	auipc	a4,0x1
    800007dc:	a1b70713          	addi	a4,a4,-1509 # 800011f3 <reg_x30_init+0x3>
    800007e0:	e36a92a3          	sh	s6,-475(s5)
    800007e4:	77666803          	lwu	a6,1910(a2)
    800007e8:	00000197          	auipc	gp,0x0
    800007ec:	7e218193          	addi	gp,gp,2018 # 80000fca <test_end+0x596>
    800007f0:	028e64b3          	rem	s1,t3,s0
    800007f4:	00000397          	auipc	t2,0x0
    800007f8:	5f038393          	addi	t2,t2,1520 # 80000de4 <test_end+0x3b0>
    800007fc:	66d3ba23          	sd	a3,1652(t2)
    80000800:	00000113          	li	sp,0
    80000804:	3ae1a583          	lw	a1,942(gp) # 800022be <__global_pointer$+0x3ae>
    80000808:	03fe9e93          	slli	t4,t4,0x3f
    8000080c:	00001d97          	auipc	s11,0x1
    80000810:	f8dd8d93          	addi	s11,s11,-115 # 80001799 <_end+0x89>
    80000814:	00001617          	auipc	a2,0x1
    80000818:	b4c60613          	addi	a2,a2,-1204 # 80001360 <test_memory+0x60>
    8000081c:	013f9cb3          	sll	s9,t6,s3
    80000820:	00001897          	auipc	a7,0x1
    80000824:	f8188893          	addi	a7,a7,-127 # 800017a1 <_end+0x91>
    80000828:	f46d8e03          	lb	t3,-186(s11)
    8000082c:	00000313          	li	t1,0
    80000830:	24b736a3          	sd	a1,589(a4)
    80000834:	00001c97          	auipc	s9,0x1
    80000838:	9e1c8c93          	addi	s9,s9,-1567 # 80001215 <reg_x2_output+0x5>
    8000083c:	65600f93          	li	t6,1622
    80000840:	46000393          	li	t2,1120
    80000844:	03fb0a3b          	mulw	s4,s6,t6
    80000848:	3a300493          	li	s1,931
    8000084c:	409f8e33          	sub	t3,t6,s1
    80000850:	a0c00d93          	li	s11,-1524
    80000854:	00000f17          	auipc	t5,0x0
    80000858:	6b7f0f13          	addi	t5,t5,1719 # 80000f0b <test_end+0x4d7>
    8000085c:	03f29293          	slli	t0,t0,0x3f
    80000860:	fff00413          	li	s0,-1
    80000864:	00caca33          	xor	s4,s5,a2
    80000868:	c3c18d13          	addi	s10,gp,-964 # 80001b4c <_end+0x43c>
    8000086c:	c0900593          	li	a1,-1015
    80000870:	feb60023          	sb	a1,-32(a2)
    80000874:	99a00e13          	li	t3,-1638
    80000878:	fff00793          	li	a5,-1
    8000087c:	00001097          	auipc	ra,0x1
    80000880:	dbd08093          	addi	ra,ra,-579 # 80001639 <test_memory+0x339>
    80000884:	27bcb983          	ld	s3,635(s9)
    80000888:	798f11a3          	sh	s8,1923(t5)
    8000088c:	00544433          	xor	s0,s0,t0
    80000890:	b2800493          	li	s1,-1240
    80000894:	eeb89b03          	lh	s6,-277(a7)
    80000898:	bd5d8713          	addi	a4,s11,-1067
    8000089c:	f4000213          	li	tp,-192
    800008a0:	029e6fb3          	rem	t6,t3,s1
    800008a4:	00b391bb          	sllw	gp,t2,a1
    800008a8:	95500813          	li	a6,-1707
    800008ac:	0084f6b3          	and	a3,s1,s0
    800008b0:	0054e533          	or	a0,s1,t0
    800008b4:	01026ab3          	or	s5,tp,a6
    800008b8:	01d7c7b3          	xor	a5,a5,t4
    800008bc:	00fafc33          	and	s8,s5,a5
    800008c0:	abad5b83          	lhu	s7,-1350(s10)
    800008c4:	01dc6933          	or	s2,s8,t4
    800008c8:	fd80a5a3          	sw	s8,-53(ra)
    800008cc:	5da5fa13          	andi	s4,a1,1498
    800008d0:	40d68dbb          	subw	s11,a3,a3
    800008d4:	00001897          	auipc	a7,0x1
    800008d8:	e9288893          	addi	a7,a7,-366 # 80001766 <_end+0x56>
    800008dc:	b5600193          	li	gp,-1194
    800008e0:	c7500113          	li	sp,-907
    800008e4:	00001b17          	auipc	s6,0x1
    800008e8:	9b3b0b13          	addi	s6,s6,-1613 # 80001297 <reg_x18_output+0x7>
    800008ec:	d9418f13          	addi	t5,gp,-620 # 80001ca4 <_end+0x594>
    800008f0:	025546b3          	div	a3,a0,t0
    800008f4:	225b2603          	lw	a2,549(s6)
    800008f8:	00000c13          	li	s8,0
    800008fc:	00c09ebb          	sllw	t4,ra,a2
    80000900:	00001d17          	auipc	s10,0x1
    80000904:	c08d0d13          	addi	s10,s10,-1016 # 80001508 <test_memory+0x208>
    80000908:	02c66ab3          	rem	s5,a2,a2
    8000090c:	00000413          	li	s0,0
    80000910:	00b5d73b          	srlw	a4,a1,a1
    80000914:	0e800f93          	li	t6,232
    80000918:	4021083b          	subw	a6,sp,sp
    8000091c:	0cbd3823          	sd	a1,208(s10)
    80000920:	d4500293          	li	t0,-699
    80000924:	00100c93          	li	s9,1
    80000928:	c1a89983          	lh	s3,-998(a7)
    8000092c:	00100813          	li	a6,1
    80000930:	00001497          	auipc	s1,0x1
    80000934:	dff48493          	addi	s1,s1,-513 # 8000172f <_end+0x1f>
    80000938:	13a00513          	li	a0,314
    8000093c:	87df1223          	sh	t4,-1948(t5)
    80000940:	03fc9c93          	slli	s9,s9,0x3f
    80000944:	fff00913          	li	s2,-1
    80000948:	01994933          	xor	s2,s2,s9
    8000094c:	04000213          	li	tp,64
    80000950:	e574bca3          	sd	s7,-423(s1)
    80000954:	b6d28793          	addi	a5,t0,-1171
    80000958:	03f81813          	slli	a6,a6,0x3f
    8000095c:	0126f5b3          	and	a1,a3,s2
    80000960:	00452333          	slt	t1,a0,tp
    80000964:	88518393          	addi	t2,gp,-1915 # 80001795 <_end+0x85>
    80000968:	d1718e13          	addi	t3,gp,-745 # 80001c27 <_end+0x517>
    8000096c:	0a8c1a63          	bne	s8,s0,80000a20 <crash_forward>
    80000970:	f857dc63          	bge	a5,t0,80000108 <crash_backward>
    80000974:	0195ebb3          	or	s7,a1,s9
    80000978:	a30e38a3          	sd	a6,-1487(t3)
    8000097c:	fff00713          	li	a4,-1
    80000980:	01074733          	xor	a4,a4,a6
    80000984:	03ffd0b3          	divu	ra,t6,t6
    80000988:	00e1fab3          	and	s5,gp,a4
    8000098c:	010aedb3          	or	s11,s5,a6
    80000990:	f7bafc63          	bgeu	s5,s11,80000108 <crash_backward>
    80000994:	0040006f          	j	80000998 <reg_dump>

0000000080000998 <reg_dump>:
    80000998:	00001097          	auipc	ra,0x1
    8000099c:	d6808093          	addi	ra,ra,-664 # 80001700 <loop_count>
    800009a0:	0000a103          	lw	sp,0(ra)
    800009a4:	fff10193          	addi	gp,sp,-1
    800009a8:	0030a023          	sw	gp,0(ra)
    800009ac:	fe011e63          	bnez	sp,800001a8 <pseg_0>
    800009b0:	00001097          	auipc	ra,0x1
    800009b4:	85008093          	addi	ra,ra,-1968 # 80001200 <begin_signature>
    800009b8:	0000b023          	sd	zero,0(ra)
    800009bc:	0020b823          	sd	sp,16(ra)
    800009c0:	0030bc23          	sd	gp,24(ra)
    800009c4:	0240b023          	sd	tp,32(ra)
    800009c8:	0250b423          	sd	t0,40(ra)
    800009cc:	0260b823          	sd	t1,48(ra)
    800009d0:	0270bc23          	sd	t2,56(ra)
    800009d4:	0480b023          	sd	s0,64(ra)
    800009d8:	04a0b823          	sd	a0,80(ra)
    800009dc:	04b0bc23          	sd	a1,88(ra)
    800009e0:	06c0b023          	sd	a2,96(ra)
    800009e4:	06d0b423          	sd	a3,104(ra)
    800009e8:	06e0b823          	sd	a4,112(ra)
    800009ec:	06f0bc23          	sd	a5,120(ra)
    800009f0:	0900b023          	sd	a6,128(ra)
    800009f4:	0920b823          	sd	s2,144(ra)
    800009f8:	0930bc23          	sd	s3,152(ra)
    800009fc:	0b40b023          	sd	s4,160(ra)
    80000a00:	0b50b423          	sd	s5,168(ra)
    80000a04:	0b70bc23          	sd	s7,184(ra)
    80000a08:	0d80b023          	sd	s8,192(ra)
    80000a0c:	0d90b423          	sd	s9,200(ra)
    80000a10:	0db0bc23          	sd	s11,216(ra)
    80000a14:	0fd0b423          	sd	t4,232(ra)
    80000a18:	0ff0bc23          	sd	t6,248(ra)
    80000a1c:	0180006f          	j	80000a34 <test_end>

0000000080000a20 <crash_forward>:
    80000a20:	0ff0000f          	fence
    80000a24:	00018063          	beqz	gp,80000a24 <crash_forward+0x4>
    80000a28:	00119193          	slli	gp,gp,0x1
    80000a2c:	0011e193          	ori	gp,gp,1
    80000a30:	00000073          	ecall

0000000080000a34 <test_end>:
    80000a34:	0ff0000f          	fence
    80000a38:	00100193          	li	gp,1
    80000a3c:	00000073          	ecall
    80000a40:	c0001073          	unimp
	...

Disassembly of section .tohost:

0000000080001000 <tohost>:
	...

0000000080001040 <fromhost>:
	...
