
test.elf:     file format elf64-littleriscv


Disassembly of section .text:

0000000080000000 <_start>:
    80000000:	00100093          	li	ra,1
    80000004:	00208113          	addi	sp,ra,2
    80000008:	00310193          	addi	gp,sp,3
    8000000c:	00418213          	addi	tp,gp,4 # 80000914 <__global_pointer$+0x4>
    80000010:	00520293          	addi	t0,tp,5 # 5 <_start-0x7ffffffb>
    80000014:	00628313          	addi	t1,t0,6
    80000018:	00730393          	addi	t2,t1,7
    8000001c:	00838413          	addi	s0,t2,8
    80000020:	00940493          	addi	s1,s0,9
    80000024:	00a48513          	addi	a0,s1,10
    80000028:	00b50593          	addi	a1,a0,11
    8000002c:	00c58613          	addi	a2,a1,12
    80000030:	00d60693          	addi	a3,a2,13
    80000034:	00e68713          	addi	a4,a3,14
    80000038:	00f70793          	addi	a5,a4,15
    8000003c:	01078813          	addi	a6,a5,16
    80000040:	01180893          	addi	a7,a6,17
    80000044:	01288913          	addi	s2,a7,18
    80000048:	01390993          	addi	s3,s2,19
    8000004c:	01498a13          	addi	s4,s3,20
    80000050:	015a0a93          	addi	s5,s4,21
    80000054:	016a8b13          	addi	s6,s5,22
    80000058:	017b0b93          	addi	s7,s6,23
    8000005c:	018b8c13          	addi	s8,s7,24
    80000060:	019c0c93          	addi	s9,s8,25
    80000064:	01ac8d13          	addi	s10,s9,26
    80000068:	01bd0d93          	addi	s11,s10,27
    8000006c:	01cd8e13          	addi	t3,s11,28
    80000070:	01de0e93          	addi	t4,t3,29
    80000074:	01ee8f13          	addi	t5,t4,30
    80000078:	01ff0f93          	addi	t6,t5,31
    8000007c:	065f8093          	addi	ra,t6,101
    80000080:	06608113          	addi	sp,ra,102
    80000084:	06710193          	addi	gp,sp,103
    80000088:	06818213          	addi	tp,gp,104 # 80000978 <__global_pointer$+0x68>
    8000008c:	06920293          	addi	t0,tp,105 # 69 <_start-0x7fffff97>
    80000090:	06a28313          	addi	t1,t0,106
    80000094:	06b30393          	addi	t2,t1,107
    80000098:	06c38413          	addi	s0,t2,108
    8000009c:	06d40493          	addi	s1,s0,109
    800000a0:	06e48513          	addi	a0,s1,110
    800000a4:	06f50593          	addi	a1,a0,111
    800000a8:	07058613          	addi	a2,a1,112
    800000ac:	07160693          	addi	a3,a2,113
    800000b0:	07268713          	addi	a4,a3,114
    800000b4:	07370793          	addi	a5,a4,115
    800000b8:	07478813          	addi	a6,a5,116
    800000bc:	07580893          	addi	a7,a6,117
    800000c0:	07688913          	addi	s2,a7,118
    800000c4:	07790993          	addi	s3,s2,119
    800000c8:	07898a13          	addi	s4,s3,120
    800000cc:	079a0a93          	addi	s5,s4,121
    800000d0:	07aa8b13          	addi	s6,s5,122
    800000d4:	07bb0b93          	addi	s7,s6,123
    800000d8:	07cb8c13          	addi	s8,s7,124
    800000dc:	07dc0c93          	addi	s9,s8,125
    800000e0:	07ec8d13          	addi	s10,s9,126
    800000e4:	07fd0d93          	addi	s11,s10,127
    800000e8:	080d8e13          	addi	t3,s11,128
    800000ec:	081e0e93          	addi	t4,t3,129
    800000f0:	082e8f13          	addi	t5,t4,130
    800000f4:	083f0f93          	addi	t6,t5,131
    800000f8:	00100513          	li	a0,1
    800000fc:	000805b7          	lui	a1,0x80
    80000100:	0015859b          	addiw	a1,a1,1
    80000104:	00c59593          	slli	a1,a1,0xc

0000000080000108 <_finish_loop>:
    80000108:	00a5a023          	sw	a0,0(a1) # 80000 <_start-0x7ff80000>
    8000010c:	ffdff06f          	j	80000108 <_finish_loop>
