
test.elf:     file format elf64-littleriscv


Disassembly of section .text.init:

0000000080000000 <_start>:
    80000000:	0580006f          	j	80000058 <reset_vector>

0000000080000004 <trap_vector>:
    80000004:	34202f73          	csrr	t5,mcause
    80000008:	00800f93          	li	t6,8
    8000000c:	05ff0063          	beq	t5,t6,8000004c <write_tohost>
    80000010:	00900f93          	li	t6,9
    80000014:	03ff0c63          	beq	t5,t6,8000004c <write_tohost>
    80000018:	00b00f93          	li	t6,11
    8000001c:	03ff0863          	beq	t5,t6,8000004c <write_tohost>
    80000020:	00000f13          	li	t5,0
    80000024:	000f0463          	beqz	t5,8000002c <trap_vector+0x28>
    80000028:	000f0067          	jr	t5
    8000002c:	34202f73          	csrr	t5,mcause
    80000030:	000f5463          	bgez	t5,80000038 <handle_exception>
    80000034:	0140006f          	j	80000048 <other_exception>

0000000080000038 <handle_exception>:
    80000038:	34102e73          	csrr	t3,mepc
    8000003c:	004e0e13          	addi	t3,t3,4
    80000040:	341e1073          	csrw	mepc,t3
    80000044:	30200073          	mret

0000000080000048 <other_exception>:
    80000048:	5391e193          	ori	gp,gp,1337

000000008000004c <write_tohost>:
    8000004c:	00001f17          	auipc	t5,0x1
    80000050:	fa3f2a23          	sw	gp,-76(t5) # 80001000 <tohost>
    80000054:	ff9ff06f          	j	8000004c <write_tohost>

0000000080000058 <reset_vector>:
    80000058:	f1402573          	csrr	a0,mhartid
    8000005c:	00051063          	bnez	a0,8000005c <reset_vector+0x4>
    80000060:	00000297          	auipc	t0,0x0
    80000064:	01028293          	addi	t0,t0,16 # 80000070 <reset_vector+0x18>
    80000068:	30529073          	csrw	mtvec,t0
    8000006c:	18005073          	csrwi	satp,0
    80000070:	00000297          	auipc	t0,0x0
    80000074:	01c28293          	addi	t0,t0,28 # 8000008c <reset_vector+0x34>
    80000078:	30529073          	csrw	mtvec,t0
    8000007c:	fff00293          	li	t0,-1
    80000080:	3b029073          	csrw	pmpaddr0,t0
    80000084:	01f00293          	li	t0,31
    80000088:	3a029073          	csrw	pmpcfg0,t0
    8000008c:	00000297          	auipc	t0,0x0
    80000090:	01828293          	addi	t0,t0,24 # 800000a4 <reset_vector+0x4c>
    80000094:	30529073          	csrw	mtvec,t0
    80000098:	30205073          	csrwi	medeleg,0
    8000009c:	30305073          	csrwi	mideleg,0
    800000a0:	30405073          	csrwi	mie,0
    800000a4:	00000193          	li	gp,0
    800000a8:	00000297          	auipc	t0,0x0
    800000ac:	f5c28293          	addi	t0,t0,-164 # 80000004 <trap_vector>
    800000b0:	30529073          	csrw	mtvec,t0
    800000b4:	00100513          	li	a0,1
    800000b8:	01f51513          	slli	a0,a0,0x1f
    800000bc:	00055863          	bgez	a0,800000cc <reset_vector+0x74>
    800000c0:	0ff0000f          	fence
    800000c4:	00100193          	li	gp,1
    800000c8:	00000073          	ecall
    800000cc:	00000293          	li	t0,0
    800000d0:	00028e63          	beqz	t0,800000ec <reset_vector+0x94>
    800000d4:	10529073          	csrw	stvec,t0
    800000d8:	0000b2b7          	lui	t0,0xb
    800000dc:	1092829b          	addiw	t0,t0,265
    800000e0:	30229073          	csrw	medeleg,t0
    800000e4:	30202373          	csrr	t1,medeleg
    800000e8:	f66290e3          	bne	t0,t1,80000048 <other_exception>
    800000ec:	30005073          	csrwi	mstatus,0
    800000f0:	00000297          	auipc	t0,0x0
    800000f4:	01428293          	addi	t0,t0,20 # 80000104 <reset_vector+0xac>
    800000f8:	34129073          	csrw	mepc,t0
    800000fc:	f1402573          	csrr	a0,mhartid
    80000100:	30200073          	mret
    80000104:	0180006f          	j	8000011c <test_start>

0000000080000108 <crash_backward>:
    80000108:	0ff0000f          	fence
    8000010c:	00018063          	beqz	gp,8000010c <crash_backward+0x4>
    80000110:	00119193          	slli	gp,gp,0x1
    80000114:	0011e193          	ori	gp,gp,1
    80000118:	00000073          	ecall

000000008000011c <test_start>:
    8000011c:	00001f97          	auipc	t6,0x1
    80000120:	fe4f8f93          	addi	t6,t6,-28 # 80001100 <hidden_data>
    80000124:	000fb003          	ld	zero,0(t6)
    80000128:	008fb083          	ld	ra,8(t6)
    8000012c:	010fb103          	ld	sp,16(t6)
    80000130:	018fb183          	ld	gp,24(t6)
    80000134:	020fb203          	ld	tp,32(t6)
    80000138:	028fb283          	ld	t0,40(t6)
    8000013c:	030fb303          	ld	t1,48(t6)
    80000140:	038fb383          	ld	t2,56(t6)
    80000144:	040fb403          	ld	s0,64(t6)
    80000148:	048fb483          	ld	s1,72(t6)
    8000014c:	050fb503          	ld	a0,80(t6)
    80000150:	058fb583          	ld	a1,88(t6)
    80000154:	060fb603          	ld	a2,96(t6)
    80000158:	068fb683          	ld	a3,104(t6)
    8000015c:	070fb703          	ld	a4,112(t6)
    80000160:	078fb783          	ld	a5,120(t6)
    80000164:	080fb803          	ld	a6,128(t6)
    80000168:	088fb883          	ld	a7,136(t6)
    8000016c:	090fb903          	ld	s2,144(t6)
    80000170:	098fb983          	ld	s3,152(t6)
    80000174:	0a0fba03          	ld	s4,160(t6)
    80000178:	0a8fba83          	ld	s5,168(t6)
    8000017c:	0b0fbb03          	ld	s6,176(t6)
    80000180:	0b8fbb83          	ld	s7,184(t6)
    80000184:	0c0fbc03          	ld	s8,192(t6)
    80000188:	0c8fbc83          	ld	s9,200(t6)
    8000018c:	0d0fbd03          	ld	s10,208(t6)
    80000190:	0d8fbd83          	ld	s11,216(t6)
    80000194:	0e0fbe03          	ld	t3,224(t6)
    80000198:	0e8fbe83          	ld	t4,232(t6)
    8000019c:	0f0fbf03          	ld	t5,240(t6)
    800001a0:	0f8fbf83          	ld	t6,248(t6)
    800001a4:	0040006f          	j	800001a8 <pseg_0>

00000000800001a8 <pseg_0>:
    800001a8:	d0618893          	addi	a7,gp,-762 # 80001c16 <_end+0x506>
    800001ac:	00001c17          	auipc	s8,0x1
    800001b0:	bd0c0c13          	addi	s8,s8,-1072 # 80000d7c <test_end+0x38c>
    800001b4:	b9f18393          	addi	t2,gp,-1121 # 80001aaf <_end+0x39f>
    800001b8:	8e300693          	li	a3,-1821
    800001bc:	f40016e3          	bnez	zero,80000108 <crash_backward>
    800001c0:	00001e97          	auipc	t4,0x1
    800001c4:	d4de8e93          	addi	t4,t4,-691 # 80000f0d <test_end+0x51d>
    800001c8:	02212db3          	mulhsu	s11,sp,sp
    800001cc:	2ff00a13          	li	s4,767
    800001d0:	6dca0c93          	addi	s9,s4,1756
    800001d4:	00100513          	li	a0,1
    800001d8:	32d00213          	li	tp,813
    800001dc:	5d4c6d03          	lwu	s10,1492(s8)
    800001e0:	03f51513          	slli	a0,a0,0x3f
    800001e4:	78300f13          	li	t5,1923
    800001e8:	2a000793          	li	a5,672
    800001ec:	eb500b93          	li	s7,-331
    800001f0:	03e2043b          	mulw	s0,tp,t5
    800001f4:	5eded803          	lhu	a6,1517(t4)
    800001f8:	566a0b13          	addi	s6,s4,1382
    800001fc:	8b63b0a3          	sd	s6,-1887(t2)
    80000200:	fff00f93          	li	t6,-1
    80000204:	037b92b3          	mulh	t0,s7,s7
    80000208:	8dd8c703          	lbu	a4,-1827(a7)
    8000020c:	7cf78593          	addi	a1,a5,1999
    80000210:	eeb7dce3          	bge	a5,a1,80000108 <crash_backward>
    80000214:	00afcfb3          	xor	t6,t6,a0
    80000218:	01f070b3          	and	ra,zero,t6
    8000021c:	00a0e333          	or	t1,ra,a0
    80000220:	ee6084e3          	beq	ra,t1,80000108 <crash_backward>
    80000224:	2ff00e13          	li	t3,767
    80000228:	01c6c933          	xor	s2,a3,t3
    8000022c:	00100193          	li	gp,1
    80000230:	03f19193          	slli	gp,gp,0x3f
    80000234:	00001517          	auipc	a0,0x1
    80000238:	26650513          	addi	a0,a0,614 # 8000149a <test_memory+0x19a>
    8000023c:	00008813          	mv	a6,ra
    80000240:	b00a0f93          	addi	t6,s4,-1280
    80000244:	de300913          	li	s2,-541
    80000248:	40ef0f3b          	subw	t5,t5,a4
    8000024c:	00080593          	mv	a1,a6
    80000250:	00001a17          	auipc	s4,0x1
    80000254:	310a0a13          	addi	s4,s4,784 # 80001560 <test_memory+0x260>
    80000258:	78b86263          	bltu	a6,a1,800009dc <crash_forward>
    8000025c:	008466b3          	or	a3,s0,s0
    80000260:	00550883          	lb	a7,5(a0)
    80000264:	8ad00b93          	li	s7,-1875
    80000268:	00001e97          	auipc	t4,0x1
    8000026c:	ffae8e93          	addi	t4,t4,-6 # 80001262 <reg_x12_output+0x2>
    80000270:	860b8c93          	addi	s9,s7,-1952
    80000274:	0fee9403          	lh	s0,254(t4)
    80000278:	fff00493          	li	s1,-1
    8000027c:	00000d13          	li	s10,0
    80000280:	759bee63          	bltu	s7,s9,800009dc <crash_forward>
    80000284:	6da00b13          	li	s6,1754
    80000288:	00001117          	auipc	sp,0x1
    8000028c:	a1710113          	addi	sp,sp,-1513 # 80000c9f <test_end+0x2af>
    80000290:	0169563b          	srlw	a2,s2,s6
    80000294:	6b16a213          	slti	tp,a3,1713
    80000298:	72315d83          	lhu	s11,1827(sp)
    8000029c:	00100713          	li	a4,1
    800002a0:	46100793          	li	a5,1121
    800002a4:	bcc18f93          	addi	t6,gp,-1076 # 80001adc <_end+0x3cc>
    800002a8:	ac816f13          	ori	t5,sp,-1336
    800002ac:	02d66933          	rem	s2,a2,a3
    800002b0:	b16fac23          	sw	s6,-1256(t6)
    800002b4:	40f7de3b          	sraw	t3,a5,a5
    800002b8:	79900213          	li	tp,1945
    800002bc:	1f900d93          	li	s11,505
    800002c0:	03b24f33          	div	t5,tp,s11
    800002c4:	e8400513          	li	a0,-380
    800002c8:	02a53833          	mulhu	a6,a0,a0
    800002cc:	02637333          	remu	t1,t1,t1
    800002d0:	03f71713          	slli	a4,a4,0x3f
    800002d4:	00000093          	li	ra,0
    800002d8:	e2800593          	li	a1,-472
    800002dc:	0273db3b          	divuw	s6,t2,t2
    800002e0:	02b5c433          	div	s0,a1,a1
    800002e4:	00001897          	auipc	a7,0x1
    800002e8:	31c88893          	addi	a7,a7,796 # 80001600 <test_memory+0x300>
    800002ec:	eb700693          	li	a3,-329
    800002f0:	fff00293          	li	t0,-1
    800002f4:	00d6863b          	addw	a2,a3,a3
    800002f8:	00100f93          	li	t6,1
    800002fc:	6e1d1063          	bne	s10,ra,800009dc <crash_forward>
    80000300:	03ff9f93          	slli	t6,t6,0x3f
    80000304:	9b4b8b93          	addi	s7,s7,-1612
    80000308:	037fcf3b          	divw	t5,t6,s7
    8000030c:	64200d13          	li	s10,1602
    80000310:	fe700093          	li	ra,-25
    80000314:	e03a1a23          	sh	gp,-492(s4)
    80000318:	b1918593          	addi	a1,gp,-1255 # 80001a29 <_end+0x319>
    8000031c:	00001317          	auipc	t1,0x1
    80000320:	2e230313          	addi	t1,t1,738 # 800015fe <test_memory+0x2fe>
    80000324:	0034c4b3          	xor	s1,s1,gp
    80000328:	00001c97          	auipc	s9,0x1
    8000032c:	03cc8c93          	addi	s9,s9,60 # 80001364 <test_memory+0x64>
    80000330:	00000613          	li	a2,0
    80000334:	b8359b03          	lh	s6,-1149(a1)
    80000338:	b2518a13          	addi	s4,gp,-1243 # 80001a35 <_end+0x325>
    8000033c:	fff00793          	li	a5,-1
    80000340:	40215133          	sra	sp,sp,sp
    80000344:	dddec2e3          	blt	t4,t4,80000108 <crash_backward>
    80000348:	f4031403          	lh	s0,-192(t1)
    8000034c:	6c700d93          	li	s11,1735
    80000350:	d3c00593          	li	a1,-708
    80000354:	fb5c9823          	sh	s5,-80(s9)
    80000358:	f1300213          	li	tp,-237
    8000035c:	021d06bb          	mulw	a3,s10,ra
    80000360:	024db833          	mulhu	a6,s11,tp
    80000364:	009d79b3          	and	s3,s10,s1
    80000368:	00000f13          	li	t5,0
    8000036c:	d108de83          	lhu	t4,-752(a7)
    80000370:	00843533          	sltu	a0,s0,s0
    80000374:	0031eab3          	or	s5,gp,gp
    80000378:	00e2c2b3          	xor	t0,t0,a4
    8000037c:	97800b93          	li	s7,-1672
    80000380:	65598e63          	beq	s3,s5,800009dc <crash_forward>
    80000384:	005973b3          	and	t2,s2,t0
    80000388:	9a118c93          	addi	s9,gp,-1631 # 800018b1 <_end+0x1a1>
    8000038c:	00001117          	auipc	sp,0x1
    80000390:	17410113          	addi	sp,sp,372 # 80001500 <test_memory+0x200>
    80000394:	d00cbba3          	sd	zero,-745(s9)
    80000398:	00038213          	mv	tp,t2
    8000039c:	c4100c93          	li	s9,-959
    800003a0:	01759b33          	sll	s6,a1,s7
    800003a4:	eaa15303          	lhu	t1,-342(sp)
    800003a8:	00001517          	auipc	a0,0x1
    800003ac:	2a850513          	addi	a0,a0,680 # 80001650 <test_memory+0x350>
    800003b0:	a9500493          	li	s1,-1387
    800003b4:	d0b00e93          	li	t4,-757
    800003b8:	dcc18093          	addi	ra,gp,-564 # 80001cdc <_end+0x5cc>
    800003bc:	02098bbb          	mulw	s7,s3,zero
    800003c0:	aaf18193          	addi	gp,gp,-1361 # 800019bf <_end+0x2af>
    800003c4:	a130ac23          	sw	s3,-1512(ra)
    800003c8:	28300113          	li	sp,643
    800003cc:	00e4ec33          	or	s8,s1,a4
    800003d0:	21100693          	li	a3,529
    800003d4:	02217333          	remu	t1,sp,sp
    800003d8:	02de9db3          	mulh	s11,t4,a3
    800003dc:	01f7c7b3          	xor	a5,a5,t6
    800003e0:	00020893          	mv	a7,tp
    800003e4:	00001b97          	auipc	s7,0x1
    800003e8:	b25b8b93          	addi	s7,s7,-1243 # 80000f09 <test_end+0x519>
    800003ec:	e1900293          	li	t0,-487
    800003f0:	4141d31b          	sraiw	t1,gp,0x14
    800003f4:	009c8abb          	addw	s5,s9,s1
    800003f8:	00f4fe33          	and	t3,s1,a5
    800003fc:	00001697          	auipc	a3,0x1
    80000400:	11968693          	addi	a3,a3,281 # 80001515 <test_memory+0x215>
    80000404:	00078d13          	mv	s10,a5
    80000408:	74900993          	li	s3,1865
    8000040c:	00001e97          	auipc	t4,0x1
    80000410:	dd5e8e93          	addi	t4,t4,-555 # 800011e1 <reg_x28_init+0x1>
    80000414:	00001597          	auipc	a1,0x1
    80000418:	f2b58593          	addi	a1,a1,-213 # 8000133f <test_memory+0x3f>
    8000041c:	b761b0a3          	sd	s6,-1183(gp) # 80001a71 <_end+0x361>
    80000420:	5b124e63          	blt	tp,a7,800009dc <crash_forward>
    80000424:	0a053403          	ld	s0,160(a0)
    80000428:	21f00113          	li	sp,543
    8000042c:	0178dd9b          	srliw	s11,a7,0x17
    80000430:	3b35a0a3          	sw	s3,929(a1)
    80000434:	01fb6933          	or	s2,s6,t6
    80000438:	000d0813          	mv	a6,s10
    8000043c:	96100b13          	li	s6,-1695
    80000440:	00001317          	auipc	t1,0x1
    80000444:	fb430313          	addi	t1,t1,-76 # 800013f4 <test_memory+0xf4>
    80000448:	41610c33          	sub	s8,sp,s6
    8000044c:	658ba9a3          	sw	s8,1619(s7)
    80000450:	e2818c93          	addi	s9,gp,-472 # 80001d38 <_end+0x628>
    80000454:	00000197          	auipc	gp,0x0
    80000458:	79218193          	addi	gp,gp,1938 # 80000be6 <test_end+0x1f6>
    8000045c:	1cd69383          	lh	t2,461(a3)
    80000460:	944c88a3          	sb	tp,-1711(s9)
    80000464:	4b5ea3a3          	sw	s5,1191(t4)
    80000468:	0132a733          	slt	a4,t0,s3
    8000046c:	fd433a83          	ld	s5,-44(t1)
    80000470:	929a3da3          	sd	s1,-1733(s4)
    80000474:	c90d4ae3          	blt	s10,a6,80000108 <crash_backward>
    80000478:	7e918123          	sb	s1,2018(gp) # 800026f2 <__global_pointer$+0x7e2>
    8000047c:	24c00793          	li	a5,588
    80000480:	00001917          	auipc	s2,0x1
    80000484:	0e290913          	addi	s2,s2,226 # 80001562 <test_memory+0x262>
    80000488:	0210f83b          	remuw	a6,ra,ra
    8000048c:	03581133          	mulh	sp,a6,s5
    80000490:	77700893          	li	a7,1911
    80000494:	fa095a83          	lhu	s5,-96(s2)
    80000498:	0318a9b3          	mulhsu	s3,a7,a7
    8000049c:	a8118613          	addi	a2,gp,-1407 # 80001991 <_end+0x281>
    800004a0:	02f794b3          	mulh	s1,a5,a5
    800004a4:	97f18a13          	addi	s4,gp,-1665 # 8000188f <_end+0x17f>
    800004a8:	00001317          	auipc	t1,0x1
    800004ac:	23a30313          	addi	t1,t1,570 # 800016e2 <test_memory+0x3e2>
    800004b0:	b9780b93          	addi	s7,a6,-1129
    800004b4:	29600413          	li	s0,662
    800004b8:	25500593          	li	a1,597
    800004bc:	cd218f93          	addi	t6,gp,-814 # 80001be2 <_end+0x4d2>
    800004c0:	00001e97          	auipc	t4,0x1
    800004c4:	bb0e8e93          	addi	t4,t4,-1104 # 80001070 <fromhost+0x30>
    800004c8:	9dffc203          	lbu	tp,-1569(t6)
    800004cc:	00000717          	auipc	a4,0x0
    800004d0:	73870713          	addi	a4,a4,1848 # 80000c04 <test_end+0x214>
    800004d4:	ae6a4d03          	lbu	s10,-1306(s4)
    800004d8:	00001197          	auipc	gp,0x1
    800004dc:	92a18193          	addi	gp,gp,-1750 # 80000e02 <test_end+0x412>
    800004e0:	01293933          	sltu	s2,s2,s2
    800004e4:	00a55e33          	srl	t3,a0,a0
    800004e8:	00001097          	auipc	ra,0x1
    800004ec:	10908093          	addi	ra,ra,265 # 800015f1 <test_memory+0x2f1>
    800004f0:	d970d683          	lhu	a3,-617(ra)
    800004f4:	5b640393          	addi	t2,s0,1462
    800004f8:	00001f97          	auipc	t6,0x1
    800004fc:	989f8f93          	addi	t6,t6,-1655 # 80000e81 <test_end+0x491>
    80000500:	d60615a3          	sh	zero,-661(a2)
    80000504:	e84303a3          	sb	tp,-377(t1)
    80000508:	dfa00b13          	li	s6,-518
    8000050c:	a1a18b93          	addi	s7,gp,-1510 # 8000192a <_end+0x21a>
    80000510:	47600813          	li	a6,1142
    80000514:	016b0dbb          	addw	s11,s6,s6
    80000518:	00b58f3b          	addw	t5,a1,a1
    8000051c:	5701a123          	sw	a6,1378(gp) # 80002472 <__global_pointer$+0x562>
    80000520:	00001517          	auipc	a0,0x1
    80000524:	b7550513          	addi	a0,a0,-1163 # 80001095 <fromhost+0x55>
    80000528:	02305cbb          	divuw	s9,zero,gp
    8000052c:	a67ba323          	sw	t2,-1434(s7)
    80000530:	515f9203          	lh	tp,1301(t6)
    80000534:	d3400d13          	li	s10,-716
    80000538:	00100a13          	li	s4,1
    8000053c:	55a501a3          	sb	s10,1347(a0)
    80000540:	03fa1a13          	slli	s4,s4,0x3f
    80000544:	569ec283          	lbu	t0,1385(t4)
    80000548:	02f7ff33          	remu	t5,a5,a5
    8000054c:	00040093          	mv	ra,s0
    80000550:	75f70c03          	lb	s8,1887(a4)
    80000554:	838d0993          	addi	s3,s10,-1992
    80000558:	ecb00913          	li	s2,-309
    8000055c:	e9200e13          	li	t3,-366
    80000560:	86900e93          	li	t4,-1943
    80000564:	29300193          	li	gp,659
    80000568:	00008313          	mv	t1,ra
    8000056c:	00001617          	auipc	a2,0x1
    80000570:	eed60613          	addi	a2,a2,-275 # 80001459 <test_memory+0x159>
    80000574:	03d905b3          	mul	a1,s2,t4
    80000578:	33b00f13          	li	t5,827
    8000057c:	021f82bb          	mulw	t0,t6,ra
    80000580:	030847b3          	div	a5,a6,a6
    80000584:	59100393          	li	t2,1425
    80000588:	74bf0713          	addi	a4,t5,1867
    8000058c:	f9961da3          	sh	s9,-101(a2)
    80000590:	bcd18b13          	addi	s6,gp,-1075 # 80001add <_end+0x3cd>
    80000594:	b20b25a3          	sw	zero,-1237(s6)
    80000598:	f3000b93          	li	s7,-208
    8000059c:	30700c93          	li	s9,775
    800005a0:	fff00493          	li	s1,-1
    800005a4:	d6b00213          	li	tp,-661
    800005a8:	32700f93          	li	t6,807
    800005ac:	00001b17          	auipc	s6,0x1
    800005b0:	b77b0b13          	addi	s6,s6,-1161 # 80001123 <reg_x4_init+0x3>
    800005b4:	5e700593          	li	a1,1511
    800005b8:	85600913          	li	s2,-1962
    800005bc:	03fcc13b          	divw	sp,s9,t6
    800005c0:	023e4c33          	div	s8,t3,gp
    800005c4:	3bdb3f03          	ld	t5,957(s6)
    800005c8:	038c0ebb          	mulw	t4,s8,s8
    800005cc:	25300793          	li	a5,595
    800005d0:	40f9583b          	sraw	a6,s2,a5
    800005d4:	0243c43b          	divw	s0,t2,tp
    800005d8:	00001d17          	auipc	s10,0x1
    800005dc:	c0cd0d13          	addi	s10,s10,-1012 # 800011e4 <reg_x28_init+0x4>
    800005e0:	00001097          	auipc	ra,0x1
    800005e4:	bb708093          	addi	ra,ra,-1097 # 80001197 <reg_x18_init+0x7>
    800005e8:	a7818513          	addi	a0,gp,-1416 # 80001988 <_end+0x278>
    800005ec:	01e482b3          	add	t0,s1,t5
    800005f0:	50cd3603          	ld	a2,1292(s10)
    800005f4:	d4651683          	lh	a3,-698(a0)
    800005f8:	02b5c73b          	divw	a4,a1,a1
    800005fc:	0144c4b3          	xor	s1,s1,s4
    80000600:	54509ea3          	sh	t0,1373(ra)
    80000604:	017b9dbb          	sllw	s11,s7,s7
    80000608:	009cfab3          	and	s5,s9,s1
    8000060c:	014fe8b3          	or	a7,t6,s4
    80000610:	80000a13          	li	s4,-2048
    80000614:	00000d17          	auipc	s10,0x0
    80000618:	7c1d0d13          	addi	s10,s10,1985 # 80000dd5 <test_end+0x3e5>
    8000061c:	5cad0583          	lb	a1,1482(s10)
    80000620:	aab18493          	addi	s1,gp,-1365 # 800019bb <_end+0x2ab>
    80000624:	ab818b93          	addi	s7,gp,-1352 # 800019c8 <_end+0x2b8>
    80000628:	7d900613          	li	a2,2009
    8000062c:	94318193          	addi	gp,gp,-1725 # 80001853 <_end+0x143>
    80000630:	00726333          	or	t1,tp,t2
    80000634:	c2600413          	li	s0,-986
    80000638:	00001697          	auipc	a3,0x1
    8000063c:	b2368693          	addi	a3,a3,-1245 # 8000115b <reg_x11_init+0x3>
    80000640:	35c6ca83          	lbu	s5,860(a3)
    80000644:	00001717          	auipc	a4,0x1
    80000648:	99e70713          	addi	a4,a4,-1634 # 80000fe2 <test_end+0x5f2>
    8000064c:	00001c97          	auipc	s9,0x1
    80000650:	eaac8c93          	addi	s9,s9,-342 # 800014f6 <test_memory+0x1f6>
    80000654:	40ca07b3          	sub	a5,s4,a2
    80000658:	00000293          	li	t0,0
    8000065c:	dc718113          	addi	sp,gp,-569 # 80001cd7 <_end+0x5c7>
    80000660:	00000597          	auipc	a1,0x0
    80000664:	6b858593          	addi	a1,a1,1720 # 80000d18 <test_end+0x328>
    80000668:	bfd19b03          	lh	s6,-1027(gp) # 80001b0d <_end+0x3fd>
    8000066c:	f85ca523          	sw	t0,-118(s9)
    80000670:	a6f00d13          	li	s10,-1425
    80000674:	6f459f23          	sh	s4,1790(a1)
    80000678:	4084593b          	sraw	s2,s0,s0
    8000067c:	441a0e13          	addi	t3,s4,1089
    80000680:	f0b00c13          	li	s8,-245
    80000684:	a14baf03          	lw	t5,-1516(s7)
    80000688:	68275983          	lhu	s3,1666(a4)
    8000068c:	019cfa33          	and	s4,s9,s9
    80000690:	00001c97          	auipc	s9,0x1
    80000694:	bfac8c93          	addi	s9,s9,-1030 # 8000128a <reg_x17_output+0x2>
    80000698:	95511aa3          	sh	s5,-1707(sp)
    8000069c:	00000513          	li	a0,0
    800006a0:	e8418993          	addi	s3,gp,-380 # 80001d94 <_end+0x684>
    800006a4:	c6d4bf83          	ld	t6,-915(s1)
    800006a8:	17500213          	li	tp,373
    800006ac:	88b00b13          	li	s6,-1909
    800006b0:	32a2c663          	blt	t0,a0,800009dc <crash_forward>
    800006b4:	00001617          	auipc	a2,0x1
    800006b8:	fdd60613          	addi	a2,a2,-35 # 80001691 <test_memory+0x391>
    800006bc:	ce300513          	li	a0,-797
    800006c0:	b9f18813          	addi	a6,gp,-1121 # 80001aaf <_end+0x39f>
    800006c4:	00a562b3          	or	t0,a0,a0
    800006c8:	02630f33          	mul	t5,t1,t1
    800006cc:	4ad00413          	li	s0,1197
    800006d0:	f7161ca3          	sh	a7,-135(a2)
    800006d4:	024d033b          	mulw	t1,s10,tp
    800006d8:	c5b18e13          	addi	t3,gp,-933 # 80001b6b <_end+0x45b>
    800006dc:	46b00113          	li	sp,1131
    800006e0:	2e900593          	li	a1,745
    800006e4:	f1d00693          	li	a3,-227
    800006e8:	9119c883          	lbu	a7,-1775(s3)
    800006ec:	4084593b          	sraw	s2,s0,s0
    800006f0:	d9ec0393          	addi	t2,s8,-610
    800006f4:	a07c6ae3          	bltu	s8,t2,80000108 <crash_backward>
    800006f8:	002164b3          	or	s1,sp,sp
    800006fc:	2327a793          	slti	a5,a5,562
    80000700:	0c300613          	li	a2,195
    80000704:	d9fb0713          	addi	a4,s6,-609
    80000708:	00001397          	auipc	t2,0x1
    8000070c:	c8c38393          	addi	t2,t2,-884 # 80001394 <test_memory+0x94>
    80000710:	1083a883          	lw	a7,264(t2)
    80000714:	00001d97          	auipc	s11,0x1
    80000718:	032d8d93          	addi	s11,s11,50 # 80001746 <_end+0x36>
    8000071c:	192c9b23          	sh	s2,406(s9)
    80000720:	038c19b3          	mulh	s3,s8,s8
    80000724:	929e6b83          	lwu	s7,-1751(t3)
    80000728:	02210d3b          	mulw	s10,sp,sp
    8000072c:	01d00913          	li	s2,29
    80000730:	02b572b3          	remu	t0,a0,a1
    80000734:	9d677ae3          	bgeu	a4,s6,80000108 <crash_backward>
    80000738:	00001317          	auipc	t1,0x1
    8000073c:	b8a30313          	addi	t1,t1,-1142 # 800012c2 <reg_x24_output+0x2>
    80000740:	2a100c13          	li	s8,673
    80000744:	9a900413          	li	s0,-1623
    80000748:	4bb00e93          	li	t4,1211
    8000074c:	d7940113          	addi	sp,s0,-647
    80000750:	bfdd8fa3          	sb	t4,-1025(s11)
    80000754:	42431f03          	lh	t5,1060(t1)
    80000758:	2fb00193          	li	gp,763
    8000075c:	032904b3          	mul	s1,s2,s2
    80000760:	41860233          	sub	tp,a2,s8
    80000764:	02358a33          	mul	s4,a1,gp
    80000768:	03d68ab3          	mul	s5,a3,t4
    8000076c:	89186083          	lwu	ra,-1903(a6)
    80000770:	00001d97          	auipc	s11,0x1
    80000774:	d0dd8d93          	addi	s11,s11,-755 # 8000147d <test_memory+0x17d>
    80000778:	57300913          	li	s2,1395
    8000077c:	92418793          	addi	a5,gp,-1756 # 80001834 <_end+0x124>
    80000780:	00001c97          	auipc	s9,0x1
    80000784:	c8fc8c93          	addi	s9,s9,-881 # 8000140f <test_memory+0x10f>
    80000788:	00001117          	auipc	sp,0x1
    8000078c:	c8f10113          	addi	sp,sp,-881 # 80001417 <test_memory+0x117>
    80000790:	246ccc03          	lbu	s8,582(s9)
    80000794:	0c000513          	li	a0,192
    80000798:	c1579323          	sh	s5,-1018(a5)
    8000079c:	03296433          	rem	s0,s2,s2
    800007a0:	01bd89bb          	addw	s3,s11,s11
    800007a4:	00100c93          	li	s9,1
    800007a8:	018c0233          	add	tp,s8,s8
    800007ac:	f5010483          	lb	s1,-176(sp)
    800007b0:	03fc9c93          	slli	s9,s9,0x3f
    800007b4:	00100a93          	li	s5,1
    800007b8:	fbfd9303          	lh	t1,-65(s11)
    800007bc:	ab018593          	addi	a1,gp,-1360 # 800019c0 <_end+0x2b0>
    800007c0:	02a56f3b          	remw	t5,a0,a0
    800007c4:	ce45ae83          	lw	t4,-796(a1)
    800007c8:	fff00f93          	li	t6,-1
    800007cc:	03ad06bb          	mulw	a3,s10,s10
    800007d0:	be500193          	li	gp,-1051
    800007d4:	03fa9a93          	slli	s5,s5,0x3f
    800007d8:	e6118a13          	addi	s4,gp,-415 # 80001d71 <_end+0x661>
    800007dc:	fff00293          	li	t0,-1
    800007e0:	18500b93          	li	s7,389
    800007e4:	4eec7613          	andi	a2,s8,1262
    800007e8:	037bd133          	divu	sp,s7,s7
    800007ec:	00001b17          	auipc	s6,0x1
    800007f0:	ad2b0b13          	addi	s6,s6,-1326 # 800012be <reg_x23_output+0x6>
    800007f4:	019fcfb3          	xor	t6,t6,s9
    800007f8:	417b80b3          	sub	ra,s7,s7
    800007fc:	e0918213          	addi	tp,gp,-503 # 80001d19 <_end+0x609>
    80000800:	037fc8bb          	divw	a7,t6,s7
    80000804:	00000417          	auipc	s0,0x0
    80000808:	78840413          	addi	s0,s0,1928 # 80000f8c <test_end+0x59c>
    8000080c:	bb218713          	addi	a4,gp,-1102 # 80001ac2 <_end+0x3b2>
    80000810:	b7e18f13          	addi	t5,gp,-1154 # 80001a8e <_end+0x37e>
    80000814:	f0600593          	li	a1,-250
    80000818:	01f77c33          	and	s8,a4,t6
    8000081c:	67846683          	lwu	a3,1656(s0)
    80000820:	00001d97          	auipc	s11,0x1
    80000824:	d64d8d93          	addi	s11,s11,-668 # 80001584 <test_memory+0x284>
    80000828:	00000797          	auipc	a5,0x0
    8000082c:	4f578793          	addi	a5,a5,1269 # 80000d1d <test_end+0x32d>
    80000830:	00001317          	auipc	t1,0x1
    80000834:	9c830313          	addi	t1,t1,-1592 # 800011f8 <reg_x31_init>
    80000838:	4131d8bb          	sraw	a7,gp,s3
    8000083c:	e1a58513          	addi	a0,a1,-486
    80000840:	00001997          	auipc	s3,0x1
    80000844:	83a98993          	addi	s3,s3,-1990 # 8000107a <fromhost+0x3a>
    80000848:	019c6d33          	or	s10,s8,s9
    8000084c:	8bba6e03          	lwu	t3,-1861(s4)
    80000850:	18377663          	bgeu	a4,gp,800009dc <crash_forward>
    80000854:	00000097          	auipc	ra,0x0
    80000858:	76408093          	addi	ra,ra,1892 # 80000fb8 <test_end+0x5c8>
    8000085c:	18b55063          	bge	a0,a1,800009dc <crash_forward>
    80000860:	aff18493          	addi	s1,gp,-1281 # 80001a0f <_end+0x2ff>
    80000864:	5110a223          	sw	a7,1284(ra)
    80000868:	e5ad9f23          	sh	s10,-418(s11)
    8000086c:	90ef2e83          	lw	t4,-1778(t5)
    80000870:	76978903          	lb	s2,1897(a5)
    80000874:	372b1523          	sh	s2,874(s6)
    80000878:	80020d23          	sb	zero,-2022(tp) # fffffffffffff81a <__global_pointer$+0xffffffff7fffd90a>
    8000087c:	0145abb3          	slt	s7,a1,s4
    80000880:	62399023          	sh	gp,1568(s3)
    80000884:	27a32023          	sw	s10,608(t1)
    80000888:	be349603          	lh	a2,-1053(s1)
    8000088c:	0152c2b3          	xor	t0,t0,s5
    80000890:	0056f833          	and	a6,a3,t0
    80000894:	015863b3          	or	t2,a6,s5
    80000898:	82a00a13          	li	s4,-2006
    8000089c:	00844b33          	xor	s6,s0,s0
    800008a0:	5b500813          	li	a6,1461
    800008a4:	3db00893          	li	a7,987
    800008a8:	034a62b3          	rem	t0,s4,s4
    800008ac:	402dd7bb          	sraw	a5,s11,sp
    800008b0:	00001c97          	auipc	s9,0x1
    800008b4:	88bc8c93          	addi	s9,s9,-1909 # 8000113b <reg_x7_init+0x3>
    800008b8:	18c00d93          	li	s11,396
    800008bc:	00001f97          	auipc	t6,0x1
    800008c0:	c65f8f93          	addi	t6,t6,-923 # 80001521 <test_memory+0x221>
    800008c4:	00001597          	auipc	a1,0x1
    800008c8:	de558593          	addi	a1,a1,-539 # 800016a9 <test_memory+0x3a9>
    800008cc:	01188d3b          	addw	s10,a7,a7
    800008d0:	e6500c13          	li	s8,-411
    800008d4:	000e8e93          	mv	t4,t4
    800008d8:	94818493          	addi	s1,gp,-1720 # 80001858 <_end+0x148>
    800008dc:	f4600413          	li	s0,-186
    800008e0:	b9e00513          	li	a0,-1122
    800008e4:	50600d13          	li	s10,1286
    800008e8:	030803bb          	mulw	t2,a6,a6
    800008ec:	d4300213          	li	tp,-701
    800008f0:	e7249e23          	sh	s2,-388(s1)
    800008f4:	02f886b3          	mul	a3,a7,a5
    800008f8:	a7400e13          	li	t3,-1420
    800008fc:	000e8613          	mv	a2,t4
    80000900:	024c7bb3          	remu	s7,s8,tp
    80000904:	dbd00b13          	li	s6,-579
    80000908:	00001a97          	auipc	s5,0x1
    8000090c:	b0aa8a93          	addi	s5,s5,-1270 # 80001412 <test_memory+0x112>
    80000910:	577cd703          	lhu	a4,1399(s9)
    80000914:	2e1d8993          	addi	s3,s11,737
    80000918:	2a2a9023          	sh	sp,672(s5)
    8000091c:	eea5b3a3          	sd	a0,-281(a1)
    80000920:	ceb00293          	li	t0,-789
    80000924:	02700113          	li	sp,39
    80000928:	00245f33          	srl	t5,s0,sp
    8000092c:	f0e00913          	li	s2,-242
    80000930:	f25e0893          	addi	a7,t3,-219
    80000934:	005d30b3          	sltu	ra,s10,t0
    80000938:	49300793          	li	a5,1171
    8000093c:	03252333          	mulhsu	t1,a0,s2
    80000940:	02fb1a33          	mulh	s4,s6,a5
    80000944:	fdc8d263          	bge	a7,t3,80000108 <crash_backward>
    80000948:	f5ff9183          	lh	gp,-161(t6)
    8000094c:	0040006f          	j	80000950 <reg_dump>

0000000080000950 <reg_dump>:
    80000950:	00001097          	auipc	ra,0x1
    80000954:	db008093          	addi	ra,ra,-592 # 80001700 <loop_count>
    80000958:	0000a103          	lw	sp,0(ra)
    8000095c:	fff10193          	addi	gp,sp,-1
    80000960:	0030a023          	sw	gp,0(ra)
    80000964:	840112e3          	bnez	sp,800001a8 <pseg_0>
    80000968:	00001097          	auipc	ra,0x1
    8000096c:	89808093          	addi	ra,ra,-1896 # 80001200 <begin_signature>
    80000970:	0000b023          	sd	zero,0(ra)
    80000974:	0020b823          	sd	sp,16(ra)
    80000978:	0030bc23          	sd	gp,24(ra)
    8000097c:	0240b023          	sd	tp,32(ra)
    80000980:	0250b423          	sd	t0,40(ra)
    80000984:	0260b823          	sd	t1,48(ra)
    80000988:	0270bc23          	sd	t2,56(ra)
    8000098c:	0480b023          	sd	s0,64(ra)
    80000990:	04a0b823          	sd	a0,80(ra)
    80000994:	06c0b023          	sd	a2,96(ra)
    80000998:	06d0b423          	sd	a3,104(ra)
    8000099c:	06e0b823          	sd	a4,112(ra)
    800009a0:	06f0bc23          	sd	a5,120(ra)
    800009a4:	0900b023          	sd	a6,128(ra)
    800009a8:	0910b423          	sd	a7,136(ra)
    800009ac:	0920b823          	sd	s2,144(ra)
    800009b0:	0930bc23          	sd	s3,152(ra)
    800009b4:	0b40b023          	sd	s4,160(ra)
    800009b8:	0b60b823          	sd	s6,176(ra)
    800009bc:	0b70bc23          	sd	s7,184(ra)
    800009c0:	0d80b023          	sd	s8,192(ra)
    800009c4:	0da0b823          	sd	s10,208(ra)
    800009c8:	0db0bc23          	sd	s11,216(ra)
    800009cc:	0fc0b023          	sd	t3,224(ra)
    800009d0:	0fd0b423          	sd	t4,232(ra)
    800009d4:	0fe0b823          	sd	t5,240(ra)
    800009d8:	0180006f          	j	800009f0 <test_end>

00000000800009dc <crash_forward>:
    800009dc:	0ff0000f          	fence
    800009e0:	00018063          	beqz	gp,800009e0 <crash_forward+0x4>
    800009e4:	00119193          	slli	gp,gp,0x1
    800009e8:	0011e193          	ori	gp,gp,1
    800009ec:	00000073          	ecall

00000000800009f0 <test_end>:
    800009f0:	0ff0000f          	fence
    800009f4:	00100193          	li	gp,1
    800009f8:	00000073          	ecall
    800009fc:	c0001073          	unimp
	...

Disassembly of section .tohost:

0000000080001000 <tohost>:
	...

0000000080001040 <fromhost>:
	...
