
test.elf:     file format elf64-littleriscv


Disassembly of section .text.init:

0000000080000000 <_start>:
    80000000:	0580006f          	j	80000058 <reset_vector>

0000000080000004 <trap_vector>:
    80000004:	34202f73          	csrr	t5,mcause
    80000008:	00800f93          	li	t6,8
    8000000c:	05ff0063          	beq	t5,t6,8000004c <write_tohost>
    80000010:	00900f93          	li	t6,9
    80000014:	03ff0c63          	beq	t5,t6,8000004c <write_tohost>
    80000018:	00b00f93          	li	t6,11
    8000001c:	03ff0863          	beq	t5,t6,8000004c <write_tohost>
    80000020:	00000f13          	li	t5,0
    80000024:	000f0463          	beqz	t5,8000002c <trap_vector+0x28>
    80000028:	000f0067          	jr	t5
    8000002c:	34202f73          	csrr	t5,mcause
    80000030:	000f5463          	bgez	t5,80000038 <handle_exception>
    80000034:	0140006f          	j	80000048 <other_exception>

0000000080000038 <handle_exception>:
    80000038:	34102e73          	csrr	t3,mepc
    8000003c:	004e0e13          	addi	t3,t3,4
    80000040:	341e1073          	csrw	mepc,t3
    80000044:	30200073          	mret

0000000080000048 <other_exception>:
    80000048:	5391e193          	ori	gp,gp,1337

000000008000004c <write_tohost>:
    8000004c:	00001f17          	auipc	t5,0x1
    80000050:	fa3f2a23          	sw	gp,-76(t5) # 80001000 <tohost>
    80000054:	ff9ff06f          	j	8000004c <write_tohost>

0000000080000058 <reset_vector>:
    80000058:	f1402573          	csrr	a0,mhartid
    8000005c:	00051063          	bnez	a0,8000005c <reset_vector+0x4>
    80000060:	00000297          	auipc	t0,0x0
    80000064:	01028293          	addi	t0,t0,16 # 80000070 <reset_vector+0x18>
    80000068:	30529073          	csrw	mtvec,t0
    8000006c:	18005073          	csrwi	satp,0
    80000070:	00000297          	auipc	t0,0x0
    80000074:	01c28293          	addi	t0,t0,28 # 8000008c <reset_vector+0x34>
    80000078:	30529073          	csrw	mtvec,t0
    8000007c:	fff00293          	li	t0,-1
    80000080:	3b029073          	csrw	pmpaddr0,t0
    80000084:	01f00293          	li	t0,31
    80000088:	3a029073          	csrw	pmpcfg0,t0
    8000008c:	00000297          	auipc	t0,0x0
    80000090:	01828293          	addi	t0,t0,24 # 800000a4 <reset_vector+0x4c>
    80000094:	30529073          	csrw	mtvec,t0
    80000098:	30205073          	csrwi	medeleg,0
    8000009c:	30305073          	csrwi	mideleg,0
    800000a0:	30405073          	csrwi	mie,0
    800000a4:	00000193          	li	gp,0
    800000a8:	00000297          	auipc	t0,0x0
    800000ac:	f5c28293          	addi	t0,t0,-164 # 80000004 <trap_vector>
    800000b0:	30529073          	csrw	mtvec,t0
    800000b4:	00100513          	li	a0,1
    800000b8:	01f51513          	slli	a0,a0,0x1f
    800000bc:	00055863          	bgez	a0,800000cc <reset_vector+0x74>
    800000c0:	0ff0000f          	fence
    800000c4:	00100193          	li	gp,1
    800000c8:	00000073          	ecall
    800000cc:	00000293          	li	t0,0
    800000d0:	00028e63          	beqz	t0,800000ec <reset_vector+0x94>
    800000d4:	10529073          	csrw	stvec,t0
    800000d8:	0000b2b7          	lui	t0,0xb
    800000dc:	1092829b          	addiw	t0,t0,265
    800000e0:	30229073          	csrw	medeleg,t0
    800000e4:	30202373          	csrr	t1,medeleg
    800000e8:	f66290e3          	bne	t0,t1,80000048 <other_exception>
    800000ec:	30005073          	csrwi	mstatus,0
    800000f0:	00000297          	auipc	t0,0x0
    800000f4:	01428293          	addi	t0,t0,20 # 80000104 <reset_vector+0xac>
    800000f8:	34129073          	csrw	mepc,t0
    800000fc:	f1402573          	csrr	a0,mhartid
    80000100:	30200073          	mret
    80000104:	0180006f          	j	8000011c <test_start>

0000000080000108 <crash_backward>:
    80000108:	0ff0000f          	fence
    8000010c:	00018063          	beqz	gp,8000010c <crash_backward+0x4>
    80000110:	00119193          	slli	gp,gp,0x1
    80000114:	0011e193          	ori	gp,gp,1
    80000118:	00000073          	ecall

000000008000011c <test_start>:
    8000011c:	00001f97          	auipc	t6,0x1
    80000120:	fe4f8f93          	addi	t6,t6,-28 # 80001100 <hidden_data>
    80000124:	000fb003          	ld	zero,0(t6)
    80000128:	008fb083          	ld	ra,8(t6)
    8000012c:	010fb103          	ld	sp,16(t6)
    80000130:	018fb183          	ld	gp,24(t6)
    80000134:	020fb203          	ld	tp,32(t6)
    80000138:	028fb283          	ld	t0,40(t6)
    8000013c:	030fb303          	ld	t1,48(t6)
    80000140:	038fb383          	ld	t2,56(t6)
    80000144:	040fb403          	ld	s0,64(t6)
    80000148:	048fb483          	ld	s1,72(t6)
    8000014c:	050fb503          	ld	a0,80(t6)
    80000150:	058fb583          	ld	a1,88(t6)
    80000154:	060fb603          	ld	a2,96(t6)
    80000158:	068fb683          	ld	a3,104(t6)
    8000015c:	070fb703          	ld	a4,112(t6)
    80000160:	078fb783          	ld	a5,120(t6)
    80000164:	080fb803          	ld	a6,128(t6)
    80000168:	088fb883          	ld	a7,136(t6)
    8000016c:	090fb903          	ld	s2,144(t6)
    80000170:	098fb983          	ld	s3,152(t6)
    80000174:	0a0fba03          	ld	s4,160(t6)
    80000178:	0a8fba83          	ld	s5,168(t6)
    8000017c:	0b0fbb03          	ld	s6,176(t6)
    80000180:	0b8fbb83          	ld	s7,184(t6)
    80000184:	0c0fbc03          	ld	s8,192(t6)
    80000188:	0c8fbc83          	ld	s9,200(t6)
    8000018c:	0d0fbd03          	ld	s10,208(t6)
    80000190:	0d8fbd83          	ld	s11,216(t6)
    80000194:	0e0fbe03          	ld	t3,224(t6)
    80000198:	0e8fbe83          	ld	t4,232(t6)
    8000019c:	0f0fbf03          	ld	t5,240(t6)
    800001a0:	0f8fbf83          	ld	t6,248(t6)
    800001a4:	0040006f          	j	800001a8 <pseg_0>

00000000800001a8 <pseg_0>:
    800001a8:	039cffbb          	remuw	t6,s9,s9
    800001ac:	9b178e13          	addi	t3,a5,-1615
    800001b0:	00100513          	li	a0,1
    800001b4:	00100c93          	li	s9,1
    800001b8:	9b500313          	li	t1,-1611
    800001bc:	03fc9c93          	slli	s9,s9,0x3f
    800001c0:	4fb00293          	li	t0,1275
    800001c4:	94a00b93          	li	s7,-1718
    800001c8:	00100793          	li	a5,1
    800001cc:	b2400393          	li	t2,-1244
    800001d0:	98900a93          	li	s5,-1655
    800001d4:	fff00213          	li	tp,-1
    800001d8:	03f79793          	slli	a5,a5,0x3f
    800001dc:	fff00613          	li	a2,-1
    800001e0:	02630d3b          	mulw	s10,t1,t1
    800001e4:	03f51513          	slli	a0,a0,0x3f
    800001e8:	01924233          	xor	tp,tp,s9
    800001ec:	fff00893          	li	a7,-1
    800001f0:	0043f4b3          	and	s1,t2,tp
    800001f4:	00001417          	auipc	s0,0x1
    800001f8:	fbd40413          	addi	s0,s0,-67 # 800011b1 <reg_x22_init+0x1>
    800001fc:	0172d9b3          	srl	s3,t0,s7
    80000200:	01946eb3          	or	t4,s0,s9
    80000204:	b4518693          	addi	a3,gp,-1211 # 80001a55 <_end+0x345>
    80000208:	d1918c13          	addi	s8,gp,-743 # 80001c29 <_end+0x519>
    8000020c:	75400b13          	li	s6,1876
    80000210:	79d4fe63          	bgeu	s1,t4,800009ac <crash_forward>
    80000214:	0073993b          	sllw	s2,t2,t2
    80000218:	016ad0bb          	srlw	ra,s5,s6
    8000021c:	00001197          	auipc	gp,0x1
    80000220:	5e318193          	addi	gp,gp,1507 # 800017ff <_end+0xef>
    80000224:	00f64633          	xor	a2,a2,a5
    80000228:	00100913          	li	s2,1
    8000022c:	00a8c8b3          	xor	a7,a7,a0
    80000230:	00001b17          	auipc	s6,0x1
    80000234:	3b7b0b13          	addi	s6,s6,951 # 800015e7 <test_memory+0x2e7>
    80000238:	98ec23a3          	sw	a4,-1657(s8)
    8000023c:	00001117          	auipc	sp,0x1
    80000240:	48910113          	addi	sp,sp,1161 # 800016c5 <test_memory+0x3c5>
    80000244:	01107f33          	and	t5,zero,a7
    80000248:	00001d17          	auipc	s10,0x1
    8000024c:	0bcd0d13          	addi	s10,s10,188 # 80001304 <test_memory+0x4>
    80000250:	0e9d4e03          	lbu	t3,233(s10)
    80000254:	f4b10aa3          	sb	a1,-171(sp)
    80000258:	00001217          	auipc	tp,0x1
    8000025c:	f1c20213          	addi	tp,tp,-228 # 80001174 <reg_x14_init+0x4>
    80000260:	46b46703          	lwu	a4,1131(s0)
    80000264:	b5b6b583          	ld	a1,-1189(a3)
    80000268:	93300493          	li	s1,-1741
    8000026c:	00af6a33          	or	s4,t5,a0
    80000270:	00100e13          	li	t3,1
    80000274:	03f91913          	slli	s2,s2,0x3f
    80000278:	fff00393          	li	t2,-1
    8000027c:	00001717          	auipc	a4,0x1
    80000280:	d1970713          	addi	a4,a4,-743 # 80000f95 <test_end+0x5d5>
    80000284:	00c07833          	and	a6,zero,a2
    80000288:	0123c3b3          	xor	t2,t2,s2
    8000028c:	33500f93          	li	t6,821
    80000290:	03fe1e13          	slli	t3,t3,0x3f
    80000294:	c3f198a3          	sh	t6,-975(gp) # 80001b41 <_end+0x431>
    80000298:	007970b3          	and	ra,s2,t2
    8000029c:	00f56db3          	or	s11,a0,a5
    800002a0:	7f100113          	li	sp,2033
    800002a4:	00216433          	or	s0,sp,sp
    800002a8:	0294beb3          	mulhu	t4,s1,s1
    800002ac:	72900313          	li	t1,1833
    800002b0:	472f8993          	addi	s3,t6,1138
    800002b4:	34520f23          	sb	t0,862(tp) # 35e <_start-0x7ffffca2>
    800002b8:	f4400a93          	li	s5,-188
    800002bc:	015ab2b3          	sltu	t0,s5,s5
    800002c0:	00637d33          	and	s10,t1,t1
    800002c4:	00000493          	li	s1,0
    800002c8:	00001317          	auipc	t1,0x1
    800002cc:	b7c30313          	addi	t1,t1,-1156 # 80000e44 <test_end+0x484>
    800002d0:	01b04533          	xor	a0,zero,s11
    800002d4:	eedb2c83          	lw	s9,-275(s6)
    800002d8:	00000413          	li	s0,0
    800002dc:	32900e93          	li	t4,809
    800002e0:	47600b13          	li	s6,1142
    800002e4:	410808b3          	sub	a7,a6,a6
    800002e8:	fff00593          	li	a1,-1
    800002ec:	bc300613          	li	a2,-1085
    800002f0:	c2c00a93          	li	s5,-980
    800002f4:	416b553b          	sraw	a0,s6,s6
    800002f8:	00100793          	li	a5,1
    800002fc:	012debb3          	or	s7,s11,s2
    80000300:	00001497          	auipc	s1,0x1
    80000304:	b1d48493          	addi	s1,s1,-1251 # 80000e1d <test_end+0x45d>
    80000308:	00001417          	auipc	s0,0x1
    8000030c:	4a640413          	addi	s0,s0,1190 # 800017ae <_end+0x9e>
    80000310:	009f9b3b          	sllw	s6,t6,s1
    80000314:	03f79793          	slli	a5,a5,0x3f
    80000318:	6d5721a3          	sw	s5,1731(a4)
    8000031c:	02ce8f33          	mul	t5,t4,a2
    80000320:	7794d883          	lhu	a7,1913(s1)
    80000324:	fff00a13          	li	s4,-1
    80000328:	681be263          	bltu	s7,ra,800009ac <crash_forward>
    8000032c:	00001217          	auipc	tp,0x1
    80000330:	ec420213          	addi	tp,tp,-316 # 800011f0 <reg_x30_init>
    80000334:	05400613          	li	a2,84
    80000338:	a2aa8813          	addi	a6,s5,-1494
    8000033c:	54e00493          	li	s1,1358
    80000340:	bf742323          	sw	s7,-1050(s0)
    80000344:	72c00b93          	li	s7,1836
    80000348:	24320c83          	lb	s9,579(tp) # 243 <_start-0x7ffffdbd>
    8000034c:	03bdfebb          	remuw	t4,s11,s11
    80000350:	01c5c5b3          	xor	a1,a1,t3
    80000354:	03761933          	mulh	s2,a2,s7
    80000358:	00b97c33          	and	s8,s2,a1
    8000035c:	00000913          	li	s2,0
    80000360:	01cc66b3          	or	a3,s8,t3
    80000364:	00fa4a33          	xor	s4,s4,a5
    80000368:	00000213          	li	tp,0
    8000036c:	d8dc0ee3          	beq	s8,a3,80000108 <crash_backward>
    80000370:	00001617          	auipc	a2,0x1
    80000374:	11e60613          	addi	a2,a2,286 # 8000148e <test_memory+0x18e>
    80000378:	94a00a93          	li	s5,-1718
    8000037c:	00001197          	auipc	gp,0x1
    80000380:	36d18193          	addi	gp,gp,877 # 800016e9 <test_memory+0x3e9>
    80000384:	d9f9c2e3          	blt	s3,t6,80000108 <crash_backward>
    80000388:	00001d17          	auipc	s10,0x1
    8000038c:	3e1d0d13          	addi	s10,s10,993 # 80001769 <_end+0x59>
    80000390:	54c35d83          	lhu	s11,1356(t1)
    80000394:	08b63123          	sd	a1,130(a2)
    80000398:	c2bd16a3          	sh	a1,-979(s10)
    8000039c:	00100e93          	li	t4,1
    800003a0:	5fb00313          	li	t1,1531
    800003a4:	014b72b3          	and	t0,s6,s4
    800003a8:	035aacb3          	mulhsu	s9,s5,s5
    800003ac:	d2818093          	addi	ra,gp,-728 # 80001c38 <_end+0x528>
    800003b0:	03fe9e93          	slli	t4,t4,0x3f
    800003b4:	af700993          	li	s3,-1289
    800003b8:	86100513          	li	a0,-1951
    800003bc:	c6b00d13          	li	s10,-917
    800003c0:	0094873b          	addw	a4,s1,s1
    800003c4:	02a50b3b          	mulw	s6,a0,a0
    800003c8:	f3318323          	sb	s3,-218(gp) # 80001e36 <_end+0x726>
    800003cc:	d2496ee3          	bltu	s2,tp,80000108 <crash_backward>
    800003d0:	013995bb          	sllw	a1,s3,s3
    800003d4:	ac609383          	lh	t2,-1338(ra)
    800003d8:	00f5e133          	or	sp,a1,a5
    800003dc:	1b500e13          	li	t3,437
    800003e0:	03c35fb3          	divu	t6,t1,t3
    800003e4:	fff00413          	li	s0,-1
    800003e8:	01d44433          	xor	s0,s0,t4
    800003ec:	008d7833          	and	a6,s10,s0
    800003f0:	00b59dbb          	sllw	s11,a1,a1
    800003f4:	01d86bb3          	or	s7,a6,t4
    800003f8:	00001617          	auipc	a2,0x1
    800003fc:	b4760613          	addi	a2,a2,-1209 # 80000f3f <test_end+0x57f>
    80000400:	d17804e3          	beq	a6,s7,80000108 <crash_backward>
    80000404:	11000693          	li	a3,272
    80000408:	0e800f13          	li	t5,232
    8000040c:	3e300713          	li	a4,995
    80000410:	00dd7c33          	and	s8,s10,a3
    80000414:	cd800293          	li	t0,-808
    80000418:	ad818393          	addi	t2,gp,-1320 # 800019e8 <_end+0x2d8>
    8000041c:	27d00c93          	li	s9,637
    80000420:	02a554bb          	divuw	s1,a0,a0
    80000424:	b8a39a83          	lh	s5,-1142(t2)
    80000428:	02e70833          	mul	a6,a4,a4
    8000042c:	01db1e33          	sll	t3,s6,t4
    80000430:	ec118a93          	addi	s5,gp,-319 # 80001dd1 <_end+0x6c1>
    80000434:	aeb00093          	li	ra,-1301
    80000438:	0012f433          	and	s0,t0,ra
    8000043c:	cb4fb593          	sltiu	a1,t6,-844
    80000440:	0339f133          	remu	sp,s3,s3
    80000444:	73d00313          	li	t1,1853
    80000448:	44800b13          	li	s6,1096
    8000044c:	3d660523          	sb	s6,970(a2)
    80000450:	016b1933          	sll	s2,s6,s6
    80000454:	03081a33          	mulh	s4,a6,a6
    80000458:	2c8f0893          	addi	a7,t5,712
    8000045c:	da000d13          	li	s10,-608
    80000460:	81aa8483          	lb	s1,-2022(s5)
    80000464:	039c9fb3          	mulh	t6,s9,s9
    80000468:	016b853b          	addw	a0,s7,s6
    8000046c:	42f25d93          	srai	s11,tp,0x2f
    80000470:	00100193          	li	gp,1
    80000474:	03ad6c3b          	remw	s8,s10,s10
    80000478:	03f19193          	slli	gp,gp,0x3f
    8000047c:	fff00b93          	li	s7,-1
    80000480:	003bcbb3          	xor	s7,s7,gp
    80000484:	01727eb3          	and	t4,tp,s7
    80000488:	00632233          	slt	tp,t1,t1
    8000048c:	003ee7b3          	or	a5,t4,gp
    80000490:	00000617          	auipc	a2,0x0
    80000494:	7fd60613          	addi	a2,a2,2045 # 80000c8d <test_end+0x2cd>
    80000498:	68762683          	lw	a3,1671(a2)
    8000049c:	027e33b3          	mulhu	t2,t3,t2
    800004a0:	ed000b13          	li	s6,-304
    800004a4:	40f95d93          	srai	s11,s2,0xf
    800004a8:	94618813          	addi	a6,gp,-1722 # 80001856 <_end+0x146>
    800004ac:	f93c4213          	xori	tp,s8,-109
    800004b0:	b6c85103          	lhu	sp,-1172(a6)
    800004b4:	c5d7dae3          	bge	a5,t4,80000108 <crash_backward>
    800004b8:	0282e2b3          	rem	t0,t0,s0
    800004bc:	00001d17          	auipc	s10,0x1
    800004c0:	2bad0d13          	addi	s10,s10,698 # 80001776 <_end+0x66>
    800004c4:	02464f33          	div	t5,a2,tp
    800004c8:	00001e97          	auipc	t4,0x1
    800004cc:	c6fe8e93          	addi	t4,t4,-913 # 80001137 <reg_x6_init+0x7>
    800004d0:	56d00c13          	li	s8,1389
    800004d4:	01ff86b3          	add	a3,t6,t6
    800004d8:	e8d00413          	li	s0,-371
    800004dc:	00841fbb          	sllw	t6,s0,s0
    800004e0:	038c24b3          	mulhsu	s1,s8,s8
    800004e4:	60600993          	li	s3,1542
    800004e8:	d2018e13          	addi	t3,gp,-736 # 80001c30 <_end+0x520>
    800004ec:	92de3823          	sd	a3,-1744(t3)
    800004f0:	00001897          	auipc	a7,0x1
    800004f4:	24a88893          	addi	a7,a7,586 # 8000173a <_end+0x2a>
    800004f8:	00001797          	auipc	a5,0x1
    800004fc:	b7378793          	addi	a5,a5,-1165 # 8000106b <fromhost+0x2b>
    80000500:	584eb4a3          	sd	tp,1417(t4)
    80000504:	df0d0503          	lb	a0,-528(s10)
    80000508:	fcd00613          	li	a2,-51
    8000050c:	a8200193          	li	gp,-1406
    80000510:	dea89e23          	sh	a0,-516(a7)
    80000514:	00001c97          	auipc	s9,0x1
    80000518:	c3ec8c93          	addi	s9,s9,-962 # 80001152 <reg_x10_init+0x2>
    8000051c:	5a578203          	lb	tp,1445(a5)
    80000520:	0294ddbb          	divuw	s11,s1,s1
    80000524:	013b3733          	sltu	a4,s6,s3
    80000528:	e5318b93          	addi	s7,gp,-429 # 80001d63 <_end+0x653>
    8000052c:	61b00413          	li	s0,1563
    80000530:	00100913          	li	s2,1
    80000534:	df218113          	addi	sp,gp,-526 # 80001d02 <_end+0x5f2>
    80000538:	00040c13          	mv	s8,s0
    8000053c:	86000e93          	li	t4,-1952
    80000540:	000c0513          	mv	a0,s8
    80000544:	0031e2b3          	or	t0,gp,gp
    80000548:	46ac1263          	bne	s8,a0,800009ac <crash_forward>
    8000054c:	00e45abb          	srlw	s5,s0,a4
    80000550:	be200e13          	li	t3,-1054
    80000554:	86360313          	addi	t1,a2,-1949
    80000558:	008446b3          	xor	a3,s0,s0
    8000055c:	03f91913          	slli	s2,s2,0x3f
    80000560:	4494c663          	blt	s1,s1,800009ac <crash_forward>
    80000564:	025d76b3          	remu	a3,s10,t0
    80000568:	817b8383          	lb	t2,-2025(s7)
    8000056c:	c0600813          	li	a6,-1018
    80000570:	f1a80893          	addi	a7,a6,-230
    80000574:	00001717          	auipc	a4,0x1
    80000578:	ea270713          	addi	a4,a4,-350 # 80001416 <test_memory+0x116>
    8000057c:	b86666e3          	bltu	a2,t1,80000108 <crash_backward>
    80000580:	bd818b13          	addi	s6,gp,-1064 # 80001ae8 <_end+0x3d8>
    80000584:	01b52fb3          	slt	t6,a0,s11
    80000588:	fff00593          	li	a1,-1
    8000058c:	000043b3          	xor	t2,zero,zero
    80000590:	bad18a93          	addi	s5,gp,-1107 # 80001abd <_end+0x3ad>
    80000594:	a4faa403          	lw	s0,-1457(s5)
    80000598:	03ef72b3          	remu	t0,t5,t5
    8000059c:	0125c5b3          	xor	a1,a1,s2
    800005a0:	018c64b3          	or	s1,s8,s8
    800005a4:	00b0fa33          	and	s4,ra,a1
    800005a8:	8a410b23          	sb	tp,-1866(sp)
    800005ac:	dd100c13          	li	s8,-559
    800005b0:	02c66533          	rem	a0,a2,a2
    800005b4:	248cbf23          	sd	s0,606(s9)
    800005b8:	00001997          	auipc	s3,0x1
    800005bc:	93698993          	addi	s3,s3,-1738 # 80000eee <test_end+0x52e>
    800005c0:	948b6d83          	lwu	s11,-1720(s6)
    800005c4:	03174783          	lbu	a5,49(a4)
    800005c8:	017b96b3          	sll	a3,s7,s7
    800005cc:	0123e0b3          	or	ra,t2,s2
    800005d0:	eb100413          	li	s0,-335
    800005d4:	00001f17          	auipc	t5,0x1
    800005d8:	d19f0f13          	addi	t5,t5,-743 # 800012ed <reg_x29_output+0x5>
    800005dc:	54a9a923          	sw	a0,1362(s3)
    800005e0:	32100213          	li	tp,801
    800005e4:	024c61bb          	remw	gp,s8,tp
    800005e8:	046f21a3          	sw	t1,67(t5)
    800005ec:	40845833          	sra	a6,s0,s0
    800005f0:	5ff00b93          	li	s7,1535
    800005f4:	a9918093          	addi	ra,gp,-1383 # 800019a9 <_end+0x299>
    800005f8:	03ffb4b3          	mulhu	s1,t6,t6
    800005fc:	00001217          	auipc	tp,0x1
    80000600:	aed20213          	addi	tp,tp,-1299 # 800010e9 <fromhost+0xa9>
    80000604:	cd800893          	li	a7,-808
    80000608:	00001117          	auipc	sp,0x1
    8000060c:	c6710113          	addi	sp,sp,-921 # 8000126f <reg_x13_output+0x7>
    80000610:	03cefd3b          	remuw	s10,t4,t3
    80000614:	ad600d93          	li	s11,-1322
    80000618:	018c03bb          	addw	t2,s8,s8
    8000061c:	ec188a93          	addi	s5,a7,-319
    80000620:	34611ca3          	sh	t1,857(sp)
    80000624:	dd418613          	addi	a2,gp,-556 # 80001ce4 <_end+0x5d4>
    80000628:	03a51813          	slli	a6,a0,0x3a
    8000062c:	2ef00693          	li	a3,751
    80000630:	01086eb3          	or	t4,a6,a6
    80000634:	00000c97          	auipc	s9,0x0
    80000638:	765c8c93          	addi	s9,s9,1893 # 80000d99 <test_end+0x3d9>
    8000063c:	00001497          	auipc	s1,0x1
    80000640:	17448493          	addi	s1,s1,372 # 800017b0 <_end+0xa0>
    80000644:	9bf18993          	addi	s3,gp,-1601 # 800018cf <_end+0x1bf>
    80000648:	00d6ea33          	or	s4,a3,a3
    8000064c:	87062183          	lw	gp,-1936(a2)
    80000650:	c2918f13          	addi	t5,gp,-983 # 80001b39 <_end+0x429>
    80000654:	00001597          	auipc	a1,0x1
    80000658:	baa58593          	addi	a1,a1,-1110 # 800011fe <reg_x31_init+0x6>
    8000065c:	54f22783          	lw	a5,1359(tp) # 54f <_start-0x7ffffab1>
    80000660:	00000713          	li	a4,0
    80000664:	037ba2b3          	mulhsu	t0,s7,s7
    80000668:	01ce5333          	srl	t1,t3,t3
    8000066c:	03b40fb3          	mul	t6,s0,s11
    80000670:	799c9b03          	lh	s6,1945(s9)
    80000674:	d72986a3          	sb	s2,-659(s3)
    80000678:	db24cd03          	lbu	s10,-590(s1)
    8000067c:	32200e13          	li	t3,802
    80000680:	9ef0a503          	lw	a0,-1553(ra)
    80000684:	18859f23          	sh	s0,414(a1)
    80000688:	6d83b213          	sltiu	tp,t2,1752
    8000068c:	00001617          	auipc	a2,0x1
    80000690:	a2360613          	addi	a2,a2,-1501 # 800010af <fromhost+0x6f>
    80000694:	05a00493          	li	s1,90
    80000698:	00001997          	auipc	s3,0x1
    8000069c:	9cb98993          	addi	s3,s3,-1589 # 80001063 <fromhost+0x23>
    800006a0:	00421a3b          	sllw	s4,tp,tp
    800006a4:	11900b93          	li	s7,281
    800006a8:	9fb00d13          	li	s10,-1541
    800006ac:	00000c13          	li	s8,0
    800006b0:	00001517          	auipc	a0,0x1
    800006b4:	d6850513          	addi	a0,a0,-664 # 80001418 <test_memory+0x118>
    800006b8:	000e0f93          	mv	t6,t3
    800006bc:	025ee83b          	remw	a6,t4,t0
    800006c0:	a4600293          	li	t0,-1466
    800006c4:	923f1ca3          	sh	gp,-1735(t5)
    800006c8:	03ce693b          	remw	s2,t3,t3
    800006cc:	a2001ee3          	bnez	zero,80000108 <crash_backward>
    800006d0:	035d3333          	mulhu	t1,s10,s5
    800006d4:	2dd619a3          	sh	t4,723(a2)
    800006d8:	2d876a63          	bltu	a4,s8,800009ac <crash_forward>
    800006dc:	7c948093          	addi	ra,s1,1993
    800006e0:	2c90c663          	blt	ra,s1,800009ac <crash_forward>
    800006e4:	0205e93b          	remw	s2,a1,zero
    800006e8:	a6918c93          	addi	s9,gp,-1431 # 80001979 <_end+0x269>
    800006ec:	bf3cc683          	lbu	a3,-1037(s9)
    800006f0:	417b88b3          	sub	a7,s7,s7
    800006f4:	c9400213          	li	tp,-876
    800006f8:	4ca00793          	li	a5,1226
    800006fc:	05856383          	lwu	t2,88(a0)
    80000700:	000f8193          	mv	gp,t6
    80000704:	413dda93          	srai	s5,s11,0x13
    80000708:	4f99ed83          	lwu	s11,1273(s3)
    8000070c:	2a001063          	bnez	zero,800009ac <crash_forward>
    80000710:	ac418c13          	addi	s8,gp,-1340 # 800019d4 <_end+0x2c4>
    80000714:	9f9c9ae3          	bne	s9,s9,80000108 <crash_backward>
    80000718:	00000b17          	auipc	s6,0x0
    8000071c:	577b0b13          	addi	s6,s6,1399 # 80000c8f <test_end+0x2cf>
    80000720:	02426333          	rem	t1,tp,tp
    80000724:	08100493          	li	s1,129
    80000728:	00001717          	auipc	a4,0x1
    8000072c:	f1170713          	addi	a4,a4,-239 # 80001639 <test_memory+0x339>
    80000730:	4094d633          	sra	a2,s1,s1
    80000734:	41ad0133          	sub	sp,s10,s10
    80000738:	a60c2083          	lw	ra,-1440(s8)
    8000073c:	02f2e5bb          	remw	a1,t0,a5
    80000740:	d6800e13          	li	t3,-664
    80000744:	45100a13          	li	s4,1105
    80000748:	03eef933          	remu	s2,t4,t5
    8000074c:	e4200213          	li	tp,-446
    80000750:	034e3f33          	mulhu	t5,t3,s4
    80000754:	dfe00d13          	li	s10,-514
    80000758:	01f3d31b          	srliw	t1,t2,0x1f
    8000075c:	51400613          	li	a2,1300
    80000760:	553ba893          	slti	a7,s7,1363
    80000764:	02badf93          	srli	t6,s5,0x2b
    80000768:	f8f00113          	li	sp,-113
    8000076c:	df770da3          	sb	s7,-517(a4)
    80000770:	00001597          	auipc	a1,0x1
    80000774:	c1258593          	addi	a1,a1,-1006 # 80001382 <test_memory+0x82>
    80000778:	00000517          	auipc	a0,0x0
    8000077c:	72a50513          	addi	a0,a0,1834 # 80000ea2 <test_end+0x4e2>
    80000780:	a0e18413          	addi	s0,gp,-1522 # 8000191e <_end+0x20e>
    80000784:	68d50623          	sb	a3,1676(a0)
    80000788:	685b0e83          	lb	t4,1669(s6)
    8000078c:	9fb41c23          	sh	s11,-1544(s0)
    80000790:	00001817          	auipc	a6,0x1
    80000794:	a1380813          	addi	a6,a6,-1517 # 800011a3 <reg_x20_init+0x3>
    80000798:	20001a63          	bnez	zero,800009ac <crash_forward>
    8000079c:	00001297          	auipc	t0,0x1
    800007a0:	f2428293          	addi	t0,t0,-220 # 800016c0 <test_memory+0x3c0>
    800007a4:	018c5cbb          	srlw	s9,s8,s8
    800007a8:	022223b3          	mulhsu	t2,tp,sp
    800007ac:	f142a483          	lw	s1,-236(t0)
    800007b0:	5c800f93          	li	t6,1480
    800007b4:	00000097          	auipc	ra,0x0
    800007b8:	72308093          	addi	ra,ra,1827 # 80000ed7 <test_end+0x517>
    800007bc:	46d08f03          	lb	t5,1133(ra)
    800007c0:	18c00913          	li	s2,396
    800007c4:	1a600413          	li	s0,422
    800007c8:	61796a13          	ori	s4,s2,1559
    800007cc:	a9018513          	addi	a0,gp,-1392 # 800019a0 <_end+0x290>
    800007d0:	c4600c13          	li	s8,-954
    800007d4:	00001f17          	auipc	t5,0x1
    800007d8:	95ef0f13          	addi	t5,t5,-1698 # 80001132 <reg_x6_init+0x2>
    800007dc:	013d50bb          	srlw	ra,s10,s3
    800007e0:	037bb2b3          	mulhu	t0,s7,s7
    800007e4:	b4318c93          	addi	s9,gp,-1213 # 80001a53 <_end+0x343>
    800007e8:	97453c23          	sd	s4,-1672(a0)
    800007ec:	00d3abb3          	slt	s7,t2,a3
    800007f0:	00100a13          	li	s4,1
    800007f4:	bb618293          	addi	t0,gp,-1098 # 80001ac6 <_end+0x3b6>
    800007f8:	03296e33          	rem	t3,s2,s2
    800007fc:	02847733          	remu	a4,s0,s0
    80000800:	42ef3203          	ld	tp,1070(t5)
    80000804:	038ffeb3          	remu	t4,t6,s8
    80000808:	9972b523          	sd	s7,-1654(t0)
    8000080c:	00070093          	mv	ra,a4
    80000810:	00000b17          	auipc	s6,0x0
    80000814:	714b0b13          	addi	s6,s6,1812 # 80000f24 <test_end+0x564>
    80000818:	00001e17          	auipc	t3,0x1
    8000081c:	cd6e0e13          	addi	t3,t3,-810 # 800014ee <test_memory+0x1ee>
    80000820:	02e8793b          	remuw	s2,a6,a4
    80000824:	02467db3          	remu	s11,a2,tp
    80000828:	aa7c8523          	sb	t2,-1366(s9)
    8000082c:	34300c13          	li	s8,835
    80000830:	03fa1a13          	slli	s4,s4,0x3f
    80000834:	92400f93          	li	t6,-1756
    80000838:	f02e2703          	lw	a4,-254(t3)
    8000083c:	fff00113          	li	sp,-1
    80000840:	d8100e93          	li	t4,-639
    80000844:	700b1483          	lh	s1,1792(s6)
    80000848:	00008893          	mv	a7,ra
    8000084c:	00c63ab3          	sltu	s5,a2,a2
    80000850:	f77e8413          	addi	s0,t4,-137
    80000854:	01414133          	xor	sp,sp,s4
    80000858:	a7c18293          	addi	t0,gp,-1412 # 8000198c <_end+0x27c>
    8000085c:	32c815a3          	sh	a2,811(a6)
    80000860:	00297333          	and	t1,s2,sp
    80000864:	57200793          	li	a5,1394
    80000868:	018c0f3b          	addw	t5,s8,s8
    8000086c:	d5f28a23          	sb	t6,-684(t0)
    80000870:	4049d19b          	sraiw	gp,s3,0x4
    80000874:	00100a93          	li	s5,1
    80000878:	01ffd533          	srl	a0,t6,t6
    8000087c:	15100613          	li	a2,337
    80000880:	5fe60213          	addi	tp,a2,1534
    80000884:	02fd19b3          	mulh	s3,s10,a5
    80000888:	00000c97          	auipc	s9,0x0
    8000088c:	517c8c93          	addi	s9,s9,1303 # 80000d9f <test_end+0x3df>
    80000890:	14a5a683          	lw	a3,330(a1)
    80000894:	03fa9a93          	slli	s5,s5,0x3f
    80000898:	00100d93          	li	s11,1
    8000089c:	864606e3          	beq	a2,tp,80000108 <crash_backward>
    800008a0:	03fd9d93          	slli	s11,s11,0x3f
    800008a4:	fff00713          	li	a4,-1
    800008a8:	01574733          	xor	a4,a4,s5
    800008ac:	99818c13          	addi	s8,gp,-1640 # 800018a8 <_end+0x198>
    800008b0:	014b63b3          	or	t2,s6,s4
    800008b4:	00000d13          	li	s10,0
    800008b8:	12800613          	li	a2,296
    800008bc:	00e2f2b3          	and	t0,t0,a4
    800008c0:	760cb4a3          	sd	zero,1897(s9)
    800008c4:	00001e97          	auipc	t4,0x1
    800008c8:	a71e8e93          	addi	t4,t4,-1423 # 80001335 <test_memory+0x35>
    800008cc:	82214ee3          	blt	sp,sp,80000108 <crash_backward>
    800008d0:	db4c2a23          	sw	s4,-588(s8)
    800008d4:	fff00b93          	li	s7,-1
    800008d8:	00c676b3          	and	a3,a2,a2
    800008dc:	00001b17          	auipc	s6,0x1
    800008e0:	bbfb0b13          	addi	s6,s6,-1089 # 8000149b <test_memory+0x19b>
    800008e4:	015261b3          	or	gp,tp,s5
    800008e8:	0abeb203          	ld	tp,171(t4)
    800008ec:	1bdb3483          	ld	s1,445(s6)
    800008f0:	00000817          	auipc	a6,0x0
    800008f4:	38e80813          	addi	a6,a6,910 # 80000c7e <test_end+0x2be>
    800008f8:	01bbcbb3          	xor	s7,s7,s11
    800008fc:	00000f93          	li	t6,0
    80000900:	0bfd4663          	blt	s10,t6,800009ac <crash_forward>
    80000904:	017b7e33          	and	t3,s6,s7
    80000908:	01be6933          	or	s2,t3,s11
    8000090c:	0bc95063          	bge	s2,t3,800009ac <crash_forward>
    80000910:	0094df3b          	srlw	t5,s1,s1
    80000914:	00001797          	auipc	a5,0x1
    80000918:	d0778793          	addi	a5,a5,-761 # 8000161b <test_memory+0x31b>
    8000091c:	74a86983          	lwu	s3,1866(a6)
    80000920:	dbb7b6a3          	sd	s11,-595(a5)
    80000924:	0040006f          	j	80000928 <reg_dump>

0000000080000928 <reg_dump>:
    80000928:	00001097          	auipc	ra,0x1
    8000092c:	dd808093          	addi	ra,ra,-552 # 80001700 <loop_count>
    80000930:	0000a103          	lw	sp,0(ra)
    80000934:	fff10193          	addi	gp,sp,-1
    80000938:	0030a023          	sw	gp,0(ra)
    8000093c:	860116e3          	bnez	sp,800001a8 <pseg_0>
    80000940:	00001097          	auipc	ra,0x1
    80000944:	8c008093          	addi	ra,ra,-1856 # 80001200 <begin_signature>
    80000948:	0000b023          	sd	zero,0(ra)
    8000094c:	0020b823          	sd	sp,16(ra)
    80000950:	0030bc23          	sd	gp,24(ra)
    80000954:	0240b023          	sd	tp,32(ra)
    80000958:	0250b423          	sd	t0,40(ra)
    8000095c:	0260b823          	sd	t1,48(ra)
    80000960:	0270bc23          	sd	t2,56(ra)
    80000964:	0480b023          	sd	s0,64(ra)
    80000968:	0490b423          	sd	s1,72(ra)
    8000096c:	04a0b823          	sd	a0,80(ra)
    80000970:	06c0b023          	sd	a2,96(ra)
    80000974:	06d0b423          	sd	a3,104(ra)
    80000978:	06e0b823          	sd	a4,112(ra)
    8000097c:	0910b423          	sd	a7,136(ra)
    80000980:	0920b823          	sd	s2,144(ra)
    80000984:	0930bc23          	sd	s3,152(ra)
    80000988:	0b40b023          	sd	s4,160(ra)
    8000098c:	0b50b423          	sd	s5,168(ra)
    80000990:	0b70bc23          	sd	s7,184(ra)
    80000994:	0da0b823          	sd	s10,208(ra)
    80000998:	0db0bc23          	sd	s11,216(ra)
    8000099c:	0fc0b023          	sd	t3,224(ra)
    800009a0:	0fe0b823          	sd	t5,240(ra)
    800009a4:	0ff0bc23          	sd	t6,248(ra)
    800009a8:	0180006f          	j	800009c0 <test_end>

00000000800009ac <crash_forward>:
    800009ac:	0ff0000f          	fence
    800009b0:	00018063          	beqz	gp,800009b0 <crash_forward+0x4>
    800009b4:	00119193          	slli	gp,gp,0x1
    800009b8:	0011e193          	ori	gp,gp,1
    800009bc:	00000073          	ecall

00000000800009c0 <test_end>:
    800009c0:	0ff0000f          	fence
    800009c4:	00100193          	li	gp,1
    800009c8:	00000073          	ecall
    800009cc:	c0001073          	unimp
	...

Disassembly of section .tohost:

0000000080001000 <tohost>:
	...

0000000080001040 <fromhost>:
	...
