
test.elf:     file format elf64-littleriscv


Disassembly of section .text.init:

0000000080000000 <_start>:
    80000000:	0580006f          	j	80000058 <reset_vector>

0000000080000004 <trap_vector>:
    80000004:	34202f73          	csrr	t5,mcause
    80000008:	00800f93          	li	t6,8
    8000000c:	05ff0063          	beq	t5,t6,8000004c <write_tohost>
    80000010:	00900f93          	li	t6,9
    80000014:	03ff0c63          	beq	t5,t6,8000004c <write_tohost>
    80000018:	00b00f93          	li	t6,11
    8000001c:	03ff0863          	beq	t5,t6,8000004c <write_tohost>
    80000020:	00000f13          	li	t5,0
    80000024:	000f0463          	beqz	t5,8000002c <trap_vector+0x28>
    80000028:	000f0067          	jr	t5
    8000002c:	34202f73          	csrr	t5,mcause
    80000030:	000f5463          	bgez	t5,80000038 <handle_exception>
    80000034:	0140006f          	j	80000048 <other_exception>

0000000080000038 <handle_exception>:
    80000038:	34102e73          	csrr	t3,mepc
    8000003c:	004e0e13          	addi	t3,t3,4
    80000040:	341e1073          	csrw	mepc,t3
    80000044:	30200073          	mret

0000000080000048 <other_exception>:
    80000048:	5391e193          	ori	gp,gp,1337

000000008000004c <write_tohost>:
    8000004c:	00001f17          	auipc	t5,0x1
    80000050:	fa3f2a23          	sw	gp,-76(t5) # 80001000 <tohost>
    80000054:	ff9ff06f          	j	8000004c <write_tohost>

0000000080000058 <reset_vector>:
    80000058:	f1402573          	csrr	a0,mhartid
    8000005c:	00051063          	bnez	a0,8000005c <reset_vector+0x4>
    80000060:	00000297          	auipc	t0,0x0
    80000064:	01028293          	addi	t0,t0,16 # 80000070 <reset_vector+0x18>
    80000068:	30529073          	csrw	mtvec,t0
    8000006c:	18005073          	csrwi	satp,0
    80000070:	00000297          	auipc	t0,0x0
    80000074:	01c28293          	addi	t0,t0,28 # 8000008c <reset_vector+0x34>
    80000078:	30529073          	csrw	mtvec,t0
    8000007c:	fff00293          	li	t0,-1
    80000080:	3b029073          	csrw	pmpaddr0,t0
    80000084:	01f00293          	li	t0,31
    80000088:	3a029073          	csrw	pmpcfg0,t0
    8000008c:	00000297          	auipc	t0,0x0
    80000090:	01828293          	addi	t0,t0,24 # 800000a4 <reset_vector+0x4c>
    80000094:	30529073          	csrw	mtvec,t0
    80000098:	30205073          	csrwi	medeleg,0
    8000009c:	30305073          	csrwi	mideleg,0
    800000a0:	30405073          	csrwi	mie,0
    800000a4:	00000193          	li	gp,0
    800000a8:	00000297          	auipc	t0,0x0
    800000ac:	f5c28293          	addi	t0,t0,-164 # 80000004 <trap_vector>
    800000b0:	30529073          	csrw	mtvec,t0
    800000b4:	00100513          	li	a0,1
    800000b8:	01f51513          	slli	a0,a0,0x1f
    800000bc:	00055863          	bgez	a0,800000cc <reset_vector+0x74>
    800000c0:	0ff0000f          	fence
    800000c4:	00100193          	li	gp,1
    800000c8:	00000073          	ecall
    800000cc:	00000293          	li	t0,0
    800000d0:	00028e63          	beqz	t0,800000ec <reset_vector+0x94>
    800000d4:	10529073          	csrw	stvec,t0
    800000d8:	0000b2b7          	lui	t0,0xb
    800000dc:	1092829b          	addiw	t0,t0,265
    800000e0:	30229073          	csrw	medeleg,t0
    800000e4:	30202373          	csrr	t1,medeleg
    800000e8:	f66290e3          	bne	t0,t1,80000048 <other_exception>
    800000ec:	30005073          	csrwi	mstatus,0
    800000f0:	00000297          	auipc	t0,0x0
    800000f4:	01428293          	addi	t0,t0,20 # 80000104 <reset_vector+0xac>
    800000f8:	34129073          	csrw	mepc,t0
    800000fc:	f1402573          	csrr	a0,mhartid
    80000100:	30200073          	mret
    80000104:	0180006f          	j	8000011c <test_start>

0000000080000108 <crash_backward>:
    80000108:	0ff0000f          	fence
    8000010c:	00018063          	beqz	gp,8000010c <crash_backward+0x4>
    80000110:	00119193          	slli	gp,gp,0x1
    80000114:	0011e193          	ori	gp,gp,1
    80000118:	00000073          	ecall

000000008000011c <test_start>:
    8000011c:	00001f97          	auipc	t6,0x1
    80000120:	fe4f8f93          	addi	t6,t6,-28 # 80001100 <hidden_data>
    80000124:	000fb003          	ld	zero,0(t6)
    80000128:	008fb083          	ld	ra,8(t6)
    8000012c:	010fb103          	ld	sp,16(t6)
    80000130:	018fb183          	ld	gp,24(t6)
    80000134:	020fb203          	ld	tp,32(t6)
    80000138:	028fb283          	ld	t0,40(t6)
    8000013c:	030fb303          	ld	t1,48(t6)
    80000140:	038fb383          	ld	t2,56(t6)
    80000144:	040fb403          	ld	s0,64(t6)
    80000148:	048fb483          	ld	s1,72(t6)
    8000014c:	050fb503          	ld	a0,80(t6)
    80000150:	058fb583          	ld	a1,88(t6)
    80000154:	060fb603          	ld	a2,96(t6)
    80000158:	068fb683          	ld	a3,104(t6)
    8000015c:	070fb703          	ld	a4,112(t6)
    80000160:	078fb783          	ld	a5,120(t6)
    80000164:	080fb803          	ld	a6,128(t6)
    80000168:	088fb883          	ld	a7,136(t6)
    8000016c:	090fb903          	ld	s2,144(t6)
    80000170:	098fb983          	ld	s3,152(t6)
    80000174:	0a0fba03          	ld	s4,160(t6)
    80000178:	0a8fba83          	ld	s5,168(t6)
    8000017c:	0b0fbb03          	ld	s6,176(t6)
    80000180:	0b8fbb83          	ld	s7,184(t6)
    80000184:	0c0fbc03          	ld	s8,192(t6)
    80000188:	0c8fbc83          	ld	s9,200(t6)
    8000018c:	0d0fbd03          	ld	s10,208(t6)
    80000190:	0d8fbd83          	ld	s11,216(t6)
    80000194:	0e0fbe03          	ld	t3,224(t6)
    80000198:	0e8fbe83          	ld	t4,232(t6)
    8000019c:	0f0fbf03          	ld	t5,240(t6)
    800001a0:	0f8fbf83          	ld	t6,248(t6)
    800001a4:	0040006f          	j	800001a8 <pseg_0>

00000000800001a8 <pseg_0>:
    800001a8:	0139913b          	sllw	sp,s3,s3
    800001ac:	bfa18713          	addi	a4,gp,-1030 # 80001b0a <_end+0x3fa>
    800001b0:	48f23493          	sltiu	s1,tp,1167
    800001b4:	00001f97          	auipc	t6,0x1
    800001b8:	f56f8f93          	addi	t6,t6,-170 # 8000110a <reg_x1_init+0x2>
    800001bc:	00e7013b          	addw	sp,a4,a4
    800001c0:	71600613          	li	a2,1814
    800001c4:	0b960f13          	addi	t5,a2,185
    800001c8:	4f200a13          	li	s4,1266
    800001cc:	dc400993          	li	s3,-572
    800001d0:	00be2c33          	slt	s8,t3,a1
    800001d4:	7be67663          	bgeu	a2,t5,80000980 <crash_forward>
    800001d8:	01ad51bb          	srlw	gp,s10,s10
    800001dc:	00001d97          	auipc	s11,0x1
    800001e0:	1d9d8d93          	addi	s11,s11,473 # 800013b5 <test_memory+0xb5>
    800001e4:	259dd583          	lhu	a1,601(s11)
    800001e8:	2f7fa323          	sw	s7,742(t6)
    800001ec:	8d500d13          	li	s10,-1835
    800001f0:	6ba00113          	li	sp,1722
    800001f4:	00001297          	auipc	t0,0x1
    800001f8:	fdf28293          	addi	t0,t0,-33 # 800011d3 <reg_x26_init+0x3>
    800001fc:	7c000413          	li	s0,1984
    80000200:	3eb2d683          	lhu	a3,1003(t0)
    80000204:	af174883          	lbu	a7,-1295(a4)
    80000208:	5f900a93          	li	s5,1529
    8000020c:	973d0313          	addi	t1,s10,-1677
    80000210:	00001517          	auipc	a0,0x1
    80000214:	2e250513          	addi	a0,a0,738 # 800014f2 <test_memory+0x1f2>
    80000218:	00001c97          	auipc	s9,0x1
    8000021c:	18cc8c93          	addi	s9,s9,396 # 800013a4 <test_memory+0xa4>
    80000220:	03552d23          	sw	s5,58(a0)
    80000224:	6a200393          	li	t2,1698
    80000228:	746d0c63          	beq	s10,t1,80000980 <crash_forward>
    8000022c:	f4c18793          	addi	a5,gp,-180 # 80001e5c <_end+0x74c>
    80000230:	0339eeb3          	rem	t4,s3,s3
    80000234:	0b838093          	addi	ra,t2,184
    80000238:	02b3f1b3          	remu	gp,t2,a1
    8000023c:	02f7c73b          	divw	a4,a5,a5
    80000240:	33700c13          	li	s8,823
    80000244:	95b18893          	addi	a7,gp,-1701 # 8000186b <_end+0x15b>
    80000248:	01d2edb3          	or	s11,t0,t4
    8000024c:	01543933          	sltu	s2,s0,s5
    80000250:	40bc51b3          	sra	gp,s8,a1
    80000254:	00001517          	auipc	a0,0x1
    80000258:	bc350513          	addi	a0,a0,-1085 # 80000e17 <test_end+0x483>
    8000025c:	35300213          	li	tp,851
    80000260:	00001f97          	auipc	t6,0x1
    80000264:	1f1f8f93          	addi	t6,t6,497 # 80001451 <test_memory+0x151>
    80000268:	b4f8cf03          	lbu	t5,-1201(a7)
    8000026c:	02f72433          	mulhsu	s0,a4,a5
    80000270:	12400293          	li	t0,292
    80000274:	08228e93          	addi	t4,t0,130
    80000278:	51800f13          	li	t5,1304
    8000027c:	00001a97          	auipc	s5,0x1
    80000280:	b57a8a93          	addi	s5,s5,-1193 # 80000dd3 <test_end+0x43f>
    80000284:	129ca423          	sw	s1,296(s9)
    80000288:	f5318693          	addi	a3,gp,-173 # 80001e63 <_end+0x753>
    8000028c:	0210c63b          	divw	a2,ra,ra
    80000290:	418154b3          	sra	s1,sp,s8
    80000294:	00008b13          	mv	s6,ra
    80000298:	00001317          	auipc	t1,0x1
    8000029c:	53d30313          	addi	t1,t1,1341 # 800017d5 <_end+0xc5>
    800002a0:	414d5d3b          	sraw	s10,s10,s4
    800002a4:	000b0e13          	mv	t3,s6
    800002a8:	bab38113          	addi	sp,t2,-1109
    800002ac:	1d8f8c23          	sb	s8,472(t6)
    800002b0:	404a0bb3          	sub	s7,s4,tp
    800002b4:	00001997          	auipc	s3,0x1
    800002b8:	d7f98993          	addi	s3,s3,-641 # 80001033 <tohost+0x33>
    800002bc:	5d69b6a3          	sd	s6,1485(s3)
    800002c0:	00088d13          	mv	s10,a7
    800002c4:	36b00d93          	li	s11,875
    800002c8:	01bdd933          	srl	s2,s11,s11
    800002cc:	84e7d803          	lhu	a6,-1970(a5)
    800002d0:	b5c33da3          	sd	t3,-1189(t1)
    800002d4:	04a00993          	li	s3,74
    800002d8:	8406bea3          	sd	zero,-1955(a3)
    800002dc:	00001197          	auipc	gp,0x1
    800002e0:	dae18193          	addi	gp,gp,-594 # 8000108a <fromhost+0x4a>
    800002e4:	00001d97          	auipc	s11,0x1
    800002e8:	46dd8d93          	addi	s11,s11,1133 # 80001751 <_end+0x41>
    800002ec:	013cd233          	srl	tp,s9,s3
    800002f0:	27900b13          	li	s6,633
    800002f4:	95100113          	li	sp,-1711
    800002f8:	20400613          	li	a2,516
    800002fc:	000d0f93          	mv	t6,s10
    80000300:	685ec063          	blt	t4,t0,80000980 <crash_forward>
    80000304:	4b000e13          	li	t3,1200
    80000308:	40c604b3          	sub	s1,a2,a2
    8000030c:	2b819a23          	sh	s8,692(gp) # 800021c4 <__global_pointer$+0x2b4>
    80000310:	5f154583          	lbu	a1,1521(a0)
    80000314:	00001c97          	auipc	s9,0x1
    80000318:	237c8c93          	addi	s9,s9,567 # 8000154b <test_memory+0x24b>
    8000031c:	03cb36b3          	mulhu	a3,s6,t3
    80000320:	4ec00b93          	li	s7,1260
    80000324:	071cec03          	lwu	s8,113(s9)
    80000328:	fa400413          	li	s0,-92
    8000032c:	01716a33          	or	s4,sp,s7
    80000330:	3cd00593          	li	a1,973
    80000334:	028f58bb          	divuw	a7,t5,s0
    80000338:	d2418b13          	addi	s6,gp,-732 # 80001c34 <_end+0x524>
    8000033c:	6bf98793          	addi	a5,s3,1727
    80000340:	45800493          	li	s1,1112
    80000344:	404a5d13          	srai	s10,s4,0x4
    80000348:	99b00513          	li	a0,-1637
    8000034c:	97318313          	addi	t1,gp,-1677 # 80001883 <_end+0x173>
    80000350:	02c66f3b          	remw	t5,a2,a2
    80000354:	00a58e33          	add	t3,a1,a0
    80000358:	00100113          	li	sp,1
    8000035c:	014a16b3          	sll	a3,s4,s4
    80000360:	6ac00393          	li	t2,1708
    80000364:	cae18813          	addi	a6,gp,-850 # 80001bbe <_end+0x4ae>
    80000368:	f01dd903          	lhu	s2,-255(s11)
    8000036c:	aa232ca3          	sw	sp,-1351(t1)
    80000370:	a9d83923          	sd	t4,-1390(a6)
    80000374:	03f11113          	slli	sp,sp,0x3f
    80000378:	8bfb4a03          	lbu	s4,-1857(s6)
    8000037c:	00001d97          	auipc	s11,0x1
    80000380:	10dd8d93          	addi	s11,s11,269 # 80001489 <test_memory+0x189>
    80000384:	02e767bb          	remw	a5,a4,a4
    80000388:	a8318f13          	addi	t5,gp,-1405 # 80001993 <_end+0x283>
    8000038c:	a4ff0303          	lb	t1,-1457(t5)
    80000390:	87300c93          	li	s9,-1933
    80000394:	00001697          	auipc	a3,0x1
    80000398:	03768693          	addi	a3,a3,55 # 800013cb <test_memory+0xcb>
    8000039c:	91100513          	li	a0,-1775
    800003a0:	33b38213          	addi	tp,t2,827
    800003a4:	16fd97a3          	sh	a5,367(s11)
    800003a8:	00100913          	li	s2,1
    800003ac:	d0c18893          	addi	a7,gp,-756 # 80001c1c <_end+0x50c>
    800003b0:	00001617          	auipc	a2,0x1
    800003b4:	ae360613          	addi	a2,a2,-1309 # 80000e93 <test_end+0x4ff>
    800003b8:	00100f13          	li	t5,1
    800003bc:	fff00b93          	li	s7,-1
    800003c0:	6b460fa3          	sb	s4,1727(a2)
    800003c4:	2bd6b6a3          	sd	t4,685(a3)
    800003c8:	a388ae23          	sw	s8,-1476(a7)
    800003cc:	cb300f93          	li	t6,-845
    800003d0:	019c843b          	addw	s0,s9,s9
    800003d4:	a5900293          	li	t0,-1447
    800003d8:	02d47a3b          	remuw	s4,s0,a3
    800003dc:	569a9703          	lh	a4,1385(s5)
    800003e0:	41f50d33          	sub	s10,a0,t6
    800003e4:	d24382e3          	beq	t2,tp,80000108 <crash_backward>
    800003e8:	0054feb3          	and	t4,s1,t0
    800003ec:	00000e17          	auipc	t3,0x0
    800003f0:	7cfe0e13          	addi	t3,t3,1999 # 80000bbb <test_end+0x227>
    800003f4:	03f91913          	slli	s2,s2,0x3f
    800003f8:	fff00813          	li	a6,-1
    800003fc:	75900393          	li	t2,1881
    80000400:	de400493          	li	s1,-540
    80000404:	01284833          	xor	a6,a6,s2
    80000408:	02241193          	slli	gp,s0,0x22
    8000040c:	00001617          	auipc	a2,0x1
    80000410:	bdd60613          	addi	a2,a2,-1059 # 80000fe9 <test_end+0x655>
    80000414:	00100c93          	li	s9,1
    80000418:	03ff1f13          	slli	t5,t5,0x3f
    8000041c:	0200573b          	divuw	a4,zero,zero
    80000420:	7bfe2ca3          	sw	t6,1977(t3)
    80000424:	0273aab3          	mulhsu	s5,t2,t2
    80000428:	aa392213          	slti	tp,s2,-1373
    8000042c:	0107f9b3          	and	s3,a5,a6
    80000430:	012ee5b3          	or	a1,t4,s2
    80000434:	015f5e9b          	srliw	t4,t5,0x15
    80000438:	fb300293          	li	t0,-77
    8000043c:	f8500193          	li	gp,-123
    80000440:	d1d18393          	addi	t2,gp,-739 # 80001c2d <_end+0x51d>
    80000444:	03ad7a33          	remu	s4,s10,s10
    80000448:	fff00d93          	li	s11,-1
    8000044c:	62f62683          	lw	a3,1583(a2)
    80000450:	13f9ed37          	lui	s10,0x13f9e
    80000454:	70f00513          	li	a0,1807
    80000458:	01edcdb3          	xor	s11,s11,t5
    8000045c:	00a4cfb3          	xor	t6,s1,a0
    80000460:	01b0fb33          	and	s6,ra,s11
    80000464:	00001717          	auipc	a4,0x1
    80000468:	d3070713          	addi	a4,a4,-720 # 80001194 <reg_x18_init+0x4>
    8000046c:	01eb67b3          	or	a5,s6,t5
    80000470:	c8fb4ce3          	blt	s6,a5,80000108 <crash_backward>
    80000474:	002bcbb3          	xor	s7,s7,sp
    80000478:	4032de33          	sra	t3,t0,gp
    8000047c:	03fc9c93          	slli	s9,s9,0x3f
    80000480:	fff00413          	li	s0,-1
    80000484:	01944433          	xor	s0,s0,s9
    80000488:	00001917          	auipc	s2,0x1
    8000048c:	f7090913          	addi	s2,s2,-144 # 800013f8 <test_memory+0xf8>
    80000490:	00001b17          	auipc	s6,0x1
    80000494:	a30b0b13          	addi	s6,s6,-1488 # 80000ec0 <test_end+0x52c>
    80000498:	038c5833          	divu	a6,s8,s8
    8000049c:	48872023          	sw	s0,1152(a4)
    800004a0:	1f800e93          	li	t4,504
    800004a4:	fa900693          	li	a3,-87
    800004a8:	00001d97          	auipc	s11,0x1
    800004ac:	305d8d93          	addi	s11,s11,773 # 800017ad <_end+0x9d>
    800004b0:	01737c33          	and	s8,t1,s7
    800004b4:	765b1723          	sh	t0,1902(s6)
    800004b8:	9e33da83          	lhu	s5,-1565(t2)
    800004bc:	dc700e13          	li	t3,-569
    800004c0:	019871b3          	and	gp,a6,s9
    800004c4:	008c78b3          	and	a7,s8,s0
    800004c8:	012ef733          	and	a4,t4,s2
    800004cc:	df3daba3          	sw	s3,-521(s11)
    800004d0:	00001817          	auipc	a6,0x1
    800004d4:	16380813          	addi	a6,a6,355 # 80001633 <test_memory+0x333>
    800004d8:	4af7c463          	blt	a5,a5,80000980 <crash_forward>
    800004dc:	1ad94503          	lbu	a0,429(s2)
    800004e0:	7c0ccf13          	xori	t5,s9,1984
    800004e4:	dbb00a93          	li	s5,-581
    800004e8:	01def633          	and	a2,t4,t4
    800004ec:	fdf82aa3          	sw	t6,-43(a6)
    800004f0:	0296ed33          	rem	s10,a3,s1
    800004f4:	019fe333          	or	t1,t6,s9
    800004f8:	9b300493          	li	s1,-1613
    800004fc:	d2d00f93          	li	t6,-723
    80000500:	02e77db3          	remu	s11,a4,a4
    80000504:	2f000393          	li	t2,752
    80000508:	4d800993          	li	s3,1240
    8000050c:	007ab1b3          	sltu	gp,s5,t2
    80000510:	03fe02bb          	mulw	t0,t3,t6
    80000514:	4136d7b3          	sra	a5,a3,s3
    80000518:	0094d23b          	srlw	tp,s1,s1
    8000051c:	6b100593          	li	a1,1713
    80000520:	00100d93          	li	s11,1
    80000524:	002c60b3          	or	ra,s8,sp
    80000528:	00001297          	auipc	t0,0x1
    8000052c:	18828293          	addi	t0,t0,392 # 800016b0 <test_memory+0x3b0>
    80000530:	94100e13          	li	t3,-1727
    80000534:	e34e0d13          	addi	s10,t3,-460
    80000538:	db828aa3          	sb	s8,-587(t0)
    8000053c:	009ef4b3          	and	s1,t4,s1
    80000540:	028f3eb3          	mulhu	t4,t5,s0
    80000544:	0073a1b3          	slt	gp,t2,t2
    80000548:	bd1350e3          	bge	t1,a7,80000108 <crash_backward>
    8000054c:	03fd9d93          	slli	s11,s11,0x3f
    80000550:	42a54863          	blt	a0,a0,80000980 <crash_forward>
    80000554:	00018b13          	mv	s6,gp
    80000558:	3f100813          	li	a6,1009
    8000055c:	43ae6263          	bltu	t3,s10,80000980 <crash_forward>
    80000560:	4380d063          	bge	ra,s8,80000980 <crash_forward>
    80000564:	00001c97          	auipc	s9,0x1
    80000568:	083c8c93          	addi	s9,s9,131 # 800015e7 <test_memory+0x2e7>
    8000056c:	000b0713          	mv	a4,s6
    80000570:	02b58a33          	mul	s4,a1,a1
    80000574:	00000617          	auipc	a2,0x0
    80000578:	6ef60613          	addi	a2,a2,1775 # 80000c63 <test_end+0x2cf>
    8000057c:	bc418913          	addi	s2,gp,-1084 # 80001ad4 <_end+0x3c4>
    80000580:	63a00993          	li	s3,1594
    80000584:	013813b3          	sll	t2,a6,s3
    80000588:	fa4c8183          	lb	gp,-92(s9)
    8000058c:	72966503          	lwu	a0,1833(a2)
    80000590:	67800893          	li	a7,1656
    80000594:	f8500e93          	li	t4,-123
    80000598:	c9be8113          	addi	sp,t4,-869
    8000059c:	00001217          	auipc	tp,0x1
    800005a0:	15820213          	addi	tp,tp,344 # 800016f4 <test_memory+0x3f4>
    800005a4:	35f00813          	li	a6,863
    800005a8:	00040313          	mv	t1,s0
    800005ac:	0e500b13          	li	s6,229
    800005b0:	40b584b3          	sub	s1,a1,a1
    800005b4:	8c100293          	li	t0,-1855
    800005b8:	0108163b          	sllw	a2,a6,a6
    800005bc:	00001597          	auipc	a1,0x1
    800005c0:	d2f58593          	addi	a1,a1,-721 # 800012eb <reg_x29_output+0x3>
    800005c4:	b5095f03          	lhu	t5,-1200(s2)
    800005c8:	e1221f83          	lh	t6,-494(tp) # fffffffffffffe12 <__global_pointer$+0xffffffff7fffdf02>
    800005cc:	0252c4b3          	div	s1,t0,t0
    800005d0:	00001d17          	auipc	s10,0x1
    800005d4:	935d0d13          	addi	s10,s10,-1739 # 80000f05 <test_end+0x571>
    800005d8:	3a006463          	bltu	zero,zero,80000980 <crash_forward>
    800005dc:	00030b93          	mv	s7,t1
    800005e0:	7a300613          	li	a2,1955
    800005e4:	c7e00413          	li	s0,-898
    800005e8:	45a00213          	li	tp,1114
    800005ec:	72dd1383          	lh	t2,1837(s10)
    800005f0:	fff00693          	li	a3,-1
    800005f4:	0368ce33          	div	t3,a7,s6
    800005f8:	39731463          	bne	t1,s7,80000980 <crash_forward>
    800005fc:	02464f33          	div	t5,a2,tp
    80000600:	e8700c13          	li	s8,-377
    80000604:	1de5aaa3          	sw	t5,469(a1)
    80000608:	015aa0b3          	slt	ra,s5,s5
    8000060c:	01b6c6b3          	xor	a3,a3,s11
    80000610:	dd800713          	li	a4,-552
    80000614:	41845a3b          	sraw	s4,s0,s8
    80000618:	00d8fab3          	and	s5,a7,a3
    8000061c:	13100293          	li	t0,305
    80000620:	42028493          	addi	s1,t0,1056
    80000624:	02e819b3          	mulh	s3,a6,a4
    80000628:	01bee7b3          	or	a5,t4,s11
    8000062c:	feb00613          	li	a2,-21
    80000630:	32d00b93          	li	s7,813
    80000634:	02c662b3          	rem	t0,a2,a2
    80000638:	00001117          	auipc	sp,0x1
    8000063c:	f0610113          	addi	sp,sp,-250 # 8000153e <test_memory+0x23e>
    80000640:	06a00193          	li	gp,106
    80000644:	2d200c93          	li	s9,722
    80000648:	b5318f93          	addi	t6,gp,-1197 # 80001a63 <_end+0x353>
    8000064c:	a3e18593          	addi	a1,gp,-1474 # 8000194e <_end+0x23e>
    80000650:	00001997          	auipc	s3,0x1
    80000654:	94398993          	addi	s3,s3,-1725 # 80000f93 <test_end+0x5ff>
    80000658:	da500e13          	li	t3,-603
    8000065c:	03c0b833          	mulhu	a6,ra,t3
    80000660:	d2318393          	addi	t2,gp,-733 # 80001c33 <_end+0x523>
    80000664:	9a639fa3          	sh	t1,-1601(t2)
    80000668:	03e28c33          	mul	s8,t0,t5
    8000066c:	0398da13          	srli	s4,a7,0x39
    80000670:	41da8b3b          	subw	s6,s5,t4
    80000674:	00100293          	li	t0,1
    80000678:	437993a3          	sh	s7,1063(s3)
    8000067c:	03f29293          	slli	t0,t0,0x3f
    80000680:	fff00613          	li	a2,-1
    80000684:	01cbe0b3          	or	ra,s7,t3
    80000688:	d225de83          	lhu	t4,-734(a1)
    8000068c:	a8818713          	addi	a4,gp,-1400 # 80001998 <_end+0x288>
    80000690:	00001497          	auipc	s1,0x1
    80000694:	8c448493          	addi	s1,s1,-1852 # 80000f54 <test_end+0x5c0>
    80000698:	00564633          	xor	a2,a2,t0
    8000069c:	0391d533          	divu	a0,gp,s9
    800006a0:	e7a13303          	ld	t1,-390(sp)
    800006a4:	525489a3          	sb	t0,1331(s1)
    800006a8:	9be71203          	lh	tp,-1602(a4)
    800006ac:	02bbe433          	rem	s0,s7,a1
    800006b0:	9f118993          	addi	s3,gp,-1551 # 80001901 <_end+0x1f1>
    800006b4:	c3118f13          	addi	t5,gp,-975 # 80001b41 <_end+0x431>
    800006b8:	935f29a3          	sw	s5,-1741(t5)
    800006bc:	40b20cbb          	subw	s9,tp,a1
    800006c0:	00001a17          	auipc	s4,0x1
    800006c4:	f46a0a13          	addi	s4,s4,-186 # 80001606 <test_memory+0x306>
    800006c8:	00038713          	mv	a4,t2
    800006cc:	2b57ea63          	bltu	a5,s5,80000980 <crash_forward>
    800006d0:	00001397          	auipc	t2,0x1
    800006d4:	11f38393          	addi	t2,t2,287 # 800017ef <_end+0xdf>
    800006d8:	e0a399a3          	sh	a0,-493(t2)
    800006dc:	02634c3b          	divw	s8,t1,t1
    800006e0:	a0ef8903          	lb	s2,-1522(t6)
    800006e4:	d039e483          	lwu	s1,-765(s3)
    800006e8:	f0ea2183          	lw	gp,-242(s4)
    800006ec:	00cb7d33          	and	s10,s6,a2
    800006f0:	f635a413          	slti	s0,a1,-157
    800006f4:	00000e17          	auipc	t3,0x0
    800006f8:	62fe0e13          	addi	t3,t3,1583 # 80000d23 <test_end+0x38f>
    800006fc:	00070e93          	mv	t4,a4
    80000700:	bdb00213          	li	tp,-1061
    80000704:	021f6bb3          	rem	s7,t5,ra
    80000708:	f0800793          	li	a5,-248
    8000070c:	00001597          	auipc	a1,0x1
    80000710:	9e158593          	addi	a1,a1,-1567 # 800010ed <fromhost+0xad>
    80000714:	daf20093          	addi	ra,tp,-593 # fffffffffffffdaf <__global_pointer$+0xffffffff7fffde9f>
    80000718:	005d68b3          	or	a7,s10,t0
    8000071c:	775e3803          	ld	a6,1909(t3)
    80000720:	411a853b          	subw	a0,s5,a7
    80000724:	9fd762e3          	bltu	a4,t4,80000108 <crash_backward>
    80000728:	00000997          	auipc	s3,0x0
    8000072c:	6a298993          	addi	s3,s3,1698 # 80000dca <test_end+0x436>
    80000730:	bbb00b93          	li	s7,-1093
    80000734:	bb118d93          	addi	s11,gp,-1103 # 80001ac1 <_end+0x3b1>
    80000738:	b3418e93          	addi	t4,gp,-1228 # 80001a44 <_end+0x334>
    8000073c:	903db7a3          	sd	gp,-1777(s11)
    80000740:	0388af33          	mulhsu	t5,a7,s8
    80000744:	aeceba23          	sd	a2,-1292(t4)
    80000748:	017ba233          	slt	tp,s7,s7
    8000074c:	1b500c93          	li	s9,437
    80000750:	00100813          	li	a6,1
    80000754:	400054b3          	sra	s1,zero,zero
    80000758:	00001117          	auipc	sp,0x1
    8000075c:	e1810113          	addi	sp,sp,-488 # 80001570 <test_memory+0x270>
    80000760:	00001f97          	auipc	t6,0x1
    80000764:	941f8f93          	addi	t6,t6,-1727 # 800010a1 <fromhost+0x61>
    80000768:	00001897          	auipc	a7,0x1
    8000076c:	f3a88893          	addi	a7,a7,-198 # 800016a2 <test_memory+0x3a2>
    80000770:	03f81813          	slli	a6,a6,0x3f
    80000774:	03bdc533          	div	a0,s11,s11
    80000778:	01978c33          	add	s8,a5,s9
    8000077c:	dbc00713          	li	a4,-580
    80000780:	fff00393          	li	t2,-1
    80000784:	29500e13          	li	t3,661
    80000788:	58e99283          	lh	t0,1422(s3)
    8000078c:	42300613          	li	a2,1059
    80000790:	0103c3b3          	xor	t2,t2,a6
    80000794:	18800193          	li	gp,392
    80000798:	2b2f9ea3          	sh	s2,701(t6)
    8000079c:	00000c17          	auipc	s8,0x0
    800007a0:	685c0c13          	addi	s8,s8,1669 # 80000e21 <test_end+0x48d>
    800007a4:	006327b3          	slt	a5,t1,t1
    800007a8:	00001697          	auipc	a3,0x1
    800007ac:	aa468693          	addi	a3,a3,-1372 # 8000124c <reg_x9_output+0x4>
    800007b0:	0231d533          	divu	a0,gp,gp
    800007b4:	727c3203          	ld	tp,1831(s8)
    800007b8:	cef18b93          	addi	s7,gp,-785 # 80001bff <_end+0x4ef>
    800007bc:	40ce00b3          	sub	ra,t3,a2
    800007c0:	02e7043b          	mulw	s0,a4,a4
    800007c4:	03211b03          	lh	s6,50(sp)
    800007c8:	1b200193          	li	gp,434
    800007cc:	4057833b          	subw	t1,a5,t0
    800007d0:	d3c88a03          	lb	s4,-708(a7)
    800007d4:	00001717          	auipc	a4,0x1
    800007d8:	b1c70713          	addi	a4,a4,-1252 # 800012f0 <reg_x30_output>
    800007dc:	0079f933          	and	s2,s3,t2
    800007e0:	1d271283          	lh	t0,466(a4)
    800007e4:	403187b3          	sub	a5,gp,gp
    800007e8:	dbb18993          	addi	s3,gp,-581 # 80001ccb <_end+0x5bb>
    800007ec:	1cf682a3          	sb	a5,453(a3)
    800007f0:	3fc00493          	li	s1,1020
    800007f4:	d7618f93          	addi	t6,gp,-650 # 80001c86 <_end+0x576>
    800007f8:	7f800e93          	li	t4,2040
    800007fc:	3275ea83          	lwu	s5,807(a1)
    80000800:	d2218c93          	addi	s9,gp,-734 # 80001c32 <_end+0x522>
    80000804:	00000613          	li	a2,0
    80000808:	99afab23          	sw	s10,-1642(t6)
    8000080c:	015ad43b          	srlw	s0,s5,s5
    80000810:	c0100f93          	li	t6,-1023
    80000814:	03d4ddbb          	divuw	s11,s1,t4
    80000818:	00001897          	auipc	a7,0x1
    8000081c:	bca88893          	addi	a7,a7,-1078 # 800013e2 <test_memory+0xe2>
    80000820:	13600d93          	li	s11,310
    80000824:	d2600793          	li	a5,-730
    80000828:	ac3b9f03          	lh	t5,-1341(s7)
    8000082c:	0150e333          	or	t1,ra,s5
    80000830:	02f7f733          	remu	a4,a5,a5
    80000834:	a7400193          	li	gp,-1420
    80000838:	00000213          	li	tp,0
    8000083c:	01096d33          	or	s10,s2,a6
    80000840:	def00e13          	li	t3,-529
    80000844:	00001297          	auipc	t0,0x1
    80000848:	a8a28293          	addi	t0,t0,-1398 # 800012ce <reg_x25_output+0x6>
    8000084c:	0231f133          	remu	sp,gp,gp
    80000850:	00000797          	auipc	a5,0x0
    80000854:	6fe78793          	addi	a5,a5,1790 # 80000f4e <test_end+0x5ba>
    80000858:	01bd94bb          	sllw	s1,s11,s11
    8000085c:	6e27a303          	lw	t1,1762(a5)
    80000860:	a83c9723          	sh	gp,-1394(s9)
    80000864:	006346b3          	xor	a3,t1,t1
    80000868:	1d22a323          	sw	s2,454(t0)
    8000086c:	01d55733          	srl	a4,a0,t4
    80000870:	03bdfa3b          	remuw	s4,s11,s11
    80000874:	01ce553b          	srlw	a0,t3,t3
    80000878:	eb400b13          	li	s6,-332
    8000087c:	41ce5ebb          	sraw	t4,t3,t3
    80000880:	2e689123          	sh	t1,738(a7)
    80000884:	9429c083          	lbu	ra,-1726(s3)
    80000888:	afd18413          	addi	s0,gp,-1283 # 80001a0d <_end+0x2fd>
    8000088c:	be140a83          	lb	s5,-1055(s0)
    80000890:	036ff5b3          	remu	a1,t6,s6
    80000894:	00001c17          	auipc	s8,0x1
    80000898:	f43c0c13          	addi	s8,s8,-189 # 800017d7 <_end+0xc7>
    8000089c:	d36c0b23          	sb	s6,-714(s8)
    800008a0:	523da137          	lui	sp,0x523da
    800008a4:	00100b13          	li	s6,1
    800008a8:	02c64cb3          	div	s9,a2,a2
    800008ac:	02462a33          	mulhsu	s4,a2,tp
    800008b0:	03fb1b13          	slli	s6,s6,0x3f
    800008b4:	00001497          	auipc	s1,0x1
    800008b8:	e7f48493          	addi	s1,s1,-385 # 80001733 <_end+0x23>
    800008bc:	fff00393          	li	t2,-1
    800008c0:	00000e97          	auipc	t4,0x0
    800008c4:	428e8e93          	addi	t4,t4,1064 # 80000ce8 <test_end+0x354>
    800008c8:	0163c3b3          	xor	t2,t2,s6
    800008cc:	620eaa23          	sw	zero,1588(t4)
    800008d0:	014576b3          	and	a3,a0,s4
    800008d4:	00000597          	auipc	a1,0x0
    800008d8:	63f58593          	addi	a1,a1,1599 # 80000f13 <test_end+0x57f>
    800008dc:	9bb18793          	addi	a5,gp,-1605 # 800018cb <_end+0x1bb>
    800008e0:	00000317          	auipc	t1,0x0
    800008e4:	48f30313          	addi	t1,t1,1167 # 80000d6f <test_end+0x3db>
    800008e8:	d6d78923          	sb	a3,-654(a5)
    800008ec:	007afd33          	and	s10,s5,t2
    800008f0:	c094d883          	lhu	a7,-1015(s1)
    800008f4:	72758903          	lb	s2,1831(a1)
    800008f8:	016d6bb3          	or	s7,s10,s6
    800008fc:	5c0324a3          	sw	zero,1481(t1)
    80000900:	0040006f          	j	80000904 <reg_dump>

0000000080000904 <reg_dump>:
    80000904:	00001097          	auipc	ra,0x1
    80000908:	dfc08093          	addi	ra,ra,-516 # 80001700 <loop_count>
    8000090c:	0000a103          	lw	sp,0(ra)
    80000910:	fff10193          	addi	gp,sp,-1 # 523d9fff <_start-0x2dc26001>
    80000914:	0030a023          	sw	gp,0(ra)
    80000918:	880118e3          	bnez	sp,800001a8 <pseg_0>
    8000091c:	00001097          	auipc	ra,0x1
    80000920:	8e408093          	addi	ra,ra,-1820 # 80001200 <begin_signature>
    80000924:	0000b023          	sd	zero,0(ra)
    80000928:	0020b823          	sd	sp,16(ra)
    8000092c:	0030bc23          	sd	gp,24(ra)
    80000930:	0240b023          	sd	tp,32(ra)
    80000934:	0270bc23          	sd	t2,56(ra)
    80000938:	04a0b823          	sd	a0,80(ra)
    8000093c:	06c0b023          	sd	a2,96(ra)
    80000940:	06d0b423          	sd	a3,104(ra)
    80000944:	06e0b823          	sd	a4,112(ra)
    80000948:	0900b023          	sd	a6,128(ra)
    8000094c:	0910b423          	sd	a7,136(ra)
    80000950:	0920b823          	sd	s2,144(ra)
    80000954:	0b40b023          	sd	s4,160(ra)
    80000958:	0b50b423          	sd	s5,168(ra)
    8000095c:	0b60b823          	sd	s6,176(ra)
    80000960:	0b70bc23          	sd	s7,184(ra)
    80000964:	0d90b423          	sd	s9,200(ra)
    80000968:	0da0b823          	sd	s10,208(ra)
    8000096c:	0db0bc23          	sd	s11,216(ra)
    80000970:	0fc0b023          	sd	t3,224(ra)
    80000974:	0fe0b823          	sd	t5,240(ra)
    80000978:	0ff0bc23          	sd	t6,248(ra)
    8000097c:	0180006f          	j	80000994 <test_end>

0000000080000980 <crash_forward>:
    80000980:	0ff0000f          	fence
    80000984:	00018063          	beqz	gp,80000984 <crash_forward+0x4>
    80000988:	00119193          	slli	gp,gp,0x1
    8000098c:	0011e193          	ori	gp,gp,1
    80000990:	00000073          	ecall

0000000080000994 <test_end>:
    80000994:	0ff0000f          	fence
    80000998:	00100193          	li	gp,1
    8000099c:	00000073          	ecall
    800009a0:	c0001073          	unimp
	...

Disassembly of section .tohost:

0000000080001000 <tohost>:
	...

0000000080001040 <fromhost>:
	...
