
test.elf:     file format elf64-littleriscv


Disassembly of section .text.init:

0000000080000000 <_start>:
    80000000:	0580006f          	j	80000058 <reset_vector>

0000000080000004 <trap_vector>:
    80000004:	34202f73          	csrr	t5,mcause
    80000008:	00800f93          	li	t6,8
    8000000c:	05ff0063          	beq	t5,t6,8000004c <write_tohost>
    80000010:	00900f93          	li	t6,9
    80000014:	03ff0c63          	beq	t5,t6,8000004c <write_tohost>
    80000018:	00b00f93          	li	t6,11
    8000001c:	03ff0863          	beq	t5,t6,8000004c <write_tohost>
    80000020:	00000f13          	li	t5,0
    80000024:	000f0463          	beqz	t5,8000002c <trap_vector+0x28>
    80000028:	000f0067          	jr	t5
    8000002c:	34202f73          	csrr	t5,mcause
    80000030:	000f5463          	bgez	t5,80000038 <handle_exception>
    80000034:	0140006f          	j	80000048 <other_exception>

0000000080000038 <handle_exception>:
    80000038:	34102e73          	csrr	t3,mepc
    8000003c:	004e0e13          	addi	t3,t3,4
    80000040:	341e1073          	csrw	mepc,t3
    80000044:	30200073          	mret

0000000080000048 <other_exception>:
    80000048:	5391e193          	ori	gp,gp,1337

000000008000004c <write_tohost>:
    8000004c:	00001f17          	auipc	t5,0x1
    80000050:	fa3f2a23          	sw	gp,-76(t5) # 80001000 <tohost>
    80000054:	ff9ff06f          	j	8000004c <write_tohost>

0000000080000058 <reset_vector>:
    80000058:	f1402573          	csrr	a0,mhartid
    8000005c:	00051063          	bnez	a0,8000005c <reset_vector+0x4>
    80000060:	00000297          	auipc	t0,0x0
    80000064:	01028293          	addi	t0,t0,16 # 80000070 <reset_vector+0x18>
    80000068:	30529073          	csrw	mtvec,t0
    8000006c:	18005073          	csrwi	satp,0
    80000070:	00000297          	auipc	t0,0x0
    80000074:	01c28293          	addi	t0,t0,28 # 8000008c <reset_vector+0x34>
    80000078:	30529073          	csrw	mtvec,t0
    8000007c:	fff00293          	li	t0,-1
    80000080:	3b029073          	csrw	pmpaddr0,t0
    80000084:	01f00293          	li	t0,31
    80000088:	3a029073          	csrw	pmpcfg0,t0
    8000008c:	00000297          	auipc	t0,0x0
    80000090:	01828293          	addi	t0,t0,24 # 800000a4 <reset_vector+0x4c>
    80000094:	30529073          	csrw	mtvec,t0
    80000098:	30205073          	csrwi	medeleg,0
    8000009c:	30305073          	csrwi	mideleg,0
    800000a0:	30405073          	csrwi	mie,0
    800000a4:	00000193          	li	gp,0
    800000a8:	00000297          	auipc	t0,0x0
    800000ac:	f5c28293          	addi	t0,t0,-164 # 80000004 <trap_vector>
    800000b0:	30529073          	csrw	mtvec,t0
    800000b4:	00100513          	li	a0,1
    800000b8:	01f51513          	slli	a0,a0,0x1f
    800000bc:	00055863          	bgez	a0,800000cc <reset_vector+0x74>
    800000c0:	0ff0000f          	fence
    800000c4:	00100193          	li	gp,1
    800000c8:	00000073          	ecall
    800000cc:	00000293          	li	t0,0
    800000d0:	00028e63          	beqz	t0,800000ec <reset_vector+0x94>
    800000d4:	10529073          	csrw	stvec,t0
    800000d8:	0000b2b7          	lui	t0,0xb
    800000dc:	1092829b          	addiw	t0,t0,265
    800000e0:	30229073          	csrw	medeleg,t0
    800000e4:	30202373          	csrr	t1,medeleg
    800000e8:	f66290e3          	bne	t0,t1,80000048 <other_exception>
    800000ec:	30005073          	csrwi	mstatus,0
    800000f0:	00000297          	auipc	t0,0x0
    800000f4:	01428293          	addi	t0,t0,20 # 80000104 <reset_vector+0xac>
    800000f8:	34129073          	csrw	mepc,t0
    800000fc:	f1402573          	csrr	a0,mhartid
    80000100:	30200073          	mret
    80000104:	0180006f          	j	8000011c <test_start>

0000000080000108 <crash_backward>:
    80000108:	0ff0000f          	fence
    8000010c:	00018063          	beqz	gp,8000010c <crash_backward+0x4>
    80000110:	00119193          	slli	gp,gp,0x1
    80000114:	0011e193          	ori	gp,gp,1
    80000118:	00000073          	ecall

000000008000011c <test_start>:
    8000011c:	00001f97          	auipc	t6,0x1
    80000120:	fe4f8f93          	addi	t6,t6,-28 # 80001100 <hidden_data>
    80000124:	000fb003          	ld	zero,0(t6)
    80000128:	008fb083          	ld	ra,8(t6)
    8000012c:	010fb103          	ld	sp,16(t6)
    80000130:	018fb183          	ld	gp,24(t6)
    80000134:	020fb203          	ld	tp,32(t6)
    80000138:	028fb283          	ld	t0,40(t6)
    8000013c:	030fb303          	ld	t1,48(t6)
    80000140:	038fb383          	ld	t2,56(t6)
    80000144:	040fb403          	ld	s0,64(t6)
    80000148:	048fb483          	ld	s1,72(t6)
    8000014c:	050fb503          	ld	a0,80(t6)
    80000150:	058fb583          	ld	a1,88(t6)
    80000154:	060fb603          	ld	a2,96(t6)
    80000158:	068fb683          	ld	a3,104(t6)
    8000015c:	070fb703          	ld	a4,112(t6)
    80000160:	078fb783          	ld	a5,120(t6)
    80000164:	080fb803          	ld	a6,128(t6)
    80000168:	088fb883          	ld	a7,136(t6)
    8000016c:	090fb903          	ld	s2,144(t6)
    80000170:	098fb983          	ld	s3,152(t6)
    80000174:	0a0fba03          	ld	s4,160(t6)
    80000178:	0a8fba83          	ld	s5,168(t6)
    8000017c:	0b0fbb03          	ld	s6,176(t6)
    80000180:	0b8fbb83          	ld	s7,184(t6)
    80000184:	0c0fbc03          	ld	s8,192(t6)
    80000188:	0c8fbc83          	ld	s9,200(t6)
    8000018c:	0d0fbd03          	ld	s10,208(t6)
    80000190:	0d8fbd83          	ld	s11,216(t6)
    80000194:	0e0fbe03          	ld	t3,224(t6)
    80000198:	0e8fbe83          	ld	t4,232(t6)
    8000019c:	0f0fbf03          	ld	t5,240(t6)
    800001a0:	0f8fbf83          	ld	t6,248(t6)
    800001a4:	0040006f          	j	800001a8 <pseg_0>

00000000800001a8 <pseg_0>:
    800001a8:	00100793          	li	a5,1
    800001ac:	a2818713          	addi	a4,gp,-1496 # 80001938 <_end+0x228>
    800001b0:	45600c93          	li	s9,1110
    800001b4:	d1b00d93          	li	s11,-741
    800001b8:	5b700993          	li	s3,1463
    800001bc:	03f79793          	slli	a5,a5,0x3f
    800001c0:	00001497          	auipc	s1,0x1
    800001c4:	39f48493          	addi	s1,s1,927 # 8000155f <test_memory+0x25f>
    800001c8:	00001e97          	auipc	t4,0x1
    800001cc:	326e8e93          	addi	t4,t4,806 # 800014ee <test_memory+0x1ee>
    800001d0:	15eeac03          	lw	s8,350(t4)
    800001d4:	000f8b13          	mv	s6,t6
    800001d8:	a2218f13          	addi	t5,gp,-1502 # 80001932 <_end+0x222>
    800001dc:	bd476683          	lwu	a3,-1068(a4)
    800001e0:	1f1c8a13          	addi	s4,s9,497
    800001e4:	16900f93          	li	t6,361
    800001e8:	037e613b          	remw	sp,t3,s7
    800001ec:	4cd00a93          	li	s5,1229
    800001f0:	fef00813          	li	a6,-17
    800001f4:	41ff82bb          	subw	t0,t6,t6
    800001f8:	030a80b3          	mul	ra,s5,a6
    800001fc:	fff00b93          	li	s7,-1
    80000200:	6bc00393          	li	t2,1724
    80000204:	00fbcbb3          	xor	s7,s7,a5
    80000208:	01bdc633          	xor	a2,s11,s11
    8000020c:	edd00693          	li	a3,-291
    80000210:	16d48403          	lb	s0,365(s1)
    80000214:	00001d97          	auipc	s11,0x1
    80000218:	ca3d8d93          	addi	s11,s11,-861 # 80000eb7 <test_end+0x517>
    8000021c:	02d6e2b3          	rem	t0,a3,a3
    80000220:	67698213          	addi	tp,s3,1654
    80000224:	40210fb3          	sub	t6,sp,sp
    80000228:	f9600e13          	li	t3,-106
    8000022c:	004245b3          	xor	a1,tp,tp
    80000230:	75324e63          	blt	tp,s3,8000098c <crash_forward>
    80000234:	64bdd803          	lhu	a6,1611(s11)
    80000238:	00001417          	auipc	s0,0x1
    8000023c:	bc240413          	addi	s0,s0,-1086 # 80000dfa <test_end+0x45a>
    80000240:	00f791bb          	sllw	gp,a5,a5
    80000244:	fd400e93          	li	t4,-44
    80000248:	b9300a93          	li	s5,-1133
    8000024c:	68645c83          	lhu	s9,1670(s0)
    80000250:	03d3dc3b          	divuw	s8,t2,t4
    80000254:	c3300293          	li	t0,-973
    80000258:	d2d00613          	li	a2,-723
    8000025c:	025280bb          	mulw	ra,t0,t0
    80000260:	000b0513          	mv	a0,s6
    80000264:	41ce58bb          	sraw	a7,t3,t3
    80000268:	b42f5303          	lhu	t1,-1214(t5)
    8000026c:	73400113          	li	sp,1844
    80000270:	70ab4e63          	blt	s6,a0,8000098c <crash_forward>
    80000274:	00262733          	slt	a4,a2,sp
    80000278:	0177fd33          	and	s10,a5,s7
    8000027c:	00fd6933          	or	s2,s10,a5
    80000280:	50100a13          	li	s4,1281
    80000284:	034af6b3          	remu	a3,s5,s4
    80000288:	01189d3b          	sllw	s10,a7,a7
    8000028c:	00100393          	li	t2,1
    80000290:	00001917          	auipc	s2,0x1
    80000294:	9e890913          	addi	s2,s2,-1560 # 80000c78 <test_end+0x2d8>
    80000298:	03f39393          	slli	t2,t2,0x3f
    8000029c:	b7918d93          	addi	s11,gp,-1159 # 80001a89 <_end+0x379>
    800002a0:	aa300093          	li	ra,-1373
    800002a4:	88b08e13          	addi	t3,ra,-1909
    800002a8:	92118713          	addi	a4,gp,-1759 # 80001831 <_end+0x121>
    800002ac:	79892983          	lw	s3,1944(s2)
    800002b0:	0e700893          	li	a7,231
    800002b4:	bf9721a3          	sw	s9,-1053(a4)
    800002b8:	fff00a13          	li	s4,-1
    800002bc:	007a4a33          	xor	s4,s4,t2
    800002c0:	6dc08663          	beq	ra,t3,8000098c <crash_forward>
    800002c4:	014bfc33          	and	s8,s7,s4
    800002c8:	015a561b          	srliw	a2,s4,0x15
    800002cc:	bfc18d13          	addi	s10,gp,-1028 # 80001b0c <_end+0x3fc>
    800002d0:	a8c18f13          	addi	t5,gp,-1396 # 8000199c <_end+0x28c>
    800002d4:	00c64933          	xor	s2,a2,a2
    800002d8:	00100213          	li	tp,1
    800002dc:	03ecce3b          	divw	t3,s9,t5
    800002e0:	007c6fb3          	or	t6,s8,t2
    800002e4:	9ebd4103          	lbu	sp,-1557(s10)
    800002e8:	03f21213          	slli	tp,tp,0x3f
    800002ec:	b2bd9683          	lh	a3,-1237(s11)
    800002f0:	01d31bbb          	sllw	s7,t1,t4
    800002f4:	031897b3          	mulh	a5,a7,a7
    800002f8:	a5018a93          	addi	s5,gp,-1456 # 80001960 <_end+0x250>
    800002fc:	17100d93          	li	s11,369
    80000300:	02f7e1bb          	remw	gp,a5,a5
    80000304:	00000493          	li	s1,0
    80000308:	4010d93b          	sraw	s2,ra,ra
    8000030c:	adcaab03          	lw	s6,-1316(s5)
    80000310:	0339e933          	rem	s2,s3,s3
    80000314:	00000413          	li	s0,0
    80000318:	38a00813          	li	a6,906
    8000031c:	00800193          	li	gp,8
    80000320:	67fc4663          	blt	s8,t6,8000098c <crash_forward>
    80000324:	00001a97          	auipc	s5,0x1
    80000328:	245a8a93          	addi	s5,s5,581 # 80001569 <test_memory+0x269>
    8000032c:	0231eb33          	rem	s6,gp,gp
    80000330:	16000113          	li	sp,352
    80000334:	00000293          	li	t0,0
    80000338:	00000593          	li	a1,0
    8000033c:	fff00513          	li	a0,-1
    80000340:	00454533          	xor	a0,a0,tp
    80000344:	03084eb3          	div	t4,a6,a6
    80000348:	002d86bb          	addw	a3,s11,sp
    8000034c:	d58f1c83          	lh	s9,-680(t5)
    80000350:	f23ab3a3          	sd	gp,-217(s5)
    80000354:	37200713          	li	a4,882
    80000358:	20f00613          	li	a2,527
    8000035c:	62b2e863          	bltu	t0,a1,8000098c <crash_forward>
    80000360:	00100b13          	li	s6,1
    80000364:	00078893          	mv	a7,a5
    80000368:	00001917          	auipc	s2,0x1
    8000036c:	32b90913          	addi	s2,s2,811 # 80001693 <test_memory+0x393>
    80000370:	00088b93          	mv	s7,a7
    80000374:	f5b00e13          	li	t3,-165
    80000378:	00a1f333          	and	t1,gp,a0
    8000037c:	015f97b3          	sll	a5,t6,s5
    80000380:	8ea00a93          	li	s5,-1814
    80000384:	004369b3          	or	s3,t1,tp
    80000388:	d978c0e3          	blt	a7,s7,80000108 <crash_backward>
    8000038c:	e9b18c13          	addi	s8,gp,-357 # 80001dab <_end+0x69b>
    80000390:	00001117          	auipc	sp,0x1
    80000394:	13f10113          	addi	sp,sp,319 # 800014cf <test_memory+0x1cf>
    80000398:	035abcb3          	mulhu	s9,s5,s5
    8000039c:	007395b3          	sll	a1,t2,t2
    800003a0:	03fb1b13          	slli	s6,s6,0x3f
    800003a4:	07b12ea3          	sw	s11,125(sp)
    800003a8:	01c65d33          	srl	s10,a2,t3
    800003ac:	10700d93          	li	s11,263
    800003b0:	0274df13          	srli	t5,s1,0x27
    800003b4:	90dc3a03          	ld	s4,-1779(s8)
    800003b8:	1fd00793          	li	a5,509
    800003bc:	40e750bb          	sraw	ra,a4,a4
    800003c0:	00001c97          	auipc	s9,0x1
    800003c4:	20ac8c93          	addi	s9,s9,522 # 800015ca <test_memory+0x2ca>
    800003c8:	cf300b93          	li	s7,-781
    800003cc:	72600493          	li	s1,1830
    800003d0:	16200693          	li	a3,354
    800003d4:	00dd92b3          	sll	t0,s11,a3
    800003d8:	00109633          	sll	a2,ra,ra
    800003dc:	02d89e33          	mulh	t3,a7,a3
    800003e0:	00f7e133          	or	sp,a5,a5
    800003e4:	81898213          	addi	tp,s3,-2024
    800003e8:	ed418d13          	addi	s10,gp,-300 # 80001de4 <_end+0x6d4>
    800003ec:	d2b00593          	li	a1,-725
    800003f0:	00001c17          	auipc	s8,0x1
    800003f4:	eb4c0c13          	addi	s8,s8,-332 # 800012a4 <reg_x20_output+0x4>
    800003f8:	0045cfb3          	xor	t6,a1,tp
    800003fc:	ee500113          	li	sp,-283
    80000400:	00001f17          	auipc	t5,0x1
    80000404:	8bbf0f13          	addi	t5,t5,-1861 # 80000cbb <test_end+0x31b>
    80000408:	fe400413          	li	s0,-28
    8000040c:	00791383          	lh	t2,7(s2)
    80000410:	fff00193          	li	gp,-1
    80000414:	cf918093          	addi	ra,gp,-775 # 80001c09 <_end+0x4f9>
    80000418:	c3900993          	li	s3,-967
    8000041c:	03398fbb          	mulw	t6,s3,s3
    80000420:	00001717          	auipc	a4,0x1
    80000424:	b2f70713          	addi	a4,a4,-1233 # 80000f4f <test_end+0x5af>
    80000428:	8ab0b7a3          	sd	a1,-1873(ra)
    8000042c:	0c7c3e23          	sd	t2,220(s8)
    80000430:	7d5f2aa3          	sw	s5,2005(t5)
    80000434:	00216e33          	or	t3,sp,sp
    80000438:	dbccc883          	lbu	a7,-580(s9)
    8000043c:	53973d83          	ld	s11,1337(a4)
    80000440:	00901e33          	sll	t3,zero,s1
    80000444:	f7918f93          	addi	t6,gp,-135 # 80001e89 <_end+0x779>
    80000448:	0085c533          	xor	a0,a1,s0
    8000044c:	009b9abb          	sllw	s5,s7,s1
    80000450:	035d613b          	remw	sp,s10,s5
    80000454:	85fd0a03          	lb	s4,-1953(s10)
    80000458:	2e9dcd93          	xori	s11,s11,745
    8000045c:	0031c733          	xor	a4,gp,gp
    80000460:	c8c00c13          	li	s8,-884
    80000464:	5f700c93          	li	s9,1527
    80000468:	803fbfa3          	sd	gp,-2017(t6)
    8000046c:	00100d13          	li	s10,1
    80000470:	da600893          	li	a7,-602
    80000474:	60900393          	li	t2,1545
    80000478:	40d5da93          	srai	s5,a1,0xd
    8000047c:	020906b3          	mul	a3,s2,zero
    80000480:	006ad333          	srl	t1,s5,t1
    80000484:	00c44db3          	xor	s11,s0,a2
    80000488:	c8a540e3          	blt	a0,a0,80000108 <crash_backward>
    8000048c:	03fd1d13          	slli	s10,s10,0x3f
    80000490:	027cc93b          	divw	s2,s9,t2
    80000494:	411c0e33          	sub	t3,s8,a7
    80000498:	0161c1b3          	xor	gp,gp,s6
    8000049c:	00001d97          	auipc	s11,0x1
    800004a0:	e08d8d93          	addi	s11,s11,-504 # 800012a4 <reg_x20_output+0x4>
    800004a4:	0036feb3          	and	t4,a3,gp
    800004a8:	dd218c93          	addi	s9,gp,-558 # 80001ce2 <_end+0x5d2>
    800004ac:	004b3133          	sltu	sp,s6,tp
    800004b0:	00000f93          	li	t6,0
    800004b4:	02f784bb          	mulw	s1,a5,a5
    800004b8:	a4000613          	li	a2,-1472
    800004bc:	00001797          	auipc	a5,0x1
    800004c0:	bda78793          	addi	a5,a5,-1062 # 80001096 <fromhost+0x56>
    800004c4:	000b8713          	mv	a4,s7
    800004c8:	016ee833          	or	a6,t4,s6
    800004cc:	38ad9683          	lh	a3,906(s11)
    800004d0:	000f0f13          	mv	t5,t5
    800004d4:	00000a93          	li	s5,0
    800004d8:	00070413          	mv	s0,a4
    800004dc:	82ccde03          	lhu	t3,-2004(s9)
    800004e0:	00001c97          	auipc	s9,0x1
    800004e4:	0f8c8c93          	addi	s9,s9,248 # 800015d8 <test_memory+0x2d8>
    800004e8:	000f0093          	mv	ra,t5
    800004ec:	13900113          	li	sp,313
    800004f0:	00020913          	mv	s2,tp
    800004f4:	00090c13          	mv	s8,s2
    800004f8:	76810493          	addi	s1,sp,1896
    800004fc:	e3c00693          	li	a3,-452
    80000500:	02dda3b3          	mulhsu	t2,s11,a3
    80000504:	02d6ee33          	rem	t3,a3,a3
    80000508:	00001317          	auipc	t1,0x1
    8000050c:	d5030313          	addi	t1,t1,-688 # 80001258 <reg_x11_output>
    80000510:	03ffd8bb          	divuw	a7,t6,t6
    80000514:	02f7773b          	remuw	a4,a4,a5
    80000518:	be1f48e3          	blt	t5,ra,80000108 <crash_backward>
    8000051c:	33e79203          	lh	tp,830(a5)
    80000520:	fff00593          	li	a1,-1
    80000524:	01a5c5b3          	xor	a1,a1,s10
    80000528:	24635b83          	lhu	s7,582(t1)
    8000052c:	02c9b2b3          	mulhu	t0,s3,a2
    80000530:	d3700413          	li	s0,-713
    80000534:	ea4cea83          	lwu	s5,-348(s9)
    80000538:	00bf7533          	and	a0,t5,a1
    8000053c:	24500d93          	li	s11,581
    80000540:	bc9104e3          	beq	sp,s1,80000108 <crash_backward>
    80000544:	01ae6a33          	or	s4,t3,s10
    80000548:	01b44fb3          	xor	t6,s0,s11
    8000054c:	c4c00513          	li	a0,-948
    80000550:	ba318c93          	addi	s9,gp,-1117 # 80001ab3 <_end+0x3a3>
    80000554:	00a577b3          	and	a5,a0,a0
    80000558:	00c504bb          	addw	s1,a0,a2
    8000055c:	c0818f93          	addi	t6,gp,-1016 # 80001b18 <_end+0x408>
    80000560:	c8a18093          	addi	ra,gp,-886 # 80001b9a <_end+0x48a>
    80000564:	00001317          	auipc	t1,0x1
    80000568:	ed930313          	addi	t1,t1,-295 # 8000143d <test_memory+0x13d>
    8000056c:	9fd58613          	addi	a2,a1,-1539
    80000570:	9290b323          	sd	s1,-1754(ra)
    80000574:	41ad093b          	subw	s2,s10,s10
    80000578:	d2118813          	addi	a6,gp,-735 # 80001c31 <_end+0x521>
    8000057c:	36100893          	li	a7,865
    80000580:	00001117          	auipc	sp,0x1
    80000584:	20f10113          	addi	sp,sp,527 # 8000178f <_end+0x7f>
    80000588:	011885bb          	addw	a1,a7,a7
    8000058c:	00030513          	mv	a0,t1
    80000590:	987cbea3          	sd	t2,-1635(s9)
    80000594:	75800d13          	li	s10,1880
    80000598:	416b0db3          	sub	s11,s6,s6
    8000059c:	f5d12983          	lw	s3,-163(sp)
    800005a0:	2b532da3          	sw	s5,699(t1)
    800005a4:	03188a3b          	mulw	s4,a7,a7
    800005a8:	00c41ebb          	sllw	t4,s0,a2
    800005ac:	9e9812a3          	sh	s1,-1563(a6)
    800005b0:	f5300613          	li	a2,-173
    800005b4:	b3efbc23          	sd	t5,-1224(t6)
    800005b8:	99200e13          	li	t3,-1646
    800005bc:	566d0b93          	addi	s7,s10,1382
    800005c0:	3dabc663          	blt	s7,s10,8000098c <crash_forward>
    800005c4:	a3000a13          	li	s4,-1488
    800005c8:	9ef00693          	li	a3,-1553
    800005cc:	a0518193          	addi	gp,gp,-1531 # 80001915 <_end+0x205>
    800005d0:	abc60093          	addi	ra,a2,-1348
    800005d4:	03ce7f33          	remu	t5,t3,t3
    800005d8:	00001597          	auipc	a1,0x1
    800005dc:	cfc58593          	addi	a1,a1,-772 # 800012d4 <reg_x26_output+0x4>
    800005e0:	afd19403          	lh	s0,-1283(gp) # 80001a0d <_end+0x2fd>
    800005e4:	00001d17          	auipc	s10,0x1
    800005e8:	fbad0d13          	addi	s10,s10,-70 # 8000159e <test_memory+0x29e>
    800005ec:	00000817          	auipc	a6,0x0
    800005f0:	7ba80813          	addi	a6,a6,1978 # 80000da6 <test_end+0x406>
    800005f4:	04fd0e23          	sb	a5,92(s10)
    800005f8:	00000a93          	li	s5,0
    800005fc:	00100993          	li	s3,1
    80000600:	68100c13          	li	s8,1665
    80000604:	03f99993          	slli	s3,s3,0x3f
    80000608:	00001c97          	auipc	s9,0x1
    8000060c:	98ac8c93          	addi	s9,s9,-1654 # 80000f92 <test_end+0x5f2>
    80000610:	00001497          	auipc	s1,0x1
    80000614:	dc948493          	addi	s1,s1,-567 # 800013d9 <test_memory+0xd9>
    80000618:	034a413b          	divw	sp,s4,s4
    8000061c:	00050793          	mv	a5,a0
    80000620:	018693b3          	sll	t2,a3,s8
    80000624:	c6800213          	li	tp,-920
    80000628:	9e300193          	li	gp,-1565
    8000062c:	fff00893          	li	a7,-1
    80000630:	00000293          	li	t0,0
    80000634:	6ca82f83          	lw	t6,1738(a6)
    80000638:	00001097          	auipc	ra,0x1
    8000063c:	94408093          	addi	ra,ra,-1724 # 80000f7c <test_end+0x5dc>
    80000640:	698c8303          	lb	t1,1688(s9)
    80000644:	1915b223          	sd	a7,388(a1)
    80000648:	34f54263          	blt	a0,a5,8000098c <crash_forward>
    8000064c:	00001f17          	auipc	t5,0x1
    80000650:	bedf0f13          	addi	t5,t5,-1043 # 80001239 <reg_x7_output+0x1>
    80000654:	3d300b13          	li	s6,979
    80000658:	01621733          	sll	a4,tp,s6
    8000065c:	aa5a96e3          	bne	s5,t0,80000108 <crash_backward>
    80000660:	4960be23          	sd	s6,1180(ra)
    80000664:	0138c8b3          	xor	a7,a7,s3
    80000668:	423f2603          	lw	a2,1059(t5)
    8000066c:	08048d23          	sb	zero,154(s1)
    80000670:	f3818e13          	addi	t3,gp,-200 # 80001e48 <_end+0x738>
    80000674:	00000b93          	li	s7,0
    80000678:	00000e93          	li	t4,0
    8000067c:	a9dbe6e3          	bltu	s7,t4,80000108 <crash_backward>
    80000680:	011e7db3          	and	s11,t3,a7
    80000684:	013de933          	or	s2,s11,s3
    80000688:	45900d13          	li	s10,1113
    8000068c:	00100a93          	li	s5,1
    80000690:	05a00593          	li	a1,90
    80000694:	03fa9a93          	slli	s5,s5,0x3f
    80000698:	50300f93          	li	t6,1283
    8000069c:	70800f13          	li	t5,1800
    800006a0:	00000a17          	auipc	s4,0x0
    800006a4:	70ca0a13          	addi	s4,s4,1804 # 80000dac <test_end+0x40c>
    800006a8:	664a6e03          	lwu	t3,1636(s4)
    800006ac:	dd700813          	li	a6,-553
    800006b0:	96c00e13          	li	t3,-1684
    800006b4:	57900c13          	li	s8,1401
    800006b8:	010801b3          	add	gp,a6,a6
    800006bc:	4185d0b3          	sra	ra,a1,s8
    800006c0:	2d2df663          	bgeu	s11,s2,8000098c <crash_forward>
    800006c4:	bbc00313          	li	t1,-1092
    800006c8:	50585637          	lui	a2,0x50585
    800006cc:	cbe00393          	li	t2,-834
    800006d0:	022159b3          	divu	s3,sp,sp
    800006d4:	fff00113          	li	sp,-1
    800006d8:	31900c93          	li	s9,793
    800006dc:	01fff7b3          	and	a5,t6,t6
    800006e0:	03ed523b          	divuw	tp,s10,t5
    800006e4:	41ce5a3b          	sraw	s4,t3,t3
    800006e8:	039ccebb          	divw	t4,s9,s9
    800006ec:	026354bb          	divuw	s1,t1,t1
    800006f0:	00549dbb          	sllw	s11,s1,t0
    800006f4:	00100093          	li	ra,1
    800006f8:	00001697          	auipc	a3,0x1
    800006fc:	9a768693          	addi	a3,a3,-1625 # 8000109f <fromhost+0x5f>
    80000700:	e5100613          	li	a2,-431
    80000704:	02c00293          	li	t0,44
    80000708:	03f09093          	slli	ra,ra,0x3f
    8000070c:	4f56ab83          	lw	s7,1269(a3)
    80000710:	0073e533          	or	a0,t2,t2
    80000714:	fff00193          	li	gp,-1
    80000718:	47328713          	addi	a4,t0,1139
    8000071c:	9ee60913          	addi	s2,a2,-1554 # 505849ee <_start-0x2fa7b612>
    80000720:	0011c1b3          	xor	gp,gp,ra
    80000724:	0339e833          	rem	a6,s3,s3
    80000728:	41ad07bb          	subw	a5,s10,s10
    8000072c:	e1600693          	li	a3,-490
    80000730:	00d6a533          	slt	a0,a3,a3
    80000734:	034624b3          	mulhsu	s1,a2,s4
    80000738:	00100f13          	li	t5,1
    8000073c:	c9418a13          	addi	s4,gp,-876 # 80001ba4 <_end+0x494>
    80000740:	01514133          	xor	sp,sp,s5
    80000744:	0252febb          	remuw	t4,t0,t0
    80000748:	c4600b93          	li	s7,-954
    8000074c:	9ae2dee3          	bge	t0,a4,80000108 <crash_backward>
    80000750:	02d6ddbb          	divuw	s11,a3,a3
    80000754:	f4db8f93          	addi	t6,s7,-179
    80000758:	6f100593          	li	a1,1777
    8000075c:	00001797          	auipc	a5,0x1
    80000760:	bf478793          	addi	a5,a5,-1036 # 80001350 <test_memory+0x50>
    80000764:	9bfb82e3          	beq	s7,t6,80000108 <crash_backward>
    80000768:	002ef433          	and	s0,t4,sp
    8000076c:	94818993          	addi	s3,gp,-1720 # 80001858 <_end+0x148>
    80000770:	00001217          	auipc	tp,0x1
    80000774:	8cb20213          	addi	tp,tp,-1845 # 8000103b <tohost+0x3b>
    80000778:	0be7b423          	sd	t5,168(a5)
    8000077c:	8d0a5383          	lhu	t2,-1840(s4)
    80000780:	00001817          	auipc	a6,0x1
    80000784:	c9080813          	addi	a6,a6,-880 # 80001410 <test_memory+0x110>
    80000788:	39658313          	addi	t1,a1,918
    8000078c:	02980483          	lb	s1,41(a6)
    80000790:	96658ce3          	beq	a1,t1,80000108 <crash_backward>
    80000794:	2c2224a3          	sw	sp,713(tp) # 2c9 <_start-0x7ffffd37>
    80000798:	015b6b33          	or	s6,s6,s5
    8000079c:	003b7c33          	and	s8,s6,gp
    800007a0:	03ff1f13          	slli	t5,t5,0x3f
    800007a4:	0014e8b3          	or	a7,s1,ra
    800007a8:	aab9cc83          	lbu	s9,-1365(s3)
    800007ac:	1f88e063          	bltu	a7,s8,8000098c <crash_forward>
    800007b0:	98818e13          	addi	t3,gp,-1656 # 80001898 <_end+0x188>
    800007b4:	0273e73b          	remw	a4,t2,t2
    800007b8:	9d000593          	li	a1,-1584
    800007bc:	00000f97          	auipc	t6,0x0
    800007c0:	7fbf8f93          	addi	t6,t6,2043 # 80000fb7 <test_end+0x617>
    800007c4:	aab38513          	addi	a0,t2,-1365
    800007c8:	01398eb3          	add	t4,s3,s3
    800007cc:	036b6bbb          	remw	s7,s6,s6
    800007d0:	00088693          	mv	a3,a7
    800007d4:	00100a13          	li	s4,1
    800007d8:	fff00913          	li	s2,-1
    800007dc:	00100893          	li	a7,1
    800007e0:	a5218d93          	addi	s11,gp,-1454 # 80001962 <_end+0x252>
    800007e4:	00068c93          	mv	s9,a3
    800007e8:	ce6e2023          	sw	t1,-800(t3)
    800007ec:	72bfaea3          	sw	a1,1853(t6)
    800007f0:	00b5b7b3          	sltu	a5,a1,a1
    800007f4:	40f2d3b3          	sra	t2,t0,a5
    800007f8:	afb18813          	addi	a6,gp,-1285 # 80001a0b <_end+0x2fb>
    800007fc:	01e94933          	xor	s2,s2,t5
    80000800:	03fa1a13          	slli	s4,s4,0x3f
    80000804:	b5ed8183          	lb	gp,-1186(s11)
    80000808:	01207d33          	and	s10,zero,s2
    8000080c:	bd981ea3          	sh	s9,-1059(a6)
    80000810:	fff00313          	li	t1,-1
    80000814:	03f89893          	slli	a7,a7,0x3f
    80000818:	fff00c13          	li	s8,-1
    8000081c:	011c4c33          	xor	s8,s8,a7
    80000820:	018f7733          	and	a4,t5,s8
    80000824:	01126233          	or	tp,tp,a7
    80000828:	01ed6633          	or	a2,s10,t5
    8000082c:	01434333          	xor	t1,t1,s4
    80000830:	006cf2b3          	and	t0,s9,t1
    80000834:	0142e4b3          	or	s1,t0,s4
    80000838:	00001e97          	auipc	t4,0x1
    8000083c:	ccde8e93          	addi	t4,t4,-819 # 80001505 <test_memory+0x205>
    80000840:	00001397          	auipc	t2,0x1
    80000844:	b7b38393          	addi	t2,t2,-1157 # 800013bb <test_memory+0xbb>
    80000848:	0251dab3          	divu	s5,gp,t0
    8000084c:	00000b97          	auipc	s7,0x0
    80000850:	4adb8b93          	addi	s7,s7,1197 # 80000cf9 <test_end+0x359>
    80000854:	2f300e13          	li	t3,755
    80000858:	bb5a061b          	addiw	a2,s4,-1099
    8000085c:	f31e9083          	lh	ra,-207(t4)
    80000860:	018f5193          	srli	gp,t5,0x18
    80000864:	6ede0113          	addi	sp,t3,1773
    80000868:	00100213          	li	tp,1
    8000086c:	00001d17          	auipc	s10,0x1
    80000870:	e01d0d13          	addi	s10,s10,-511 # 8000166d <test_memory+0x36d>
    80000874:	00001897          	auipc	a7,0x1
    80000878:	ae588893          	addi	a7,a7,-1307 # 80001359 <test_memory+0x59>
    8000087c:	61fbe783          	lwu	a5,1567(s7)
    80000880:	65e00693          	li	a3,1630
    80000884:	1092c463          	blt	t0,s1,8000098c <crash_forward>
    80000888:	03f21213          	slli	tp,tp,0x3f
    8000088c:	71e00d93          	li	s11,1822
    80000890:	066b2cb7          	lui	s9,0x66b2
    80000894:	00001b17          	auipc	s6,0x1
    80000898:	eb5b0b13          	addi	s6,s6,-331 # 80001749 <_end+0x39>
    8000089c:	fff00f93          	li	t6,-1
    800008a0:	fb400f13          	li	t5,-76
    800008a4:	00001a17          	auipc	s4,0x1
    800008a8:	eeda0a13          	addi	s4,s4,-275 # 80001791 <_end+0x81>
    800008ac:	43e68513          	addi	a0,a3,1086
    800008b0:	03ed8433          	mul	s0,s11,t5
    800008b4:	cabd05a3          	sb	a1,-853(s10)
    800008b8:	00100e93          	li	t4,1
    800008bc:	004fcfb3          	xor	t6,t6,tp
    800008c0:	0453b803          	ld	a6,69(t2)
    800008c4:	01f4f5b3          	and	a1,s1,t6
    800008c8:	c3bb1c03          	lh	s8,-965(s6)
    800008cc:	03fe9e93          	slli	t4,t4,0x3f
    800008d0:	fff00713          	li	a4,-1
    800008d4:	92318c93          	addi	s9,gp,-1757 # 80001833 <_end+0x123>
    800008d8:	14e8c903          	lbu	s2,334(a7)
    800008dc:	0045e9b3          	or	s3,a1,tp
    800008e0:	01d74733          	xor	a4,a4,t4
    800008e4:	b90a4483          	lbu	s1,-1136(s4)
    800008e8:	39e00093          	li	ra,926
    800008ec:	22300613          	li	a2,547
    800008f0:	00e3f1b3          	and	gp,t2,a4
    800008f4:	01d1eab3          	or	s5,gp,t4
    800008f8:	aecc99a3          	sh	a2,-1293(s9) # 66b1af3 <_start-0x7994e50d>
    800008fc:	0951f863          	bgeu	gp,s5,8000098c <crash_forward>
    80000900:	00c0ce33          	xor	t3,ra,a2
    80000904:	0040006f          	j	80000908 <reg_dump>

0000000080000908 <reg_dump>:
    80000908:	00001097          	auipc	ra,0x1
    8000090c:	df808093          	addi	ra,ra,-520 # 80001700 <loop_count>
    80000910:	0000a103          	lw	sp,0(ra)
    80000914:	fff10193          	addi	gp,sp,-1
    80000918:	0030a023          	sw	gp,0(ra)
    8000091c:	880116e3          	bnez	sp,800001a8 <pseg_0>
    80000920:	00001097          	auipc	ra,0x1
    80000924:	8e008093          	addi	ra,ra,-1824 # 80001200 <begin_signature>
    80000928:	0000b023          	sd	zero,0(ra)
    8000092c:	0020b823          	sd	sp,16(ra)
    80000930:	0030bc23          	sd	gp,24(ra)
    80000934:	0240b023          	sd	tp,32(ra)
    80000938:	0250b423          	sd	t0,40(ra)
    8000093c:	0260b823          	sd	t1,48(ra)
    80000940:	0480b023          	sd	s0,64(ra)
    80000944:	0490b423          	sd	s1,72(ra)
    80000948:	04a0b823          	sd	a0,80(ra)
    8000094c:	04b0bc23          	sd	a1,88(ra)
    80000950:	06c0b023          	sd	a2,96(ra)
    80000954:	06d0b423          	sd	a3,104(ra)
    80000958:	06e0b823          	sd	a4,112(ra)
    8000095c:	06f0bc23          	sd	a5,120(ra)
    80000960:	0900b023          	sd	a6,128(ra)
    80000964:	0920b823          	sd	s2,144(ra)
    80000968:	0930bc23          	sd	s3,152(ra)
    8000096c:	0b50b423          	sd	s5,168(ra)
    80000970:	0d80b023          	sd	s8,192(ra)
    80000974:	0db0bc23          	sd	s11,216(ra)
    80000978:	0fc0b023          	sd	t3,224(ra)
    8000097c:	0fd0b423          	sd	t4,232(ra)
    80000980:	0fe0b823          	sd	t5,240(ra)
    80000984:	0ff0bc23          	sd	t6,248(ra)
    80000988:	0180006f          	j	800009a0 <test_end>

000000008000098c <crash_forward>:
    8000098c:	0ff0000f          	fence
    80000990:	00018063          	beqz	gp,80000990 <crash_forward+0x4>
    80000994:	00119193          	slli	gp,gp,0x1
    80000998:	0011e193          	ori	gp,gp,1
    8000099c:	00000073          	ecall

00000000800009a0 <test_end>:
    800009a0:	0ff0000f          	fence
    800009a4:	00100193          	li	gp,1
    800009a8:	00000073          	ecall
    800009ac:	c0001073          	unimp
	...

Disassembly of section .tohost:

0000000080001000 <tohost>:
	...

0000000080001040 <fromhost>:
	...
