
test.elf:     file format elf64-littleriscv


Disassembly of section .text.init:

0000000080000000 <_start>:
    80000000:	04c0006f          	j	8000004c <reset_vector>

0000000080000004 <trap_vector>:
    80000004:	34202f73          	csrr	t5,mcause
    80000008:	00800f93          	li	t6,8
    8000000c:	03ff0a63          	beq	t5,t6,80000040 <write_tohost>
    80000010:	00900f93          	li	t6,9
    80000014:	03ff0663          	beq	t5,t6,80000040 <write_tohost>
    80000018:	00b00f93          	li	t6,11
    8000001c:	03ff0263          	beq	t5,t6,80000040 <write_tohost>
    80000020:	80000f17          	auipc	t5,0x80000
    80000024:	fe0f0f13          	addi	t5,t5,-32 # 0 <_start-0x80000000>
    80000028:	000f0463          	beqz	t5,80000030 <trap_vector+0x2c>
    8000002c:	000f0067          	jr	t5
    80000030:	34202f73          	csrr	t5,mcause
    80000034:	000f5463          	bgez	t5,8000003c <handle_exception>
    80000038:	0040006f          	j	8000003c <handle_exception>

000000008000003c <handle_exception>:
    8000003c:	5391e193          	ori	gp,gp,1337

0000000080000040 <write_tohost>:
    80000040:	00001f17          	auipc	t5,0x1
    80000044:	fc3f2023          	sw	gp,-64(t5) # 80001000 <tohost>
    80000048:	ff9ff06f          	j	80000040 <write_tohost>

000000008000004c <reset_vector>:
    8000004c:	f1402573          	csrr	a0,mhartid
    80000050:	00051063          	bnez	a0,80000050 <reset_vector+0x4>
    80000054:	00000297          	auipc	t0,0x0
    80000058:	01028293          	addi	t0,t0,16 # 80000064 <reset_vector+0x18>
    8000005c:	30529073          	csrw	mtvec,t0
    80000060:	18005073          	csrwi	satp,0
    80000064:	00000297          	auipc	t0,0x0
    80000068:	01c28293          	addi	t0,t0,28 # 80000080 <reset_vector+0x34>
    8000006c:	30529073          	csrw	mtvec,t0
    80000070:	fff00293          	li	t0,-1
    80000074:	3b029073          	csrw	pmpaddr0,t0
    80000078:	01f00293          	li	t0,31
    8000007c:	3a029073          	csrw	pmpcfg0,t0
    80000080:	00000297          	auipc	t0,0x0
    80000084:	01828293          	addi	t0,t0,24 # 80000098 <reset_vector+0x4c>
    80000088:	30529073          	csrw	mtvec,t0
    8000008c:	30205073          	csrwi	medeleg,0
    80000090:	30305073          	csrwi	mideleg,0
    80000094:	30405073          	csrwi	mie,0
    80000098:	00000193          	li	gp,0
    8000009c:	00000297          	auipc	t0,0x0
    800000a0:	f6828293          	addi	t0,t0,-152 # 80000004 <trap_vector>
    800000a4:	30529073          	csrw	mtvec,t0
    800000a8:	00100513          	li	a0,1
    800000ac:	01f51513          	slli	a0,a0,0x1f
    800000b0:	00055863          	bgez	a0,800000c0 <reset_vector+0x74>
    800000b4:	0ff0000f          	fence
    800000b8:	00100193          	li	gp,1
    800000bc:	00000073          	ecall
    800000c0:	80000297          	auipc	t0,0x80000
    800000c4:	f4028293          	addi	t0,t0,-192 # 0 <_start-0x80000000>
    800000c8:	00028e63          	beqz	t0,800000e4 <reset_vector+0x98>
    800000cc:	10529073          	csrw	stvec,t0
    800000d0:	0000b2b7          	lui	t0,0xb
    800000d4:	1092829b          	addiw	t0,t0,265
    800000d8:	30229073          	csrw	medeleg,t0
    800000dc:	30202373          	csrr	t1,medeleg
    800000e0:	f4629ee3          	bne	t0,t1,8000003c <handle_exception>
    800000e4:	30005073          	csrwi	mstatus,0
    800000e8:	00000297          	auipc	t0,0x0
    800000ec:	01428293          	addi	t0,t0,20 # 800000fc <reset_vector+0xb0>
    800000f0:	34129073          	csrw	mepc,t0
    800000f4:	f1402573          	csrr	a0,mhartid
    800000f8:	30200073          	mret
    800000fc:	0180006f          	j	80000114 <test_start>

0000000080000100 <crash_backward>:
    80000100:	0ff0000f          	fence
    80000104:	00018063          	beqz	gp,80000104 <crash_backward+0x4>
    80000108:	00119193          	slli	gp,gp,0x1
    8000010c:	0011e193          	ori	gp,gp,1
    80000110:	00000073          	ecall

0000000080000114 <test_start>:
    80000114:	00001f97          	auipc	t6,0x1
    80000118:	fecf8f93          	addi	t6,t6,-20 # 80001100 <hidden_data>
    8000011c:	000fb003          	ld	zero,0(t6)
    80000120:	008fb083          	ld	ra,8(t6)
    80000124:	010fb103          	ld	sp,16(t6)
    80000128:	018fb183          	ld	gp,24(t6)
    8000012c:	020fb203          	ld	tp,32(t6)
    80000130:	028fb283          	ld	t0,40(t6)
    80000134:	030fb303          	ld	t1,48(t6)
    80000138:	038fb383          	ld	t2,56(t6)
    8000013c:	040fb403          	ld	s0,64(t6)
    80000140:	048fb483          	ld	s1,72(t6)
    80000144:	050fb503          	ld	a0,80(t6)
    80000148:	058fb583          	ld	a1,88(t6)
    8000014c:	060fb603          	ld	a2,96(t6)
    80000150:	068fb683          	ld	a3,104(t6)
    80000154:	070fb703          	ld	a4,112(t6)
    80000158:	078fb783          	ld	a5,120(t6)
    8000015c:	080fb803          	ld	a6,128(t6)
    80000160:	088fb883          	ld	a7,136(t6)
    80000164:	090fb903          	ld	s2,144(t6)
    80000168:	098fb983          	ld	s3,152(t6)
    8000016c:	0a0fba03          	ld	s4,160(t6)
    80000170:	0a8fba83          	ld	s5,168(t6)
    80000174:	0b0fbb03          	ld	s6,176(t6)
    80000178:	0b8fbb83          	ld	s7,184(t6)
    8000017c:	0c0fbc03          	ld	s8,192(t6)
    80000180:	0c8fbc83          	ld	s9,200(t6)
    80000184:	0d0fbd03          	ld	s10,208(t6)
    80000188:	0d8fbd83          	ld	s11,216(t6)
    8000018c:	0e0fbe03          	ld	t3,224(t6)
    80000190:	0e8fbe83          	ld	t4,232(t6)
    80000194:	0f0fbf03          	ld	t5,240(t6)
    80000198:	0f8fbf83          	ld	t6,248(t6)
    8000019c:	4600006f          	j	800005fc <pseg_0>

00000000800001a0 <pseg_12>:
    800001a0:	06e00f13          	li	t5,110
    800001a4:	03fe1e13          	slli	t3,t3,0x3f
    800001a8:	fff00c13          	li	s8,-1
    800001ac:	01eb02b3          	add	t0,s6,t5
    800001b0:	00001a17          	auipc	s4,0x1
    800001b4:	3dfa0a13          	addi	s4,s4,991 # 8000158f <test_memory+0x28f>
    800001b8:	01cc4c33          	xor	s8,s8,t3
    800001bc:	00068393          	mv	t2,a3
    800001c0:	64100c93          	li	s9,1601
    800001c4:	00001117          	auipc	sp,0x1
    800001c8:	a5210113          	addi	sp,sp,-1454 # 80000c16 <test_end+0x15a>
    800001cc:	16000593          	li	a1,352
    800001d0:	00000293          	li	t0,0
    800001d4:	018ef333          	and	t1,t4,s8
    800001d8:	00001d97          	auipc	s11,0x1
    800001dc:	ccbd8d93          	addi	s11,s11,-821 # 80000ea3 <test_end+0x3e7>
    800001e0:	019c84b3          	add	s1,s9,s9
    800001e4:	7da13203          	ld	tp,2010(sp)
    800001e8:	00000f13          	li	t5,0
    800001ec:	0000de9b          	srliw	t4,ra,0x0
    800001f0:	00001897          	auipc	a7,0x1
    800001f4:	50288893          	addi	a7,a7,1282 # 800016f2 <test_memory+0x3f2>
    800001f8:	0d7bba83          	ld	s5,215(s7)
    800001fc:	01ffbd33          	sltu	s10,t6,t6
    80000200:	00001997          	auipc	s3,0x1
    80000204:	ed798993          	addi	s3,s3,-297 # 800010d7 <fromhost+0x97>
    80000208:	6cd00613          	li	a2,1741
    8000020c:	c058b723          	sd	t0,-1010(a7)
    80000210:	00038693          	mv	a3,t2
    80000214:	09decae3          	blt	t4,t4,80000aa8 <crash_forward>
    80000218:	00001717          	auipc	a4,0x1
    8000021c:	55170713          	addi	a4,a4,1361 # 80001769 <_end+0x59>
    80000220:	d67737a3          	sd	t2,-657(a4)
    80000224:	00001817          	auipc	a6,0x1
    80000228:	da180813          	addi	a6,a6,-607 # 80000fc5 <test_end+0x509>
    8000022c:	00001b17          	auipc	s6,0x1
    80000230:	d8db0b13          	addi	s6,s6,-627 # 80000fb9 <test_end+0x4fd>
    80000234:	00001217          	auipc	tp,0x1
    80000238:	f7320213          	addi	tp,tp,-141 # 800011a7 <reg_x20_init+0x7>
    8000023c:	4b59b4a3          	sd	s5,1193(s3)
    80000240:	01cee0b3          	or	ra,t4,t3
    80000244:	45fdd903          	lhu	s2,1119(s11)
    80000248:	ead3ece3          	bltu	t2,a3,80000100 <crash_backward>
    8000024c:	4e681aa3          	sh	t1,1269(a6)
    80000250:	01b00cbb          	addw	s9,zero,s11
    80000254:	f29a2503          	lw	a0,-215(s4)
    80000258:	41e854b3          	sra	s1,a6,t5
    8000025c:	00001c97          	auipc	s9,0x1
    80000260:	195c8c93          	addi	s9,s9,405 # 800013f1 <test_memory+0xf1>
    80000264:	e860eee3          	bltu	ra,t1,80000100 <crash_backward>
    80000268:	40a0d89b          	sraiw	a7,ra,0xa
    8000026c:	09fcaa03          	lw	s4,159(s9)
    80000270:	504b0f83          	lb	t6,1284(s6)
    80000274:	40ed0933          	sub	s2,s10,a4
    80000278:	00af8cbb          	addw	s9,t6,a0
    8000027c:	c2518e13          	addi	t3,gp,-987 # 80001b35 <_end+0x425>
    80000280:	00000493          	li	s1,0
    80000284:	00000d93          	li	s11,0
    80000288:	00c621b3          	slt	gp,a2,a2
    8000028c:	407e80bb          	subw	ra,t4,t2
    80000290:	4c725103          	lhu	sp,1223(tp) # 4c7 <_start-0x7ffffb39>
    80000294:	adf00913          	li	s2,-1313
    80000298:	01b498e3          	bne	s1,s11,80000aa8 <crash_forward>
    8000029c:	9d900f93          	li	t6,-1575
    800002a0:	41f95b3b          	sraw	s6,s2,t6
    800002a4:	dc800793          	li	a5,-568
    800002a8:	c4218893          	addi	a7,gp,-958 # 80001b52 <_end+0x442>
    800002ac:	9a18ab23          	sw	ra,-1610(a7)
    800002b0:	00f5d433          	srl	s0,a1,a5
    800002b4:	1d700a13          	li	s4,471
    800002b8:	415ad733          	sra	a4,s5,s5
    800002bc:	00001317          	auipc	t1,0x1
    800002c0:	2ba30313          	addi	t1,t1,698 # 80001576 <test_memory+0x276>
    800002c4:	23e2fe63          	bleu	t5,t0,80000500 <pseg_13>
    800002c8:	d7ed                	beqz	a5,800002b2 <pseg_12+0x112>
    800002ca:	2dcc                	fld	fa1,152(a1)

00000000800002cc <pseg_14>:
    800002cc:	d0900a93          	li	s5,-759
    800002d0:	5a900693          	li	a3,1449
    800002d4:	08d31b23          	sh	a3,150(t1)
    800002d8:	f5100f13          	li	t5,-175
    800002dc:	9f718713          	addi	a4,gp,-1545 # 80001907 <_end+0x1f7>
    800002e0:	5f700913          	li	s2,1527
    800002e4:	b1b18613          	addi	a2,gp,-1253 # 80001a2b <_end+0x31b>
    800002e8:	7c001063          	bnez	zero,80000aa8 <crash_forward>
    800002ec:	412954b3          	sra	s1,s2,s2
    800002f0:	27600c93          	li	s9,630
    800002f4:	438c8593          	addi	a1,s9,1080
    800002f8:	d3f18c13          	addi	s8,gp,-705 # 80001c4f <_end+0x53f>
    800002fc:	00068893          	mv	a7,a3
    80000300:	e00060e3          	bltu	zero,zero,80000100 <crash_backward>
    80000304:	4f700d13          	li	s10,1271
    80000308:	6a200193          	li	gp,1698
    8000030c:	78bc8e63          	beq	s9,a1,80000aa8 <crash_forward>
    80000310:	00001317          	auipc	t1,0x1
    80000314:	ce530313          	addi	t1,t1,-795 # 80000ff5 <test_end+0x539>
    80000318:	b4f60aa3          	sb	a5,-1195(a2)
    8000031c:	6e700b93          	li	s7,1767
    80000320:	40a50a33          	sub	s4,a0,a0
    80000324:	ef800393          	li	t2,-264
    80000328:	31135103          	lhu	sp,785(t1)
    8000032c:	9aa18b13          	addi	s6,gp,-1622 # 800018ba <_end+0x1aa>
    80000330:	00088213          	mv	tp,a7
    80000334:	01291e33          	sll	t3,s2,s2
    80000338:	015a8ebb          	addw	t4,s5,s5
    8000033c:	01a6b533          	sltu	a0,a3,s10
    80000340:	01ad563b          	srlw	a2,s10,s10
    80000344:	00001e97          	auipc	t4,0x1
    80000348:	fe1e8e93          	addi	t4,t4,-31 # 80001325 <test_memory+0x25>
    8000034c:	004265b3          	or	a1,tp,tp
    80000350:	9e1c3d83          	ld	s11,-1567(s8)
    80000354:	00100113          	li	sp,1
    80000358:	beab5083          	lhu	ra,-1046(s6)
    8000035c:	62488263          	beq	a7,tp,80000980 <pseg_15>
    80000360:	ef91                	bnez	a5,8000037c <pseg_22+0x18>
    80000362:	4ee5                	li	t4,25

0000000080000364 <pseg_22>:
    80000364:	00a65a33          	srl	s4,a2,a0
    80000368:	00001a97          	auipc	s5,0x1
    8000036c:	0faa8a93          	addi	s5,s5,250 # 80001462 <test_memory+0x162>
    80000370:	68928883          	lb	a7,1673(t0)
    80000374:	191aa523          	sw	a7,394(s5)
    80000378:	00001d17          	auipc	s10,0x1
    8000037c:	f90d0d13          	addi	s10,s10,-112 # 80001308 <test_memory+0x8>
    80000380:	61900493          	li	s1,1561
    80000384:	009ba3b3          	slt	t2,s7,s1
    80000388:	25dd01a3          	sb	t4,579(s10)
    8000038c:	57800f93          	li	t6,1400
    80000390:	aeb18b13          	addi	s6,gp,-1301 # 800019fb <_end+0x2eb>
    80000394:	01200813          	li	a6,18
    80000398:	c41b2e03          	lw	t3,-959(s6)
    8000039c:	72c00913          	li	s2,1836
    800003a0:	3c2f8c93          	addi	s9,t6,962
    800003a4:	01eee9b3          	or	s3,t4,t5
    800003a8:	41085db3          	sra	s11,a6,a6
    800003ac:	06d9f663          	bleu	a3,s3,80000418 <pseg_23>
    800003b0:	d3c517ef          	jal	a5,7ff518ec <_start-0xae714>

00000000800003b4 <pseg_20>:
    800003b4:	6e777a63          	bleu	t2,a4,80000aa8 <crash_forward>
    800003b8:	e6118b93          	addi	s7,gp,-415 # 80001d71 <_end+0x661>
    800003bc:	26f00c93          	li	s9,623
    800003c0:	930b0193          	addi	gp,s6,-1744
    800003c4:	d3f2eee3          	bltu	t0,t6,80000100 <crash_backward>
    800003c8:	019ca8b3          	slt	a7,s9,s9
    800003cc:	80fb91a3          	sh	a5,-2045(s7)
    800003d0:	4106de1b          	sraiw	t3,a3,0x10
    800003d4:	fff00113          	li	sp,-1
    800003d8:	00001a97          	auipc	s5,0x1
    800003dc:	fa2a8a93          	addi	s5,s5,-94 # 8000137a <test_memory+0x7a>
    800003e0:	0010d933          	srl	s2,ra,ra
    800003e4:	0adaa123          	sw	a3,162(s5)
    800003e8:	00100e93          	li	t4,1
    800003ec:	d0001ae3          	bnez	zero,80000100 <crash_backward>
    800003f0:	5a14ce63          	blt	s1,ra,800009ac <pseg_21>
    800003f4:	656c                	ld	a1,200(a0)
    800003f6:	764d                	lui	a2,0xffff3

00000000800003f8 <pseg_7>:
    800003f8:	6d800f93          	li	t6,1752
    800003fc:	b9d00b93          	li	s7,-1123
    80000400:	e4700793          	li	a5,-441
    80000404:	00a1e433          	or	s0,gp,a0
    80000408:	00100e13          	li	t3,1
    8000040c:	40d4093b          	subw	s2,s0,a3
    80000410:	30000e63          	beqz	zero,8000072c <pseg_8>
    80000414:	7188                	ld	a0,32(a1)
    80000416:	2c44                	fld	fs1,152(s0)

0000000080000418 <pseg_23>:
    80000418:	03fc1c13          	slli	s8,s8,0x3f
    8000041c:	fff00793          	li	a5,-1
    80000420:	02a90093          	addi	ra,s2,42
    80000424:	0187c7b3          	xor	a5,a5,s8
    80000428:	00eaf333          	and	t1,s5,a4
    8000042c:	67fcce63          	blt	s9,t6,80000aa8 <crash_forward>
    80000430:	3d20f263          	bleu	s2,ra,800007f4 <pseg_24>
    80000434:	14ebc4bf  	0xba60231314ebc4bf

0000000080000438 <pseg_16>:
    80000438:	ba602313          	slti	t1,zero,-1114
    8000043c:	00001c17          	auipc	s8,0x1
    80000440:	bd4c0c13          	addi	s8,s8,-1068 # 80001010 <tohost+0x10>
    80000444:	00001517          	auipc	a0,0x1
    80000448:	d0850513          	addi	a0,a0,-760 # 8000114c <reg_x9_init+0x4>
    8000044c:	03f11113          	slli	sp,sp,0x3f
    80000450:	013be833          	or	a6,s7,s3
    80000454:	488c3903          	ld	s2,1160(s8)
    80000458:	75f00313          	li	t1,1887
    8000045c:	00630ebb          	addw	t4,t1,t1
    80000460:	02400b13          	li	s6,36
    80000464:	0144b6b3          	sltu	a3,s1,s4
    80000468:	33750a83          	lb	s5,823(a0)
    8000046c:	a74711a3          	sh	s4,-1437(a4)
    80000470:	0073a7b3          	slt	a5,t2,t2
    80000474:	f0c18613          	addi	a2,gp,-244 # 80001e1c <_end+0x70c>
    80000478:	815607a3          	sb	s5,-2033(a2) # ffffffffffff280f <__global_pointer$+0xffffffff7fff08ff>
    8000047c:	59100d93          	li	s11,1425
    80000480:	399b0893          	addi	a7,s6,921
    80000484:	00001917          	auipc	s2,0x1
    80000488:	8d890913          	addi	s2,s2,-1832 # 80000d5c <test_end+0x2a0>
    8000048c:	83100093          	li	ra,-1999
    80000490:	4085d53b          	sraw	a0,a1,s0
    80000494:	000b8e93          	mv	t4,s7
    80000498:	40d681bb          	subw	gp,a3,a3
    8000049c:	0118dbb3          	srl	s7,a7,a7
    800004a0:	415d8f33          	sub	t5,s11,s5
    800004a4:	611b5263          	ble	a7,s6,80000aa8 <crash_forward>
    800004a8:	fff00e13          	li	t3,-1
    800004ac:	70c96303          	lwu	t1,1804(s2)
    800004b0:	002e4e33          	xor	t3,t3,sp
    800004b4:	01c47fb3          	and	t6,s0,t3
    800004b8:	002fea33          	or	s4,t6,sp
    800004bc:	00100693          	li	a3,1
    800004c0:	00001997          	auipc	s3,0x1
    800004c4:	af098993          	addi	s3,s3,-1296 # 80000fb0 <test_end+0x4f4>
    800004c8:	01909d33          	sll	s10,ra,s9
    800004cc:	001de5b3          	or	a1,s11,ra
    800004d0:	01cfd43b          	srlw	s0,t6,t3
    800004d4:	03f69693          	slli	a3,a3,0x3f
    800004d8:	000e8613          	mv	a2,t4
    800004dc:	68600793          	li	a5,1670
    800004e0:	fff00a93          	li	s5,-1
    800004e4:	00030493          	mv	s1,t1
    800004e8:	00dacab3          	xor	s5,s5,a3
    800004ec:	015673b3          	and	t2,a2,s5
    800004f0:	40f7d73b          	sraw	a4,a5,a5
    800004f4:	0ffa7263          	bleu	t6,s4,800005d8 <pseg_17>
    800004f8:	b379                	j	80000286 <pseg_12+0xe6>
    800004fa:	377d                	addiw	a4,a4,-1

00000000800004fc <pseg_27>:
    800004fc:	5100006f          	j	80000a0c <reg_dump>

0000000080000500 <pseg_13>:
    80000500:	05ea0c13          	addi	s8,s4,94
    80000504:	9d7e4383          	lbu	t2,-1577(t3)
    80000508:	dd4c52e3          	ble	s4,s8,800002cc <pseg_14>
    8000050c:	f74d                	bnez	a4,800004b6 <pseg_16+0x7e>
    8000050e:	73b5                	lui	t2,0xfffed

0000000080000510 <pseg_9>:
    80000510:	00001597          	auipc	a1,0x1
    80000514:	8f558593          	addi	a1,a1,-1803 # 80000e05 <test_end+0x349>
    80000518:	de400d13          	li	s10,-540
    8000051c:	00e71f3b          	sllw	t5,a4,a4
    80000520:	00001a17          	auipc	s4,0x1
    80000524:	298a0a13          	addi	s4,s4,664 # 800017b8 <_end+0xa8>
    80000528:	e2dd0613          	addi	a2,s10,-467
    8000052c:	ba400993          	li	s3,-1116
    80000530:	34d8de63          	ble	a3,a7,8000088c <pseg_10>
    80000534:	fb82516f          	jal	sp,7ff25cec <_start-0xda314>

0000000080000538 <pseg_2>:
    80000538:	0134d73b          	srlw	a4,s1,s3
    8000053c:	cd8aaea3          	sw	s8,-803(s5)
    80000540:	007c1913          	slli	s2,s8,0x7
    80000544:	00001117          	auipc	sp,0x1
    80000548:	99810113          	addi	sp,sp,-1640 # 80000edc <test_end+0x420>
    8000054c:	54300e13          	li	t3,1347
    80000550:	b0e00813          	li	a6,-1266
    80000554:	00001797          	auipc	a5,0x1
    80000558:	1d978793          	addi	a5,a5,473 # 8000172d <_end+0x1d>
    8000055c:	0099fa33          	and	s4,s3,s1
    80000560:	01dd4d33          	xor	s10,s10,t4
    80000564:	0171e633          	or	a2,gp,s7
    80000568:	64539923          	sh	t0,1618(t2) # fffffffffffed652 <__global_pointer$+0xffffffff7ffeb742>
    8000056c:	c6b00293          	li	t0,-917
    80000570:	01080f33          	add	t5,a6,a6
    80000574:	01835b33          	srl	s6,t1,s8
    80000578:	4073d4bb          	sraw	s1,t2,t2
    8000057c:	00000693          	li	a3,0
    80000580:	37400313          	li	t1,884
    80000584:	00001a97          	auipc	s5,0x1
    80000588:	07fa8a93          	addi	s5,s5,127 # 80001603 <test_memory+0x303>
    8000058c:	7f012583          	lw	a1,2032(sp)
    80000590:	0cc51a63          	bne	a0,a2,80000664 <pseg_3>
    80000594:	43c6                	lw	t2,80(sp)
    80000596:	9d71                	0x9d71

0000000080000598 <pseg_4>:
    80000598:	0025c5b3          	xor	a1,a1,sp
    8000059c:	00bdf2b3          	and	t0,s11,a1
    800005a0:	01b94933          	xor	s2,s2,s11
    800005a4:	00d00e13          	li	t3,13
    800005a8:	0020ed33          	or	s10,ra,sp
    800005ac:	01ce5c3b          	srlw	s8,t3,t3
    800005b0:	c6082fa3          	sw	zero,-897(a6)
    800005b4:	45a29463          	bne	t0,s10,800009fc <pseg_5>
    800005b8:	b26a                	fsd	fs10,288(sp)
    800005ba:	          	0xb138a0f

00000000800005bc <pseg_11>:
    800005bc:	39e00b13          	li	s6,926
    800005c0:	00000193          	li	gp,0
    800005c4:	00ee8133          	add	sp,t4,a4
    800005c8:	00001b97          	auipc	s7,0x1
    800005cc:	dd9b8b93          	addi	s7,s7,-551 # 800013a1 <test_memory+0xa1>
    800005d0:	bc3408e3          	beq	s0,gp,800001a0 <pseg_12>
    800005d4:	2fa2                	fld	ft11,8(sp)
    800005d6:	bde8                	fsd	fa0,248(a1)

00000000800005d8 <pseg_17>:
    800005d8:	00001217          	auipc	tp,0x1
    800005dc:	99220213          	addi	tp,tp,-1646 # 80000f6a <test_end+0x4ae>
    800005e0:	00d3e2b3          	or	t0,t2,a3
    800005e4:	b0ceeee3          	bltu	t4,a2,80000100 <crash_backward>
    800005e8:	71722723          	sw	s7,1806(tp) # 70e <_start-0x7ffff8f2>
    800005ec:	6ce9cc83          	lbu	s9,1742(s3)
    800005f0:	00048813          	mv	a6,s1
    800005f4:	1e53ec63          	bltu	t2,t0,800007ec <pseg_18>
    800005f8:	9129                	srli	a0,a0,0x2a
    800005fa:	abe4                	fsd	fs1,208(a5)

00000000800005fc <pseg_0>:
    800005fc:	b450c913          	xori	s2,ra,-1211
    80000600:	00000497          	auipc	s1,0x0
    80000604:	26448493          	addi	s1,s1,612 # 80000864 <pseg_1>
    80000608:	00100e93          	li	t4,1
    8000060c:	00001197          	auipc	gp,0x1
    80000610:	04c18193          	addi	gp,gp,76 # 80001658 <test_memory+0x358>
    80000614:	00000897          	auipc	a7,0x0
    80000618:	68e88893          	addi	a7,a7,1678 # 80000ca2 <test_end+0x1e6>
    8000061c:	404cd29b          	sraiw	t0,s9,0x4
    80000620:	41fb86b3          	sub	a3,s7,t6
    80000624:	01bd1733          	sll	a4,s10,s11
    80000628:	d4700993          	li	s3,-697
    8000062c:	00000397          	auipc	t2,0x0
    80000630:	79638393          	addi	t2,t2,1942 # 80000dc2 <test_end+0x306>
    80000634:	00100b93          	li	s7,1
    80000638:	b3b18313          	addi	t1,gp,-1221 # 80001a4b <_end+0x33b>
    8000063c:	03fb9b93          	slli	s7,s7,0x3f
    80000640:	03fe9e93          	slli	t4,t4,0x3f
    80000644:	018c9f1b          	slliw	t5,s9,0x18
    80000648:	a5718a93          	addi	s5,gp,-1449 # 80001967 <_end+0x257>
    8000064c:	70889c83          	lh	s9,1800(a7)
    80000650:	8ed31803          	lh	a6,-1811(t1)
    80000654:	fff00413          	li	s0,-1
    80000658:	01744433          	xor	s0,s0,s7
    8000065c:	00048a67          	jalr	s4,s1
    80000660:	9484                	0x9484
    80000662:	          	0x8d83cf23

0000000080000664 <pseg_3>:
    80000664:	f0c78d83          	lb	s11,-244(a5)
    80000668:	00000893          	li	a7,0
    8000066c:	4316ce63          	blt	a3,a7,80000aa8 <crash_forward>
    80000670:	b2418713          	addi	a4,gp,-1244 # 80001a34 <_end+0x324>
    80000674:	c7671823          	sh	s6,-912(a4)
    80000678:	4062dcb3          	sra	s9,t0,t1
    8000067c:	01ce093b          	addw	s2,t3,t3
    80000680:	01a67233          	and	tp,a2,s10
    80000684:	01d1efb3          	or	t6,gp,t4
    80000688:	09eac083          	lbu	ra,158(s5)
    8000068c:	41f27e63          	bleu	t6,tp,80000aa8 <crash_forward>
    80000690:	00001717          	auipc	a4,0x1
    80000694:	d5d70713          	addi	a4,a4,-675 # 800013ed <test_memory+0xed>
    80000698:	00001e17          	auipc	t3,0x1
    8000069c:	fe6e0e13          	addi	t3,t3,-26 # 8000167e <test_memory+0x37e>
    800006a0:	a6718793          	addi	a5,gp,-1433 # 80001977 <_end+0x267>
    800006a4:	416b5c33          	sra	s8,s6,s6
    800006a8:	00001e97          	auipc	t4,0x1
    800006ac:	a7ce8e93          	addi	t4,t4,-1412 # 80001124 <reg_x4_init+0x4>
    800006b0:	cb4e0a03          	lb	s4,-844(t3)
    800006b4:	06267f13          	andi	t5,a2,98
    800006b8:	354e8d23          	sb	s4,858(t4)
    800006bc:	00100d93          	li	s11,1
    800006c0:	2eb76203          	lwu	tp,747(a4)
    800006c4:	84d00893          	li	a7,-1971
    800006c8:	a9518393          	addi	t2,gp,-1387 # 800019a5 <_end+0x295>
    800006cc:	a233ab03          	lw	s6,-1501(t2)
    800006d0:	0118bab3          	sltu	s5,a7,a7
    800006d4:	5fa00f93          	li	t6,1530
    800006d8:	b797b683          	ld	a3,-1159(a5)
    800006dc:	00100093          	li	ra,1
    800006e0:	00001997          	auipc	s3,0x1
    800006e4:	f9498993          	addi	s3,s3,-108 # 80001674 <test_memory+0x374>
    800006e8:	01ff9533          	sll	a0,t6,t6
    800006ec:	03f09093          	slli	ra,ra,0x3f
    800006f0:	4165563b          	sraw	a2,a0,s6
    800006f4:	e2e9d403          	lhu	s0,-466(s3)
    800006f8:	00100113          	li	sp,1
    800006fc:	fff00313          	li	t1,-1
    80000700:	00134333          	xor	t1,t1,ra
    80000704:	03f11113          	slli	sp,sp,0x3f
    80000708:	00001817          	auipc	a6,0x1
    8000070c:	0b980813          	addi	a6,a6,185 # 800017c1 <_end+0xb1>
    80000710:	03fd9d93          	slli	s11,s11,0x3f
    80000714:	fff00913          	li	s2,-1
    80000718:	006bfcb3          	and	s9,s7,t1
    8000071c:	001ce1b3          	or	gp,s9,ra
    80000720:	fff00593          	li	a1,-1
    80000724:	e791cae3          	blt	gp,s9,80000598 <pseg_4>
    80000728:	0bce                	slli	s7,s7,0x13
    8000072a:	c3da                	sw	s6,196(sp)

000000008000072c <pseg_8>:
    8000072c:	00000e97          	auipc	t4,0x0
    80000730:	749e8e93          	addi	t4,t4,1865 # 80000e75 <test_end+0x3b9>
    80000734:	00100513          	li	a0,1
    80000738:	41080d3b          	subw	s10,a6,a6
    8000073c:	03f51513          	slli	a0,a0,0x3f
    80000740:	fff00393          	li	t2,-1
    80000744:	00001817          	auipc	a6,0x1
    80000748:	d9680813          	addi	a6,a6,-618 # 800014da <test_memory+0x1da>
    8000074c:	65d00a93          	li	s5,1629
    80000750:	00000617          	auipc	a2,0x0
    80000754:	4e160613          	addi	a2,a2,1249 # 80000c31 <test_end+0x175>
    80000758:	c2818993          	addi	s3,gp,-984 # 80001b38 <_end+0x428>
    8000075c:	41c20c3b          	subw	s8,tp,t3
    80000760:	6c7ee583          	lwu	a1,1735(t4)
    80000764:	017bd4b3          	srl	s1,s7,s7
    80000768:	05e81f23          	sh	t5,94(a6)
    8000076c:	00001217          	auipc	tp,0x1
    80000770:	d7d20213          	addi	tp,tp,-643 # 800014e9 <test_memory+0x1e9>
    80000774:	01ffd1b3          	srl	gp,t6,t6
    80000778:	78264f03          	lbu	t5,1922(a2)
    8000077c:	3fd00713          	li	a4,1021
    80000780:	eae00a13          	li	s4,-338
    80000784:	03fe1e13          	slli	t3,t3,0x3f
    80000788:	fff00293          	li	t0,-1
    8000078c:	afa98c23          	sb	s10,-1288(s3)
    80000790:	00a3c3b3          	xor	t2,t2,a0
    80000794:	00f66c33          	or	s8,a2,a5
    80000798:	00f7c133          	xor	sp,a5,a5
    8000079c:	01c2c2b3          	xor	t0,t0,t3
    800007a0:	00577b33          	and	s6,a4,t0
    800007a4:	00000413          	li	s0,0
    800007a8:	65900b93          	li	s7,1625
    800007ac:	01477cb3          	and	s9,a4,s4
    800007b0:	00424633          	xor	a2,tp,tp
    800007b4:	29800d13          	li	s10,664
    800007b8:	01abb4b3          	sltu	s1,s7,s10
    800007bc:	01cb6333          	or	t1,s6,t3
    800007c0:	791a8d93          	addi	s11,s5,1937
    800007c4:	935dcee3          	blt	s11,s5,80000100 <crash_backward>
    800007c8:	b2300593          	li	a1,-1245
    800007cc:	00b5cf33          	xor	t5,a1,a1
    800007d0:	014ade9b          	srliw	t4,s5,0x14
    800007d4:	007ff8b3          	and	a7,t6,t2
    800007d8:	00a166b3          	or	a3,sp,a0
    800007dc:	14900e93          	li	t4,329
    800007e0:	f4024083          	lbu	ra,-192(tp) # ffffffffffffff40 <__global_pointer$+0xffffffff7fffe030>
    800007e4:	d36346e3          	blt	t1,s6,80000510 <pseg_9>
    800007e8:	303d                	0x303d
    800007ea:	d0a9                	beqz	s1,8000072c <pseg_8>

00000000800007ec <pseg_18>:
    800007ec:	0f04dc63          	ble	a6,s1,800008e4 <pseg_19>
    800007f0:	0b45                	addi	s6,s6,17
    800007f2:	8596                	mv	a1,t0

00000000800007f4 <pseg_24>:
    800007f4:	40108d33          	sub	s10,ra,ra
    800007f8:	00100193          	li	gp,1
    800007fc:	01d36233          	or	tp,t1,t4
    80000800:	01fffa33          	and	s4,t6,t6
    80000804:	00100113          	li	sp,1
    80000808:	58100b93          	li	s7,1409
    8000080c:	00a544b3          	xor	s1,a0,a0
    80000810:	017bd8bb          	srlw	a7,s7,s7
    80000814:	03f19193          	slli	gp,gp,0x3f
    80000818:	a7c18e13          	addi	t3,gp,-1412 # 8000198c <_end+0x27c>
    8000081c:	8e6252e3          	ble	t1,tp,80000100 <crash_backward>
    80000820:	08800993          	li	s3,136
    80000824:	01398f33          	add	t5,s3,s3
    80000828:	b7e00393          	li	t2,-1154
    8000082c:	03f11113          	slli	sp,sp,0x3f
    80000830:	fff00613          	li	a2,-1
    80000834:	54500c93          	li	s9,1349
    80000838:	9b0e5683          	lhu	a3,-1616(t3)
    8000083c:	fff00a93          	li	s5,-1
    80000840:	0193983b          	sllw	a6,t2,s9
    80000844:	01ef5dbb          	srlw	s11,t5,t5
    80000848:	00264633          	xor	a2,a2,sp
    8000084c:	00cd72b3          	and	t0,s10,a2
    80000850:	003acab3          	xor	s5,s5,gp
    80000854:	002a6533          	or	a0,s4,sp
    80000858:	0151ffb3          	and	t6,gp,s5
    8000085c:	18a2d463          	ble	a0,t0,800009e4 <pseg_25>
    80000860:	a1c0                	fsd	fs0,128(a1)
    80000862:	91da                	add	gp,gp,s6

0000000080000864 <pseg_1>:
    80000864:	00847533          	and	a0,s0,s0
    80000868:	fff00d13          	li	s10,-1
    8000086c:	d3198e13          	addi	t3,s3,-719
    80000870:	db81ac03          	lw	s8,-584(gp) # 80001cc8 <_end+0x5b8>
    80000874:	00d680b3          	add	ra,a3,a3
    80000878:	cdc990e3          	bne	s3,t3,80000538 <pseg_2>
    8000087c:	2ee2                	fld	ft9,24(sp)
    8000087e:	          	fnmadd.d	fs10,ft6,fs3,ft9,rup

0000000080000880 <pseg_26>:
    80000880:	003feb33          	or	s6,t6,gp
    80000884:	c7fb7ce3          	bleu	t6,s6,800004fc <pseg_27>
    80000888:	cb48                	sw	a0,20(a4)
    8000088a:	b562                	fsd	fs8,168(sp)

000000008000088c <pseg_10>:
    8000088c:	c59a0623          	sb	s9,-948(s4)
    80000890:	b1a98f93          	addi	t6,s3,-1254
    80000894:	00001d97          	auipc	s11,0x1
    80000898:	93ad8d93          	addi	s11,s11,-1734 # 800011ce <reg_x25_init+0x6>
    8000089c:	20949663          	bne	s1,s1,80000aa8 <crash_forward>
    800008a0:	00001897          	auipc	a7,0x1
    800008a4:	f3188893          	addi	a7,a7,-207 # 800017d1 <_end+0xc1>
    800008a8:	49adb923          	sd	s10,1170(s11)
    800008ac:	9a1cf237          	lui	tp,0x9a1cf
    800008b0:	7035b783          	ld	a5,1795(a1)
    800008b4:	00000a17          	auipc	s4,0x0
    800008b8:	6d3a0a13          	addi	s4,s4,1747 # 80000f87 <test_end+0x4cb>
    800008bc:	00100e13          	li	t3,1
    800008c0:	21d00813          	li	a6,541
    800008c4:	82cd4ee3          	blt	s10,a2,80000100 <crash_backward>
    800008c8:	f7ccc693          	xori	a3,s9,-132
    800008cc:	f2c00713          	li	a4,-212
    800008d0:	ef78b503          	ld	a0,-265(a7)
    800008d4:	3eba0383          	lb	t2,1003(s4)
    800008d8:	0108593b          	srlw	s2,a6,a6
    800008dc:	cff9d0e3          	ble	t6,s3,800005bc <pseg_11>
    800008e0:	6e024c5b          	0x6e024c5b

00000000800008e4 <pseg_19>:
    800008e4:	00100f13          	li	t5,1
    800008e8:	00085c1b          	srliw	s8,a6,0x0
    800008ec:	00001a97          	auipc	s5,0x1
    800008f0:	ca0a8a93          	addi	s5,s5,-864 # 8000158c <test_memory+0x28c>
    800008f4:	24700493          	li	s1,583
    800008f8:	00000217          	auipc	tp,0x0
    800008fc:	79c20213          	addi	tp,tp,1948 # 80001094 <fromhost+0x54>
    80000900:	45700793          	li	a5,1111
    80000904:	00001297          	auipc	t0,0x1
    80000908:	84828293          	addi	t0,t0,-1976 # 8000114c <reg_x9_init+0x4>
    8000090c:	4342b903          	ld	s2,1076(t0)
    80000910:	00f7e433          	or	s0,a5,a5
    80000914:	00000517          	auipc	a0,0x0
    80000918:	67250513          	addi	a0,a0,1650 # 80000f86 <test_end+0x4ca>
    8000091c:	03ff1f13          	slli	t5,t5,0x3f
    80000920:	b8a00b13          	li	s6,-1142
    80000924:	61d48093          	addi	ra,s1,1565
    80000928:	5f320f83          	lb	t6,1523(tp) # 5f3 <_start-0x7ffffa0d>
    8000092c:	01b00d13          	li	s10,27
    80000930:	4e300713          	li	a4,1251
    80000934:	41ad55bb          	sraw	a1,s10,s10
    80000938:	00001a17          	auipc	s4,0x1
    8000093c:	dcfa0a13          	addi	s4,s4,-561 # 80001707 <loop_count+0x7>
    80000940:	c3400293          	li	t0,-972
    80000944:	00215333          	srl	t1,sp,sp
    80000948:	00001d17          	auipc	s10,0x1
    8000094c:	9b3d0d13          	addi	s10,s10,-1613 # 800012fb <reg_x31_output+0x3>
    80000950:	01249b9b          	slliw	s7,s1,0x12
    80000954:	e34aae83          	lw	t4,-460(s5)
    80000958:	7e370393          	addi	t2,a4,2019
    8000095c:	43e53123          	sd	t5,1058(a0)
    80000960:	fa9a2e03          	lw	t3,-87(s4)
    80000964:	fe428f93          	addi	t6,t0,-28
    80000968:	a7800813          	li	a6,-1416
    8000096c:	00215633          	srl	a2,sp,sp
    80000970:	f9580d93          	addi	s11,a6,-107
    80000974:	173d4203          	lbu	tp,371(s10)
    80000978:	a3b81ee3          	bne	a6,s11,800003b4 <pseg_20>
    8000097c:	8b7a                	mv	s6,t5
    8000097e:	1eb2                	slli	t4,t4,0x2c

0000000080000980 <pseg_15>:
    80000980:	05800493          	li	s1,88
    80000984:	d7200c93          	li	s9,-654
    80000988:	00c62633          	slt	a2,a2,a2
    8000098c:	00d9b933          	sltu	s2,s3,a3
    80000990:	403f52b3          	sra	t0,t5,gp
    80000994:	2f5eb1a3          	sd	s5,739(t4)
    80000998:	e7b00993          	li	s3,-389
    8000099c:	0194943b          	sllw	s0,s1,s9
    800009a0:	d45a2213          	slti	tp,s4,-699
    800009a4:	a95ff06f          	j	80000438 <pseg_16>
    800009a8:	971429e3          	0x971429e3

00000000800009ac <pseg_21>:
    800009ac:	0d900613          	li	a2,217
    800009b0:	f561d863          	ble	s6,gp,80000100 <crash_backward>
    800009b4:	f8400513          	li	a0,-124
    800009b8:	03fe9e93          	slli	t4,t4,0x3f
    800009bc:	00100c13          	li	s8,1
    800009c0:	fff00713          	li	a4,-1
    800009c4:	01e14133          	xor	sp,sp,t5
    800009c8:	55200b93          	li	s7,1362
    800009cc:	0020f6b3          	and	a3,ra,sp
    800009d0:	01d74733          	xor	a4,a4,t4
    800009d4:	00000297          	auipc	t0,0x0
    800009d8:	58c28293          	addi	t0,t0,1420 # 80000f60 <test_end+0x4a4>
    800009dc:	989ff06f          	j	80000364 <pseg_22>
    800009e0:	716a                	ld	sp,184(sp)
    800009e2:	          	0x74335167

00000000800009e4 <pseg_25>:
    800009e4:	00f47433          	and	s0,s0,a5
    800009e8:	018365b3          	or	a1,t1,s8
    800009ec:	e8b41ae3          	bne	s0,a1,80000880 <pseg_26>
    800009f0:	3122                	fld	ft2,40(sp)
    800009f2:	fdae                	sd	a1,248(sp)

00000000800009f4 <pseg_6>:
    800009f4:	a05ff06f          	j	800003f8 <pseg_7>
    800009f8:	3a7a                	fld	fs4,440(sp)
    800009fa:	          	auipc	tp,0x74b3f

00000000800009fc <pseg_5>:
    800009fc:	012a74b3          	and	s1,s4,s2
    80000a00:	01b4ebb3          	or	s7,s1,s11
    80000a04:	ff7498e3          	bne	s1,s7,800009f4 <pseg_6>
    80000a08:	38ff                	0x38ff
    80000a0a:	25d8                	fld	fa4,136(a1)

0000000080000a0c <reg_dump>:
    80000a0c:	00001097          	auipc	ra,0x1
    80000a10:	cf408093          	addi	ra,ra,-780 # 80001700 <loop_count>
    80000a14:	0000a103          	lw	sp,0(ra)
    80000a18:	fff10193          	addi	gp,sp,-1
    80000a1c:	0030a023          	sw	gp,0(ra)
    80000a20:	bc011ee3          	bnez	sp,800005fc <pseg_0>
    80000a24:	00000097          	auipc	ra,0x0
    80000a28:	7dc08093          	addi	ra,ra,2012 # 80001200 <begin_signature>
    80000a2c:	0000b023          	sd	zero,0(ra)
    80000a30:	0020b823          	sd	sp,16(ra)
    80000a34:	0030bc23          	sd	gp,24(ra)
    80000a38:	0240b023          	sd	tp,32(ra)
    80000a3c:	0250b423          	sd	t0,40(ra)
    80000a40:	0260b823          	sd	t1,48(ra)
    80000a44:	0270bc23          	sd	t2,56(ra)
    80000a48:	0480b023          	sd	s0,64(ra)
    80000a4c:	0490b423          	sd	s1,72(ra)
    80000a50:	04a0b823          	sd	a0,80(ra)
    80000a54:	04b0bc23          	sd	a1,88(ra)
    80000a58:	06c0b023          	sd	a2,96(ra)
    80000a5c:	06d0b423          	sd	a3,104(ra)
    80000a60:	06e0b823          	sd	a4,112(ra)
    80000a64:	06f0bc23          	sd	a5,120(ra)
    80000a68:	0900b023          	sd	a6,128(ra)
    80000a6c:	0910b423          	sd	a7,136(ra)
    80000a70:	0920b823          	sd	s2,144(ra)
    80000a74:	0930bc23          	sd	s3,152(ra)
    80000a78:	0b40b023          	sd	s4,160(ra)
    80000a7c:	0b50b423          	sd	s5,168(ra)
    80000a80:	0b60b823          	sd	s6,176(ra)
    80000a84:	0b70bc23          	sd	s7,184(ra)
    80000a88:	0d80b023          	sd	s8,192(ra)
    80000a8c:	0d90b423          	sd	s9,200(ra)
    80000a90:	0da0b823          	sd	s10,208(ra)
    80000a94:	0db0bc23          	sd	s11,216(ra)
    80000a98:	0fd0b423          	sd	t4,232(ra)
    80000a9c:	0fe0b823          	sd	t5,240(ra)
    80000aa0:	0ff0bc23          	sd	t6,248(ra)
    80000aa4:	0180006f          	j	80000abc <test_end>

0000000080000aa8 <crash_forward>:
    80000aa8:	0ff0000f          	fence
    80000aac:	00018063          	beqz	gp,80000aac <crash_forward+0x4>
    80000ab0:	00119193          	slli	gp,gp,0x1
    80000ab4:	0011e193          	ori	gp,gp,1
    80000ab8:	00000073          	ecall

0000000080000abc <test_end>:
    80000abc:	0ff0000f          	fence
    80000ac0:	00100193          	li	gp,1
    80000ac4:	00000073          	ecall
    80000ac8:	c0001073          	unimp
	...

Disassembly of section .tohost:

0000000080001000 <tohost>:
	...

0000000080001040 <fromhost>:
	...

Disassembly of section .data:

0000000080001100 <hidden_data>:
    80001100:	3955                	addiw	s2,s2,-11
    80001102:	9afb44f3          	0x9afb44f3
    80001106:	          	fsd	fs0,1693(t6)

0000000080001108 <reg_x1_init>:
    80001108:	cef7688f          	0xcef7688f
    8000110c:	7218                	ld	a4,32(a2)
    8000110e:	1461                	addi	s0,s0,-8

0000000080001110 <reg_x2_init>:
	...

0000000080001118 <reg_x3_init>:
    80001118:	a274                	fsd	fa3,192(a2)
    8000111a:	5a45                	li	s4,-15
    8000111c:	c7671397          	auipc	t2,0xc7671

0000000080001120 <reg_x4_init>:
    80001120:	e245                	bnez	a2,800011c0 <reg_x24_init>
    80001122:	f5c825e7          	0xf5c825e7
    80001126:	839a                	mv	t2,t1

0000000080001128 <reg_x5_init>:
    80001128:	27899d03          	lh	s10,632(s3)
    8000112c:	8116                	mv	sp,t0
    8000112e:	e9f9                	bnez	a1,80001204 <begin_signature+0x4>

0000000080001130 <reg_x6_init>:
    80001130:	ffff                	0xffff
    80001132:	ffff                	0xffff
    80001134:	ffff                	0xffff
    80001136:	ffff                	0xffff

0000000080001138 <reg_x7_init>:
    80001138:	0001                	nop
    8000113a:	0000                	unimp
    8000113c:	0000                	unimp
	...

0000000080001140 <reg_x8_init>:
    80001140:	66d2992b          	0x66d2992b
    80001144:	939f 7618       	0xafa47618939f

0000000080001148 <reg_x9_init>:
    80001148:	afa4                	fsd	fs1,88(a5)
    8000114a:	f721                	bnez	a4,80001092 <fromhost+0x52>
    8000114c:	544e                	lw	s0,240(sp)
    8000114e:	          	0x7103

0000000080001150 <reg_x10_init>:
	...

0000000080001158 <reg_x11_init>:
    80001158:	0009                	c.nop	2
    8000115a:	8000                	0x8000
    8000115c:	ffff                	0xffff
    8000115e:	ffff                	0xffff

0000000080001160 <reg_x12_init>:
    80001160:	72b8                	ld	a4,96(a3)
    80001162:	787c                	ld	a5,240(s0)
    80001164:	5c9e6e57          	0x5c9e6e57

0000000080001168 <reg_x13_init>:
    80001168:	28f2                	fld	fa7,280(sp)
    8000116a:	9a44d49b          	0x9a44d49b
    8000116e:	8c11                	sub	s0,s0,a2

0000000080001170 <reg_x14_init>:
    80001170:	ffff                	0xffff
    80001172:	ffff                	0xffff
    80001174:	ffff                	0xffff
    80001176:	ffff                	0xffff

0000000080001178 <reg_x15_init>:
    80001178:	b1c5                	j	80000e58 <test_end+0x39c>
    8000117a:	c90138af          	0xc90138af
    8000117e:	  	0x944bf

0000000080001180 <reg_x16_init>:
    80001180:	0009                	c.nop	2
    80001182:	0000                	unimp
    80001184:	0000                	unimp
    80001186:	0800                	addi	s0,sp,16

0000000080001188 <reg_x17_init>:
    80001188:	fffffffb          	0xfffffffb
    8000118c:	ffff                	0xffff
    8000118e:	ffff                	0xffff

0000000080001190 <reg_x18_init>:
    80001190:	ffffff83          	0xffffff83
    80001194:	ffff                	0xffff
    80001196:	ffff                	0xffff

0000000080001198 <reg_x19_init>:
    80001198:	4ba4                	lw	s1,80(a5)
    8000119a:	eaa1                	bnez	a3,800011ea <reg_x29_init+0x2>
    8000119c:	1155                	addi	sp,sp,-11
    8000119e:	3b65                	addiw	s6,s6,-7

00000000800011a0 <reg_x20_init>:
    800011a0:	7dfc                	ld	a5,248(a1)
    800011a2:	9a0c4af3          	0x9a0c4af3
    800011a6:	e0e6                	sd	s9,64(sp)

00000000800011a8 <reg_x21_init>:
    800011a8:	8006                	c.mv	zero,ra
    800011aa:	ffff                	0xffff
    800011ac:	ffff                	0xffff
    800011ae:	ffff                	0xffff

00000000800011b0 <reg_x22_init>:
    800011b0:	b731                	j	800010bc <fromhost+0x7c>
    800011b2:	56c3bc27          	fsd	fa2,1400(t2) # 47672694 <_start-0x3898d96c>
    800011b6:	092a                	slli	s2,s2,0xa

00000000800011b8 <reg_x23_init>:
	...

00000000800011c0 <reg_x24_init>:
    800011c0:	5b69                	li	s6,-6
    800011c2:	0e74                	addi	a3,sp,796
    800011c4:	8302                	jr	t1
    800011c6:	a3a9                	j	80001710 <_end>

00000000800011c8 <reg_x25_init>:
    800011c8:	ffff                	0xffff
    800011ca:	ffff                	0xffff
    800011cc:	ffff                	0xffff
    800011ce:	ffff                	0xffff

00000000800011d0 <reg_x26_init>:
	...

00000000800011d8 <reg_x27_init>:
    800011d8:	8002                	0x8002
    800011da:	ffff                	0xffff
    800011dc:	ffff                	0xffff
    800011de:	ffff                	0xffff

00000000800011e0 <reg_x28_init>:
    800011e0:	666e                	ld	a2,216(sp)
    800011e2:	642c41af          	0x642c41af
    800011e6:	436c                	lw	a1,68(a4)

00000000800011e8 <reg_x29_init>:
    800011e8:	ea8c                	sd	a1,16(a3)
    800011ea:	bd89                	j	8000103c <tohost+0x3c>
    800011ec:	89fe                	mv	s3,t6
    800011ee:	501e                	0x501e

00000000800011f0 <reg_x30_init>:
    800011f0:	4745                	li	a4,17
    800011f2:	90d4ff9b          	0x90d4ff9b
    800011f6:	          	0x4abaed7

00000000800011f8 <reg_x31_init>:
    800011f8:	199404ab          	0x199404ab
    800011fc:	3ed8                	fld	fa4,184(a3)
    800011fe:	          	0xa31f72eb

0000000080001200 <begin_signature>:
    80001200:	a31f 88cc 2e11      	0x2e1188cca31f
    80001206:	91c4                	0x91c4

0000000080001208 <reg_x1_output>:
    80001208:	ec4ea8eb          	0xec4ea8eb
    8000120c:	2e418a6b          	0x2e418a6b

0000000080001210 <reg_x2_output>:
    80001210:	6378                	ld	a4,192(a4)
    80001212:	2aea                	fld	fs5,152(sp)
    80001214:	2515                	addiw	a0,a0,5
    80001216:	4e85                	li	t4,1

0000000080001218 <reg_x3_output>:
    80001218:	4ba07ba3          	0x4ba07ba3
    8000121c:	de0e                	sw	gp,60(sp)
    8000121e:	b635                	j	80000d4a <test_end+0x28e>

0000000080001220 <reg_x4_output>:
    80001220:	31d4                	fld	fa3,160(a1)
    80001222:	dca6                	sw	s1,120(sp)
    80001224:	c7a0                	sw	s0,72(a5)
    80001226:	e154                	sd	a3,128(a0)

0000000080001228 <reg_x5_output>:
    80001228:	04fa                	slli	s1,s1,0x1e
    8000122a:	bc94                	fsd	fa3,56(s1)
    8000122c:	0cc9                	addi	s9,s9,18
    8000122e:	32e4                	fld	fs1,224(a3)

0000000080001230 <reg_x6_output>:
    80001230:	0d49bb1b          	0xd49bb1b
    80001234:	4f1c                	lw	a5,24(a4)
    80001236:	          	fld	fs0,-1041(a3)

0000000080001238 <reg_x7_output>:
    80001238:	bef6                	fsd	ft9,376(sp)
    8000123a:	3c362867          	0x3c362867
    8000123e:	2981                	sext.w	s3,s3

0000000080001240 <reg_x8_output>:
    80001240:	46bab84f          	fnmadd.q	fa6,fs5,fa1,fs0,rup
    80001244:	6e0c                	ld	a1,24(a2)
    80001246:	3278                	fld	fa4,224(a2)

0000000080001248 <reg_x9_output>:
    80001248:	20de                	fld	ft1,464(sp)
    8000124a:	79ac                	ld	a1,112(a1)
    8000124c:	4e92                	lw	t4,4(sp)
    8000124e:	d246                	sw	a7,36(sp)

0000000080001250 <reg_x10_output>:
    80001250:	6df1                	lui	s11,0x1c
    80001252:	c7fc                	sw	a5,76(a5)
    80001254:	ec62fe83          	0xec62fe83

0000000080001258 <reg_x11_output>:
    80001258:	c744                	sw	s1,12(a4)
    8000125a:	1fda                	slli	t6,t6,0x36
    8000125c:	f861                	bnez	s0,8000122c <reg_x5_output+0x4>
    8000125e:	6236                	ld	tp,328(sp)

0000000080001260 <reg_x12_output>:
    80001260:	373f3da3          	sd	s3,891(t5)
    80001264:	a3da                	fsd	fs6,448(sp)
    80001266:	c660                	sw	s0,76(a2)

0000000080001268 <reg_x13_output>:
    80001268:	9846                	add	a6,a6,a7
    8000126a:	a0e9                	j	80001334 <test_memory+0x34>
    8000126c:	1b3a                	slli	s6,s6,0x2e
    8000126e:	53cc                	lw	a1,36(a5)

0000000080001270 <reg_x14_output>:
    80001270:	2e0e                	fld	ft8,192(sp)
    80001272:	8025                	srli	s0,s0,0x9
    80001274:	539c                	lw	a5,32(a5)
    80001276:	8ed5                	or	a3,a3,a3

0000000080001278 <reg_x15_output>:
    80001278:	b635680f          	0xb635680f
    8000127c:	79e0                	ld	s0,240(a1)
    8000127e:	9a68                	0x9a68

0000000080001280 <reg_x16_output>:
    80001280:	8d05                	sub	a0,a0,s1
    80001282:	5bec                	lw	a1,116(a5)
    80001284:	f9c5                	bnez	a1,80001234 <reg_x6_output+0x4>
    80001286:	3f55                	addiw	t5,t5,-11

0000000080001288 <reg_x17_output>:
    80001288:	e1a4                	sd	s1,64(a1)
    8000128a:	1990edd3          	fdiv.s	fs11,ft1,fs9,unknown
    8000128e:	9b5c                	0x9b5c

0000000080001290 <reg_x18_output>:
    80001290:	0fea                	slli	t6,t6,0x1a
    80001292:	c8a0                	sw	s0,80(s1)
    80001294:	d058ac2b          	0xd058ac2b

0000000080001298 <reg_x19_output>:
    80001298:	b7dd                	j	8000127e <reg_x15_output+0x6>
    8000129a:	e414                	sd	a3,8(s0)
    8000129c:	beabe49b          	0xbeabe49b

00000000800012a0 <reg_x20_output>:
    800012a0:	1650                	addi	a2,sp,804
    800012a2:	dc7e                	sw	t6,56(sp)
    800012a4:	213c                	fld	fa5,64(a0)
    800012a6:	6ef0                	ld	a2,216(a3)

00000000800012a8 <reg_x21_output>:
    800012a8:	62b0                	ld	a2,64(a3)
    800012aa:	4ef6                	lw	t4,92(sp)
    800012ac:	6235                	lui	tp,0xd
    800012ae:	df18                	sw	a4,56(a4)

00000000800012b0 <reg_x22_output>:
    800012b0:	f2e2                	sd	s8,352(sp)
    800012b2:	d1be                	sw	a5,224(sp)
    800012b4:	5de9                	li	s11,-6
    800012b6:	          	0xecb5b23b

00000000800012b8 <reg_x23_output>:
    800012b8:	ecb5                	bnez	s1,80001334 <test_memory+0x34>
    800012ba:	36d2                	fld	fa3,304(sp)
    800012bc:	978a                	add	a5,a5,sp
    800012be:	          	lui	s10,0x5e825

00000000800012c0 <reg_x24_output>:
    800012c0:	5e82                	lw	t4,32(sp)
    800012c2:	e6fc                	sd	a5,200(a3)
    800012c4:	cee2                	sw	s8,92(sp)
    800012c6:	eb4d                	bnez	a4,80001378 <test_memory+0x78>

00000000800012c8 <reg_x25_output>:
    800012c8:	94e5                	srai	s1,s1,0x39
    800012ca:	88cd                	andi	s1,s1,19
    800012cc:	fa236617          	auipc	a2,0xfa236

00000000800012d0 <reg_x26_output>:
    800012d0:	79b4                	ld	a3,112(a1)
    800012d2:	2ffa                	fld	ft11,408(sp)
    800012d4:	4104                	lw	s1,0(a0)
    800012d6:	          	bne	a0,a0,80001f60 <__global_pointer$+0x50>

00000000800012d8 <reg_x27_output>:
    800012d8:	48a5                	li	a7,9
    800012da:	68d2                	ld	a7,272(sp)
    800012dc:	547efb3b          	0x547efb3b

00000000800012e0 <reg_x28_output>:
    800012e0:	003d                	c.nop	15
    800012e2:	c3b5                	beqz	a5,80001346 <test_memory+0x46>
    800012e4:	6d0d                	lui	s10,0x3
    800012e6:	3d76                	fld	fs10,376(sp)

00000000800012e8 <reg_x29_output>:
    800012e8:	46843a03          	ld	s4,1128(s0)
    800012ec:	2504                	fld	fs1,8(a0)
    800012ee:	          	0x930733ab

00000000800012f0 <reg_x30_output>:
    800012f0:	cd999307          	0xcd999307
    800012f4:	0a98                	addi	a4,sp,336
    800012f6:	4088                	lw	a0,0(s1)

00000000800012f8 <reg_x31_output>:
    800012f8:	163e                	slli	a2,a2,0x2f
    800012fa:	3a89                	addiw	s5,s5,-30
    800012fc:	a04e                	fsd	fs3,0(sp)
    800012fe:	122a                	slli	tp,tp,0x2a

0000000080001300 <test_memory>:
    80001300:	03023c47          	fmsub.d	fs8,ft4,fa6,ft0,rup
    80001304:	9e49                	0x9e49
    80001306:	a08bd64f          	fnmadd.s	fa2,fs7,fs0,fs4,unknown
    8000130a:	dc72                	sw	t3,56(sp)
    8000130c:	b412                	fsd	ft4,40(sp)
    8000130e:	3eb4                	fld	fa3,120(a3)
    80001310:	91e1                	srli	a1,a1,0x38
    80001312:	5991                	li	s3,-28
    80001314:	7740                	ld	s0,168(a4)
    80001316:	28ee                	fld	fa7,216(sp)
    80001318:	b516                	fsd	ft5,168(sp)
    8000131a:	dd60                	sw	s0,124(a0)
    8000131c:	adfa                	fsd	ft10,216(sp)
    8000131e:	b485                	j	80000d7e <test_end+0x2c2>
    80001320:	1a0a                	slli	s4,s4,0x22
    80001322:	b944                	fsd	fs1,176(a0)
    80001324:	8fd2                	mv	t6,s4
    80001326:	7ad0                	ld	a2,176(a3)
    80001328:	f846                	sd	a7,48(sp)
    8000132a:	cc91                	beqz	s1,80001346 <test_memory+0x46>
    8000132c:	1435                	addi	s0,s0,-19
    8000132e:	8c62                	mv	s8,s8
    80001330:	cc20d62f          	0xcc20d62f
    80001334:	457e                	lw	a0,220(sp)
    80001336:	606e                	0x606e
    80001338:	b645                	j	80000ed8 <test_end+0x41c>
    8000133a:	91b9                	srli	a1,a1,0x2e
    8000133c:	a089                	j	8000137e <test_memory+0x7e>
    8000133e:	c9ba                	sw	a4,208(sp)
    80001340:	1815                	addi	a6,a6,-27
    80001342:	27ad                	addiw	a5,a5,11
    80001344:	1c1d                	addi	s8,s8,-25
    80001346:	835d                	srli	a4,a4,0x17
    80001348:	3155b6bf c7ac58af 	0xc7ac58af3155b6bf
    80001350:	0540                	addi	s0,sp,644
    80001352:	67e6                	ld	a5,88(sp)
    80001354:	0055                	c.nop	21
    80001356:	87cd                	srai	a5,a5,0x13
    80001358:	08e8                	addi	a0,sp,92
    8000135a:	57da31a7          	fsd	ft9,1379(s4)
    8000135e:	b979                	j	80000ffc <test_end+0x540>
    80001360:	6c99                	lui	s9,0x6
    80001362:	a2c4                	fsd	fs1,128(a3)
    80001364:	1d72bd4f          	0x1d72bd4f
    80001368:	0bc4                	addi	s1,sp,468
    8000136a:	8f9d                	sub	a5,a5,a5
    8000136c:	1d96                	slli	s11,s11,0x25
    8000136e:	76cc                	ld	a1,168(a3)
    80001370:	d24a                	sw	s2,36(sp)
    80001372:	f475                	bnez	s0,8000135e <test_memory+0x5e>
    80001374:	99b0                	0x99b0
    80001376:	36a207b7          	lui	a5,0x36a20
    8000137a:	4232                	lw	tp,12(sp)
    8000137c:	1ee075db          	0x1ee075db
    80001380:	d5ec                	sw	a1,108(a1)
    80001382:	4fc401bf 65e9ba11 	0x65e9ba114fc401bf
    8000138a:	34ae                	fld	fs1,232(sp)
    8000138c:	4e59                	li	t3,22
    8000138e:	4bca                	lw	s7,144(sp)
    80001390:	56e4                	lw	s1,108(a3)
    80001392:	cdb1                	beqz	a1,800013ee <test_memory+0xee>
    80001394:	33e4d4f7          	0x33e4d4f7
    80001398:	b016                	fsd	ft5,32(sp)
    8000139a:	cd3a                	sw	a4,152(sp)
    8000139c:	79c40d13          	addi	s10,s0,1948
    800013a0:	fb0a                	sd	sp,432(sp)
    800013a2:	6416                	ld	s0,320(sp)
    800013a4:	a48a                	fsd	ft2,72(sp)
    800013a6:	f689                	bnez	a3,800012b0 <reg_x22_output>
    800013a8:	0704                	addi	s1,sp,896
    800013aa:	3c35316f          	jal	sp,80054f6c <__global_pointer$+0x5305c>
    800013ae:	fb8aa2f3          	csrrs	t0,0xfb8,s5
    800013b2:	c95e                	sw	s7,144(sp)
    800013b4:	8182                	jr	gp
    800013b6:	172a                	slli	a4,a4,0x2a
    800013b8:	296e                	fld	fs2,216(sp)
    800013ba:	b642                	fsd	fa6,296(sp)
    800013bc:	9f1d                	subw	a4,a4,a5
    800013be:	5c0fa7ab          	0x5c0fa7ab
    800013c2:	a4f2                	fsd	ft8,72(sp)
    800013c4:	989be3e3          	bltu	s7,s1,80000d4a <test_end+0x28e>
    800013c8:	a8b2                	fsd	fa2,80(sp)
    800013ca:	3848                	fld	fa0,176(s0)
    800013cc:	04be                	slli	s1,s1,0xf
    800013ce:	0b26                	slli	s6,s6,0x9
    800013d0:	f01d                	bnez	s0,800012f6 <reg_x30_output+0x6>
    800013d2:	851de2c7          	0x851de2c7
    800013d6:	06d7e60f          	0x6d7e60f
    800013da:	74b8                	ld	a4,104(s1)
    800013dc:	6b26                	ld	s6,72(sp)
    800013de:	8621                	srai	a2,a2,0x8
    800013e0:	d2be                	sw	a5,100(sp)
    800013e2:	bfc76657          	0xbfc76657
    800013e6:	30d1aa0f          	0x30d1aa0f
    800013ea:	485c1f6f          	jal	t5,800c306e <__global_pointer$+0xc115e>
    800013ee:	793a                	ld	s2,424(sp)
    800013f0:	3460                	fld	fs0,232(s0)
    800013f2:	125c                	addi	a5,sp,292
    800013f4:	7ca4b68b          	0x7ca4b68b
    800013f8:	1e95d903          	lhu	s2,489(a1)
    800013fc:	f92d0c6f          	jal	s8,7ffd1b8e <_start-0x2e472>
    80001400:	a2fd                	j	800015ee <test_memory+0x2ee>
    80001402:	3836                	fld	fa6,360(sp)
    80001404:	7660                	ld	s0,232(a2)
    80001406:	5b30                	lw	a2,112(a4)
    80001408:	7604                	ld	s1,40(a2)
    8000140a:	8d78                	0x8d78
    8000140c:	30ca                	fld	ft1,176(sp)
    8000140e:	f4f6                	sd	t4,104(sp)
    80001410:	307c                	fld	fa5,224(s0)
    80001412:	b59f 87fc 5bae      	0x5bae87fcb59f
    80001418:	e9a5                	bnez	a1,80001488 <test_memory+0x188>
    8000141a:	765e                	ld	a2,496(sp)
    8000141c:	68ce                	ld	a7,208(sp)
    8000141e:	1b575213          	0x1b575213
    80001422:	01b5                	addi	gp,gp,13
    80001424:	a48c                	fsd	fa1,8(s1)
    80001426:	16d6                	slli	a3,a3,0x35
    80001428:	1432                	slli	s0,s0,0x2c
    8000142a:	6278                	ld	a4,192(a2)
    8000142c:	c79a                	sw	t1,204(sp)
    8000142e:	234e                	fld	ft6,208(sp)
    80001430:	dd7d                	beqz	a0,8000142e <test_memory+0x12e>
    80001432:	71de                	ld	gp,496(sp)
    80001434:	819d                	srli	a1,a1,0x7
    80001436:	5069                	c.li	zero,-6
    80001438:	d7f8                	sw	a4,108(a5)
    8000143a:	3fd4                	fld	fa3,184(a5)
    8000143c:	ef2c                	sd	a1,88(a4)
    8000143e:	bbb5                	j	800011ba <reg_x23_init+0x2>
    80001440:	c578                	sw	a4,76(a0)
    80001442:	7d61                	lui	s10,0xffff8
    80001444:	e85e                	sd	s7,16(sp)
    80001446:	1de9                	addi	s11,s11,-6
    80001448:	c4115107          	0xc4115107
    8000144c:	9cac                	0x9cac
    8000144e:	0eec                	addi	a1,sp,860
    80001450:	7dd2                	ld	s11,304(sp)
    80001452:	8c088a77          	0x8c088a77
    80001456:	45395173          	csrrwi	sp,0x453,18
    8000145a:	260876f3          	csrrci	a3,0x260,16
    8000145e:	26b5e32b          	0x26b5e32b
    80001462:	4b2a                	lw	s6,136(sp)
    80001464:	539d                	li	t2,-25
    80001466:	1384                	addi	s1,sp,480
    80001468:	1072                	c.slli	zero,0x3c
    8000146a:	4f31                	li	t5,12
    8000146c:	bcbc                	fsd	fa5,120(s1)
    8000146e:	f52e                	sd	a1,168(sp)
    80001470:	e5d1                	bnez	a1,800014fc <test_memory+0x1fc>
    80001472:	39a5                	addiw	s3,s3,-23
    80001474:	0ad0                	addi	a2,sp,340
    80001476:	22a4                	fld	fs1,64(a3)
    80001478:	9128                	0x9128
    8000147a:	2504                	fld	fs1,8(a0)
    8000147c:	89f2                	mv	s3,t3
    8000147e:	8c6a                	mv	s8,s10
    80001480:	1081                	addi	ra,ra,-32
    80001482:	d539                	beqz	a0,800013d0 <test_memory+0xd0>
    80001484:	ae42                	fsd	fa6,280(sp)
    80001486:	1e21                	addi	t3,t3,-24
    80001488:	d925                	beqz	a0,800013f8 <test_memory+0xf8>
    8000148a:	d661                	beqz	a2,80001452 <test_memory+0x152>
    8000148c:	f7d1                	bnez	a5,80001418 <test_memory+0x118>
    8000148e:	ab25                	j	800019c6 <_end+0x2b6>
    80001490:	5430                	lw	a2,104(s0)
    80001492:	b92a                	fsd	fa0,176(sp)
    80001494:	c6f6                	sw	t4,76(sp)
    80001496:	00dc                	addi	a5,sp,68
    80001498:	77e1a68b          	0x77e1a68b
    8000149c:	bc11                	j	80000eb0 <test_end+0x3f4>
    8000149e:	2425                	addiw	s0,s0,9
    800014a0:	80f9                	srli	s1,s1,0x1e
    800014a2:	071e                	slli	a4,a4,0x7
    800014a4:	88ff                	0x88ff
    800014a6:	a584                	fsd	fs1,8(a1)
    800014a8:	e919                	bnez	a0,800014be <test_memory+0x1be>
    800014aa:	77ce3feb          	0x77ce3feb
    800014ae:	6342                	ld	t1,16(sp)
    800014b0:	da8d                	beqz	a3,800013e2 <test_memory+0xe2>
    800014b2:	4e3d                	li	t3,15
    800014b4:	ee1da977          	0xee1da977
    800014b8:	d7ac                	sw	a1,104(a5)
    800014ba:	6fae                	ld	t6,200(sp)
    800014bc:	009e                	slli	ra,ra,0x7
    800014be:	a929                	j	800018d8 <_end+0x1c8>
    800014c0:	1359                	addi	t1,t1,-10
    800014c2:	1fb3a0e3          	0x1fb3a0e3
    800014c6:	5a07403b          	0x5a07403b
    800014ca:	a6e48b33          	0xa6e48b33
    800014ce:	39ad                	addiw	s3,s3,-21
    800014d0:	55e8                	lw	a0,108(a1)
    800014d2:	da9c                	sw	a5,48(a3)
    800014d4:	356545bb          	0x356545bb
    800014d8:	cad6                	sw	s5,84(sp)
    800014da:	0d66efa7          	0xd66efa7
    800014de:	78dd                	lui	a7,0xffff7
    800014e0:	0085                	addi	ra,ra,1
    800014e2:	c1e9                	beqz	a1,800015a4 <test_memory+0x2a4>
    800014e4:	16ee0bf7          	0x16ee0bf7
    800014e8:	c10655ef          	jal	a1,7ff668f8 <_start-0x99708>
    800014ec:	661d                	lui	a2,0x7
    800014ee:	f28a                	sd	sp,352(sp)
    800014f0:	f724                	sd	s1,104(a4)
    800014f2:	2aa4                	fld	fs1,80(a3)
    800014f4:	65283427          	fsd	fs2,1608(a6)
    800014f8:	3ecc76db          	0x3ecc76db
    800014fc:	284d                	addiw	a6,a6,19
    800014fe:	a3c4                	fsd	fs1,128(a5)
    80001500:	af81                	j	80001c50 <_end+0x540>
    80001502:	21bc                	fld	fa5,64(a1)
    80001504:	c796                	sw	t0,204(sp)
    80001506:	dee2                	sw	s8,124(sp)
    80001508:	5b95                	li	s7,-27
    8000150a:	96cd                	srai	a3,a3,0x33
    8000150c:	93d4                	0x93d4
    8000150e:	c295                	beqz	a3,80001532 <test_memory+0x232>
    80001510:	5b89                	li	s7,-30
    80001512:	3c8d76d3          	0x3c8d76d3
    80001516:	4e69                	li	t3,26
    80001518:	2f91                	addiw	t6,t6,4
    8000151a:	0d81                	addi	s11,s11,0
    8000151c:	95c6                	add	a1,a1,a7
    8000151e:	700c                	ld	a1,32(s0)
    80001520:	d5f9                	beqz	a1,800014ee <test_memory+0x1ee>
    80001522:	4f36                	lw	t5,76(sp)
    80001524:	ff0c                	sd	a1,56(a4)
    80001526:	92ff905b          	0x92ff905b
    8000152a:	e237d8cf          	fnmadd.d	fa7,fa5,ft3,ft8,unknown
    8000152e:	cfe0                	sw	s0,92(a5)
    80001530:	3545                	addiw	a0,a0,-15
    80001532:	50b75513          	0x50b75513
    80001536:	8dbc                	0x8dbc
    80001538:	c250                	sw	a2,4(a2)
    8000153a:	575be573          	csrrsi	a0,0x575,23
    8000153e:	9992                	add	s3,s3,tp
    80001540:	28ba                	fld	fa7,392(sp)
    80001542:	3892                	fld	fa7,288(sp)
    80001544:	b40e                	fsd	ft3,40(sp)
    80001546:	28c1                	addiw	a7,a7,16
    80001548:	31f9                	addiw	gp,gp,-2
    8000154a:	43fd                	li	t2,31
    8000154c:	fdcd                	bnez	a1,80001506 <test_memory+0x206>
    8000154e:	55a1                	li	a1,-24
    80001550:	83e6                	mv	t2,s9
    80001552:	a4b0                	fsd	fa2,72(s1)
    80001554:	56df c2be a276      	0xa276c2be56df
    8000155a:	3a2a8157          	0x3a2a8157
    8000155e:	afea                	fsd	fs10,472(sp)
    80001560:	31569c37          	lui	s8,0x31569
    80001564:	3001                	0x3001
    80001566:	f0911bbb          	0xf0911bbb
    8000156a:	53f1                	li	t2,-4
    8000156c:	03ea                	slli	t2,t2,0x1a
    8000156e:	fb50                	sd	a2,176(a4)
    80001570:	5ce1                	li	s9,-8
    80001572:	d5e6                	sw	s9,232(sp)
    80001574:	c439                	beqz	s0,800015c2 <test_memory+0x2c2>
    80001576:	25e3e1cb          	0x25e3e1cb
    8000157a:	3566ea4b          	0x3566ea4b
    8000157e:	ac50                	fsd	fa2,152(s0)
    80001580:	3505                	addiw	a0,a0,-31
    80001582:	a53c                	fsd	fa5,72(a0)
    80001584:	c67f                	0xc67f
    80001586:	91a4                	0x91a4
    80001588:	ae218d9b          	addiw	s11,gp,-1310
    8000158c:	fc89493b          	0xfc89493b
    80001590:	4c4e440f          	0x4c4e440f
    80001594:	0769                	addi	a4,a4,26
    80001596:	fb00                	sd	s0,48(a4)
    80001598:	d17d                	beqz	a0,8000157e <test_memory+0x27e>
    8000159a:	18d460f7          	0x18d460f7
    8000159e:	685f7a93          	andi	s5,t5,1669
    800015a2:	67daa967          	0x67daa967
    800015a6:	632d350b          	0x632d350b
    800015aa:	3f60                	fld	fs0,248(a4)
    800015ac:	7041                	c.lui	zero,0xffff0
    800015ae:	142b347b          	0x142b347b
    800015b2:	81b2                	mv	gp,a2
    800015b4:	c305                	beqz	a4,800015d4 <test_memory+0x2d4>
    800015b6:	b5ad68c7          	0xb5ad68c7
    800015ba:	8b4c08bf 0ca2b957 	0xca2b9578b4c08bf
    800015c2:	a7a1                	j	80001d0a <_end+0x5fa>
    800015c4:	0392                	slli	t2,t2,0x4
    800015c6:	1c18                	addi	a4,sp,560
    800015c8:	0b24                	addi	s1,sp,408
    800015ca:	d53a                	sw	a4,168(sp)
    800015cc:	cfcc                	sw	a1,28(a5)
    800015ce:	7755fcc7          	fmsub.q	fs9,fa1,fs5,fa4
    800015d2:	fd02                	sd	zero,184(sp)
    800015d4:	d81c                	sw	a5,48(s0)
    800015d6:	dae1978f          	0xdae1978f
    800015da:	0389                	addi	t2,t2,2
    800015dc:	593d                	li	s2,-17
    800015de:	674c                	ld	a1,136(a4)
    800015e0:	d9d2                	sw	s4,240(sp)
    800015e2:	bae0716b          	0xbae0716b
    800015e6:	4e14                	lw	a3,24(a2)
    800015e8:	139e                	slli	t2,t2,0x27
    800015ea:	f8c8                	sd	a0,176(s1)
    800015ec:	2988                	fld	fa0,16(a1)
    800015ee:	151e                	slli	a0,a0,0x27
    800015f0:	ef92                	sd	tp,472(sp)
    800015f2:	40af2773          	csrrs	a4,0x40a,t5
    800015f6:	be087f5b          	0xbe087f5b
    800015fa:	2cff                	0x2cff
    800015fc:	1328                	addi	a0,sp,424
    800015fe:	8c2a                	mv	s8,a0
    80001600:	7a14                	ld	a3,48(a2)
    80001602:	2319                	addiw	t1,t1,6
    80001604:	8075e32b          	0x8075e32b
    80001608:	c37e                	sw	t6,132(sp)
    8000160a:	14fa                	slli	s1,s1,0x3e
    8000160c:	7607b06f          	j	8007cd6c <__global_pointer$+0x7ae5c>
    80001610:	6f49                	lui	t5,0x12
    80001612:	8804                	0x8804
    80001614:	ba30                	fsd	fa2,112(a2)
    80001616:	7749                	lui	a4,0xffff2
    80001618:	dd19                	beqz	a0,80001536 <test_memory+0x236>
    8000161a:	ec4d                	bnez	s0,800016d4 <test_memory+0x3d4>
    8000161c:	fc22                	sd	s0,56(sp)
    8000161e:	2a322d97          	auipc	s11,0x2a322
    80001622:	6141                	addi	sp,sp,16
    80001624:	d894                	sw	a3,48(s1)
    80001626:	ea10                	sd	a2,16(a2)
    80001628:	eeec                	sd	a1,216(a3)
    8000162a:	7e85                	lui	t4,0xfffe1
    8000162c:	5f50                	lw	a2,60(a4)
    8000162e:	069c                	addi	a5,sp,832
    80001630:	f3eb81c7          	fmsub.d	ft3,fs7,ft10,ft10,rne
    80001634:	4259400b          	0x4259400b
    80001638:	538c                	lw	a1,32(a5)
    8000163a:	a3b9                	j	80001b88 <_end+0x478>
    8000163c:	09504857          	0x9504857
    80001640:	ea1a                	sd	t1,272(sp)
    80001642:	a539                	j	80001c50 <_end+0x540>
    80001644:	a06c                	fsd	fa1,192(s0)
    80001646:	766a                	ld	a2,184(sp)
    80001648:	dbd2                	sw	s4,244(sp)
    8000164a:	9f4dc7e3          	blt	s11,s4,80001038 <tohost+0x38>
    8000164e:	aa1c                	fsd	fa5,16(a2)
    80001650:	03bc                	addi	a5,sp,456
    80001652:	561ad0b7          	lui	ra,0x561ad
    80001656:	13ec                	addi	a1,sp,492
    80001658:	86df 1d9c ab84      	0xab841d9c86df
    8000165e:	9f1d                	subw	a4,a4,a5
    80001660:	3d5f 7f7a 5bbc      	0x5bbc7f7a3d5f
    80001666:	3648                	fld	fa0,168(a2)
    80001668:	3660                	fld	fs0,232(a2)
    8000166a:	e820                	sd	s0,80(s0)
    8000166c:	3e61                	addiw	t3,t3,-8
    8000166e:	ffa9                	bnez	a5,800015c8 <test_memory+0x2c8>
    80001670:	6bbc                	ld	a5,80(a5)
    80001672:	9b16                	add	s6,s6,t0
    80001674:	232e                	fld	ft6,200(sp)
    80001676:	d1df e312 f69c      	0xf69ce312d1df
    8000167c:	3778                	fld	fa4,232(a4)
    8000167e:	0e8c                	addi	a1,sp,848
    80001680:	f0ff7bb7          	lui	s7,0xf0ff7
    80001684:	89bc                	0x89bc
    80001686:	1588a5eb          	0x1588a5eb
    8000168a:	1f5d                	addi	t5,t5,-9
    8000168c:	7b93b5d7          	0x7b93b5d7
    80001690:	a2c0                	fsd	fs0,128(a3)
    80001692:	8396                	mv	t2,t0
    80001694:	5b8d                	li	s7,-29
    80001696:	0935                	addi	s2,s2,13
    80001698:	6d2ba72b          	0x6d2ba72b
    8000169c:	8a9c                	0x8a9c
    8000169e:	b17b2d67          	0xb17b2d67
    800016a2:	3f1e                	fld	ft10,480(sp)
    800016a4:	1a5e                	slli	s4,s4,0x37
    800016a6:	44a4                	lw	s1,72(s1)
    800016a8:	0f82                	slli	t6,t6,0x0
    800016aa:	3044                	fld	fs1,160(s0)
    800016ac:	c0cd                	beqz	s1,8000174e <_end+0x3e>
    800016ae:	3700                	fld	fs0,40(a4)
    800016b0:	6ca2                	ld	s9,8(sp)
    800016b2:	18d0                	addi	a2,sp,116
    800016b4:	fb70                	sd	a2,240(a4)
    800016b6:	e1aa                	sd	a0,192(sp)
    800016b8:	c1b4                	sw	a3,64(a1)
    800016ba:	4e672ea3          	sw	t1,1277(a4) # ffffffffffff24fd <__global_pointer$+0xffffffff7fff05ed>
    800016be:	0560                	addi	s0,sp,652
    800016c0:	102a                	c.slli	zero,0x2a
    800016c2:	ef61                	bnez	a4,8000179a <_end+0x8a>
    800016c4:	50c1                	li	ra,-16
    800016c6:	04a2                	slli	s1,s1,0x8
    800016c8:	5e4a                	lw	t3,176(sp)
    800016ca:	79d5                	lui	s3,0xffff5
    800016cc:	efd742b7          	lui	t0,0xefd74
    800016d0:	60a4                	ld	s1,64(s1)
    800016d2:	d180a4cb          	fnmsub.s	fs1,ft1,fs8,fs10,rdn
    800016d6:	dbb1                	beqz	a5,8000162a <test_memory+0x32a>
    800016d8:	bd38                	fsd	fa4,120(a0)
    800016da:	b296                	fsd	ft5,352(sp)
    800016dc:	987305e7          	jalr	a1,-1657(t1)
    800016e0:	eee6                	sd	s9,344(sp)
    800016e2:	eb4d                	bnez	a4,80001794 <_end+0x84>
    800016e4:	75be                	ld	a1,488(sp)
    800016e6:	4d32                	lw	s10,12(sp)
    800016e8:	141d                	addi	s0,s0,-25
    800016ea:	7ddcb947          	0x7ddcb947
    800016ee:	3835                	addiw	a6,a6,-19
    800016f0:	71ea                	ld	gp,184(sp)
    800016f2:	d9621997          	auipc	s3,0xd9621
    800016f6:	4ba5                	li	s7,9
    800016f8:	bcc9                	j	800011ca <reg_x25_init+0x2>
    800016fa:	751a                	ld	a0,416(sp)
    800016fc:	2c41                	addiw	s8,s8,16
    800016fe:	64ea                	ld	s1,152(sp)

0000000080001700 <loop_count>:
    80001700:	0040                	addi	s0,sp,4
	...
