
test.elf:     file format elf64-littleriscv


Disassembly of section .text.init:

0000000080000000 <_start>:
    80000000:	0580006f          	j	80000058 <reset_vector>

0000000080000004 <trap_vector>:
    80000004:	34202f73          	csrr	t5,mcause
    80000008:	00800f93          	li	t6,8
    8000000c:	05ff0063          	beq	t5,t6,8000004c <write_tohost>
    80000010:	00900f93          	li	t6,9
    80000014:	03ff0c63          	beq	t5,t6,8000004c <write_tohost>
    80000018:	00b00f93          	li	t6,11
    8000001c:	03ff0863          	beq	t5,t6,8000004c <write_tohost>
    80000020:	00000f13          	li	t5,0
    80000024:	000f0463          	beqz	t5,8000002c <trap_vector+0x28>
    80000028:	000f0067          	jr	t5
    8000002c:	34202f73          	csrr	t5,mcause
    80000030:	000f5463          	bgez	t5,80000038 <handle_exception>
    80000034:	0140006f          	j	80000048 <other_exception>

0000000080000038 <handle_exception>:
    80000038:	34102e73          	csrr	t3,mepc
    8000003c:	004e0e13          	addi	t3,t3,4
    80000040:	341e1073          	csrw	mepc,t3
    80000044:	30200073          	mret

0000000080000048 <other_exception>:
    80000048:	5391e193          	ori	gp,gp,1337

000000008000004c <write_tohost>:
    8000004c:	00001f17          	auipc	t5,0x1
    80000050:	fa3f2a23          	sw	gp,-76(t5) # 80001000 <tohost>
    80000054:	ff9ff06f          	j	8000004c <write_tohost>

0000000080000058 <reset_vector>:
    80000058:	f1402573          	csrr	a0,mhartid
    8000005c:	00051063          	bnez	a0,8000005c <reset_vector+0x4>
    80000060:	00000297          	auipc	t0,0x0
    80000064:	01028293          	addi	t0,t0,16 # 80000070 <reset_vector+0x18>
    80000068:	30529073          	csrw	mtvec,t0
    8000006c:	18005073          	csrwi	satp,0
    80000070:	00000297          	auipc	t0,0x0
    80000074:	01c28293          	addi	t0,t0,28 # 8000008c <reset_vector+0x34>
    80000078:	30529073          	csrw	mtvec,t0
    8000007c:	fff00293          	li	t0,-1
    80000080:	3b029073          	csrw	pmpaddr0,t0
    80000084:	01f00293          	li	t0,31
    80000088:	3a029073          	csrw	pmpcfg0,t0
    8000008c:	00000297          	auipc	t0,0x0
    80000090:	01828293          	addi	t0,t0,24 # 800000a4 <reset_vector+0x4c>
    80000094:	30529073          	csrw	mtvec,t0
    80000098:	30205073          	csrwi	medeleg,0
    8000009c:	30305073          	csrwi	mideleg,0
    800000a0:	30405073          	csrwi	mie,0
    800000a4:	00000193          	li	gp,0
    800000a8:	00000297          	auipc	t0,0x0
    800000ac:	f5c28293          	addi	t0,t0,-164 # 80000004 <trap_vector>
    800000b0:	30529073          	csrw	mtvec,t0
    800000b4:	00100513          	li	a0,1
    800000b8:	01f51513          	slli	a0,a0,0x1f
    800000bc:	00055863          	bgez	a0,800000cc <reset_vector+0x74>
    800000c0:	0ff0000f          	fence
    800000c4:	00100193          	li	gp,1
    800000c8:	00000073          	ecall
    800000cc:	00000293          	li	t0,0
    800000d0:	00028e63          	beqz	t0,800000ec <reset_vector+0x94>
    800000d4:	10529073          	csrw	stvec,t0
    800000d8:	0000b2b7          	lui	t0,0xb
    800000dc:	1092829b          	addiw	t0,t0,265
    800000e0:	30229073          	csrw	medeleg,t0
    800000e4:	30202373          	csrr	t1,medeleg
    800000e8:	f66290e3          	bne	t0,t1,80000048 <other_exception>
    800000ec:	30005073          	csrwi	mstatus,0
    800000f0:	00000297          	auipc	t0,0x0
    800000f4:	01428293          	addi	t0,t0,20 # 80000104 <reset_vector+0xac>
    800000f8:	34129073          	csrw	mepc,t0
    800000fc:	f1402573          	csrr	a0,mhartid
    80000100:	30200073          	mret
    80000104:	0180006f          	j	8000011c <test_start>

0000000080000108 <crash_backward>:
    80000108:	0ff0000f          	fence
    8000010c:	00018063          	beqz	gp,8000010c <crash_backward+0x4>
    80000110:	00119193          	slli	gp,gp,0x1
    80000114:	0011e193          	ori	gp,gp,1
    80000118:	00000073          	ecall

000000008000011c <test_start>:
    8000011c:	00001f97          	auipc	t6,0x1
    80000120:	fe4f8f93          	addi	t6,t6,-28 # 80001100 <hidden_data>
    80000124:	000fb003          	ld	zero,0(t6)
    80000128:	008fb083          	ld	ra,8(t6)
    8000012c:	010fb103          	ld	sp,16(t6)
    80000130:	018fb183          	ld	gp,24(t6)
    80000134:	020fb203          	ld	tp,32(t6)
    80000138:	028fb283          	ld	t0,40(t6)
    8000013c:	030fb303          	ld	t1,48(t6)
    80000140:	038fb383          	ld	t2,56(t6)
    80000144:	040fb403          	ld	s0,64(t6)
    80000148:	048fb483          	ld	s1,72(t6)
    8000014c:	050fb503          	ld	a0,80(t6)
    80000150:	058fb583          	ld	a1,88(t6)
    80000154:	060fb603          	ld	a2,96(t6)
    80000158:	068fb683          	ld	a3,104(t6)
    8000015c:	070fb703          	ld	a4,112(t6)
    80000160:	078fb783          	ld	a5,120(t6)
    80000164:	080fb803          	ld	a6,128(t6)
    80000168:	088fb883          	ld	a7,136(t6)
    8000016c:	090fb903          	ld	s2,144(t6)
    80000170:	098fb983          	ld	s3,152(t6)
    80000174:	0a0fba03          	ld	s4,160(t6)
    80000178:	0a8fba83          	ld	s5,168(t6)
    8000017c:	0b0fbb03          	ld	s6,176(t6)
    80000180:	0b8fbb83          	ld	s7,184(t6)
    80000184:	0c0fbc03          	ld	s8,192(t6)
    80000188:	0c8fbc83          	ld	s9,200(t6)
    8000018c:	0d0fbd03          	ld	s10,208(t6)
    80000190:	0d8fbd83          	ld	s11,216(t6)
    80000194:	0e0fbe03          	ld	t3,224(t6)
    80000198:	0e8fbe83          	ld	t4,232(t6)
    8000019c:	0f0fbf03          	ld	t5,240(t6)
    800001a0:	0f8fbf83          	ld	t6,248(t6)
    800001a4:	0040006f          	j	800001a8 <pseg_0>

00000000800001a8 <pseg_0>:
    800001a8:	21600e13          	li	t3,534
    800001ac:	37200d13          	li	s10,882
    800001b0:	0fa00f13          	li	t5,250
    800001b4:	03e50a3b          	mulw	s4,a0,t5
    800001b8:	00001e97          	auipc	t4,0x1
    800001bc:	b46e8e93          	addi	t4,t4,-1210 # 80000cfe <test_end+0x35e>
    800001c0:	00438b3b          	addw	s6,t2,tp
    800001c4:	00100993          	li	s3,1
    800001c8:	038c033b          	mulw	t1,s8,s8
    800001cc:	00001f97          	auipc	t6,0x1
    800001d0:	4e7f8f93          	addi	t6,t6,1255 # 800016b3 <test_memory+0x3b3>
    800001d4:	4f000493          	li	s1,1264
    800001d8:	00001717          	auipc	a4,0x1
    800001dc:	63070713          	addi	a4,a4,1584 # 80001808 <_end+0xf8>
    800001e0:	b1275903          	lhu	s2,-1262(a4)
    800001e4:	cd400a93          	li	s5,-812
    800001e8:	0346f533          	remu	a0,a3,s4
    800001ec:	00846733          	or	a4,s0,s0
    800001f0:	41ef07bb          	subw	a5,t5,t5
    800001f4:	dd4fb2a3          	sd	s4,-571(t6)
    800001f8:	f06318e3          	bne	t1,t1,80000108 <crash_backward>
    800001fc:	418c58b3          	sra	a7,s8,s8
    80000200:	ab018713          	addi	a4,gp,-1360 # 800019c0 <_end+0x2b0>
    80000204:	015aebb3          	or	s7,s5,s5
    80000208:	21300913          	li	s2,531
    8000020c:	7df00b13          	li	s6,2015
    80000210:	03ae4db3          	div	s11,t3,s10
    80000214:	35690793          	addi	a5,s2,854
    80000218:	439fd593          	srai	a1,t6,0x39
    8000021c:	686ecc03          	lbu	s8,1670(t4)
    80000220:	b3e71083          	lh	ra,-1218(a4)
    80000224:	5af00313          	li	t1,1455
    80000228:	03f99993          	slli	s3,s3,0x3f
    8000022c:	0e200e93          	li	t4,226
    80000230:	02846cb3          	rem	s9,s0,s0
    80000234:	57b00893          	li	a7,1403
    80000238:	be818393          	addi	t2,gp,-1048 # 80001af8 <_end+0x3e8>
    8000023c:	00100e13          	li	t3,1
    80000240:	01295bbb          	srlw	s7,s2,s2
    80000244:	b0539723          	sh	t0,-1266(t2)
    80000248:	8bd00913          	li	s2,-1859
    8000024c:	00001817          	auipc	a6,0x1
    80000250:	34280813          	addi	a6,a6,834 # 8000158e <test_memory+0x28e>
    80000254:	e0e18b93          	addi	s7,gp,-498 # 80001d1e <_end+0x60e>
    80000258:	026b6a3b          	remw	s4,s6,t1
    8000025c:	87bb9423          	sh	s11,-1944(s7)
    80000260:	03fe1e13          	slli	t3,t3,0x3f
    80000264:	009492bb          	sllw	t0,s1,s1
    80000268:	41dedd3b          	sraw	s10,t4,t4
    8000026c:	00001097          	auipc	ra,0x1
    80000270:	ce708093          	addi	ra,ra,-793 # 80000f53 <test_end+0x5b3>
    80000274:	0118f5b3          	and	a1,a7,a7
    80000278:	3b400c93          	li	s9,948
    8000027c:	8ed00d13          	li	s10,-1811
    80000280:	77600413          	li	s0,1910
    80000284:	8e600313          	li	t1,-1818
    80000288:	00001397          	auipc	t2,0x1
    8000028c:	f3538393          	addi	t2,t2,-203 # 800011bd <reg_x23_init+0x5>
    80000290:	84200d93          	li	s11,-1982
    80000294:	408401bb          	subw	gp,s0,s0
    80000298:	3b1383a3          	sb	a7,935(t2)
    8000029c:	419957bb          	sraw	a5,s2,s9
    800002a0:	5050bf03          	ld	t5,1285(ra)
    800002a4:	00213533          	sltu	a0,sp,sp
    800002a8:	02d6e43b          	remw	s0,a3,a3
    800002ac:	00100593          	li	a1,1
    800002b0:	a0000393          	li	t2,-1536
    800002b4:	03f59593          	slli	a1,a1,0x3f
    800002b8:	08e80603          	lb	a2,142(a6)
    800002bc:	e9b00913          	li	s2,-357
    800002c0:	01bd9ab3          	sll	s5,s11,s11
    800002c4:	87c2c0b7          	lui	ra,0x87c2c
    800002c8:	01f921b3          	slt	gp,s2,t6
    800002cc:	fff00c13          	li	s8,-1
    800002d0:	0123bcb3          	sltu	s9,t2,s2
    800002d4:	01cc4c33          	xor	s8,s8,t3
    800002d8:	41ad58bb          	sraw	a7,s10,s10
    800002dc:	fff00213          	li	tp,-1
    800002e0:	018f7733          	and	a4,t5,s8
    800002e4:	fff00e93          	li	t4,-1
    800002e8:	b8318a13          	addi	s4,gp,-1149 # 80001a93 <_end+0x383>
    800002ec:	00001b97          	auipc	s7,0x1
    800002f0:	16bb8b93          	addi	s7,s7,363 # 80001457 <test_memory+0x157>
    800002f4:	01c76fb3          	or	t6,a4,t3
    800002f8:	ac600293          	li	t0,-1338
    800002fc:	00beceb3          	xor	t4,t4,a1
    80000300:	009dd61b          	srliw	a2,s11,0x9
    80000304:	405304b3          	sub	s1,t1,t0
    80000308:	2b5ba0a3          	sw	s5,673(s7)
    8000030c:	e2a18913          	addi	s2,gp,-470 # 80001d3a <_end+0x62a>
    80000310:	67f74e63          	blt	a4,t6,8000098c <crash_forward>
    80000314:	02e76833          	rem	a6,a4,a4
    80000318:	c69a1b03          	lh	s6,-919(s4)
    8000031c:	01d777b3          	and	a5,a4,t4
    80000320:	016b5cbb          	srlw	s9,s6,s6
    80000324:	01324233          	xor	tp,tp,s3
    80000328:	00b46f33          	or	t5,s0,a1
    8000032c:	00447133          	and	sp,s0,tp
    80000330:	8be91883          	lh	a7,-1858(s2)
    80000334:	02200393          	li	t2,34
    80000338:	5a400413          	li	s0,1444
    8000033c:	028450b3          	divu	ra,s0,s0
    80000340:	0139e6b3          	or	a3,s3,s3
    80000344:	24600a93          	li	s5,582
    80000348:	021dc533          	div	a0,s11,ra
    8000034c:	4153ddbb          	sraw	s11,t2,s5
    80000350:	c8a18193          	addi	gp,gp,-886 # 80001b9a <_end+0x48a>
    80000354:	dbe7fae3          	bgeu	a5,t5,80000108 <crash_backward>
    80000358:	a1a1ed03          	lwu	s10,-1510(gp) # 8000192a <_end+0x21a>
    8000035c:	08000d13          	li	s10,128
    80000360:	00001097          	auipc	ra,0x1
    80000364:	47808093          	addi	ra,ra,1144 # 800017d8 <_end+0xc8>
    80000368:	01a2b6b3          	sltu	a3,t0,s10
    8000036c:	b9908d23          	sb	s9,-1126(ra)
    80000370:	00001e97          	auipc	t4,0x1
    80000374:	ed0e8e93          	addi	t4,t4,-304 # 80001240 <reg_x8_output>
    80000378:	40215233          	sra	tp,sp,sp
    8000037c:	75300293          	li	t0,1875
    80000380:	00001f97          	auipc	t6,0x1
    80000384:	c38f8f93          	addi	t6,t6,-968 # 80000fb8 <test_end+0x618>
    80000388:	d2000d93          	li	s11,-736
    8000038c:	00001797          	auipc	a5,0x1
    80000390:	1e678793          	addi	a5,a5,486 # 80001572 <test_memory+0x272>
    80000394:	e8918193          	addi	gp,gp,-375 # 80001d99 <_end+0x689>
    80000398:	d5418393          	addi	t2,gp,-684 # 80001c64 <_end+0x554>
    8000039c:	01a7a123          	sw	s10,2(a5)
    800003a0:	90c18c13          	addi	s8,gp,-1780 # 8000181c <_end+0x10c>
    800003a4:	00001997          	auipc	s3,0x1
    800003a8:	1da98993          	addi	s3,s3,474 # 8000157e <test_memory+0x27e>
    800003ac:	9b03e903          	lwu	s2,-1616(t2)
    800003b0:	0de9e883          	lwu	a7,222(s3)
    800003b4:	00001b17          	auipc	s6,0x1
    800003b8:	fe6b0b13          	addi	s6,s6,-26 # 8000139a <test_memory+0x9a>
    800003bc:	00001f17          	auipc	t5,0x1
    800003c0:	20df0f13          	addi	t5,t5,525 # 800015c9 <test_memory+0x2c9>
    800003c4:	d41e0a93          	addi	s5,t3,-703
    800003c8:	334ed503          	lhu	a0,820(t4)
    800003cc:	02528133          	mul	sp,t0,t0
    800003d0:	01ad5e3b          	srlw	t3,s10,s10
    800003d4:	3aa00313          	li	t1,938
    800003d8:	00001697          	auipc	a3,0x1
    800003dc:	fb268693          	addi	a3,a3,-78 # 8000138a <test_memory+0x8a>
    800003e0:	034a7a3b          	remuw	s4,s4,s4
    800003e4:	d4bf17a3          	sh	a1,-689(t5)
    800003e8:	e3ac3e23          	sd	s10,-452(s8)
    800003ec:	00001217          	auipc	tp,0x1
    800003f0:	33f20213          	addi	tp,tp,831 # 8000172b <_end+0x1b>
    800003f4:	1e2b03a3          	sb	sp,487(s6)
    800003f8:	05d00413          	li	s0,93
    800003fc:	404803b3          	sub	t2,a6,tp
    80000400:	02846833          	rem	a6,s0,s0
    80000404:	600fb603          	ld	a2,1536(t6)
    80000408:	d65213a3          	sh	t0,-665(tp) # fffffffffffffd67 <__global_pointer$+0xffffffff7fffde57>
    8000040c:	3a530493          	addi	s1,t1,933
    80000410:	00100893          	li	a7,1
    80000414:	82b190a3          	sh	a1,-2015(gp) # 80001731 <_end+0x21>
    80000418:	03f89893          	slli	a7,a7,0x3f
    8000041c:	03bddcbb          	divuw	s9,s11,s11
    80000420:	63300713          	li	a4,1587
    80000424:	fff00e93          	li	t4,-1
    80000428:	a4900593          	li	a1,-1463
    8000042c:	1066b083          	ld	ra,262(a3)
    80000430:	02b72bb3          	mulhsu	s7,a4,a1
    80000434:	011eceb3          	xor	t4,t4,a7
    80000438:	01d3f133          	and	sp,t2,t4
    8000043c:	00001217          	auipc	tp,0x1
    80000440:	03d20213          	addi	tp,tp,61 # 80001479 <test_memory+0x179>
    80000444:	d6018993          	addi	s3,gp,-672 # 80001c70 <_end+0x560>
    80000448:	03ef43bb          	divw	t2,t5,t5
    8000044c:	3365f413          	andi	s0,a1,822
    80000450:	0118cab3          	xor	s5,a7,a7
    80000454:	0118d1bb          	srlw	gp,a7,a7
    80000458:	9cb9a423          	sw	a1,-1592(s3)
    8000045c:	00001517          	auipc	a0,0x1
    80000460:	21a50513          	addi	a0,a0,538 # 80001676 <test_memory+0x376>
    80000464:	012e0b3b          	addw	s6,t3,s2
    80000468:	00100d93          	li	s11,1
    8000046c:	00001497          	auipc	s1,0x1
    80000470:	04348493          	addi	s1,s1,67 # 800014af <test_memory+0x1af>
    80000474:	7a800393          	li	t2,1960
    80000478:	011167b3          	or	a5,sp,a7
    8000047c:	03fd9d93          	slli	s11,s11,0x3f
    80000480:	fbb24b83          	lbu	s7,-69(tp) # ffffffffffffffbb <__global_pointer$+0xffffffff7fffe0ab>
    80000484:	1c000593          	li	a1,448
    80000488:	02d77333          	remu	t1,a4,a3
    8000048c:	01648683          	lb	a3,22(s1)
    80000490:	00efba33          	sltu	s4,t6,a4
    80000494:	f9c51903          	lh	s2,-100(a0)
    80000498:	12300713          	li	a4,291
    8000049c:	4ef14863          	blt	sp,a5,8000098c <crash_forward>
    800004a0:	f9a00193          	li	gp,-102
    800004a4:	fff00293          	li	t0,-1
    800004a8:	88618413          	addi	s0,gp,-1914 # 80001796 <_end+0x86>
    800004ac:	01b2c2b3          	xor	t0,t0,s11
    800004b0:	0051fe33          	and	t3,gp,t0
    800004b4:	00b3a833          	slt	a6,t2,a1
    800004b8:	00841d33          	sll	s10,s0,s0
    800004bc:	00e77f33          	and	t5,a4,a4
    800004c0:	90800c93          	li	s9,-1784
    800004c4:	7d600f93          	li	t6,2006
    800004c8:	03fcbc33          	mulhu	s8,s9,t6
    800004cc:	01be6633          	or	a2,t3,s11
    800004d0:	4bc66e63          	bltu	a2,t3,8000098c <crash_forward>
    800004d4:	00001297          	auipc	t0,0x1
    800004d8:	a0d28293          	addi	t0,t0,-1523 # 80000ee1 <test_end+0x541>
    800004dc:	00001617          	auipc	a2,0x1
    800004e0:	cc460613          	addi	a2,a2,-828 # 800011a0 <reg_x20_init>
    800004e4:	036b63bb          	remw	t2,s6,s6
    800004e8:	00001817          	auipc	a6,0x1
    800004ec:	a6080813          	addi	a6,a6,-1440 # 80000f48 <test_end+0x5a8>
    800004f0:	6a082e83          	lw	t4,1696(a6)
    800004f4:	edf00d93          	li	s11,-289
    800004f8:	98d18c93          	addi	s9,gp,-1651 # 8000189d <_end+0x18d>
    800004fc:	42f60323          	sb	a5,1062(a2)
    80000500:	f1100493          	li	s1,-239
    80000504:	00000717          	auipc	a4,0x0
    80000508:	72270713          	addi	a4,a4,1826 # 80000c26 <test_end+0x286>
    8000050c:	c9ad8a93          	addi	s5,s11,-870
    80000510:	74700813          	li	a6,1863
    80000514:	17a80613          	addi	a2,a6,378
    80000518:	edd00593          	li	a1,-291
    8000051c:	0f700c13          	li	s8,247
    80000520:	6f400b13          	li	s6,1780
    80000524:	95218193          	addi	gp,gp,-1710 # 80001862 <_end+0x152>
    80000528:	47064263          	blt	a2,a6,8000098c <crash_forward>
    8000052c:	013b513b          	srlw	sp,s6,s3
    80000530:	97018d13          	addi	s10,gp,-1680 # 80001880 <_end+0x170>
    80000534:	00001397          	auipc	t2,0x1
    80000538:	bd138393          	addi	t2,t2,-1071 # 80001105 <hidden_data+0x5>
    8000053c:	e7419403          	lh	s0,-396(gp) # 80001d84 <_end+0x674>
    80000540:	ca200913          	li	s2,-862
    80000544:	4b6386a3          	sb	s6,1197(t2)
    80000548:	77874683          	lbu	a3,1912(a4)
    8000054c:	44d00213          	li	tp,1101
    80000550:	00b5c9b3          	xor	s3,a1,a1
    80000554:	004220b3          	slt	ra,tp,tp
    80000558:	4184dfbb          	sraw	t6,s1,s8
    8000055c:	00dbbe33          	sltu	t3,s7,a3
    80000560:	b0800793          	li	a5,-1272
    80000564:	bb5de2e3          	bltu	s11,s5,80000108 <crash_backward>
    80000568:	039c9c33          	mulh	s8,s9,s9
    8000056c:	00001497          	auipc	s1,0x1
    80000570:	8f448493          	addi	s1,s1,-1804 # 80000e60 <test_end+0x4c0>
    80000574:	b0400513          	li	a0,-1276
    80000578:	5524b023          	sd	s2,1344(s1)
    8000057c:	25900593          	li	a1,601
    80000580:	00001417          	auipc	s0,0x1
    80000584:	9bd40413          	addi	s0,s0,-1603 # 80000f3d <test_end+0x59d>
    80000588:	03c81633          	mulh	a2,a6,t3
    8000058c:	03ffe833          	rem	a6,t6,t6
    80000590:	0d400993          	li	s3,212
    80000594:	02f94a33          	div	s4,s2,a5
    80000598:	00000e13          	li	t3,0
    8000059c:	00100693          	li	a3,1
    800005a0:	90fe8b9b          	addiw	s7,t4,-1777
    800005a4:	02ab5f3b          	divuw	t5,s6,a0
    800005a8:	7472b303          	ld	t1,1863(t0)
    800005ac:	f3500613          	li	a2,-203
    800005b0:	02c6093b          	mulw	s2,a2,a2
    800005b4:	00001097          	auipc	ra,0x1
    800005b8:	87308093          	addi	ra,ra,-1933 # 80000e27 <test_end+0x487>
    800005bc:	00b5923b          	sllw	tp,a1,a1
    800005c0:	a8d00113          	li	sp,-1395
    800005c4:	00000f97          	auipc	t6,0x0
    800005c8:	635f8f93          	addi	t6,t6,1589 # 80000bf9 <test_end+0x259>
    800005cc:	ca1cd883          	lhu	a7,-863(s9)
    800005d0:	016a77b3          	and	a5,s4,s6
    800005d4:	002983b3          	add	t2,s3,sp
    800005d8:	ca6d2c23          	sw	t1,-840(s10)
    800005dc:	00000e93          	li	t4,0
    800005e0:	026375bb          	remuw	a1,t1,t1
    800005e4:	2a700d13          	li	s10,679
    800005e8:	d6818913          	addi	s2,gp,-664 # 80001c78 <_end+0x568>
    800005ec:	710fca83          	lbu	s5,1808(t6)
    800005f0:	00001517          	auipc	a0,0x1
    800005f4:	beb50513          	addi	a0,a0,-1045 # 800011db <reg_x27_init+0x3>
    800005f8:	03645133          	divu	sp,s0,s6
    800005fc:	2be54603          	lbu	a2,702(a0)
    80000600:	00001317          	auipc	t1,0x1
    80000604:	01a30313          	addi	t1,t1,26 # 8000161a <test_memory+0x31a>
    80000608:	038ea9b3          	mulhsu	s3,t4,s8
    8000060c:	03ad48b3          	div	a7,s10,s10
    80000610:	d9684213          	xori	tp,a6,-618
    80000614:	b0f18e13          	addi	t3,gp,-1265 # 80001a1f <_end+0x30f>
    80000618:	f1f18793          	addi	a5,gp,-225 # 80001e2f <_end+0x71f>
    8000061c:	00001117          	auipc	sp,0x1
    80000620:	b2810113          	addi	sp,sp,-1240 # 80001144 <reg_x8_init+0x4>
    80000624:	a3500f93          	li	t6,-1483
    80000628:	40ccdd13          	srai	s10,s9,0xc
    8000062c:	00001c97          	auipc	s9,0x1
    80000630:	85ec8c93          	addi	s9,s9,-1954 # 80000e8a <test_end+0x4ea>
    80000634:	01ffd5b3          	srl	a1,t6,t6
    80000638:	00001217          	auipc	tp,0x1
    8000063c:	cda20213          	addi	tp,tp,-806 # 80001312 <test_memory+0x12>
    80000640:	18700613          	li	a2,391
    80000644:	5b360a93          	addi	s5,a2,1459
    80000648:	31110623          	sb	a7,780(sp)
    8000064c:	52b43703          	ld	a4,1323(s0)
    80000650:	df618b93          	addi	s7,gp,-522 # 80001d06 <_end+0x5f6>
    80000654:	f2231503          	lh	a0,-222(t1)
    80000658:	000a0893          	mv	a7,s4
    8000065c:	89878ea3          	sb	s8,-1891(a5)
    80000660:	a5093383          	ld	t2,-1456(s2)
    80000664:	00088e93          	mv	t4,a7
    80000668:	7610ad83          	lw	s11,1889(ra)
    8000066c:	02f7af33          	mulhsu	t5,a5,a5
    80000670:	25821983          	lh	s3,600(tp) # 258 <_start-0x7ffffda8>
    80000674:	6dbccb03          	lbu	s6,1755(s9)
    80000678:	c87e12a3          	sh	t2,-891(t3)
    8000067c:	1b300393          	li	t2,435
    80000680:	00001817          	auipc	a6,0x1
    80000684:	bc680813          	addi	a6,a6,-1082 # 80001246 <reg_x8_output+0x6>
    80000688:	bf518913          	addi	s2,gp,-1035 # 80001b05 <_end+0x3f5>
    8000068c:	03f69693          	slli	a3,a3,0x3f
    80000690:	ac118413          	addi	s0,gp,-1343 # 800019d1 <_end+0x2c1>
    80000694:	2ecaec63          	bltu	s5,a2,8000098c <crash_forward>
    80000698:	39800c93          	li	s9,920
    8000069c:	a2d91b03          	lh	s6,-1491(s2)
    800006a0:	b1318213          	addi	tp,gp,-1261 # 80001a23 <_end+0x313>
    800006a4:	0073c5b3          	xor	a1,t2,t2
    800006a8:	008432b3          	sltu	t0,s0,s0
    800006ac:	00001317          	auipc	t1,0x1
    800006b0:	e1f30313          	addi	t1,t1,-481 # 800014cb <test_memory+0x1cb>
    800006b4:	b8926883          	lwu	a7,-1143(tp) # fffffffffffffb89 <__global_pointer$+0xffffffff7fffdc79>
    800006b8:	96800993          	li	s3,-1688
    800006bc:	ed532f03          	lw	t5,-299(t1)
    800006c0:	35381c23          	sh	s3,856(a6)
    800006c4:	039cedb3          	rem	s11,s9,s9
    800006c8:	fff00493          	li	s1,-1
    800006cc:	b3f00913          	li	s2,-1217
    800006d0:	015add33          	srl	s10,s5,s5
    800006d4:	ffc00e93          	li	t4,-4
    800006d8:	ada18113          	addi	sp,gp,-1318 # 800019ea <_end+0x2da>
    800006dc:	012913b3          	sll	t2,s2,s2
    800006e0:	d2d00593          	li	a1,-723
    800006e4:	00100293          	li	t0,1
    800006e8:	00001097          	auipc	ra,0x1
    800006ec:	c4e08093          	addi	ra,ra,-946 # 80001336 <test_memory+0x36>
    800006f0:	00001317          	auipc	t1,0x1
    800006f4:	c1430313          	addi	t1,t1,-1004 # 80001304 <test_memory+0x4>
    800006f8:	00d4c4b3          	xor	s1,s1,a3
    800006fc:	2e435c83          	lhu	s9,740(t1)
    80000700:	03f29293          	slli	t0,t0,0x3f
    80000704:	af440d23          	sb	s4,-1286(s0)
    80000708:	53c00f93          	li	t6,1340
    8000070c:	00000397          	auipc	t2,0x0
    80000710:	6fe38393          	addi	t2,t2,1790 # 80000e0a <test_end+0x46a>
    80000714:	009cf1b3          	and	gp,s9,s1
    80000718:	00da6c33          	or	s8,s4,a3
    8000071c:	9d418d13          	addi	s10,gp,-1580 # 800018e4 <_end+0x1d4>
    80000720:	894bda03          	lhu	s4,-1900(s7)
    80000724:	03f9c733          	div	a4,s3,t6
    80000728:	b8000613          	li	a2,-1152
    8000072c:	5043d903          	lhu	s2,1284(t2)
    80000730:	c7e15783          	lhu	a5,-898(sp)
    80000734:	33309c23          	sh	s3,824(ra)
    80000738:	9d81f8e3          	bgeu	gp,s8,80000108 <crash_backward>
    8000073c:	ae100e13          	li	t3,-1311
    80000740:	028646bb          	divw	a3,a2,s0
    80000744:	a1518313          	addi	t1,gp,-1515 # 80001925 <_end+0x215>
    80000748:	03ceaab3          	mulhsu	s5,t4,t3
    8000074c:	00001117          	auipc	sp,0x1
    80000750:	d2210113          	addi	sp,sp,-734 # 8000146e <test_memory+0x16e>
    80000754:	00c5eb33          	or	s6,a1,a2
    80000758:	bc6d5d83          	lhu	s11,-1082(s10)
    8000075c:	d2f303a3          	sb	a5,-729(t1)
    80000760:	a4600593          	li	a1,-1466
    80000764:	00210533          	add	a0,sp,sp
    80000768:	01de983b          	sllw	a6,t4,t4
    8000076c:	24910223          	sb	s1,580(sp)
    80000770:	01598ebb          	addw	t4,s3,s5
    80000774:	02128733          	mul	a4,t0,ra
    80000778:	02b5cabb          	divw	s5,a1,a1
    8000077c:	89900f93          	li	t6,-1895
    80000780:	00001197          	auipc	gp,0x1
    80000784:	a4518193          	addi	gp,gp,-1467 # 800011c5 <reg_x24_init+0x5>
    80000788:	7a900313          	li	t1,1961
    8000078c:	43ab5e13          	srai	t3,s6,0x3a
    80000790:	2431ca03          	lbu	s4,579(gp) # 80002153 <__global_pointer$+0x243>
    80000794:	24b00613          	li	a2,587
    80000798:	93d18d13          	addi	s10,gp,-1731 # 8000184d <_end+0x13d>
    8000079c:	fff00893          	li	a7,-1
    800007a0:	ddfd5d83          	lhu	s11,-545(s10)
    800007a4:	98700413          	li	s0,-1657
    800007a8:	b1000693          	li	a3,-1264
    800007ac:	bde40c13          	addi	s8,s0,-1058
    800007b0:	0058c8b3          	xor	a7,a7,t0
    800007b4:	00000c97          	auipc	s9,0x0
    800007b8:	64ac8c93          	addi	s9,s9,1610 # 80000dfe <test_end+0x45e>
    800007bc:	10d00993          	li	s3,269
    800007c0:	01ffabb3          	slt	s7,t6,t6
    800007c4:	6a6ce903          	lwu	s2,1702(s9)
    800007c8:	0263753b          	remuw	a0,t1,t1
    800007cc:	0116ff33          	and	t5,a3,a7
    800007d0:	cff00093          	li	ra,-769
    800007d4:	005f6233          	or	tp,t5,t0
    800007d8:	00d64b33          	xor	s6,a2,a3
    800007dc:	27d4b393          	sltiu	t2,s1,637
    800007e0:	401987b3          	sub	a5,s3,ra
    800007e4:	00000617          	auipc	a2,0x0
    800007e8:	7c060613          	addi	a2,a2,1984 # 80000fa4 <test_end+0x604>
    800007ec:	41ef5e3b          	sraw	t3,t5,t5
    800007f0:	00100c93          	li	s9,1
    800007f4:	037bc4b3          	div	s1,s7,s7
    800007f8:	03ce7ab3          	remu	s5,t3,t3
    800007fc:	019c89bb          	addw	s3,s9,s9
    80000800:	4ac62903          	lw	s2,1196(a2)
    80000804:	00100e13          	li	t3,1
    80000808:	00100a13          	li	s4,1
    8000080c:	19a00b13          	li	s6,410
    80000810:	8bc00f13          	li	t5,-1860
    80000814:	03fc9c93          	slli	s9,s9,0x3f
    80000818:	fff00d13          	li	s10,-1
    8000081c:	00000817          	auipc	a6,0x0
    80000820:	63280813          	addi	a6,a6,1586 # 80000e4e <test_end+0x4ae>
    80000824:	00001c17          	auipc	s8,0x1
    80000828:	b73c0c13          	addi	s8,s8,-1165 # 80001397 <test_memory+0x97>
    8000082c:	00001a97          	auipc	s5,0x1
    80000830:	c92a8a93          	addi	s5,s5,-878 # 800014be <test_memory+0x1be>
    80000834:	c6400193          	li	gp,-924
    80000838:	5e080aa3          	sb	zero,1525(a6)
    8000083c:	bf800313          	li	t1,-1032
    80000840:	00001417          	auipc	s0,0x1
    80000844:	f4a40413          	addi	s0,s0,-182 # 8000178a <_end+0x7a>
    80000848:	01bd99b3          	sll	s3,s11,s11
    8000084c:	03fa1a13          	slli	s4,s4,0x3f
    80000850:	03eb773b          	remuw	a4,s6,t5
    80000854:	061c6f83          	lwu	t6,97(s8)
    80000858:	00000697          	auipc	a3,0x0
    8000085c:	51568693          	addi	a3,a3,1301 # 80000d6d <test_end+0x3cd>
    80000860:	019d4d33          	xor	s10,s10,s9
    80000864:	0261e133          	rem	sp,gp,t1
    80000868:	5b600493          	li	s1,1462
    8000086c:	03fe1e13          	slli	t3,t3,0x3f
    80000870:	02aed7b3          	divu	a5,t4,a0
    80000874:	fff00b93          	li	s7,-1
    80000878:	6f000913          	li	s2,1776
    8000087c:	0124963b          	sllw	a2,s1,s2
    80000880:	6e96a7a3          	sw	s1,1775(a3)
    80000884:	02e768bb          	remw	a7,a4,a4
    80000888:	01cbcbb3          	xor	s7,s7,t3
    8000088c:	04bab123          	sd	a1,66(s5)
    80000890:	bb646203          	lwu	tp,-1098(s0)
    80000894:	01a9f0b3          	and	ra,s3,s10
    80000898:	0176f3b3          	and	t2,a3,s7
    8000089c:	01c56533          	or	a0,a0,t3
    800008a0:	0ea38663          	beq	t2,a0,8000098c <crash_forward>
    800008a4:	0190eeb3          	or	t4,ra,s9
    800008a8:	fff00293          	li	t0,-1
    800008ac:	0142c2b3          	xor	t0,t0,s4
    800008b0:	0054f5b3          	and	a1,s1,t0
    800008b4:	0145edb3          	or	s11,a1,s4
    800008b8:	cff00c13          	li	s8,-769
    800008bc:	00100113          	li	sp,1
    800008c0:	e54c0a13          	addi	s4,s8,-428
    800008c4:	000d8f93          	mv	t6,s11
    800008c8:	9c600c93          	li	s9,-1594
    800008cc:	838a7ee3          	bgeu	s4,s8,80000108 <crash_backward>
    800008d0:	03f11113          	slli	sp,sp,0x3f
    800008d4:	000f8e93          	mv	t4,t6
    800008d8:	83dfe8e3          	bltu	t6,t4,80000108 <crash_backward>
    800008dc:	fff00593          	li	a1,-1
    800008e0:	0025c5b3          	xor	a1,a1,sp
    800008e4:	039cc533          	div	a0,s9,s9
    800008e8:	00bd71b3          	and	gp,s10,a1
    800008ec:	0021e433          	or	s0,gp,sp
    800008f0:	80346ce3          	bltu	s0,gp,80000108 <crash_backward>
    800008f4:	0040006f          	j	800008f8 <reg_dump>

00000000800008f8 <reg_dump>:
    800008f8:	00001097          	auipc	ra,0x1
    800008fc:	e0808093          	addi	ra,ra,-504 # 80001700 <loop_count>
    80000900:	0000a103          	lw	sp,0(ra)
    80000904:	fff10193          	addi	gp,sp,-1
    80000908:	0030a023          	sw	gp,0(ra)
    8000090c:	88011ee3          	bnez	sp,800001a8 <pseg_0>
    80000910:	00001097          	auipc	ra,0x1
    80000914:	8f008093          	addi	ra,ra,-1808 # 80001200 <begin_signature>
    80000918:	0000b023          	sd	zero,0(ra)
    8000091c:	0020b823          	sd	sp,16(ra)
    80000920:	0030bc23          	sd	gp,24(ra)
    80000924:	0240b023          	sd	tp,32(ra)
    80000928:	0250b423          	sd	t0,40(ra)
    8000092c:	0260b823          	sd	t1,48(ra)
    80000930:	0270bc23          	sd	t2,56(ra)
    80000934:	0480b023          	sd	s0,64(ra)
    80000938:	0490b423          	sd	s1,72(ra)
    8000093c:	04a0b823          	sd	a0,80(ra)
    80000940:	04b0bc23          	sd	a1,88(ra)
    80000944:	06c0b023          	sd	a2,96(ra)
    80000948:	06e0b823          	sd	a4,112(ra)
    8000094c:	06f0bc23          	sd	a5,120(ra)
    80000950:	0910b423          	sd	a7,136(ra)
    80000954:	0920b823          	sd	s2,144(ra)
    80000958:	0930bc23          	sd	s3,152(ra)
    8000095c:	0b40b023          	sd	s4,160(ra)
    80000960:	0b60b823          	sd	s6,176(ra)
    80000964:	0b70bc23          	sd	s7,184(ra)
    80000968:	0d80b023          	sd	s8,192(ra)
    8000096c:	0d90b423          	sd	s9,200(ra)
    80000970:	0da0b823          	sd	s10,208(ra)
    80000974:	0db0bc23          	sd	s11,216(ra)
    80000978:	0fc0b023          	sd	t3,224(ra)
    8000097c:	0fd0b423          	sd	t4,232(ra)
    80000980:	0fe0b823          	sd	t5,240(ra)
    80000984:	0ff0bc23          	sd	t6,248(ra)
    80000988:	0180006f          	j	800009a0 <test_end>

000000008000098c <crash_forward>:
    8000098c:	0ff0000f          	fence
    80000990:	00018063          	beqz	gp,80000990 <crash_forward+0x4>
    80000994:	00119193          	slli	gp,gp,0x1
    80000998:	0011e193          	ori	gp,gp,1
    8000099c:	00000073          	ecall

00000000800009a0 <test_end>:
    800009a0:	0ff0000f          	fence
    800009a4:	00100193          	li	gp,1
    800009a8:	00000073          	ecall
    800009ac:	c0001073          	unimp
	...

Disassembly of section .tohost:

0000000080001000 <tohost>:
	...

0000000080001040 <fromhost>:
	...
