
test.elf:     file format elf64-littleriscv


Disassembly of section .text.init:

0000000080000000 <_start>:
    80000000:	0580006f          	j	80000058 <reset_vector>

0000000080000004 <trap_vector>:
    80000004:	34202f73          	csrr	t5,mcause
    80000008:	00800f93          	li	t6,8
    8000000c:	05ff0063          	beq	t5,t6,8000004c <write_tohost>
    80000010:	00900f93          	li	t6,9
    80000014:	03ff0c63          	beq	t5,t6,8000004c <write_tohost>
    80000018:	00b00f93          	li	t6,11
    8000001c:	03ff0863          	beq	t5,t6,8000004c <write_tohost>
    80000020:	00000f13          	li	t5,0
    80000024:	000f0463          	beqz	t5,8000002c <trap_vector+0x28>
    80000028:	000f0067          	jr	t5
    8000002c:	34202f73          	csrr	t5,mcause
    80000030:	000f5463          	bgez	t5,80000038 <handle_exception>
    80000034:	0140006f          	j	80000048 <other_exception>

0000000080000038 <handle_exception>:
    80000038:	34102e73          	csrr	t3,mepc
    8000003c:	004e0e13          	addi	t3,t3,4
    80000040:	341e1073          	csrw	mepc,t3
    80000044:	30200073          	mret

0000000080000048 <other_exception>:
    80000048:	5391e193          	ori	gp,gp,1337

000000008000004c <write_tohost>:
    8000004c:	00001f17          	auipc	t5,0x1
    80000050:	fa3f2a23          	sw	gp,-76(t5) # 80001000 <tohost>
    80000054:	ff9ff06f          	j	8000004c <write_tohost>

0000000080000058 <reset_vector>:
    80000058:	f1402573          	csrr	a0,mhartid
    8000005c:	00051063          	bnez	a0,8000005c <reset_vector+0x4>
    80000060:	00000297          	auipc	t0,0x0
    80000064:	01028293          	addi	t0,t0,16 # 80000070 <reset_vector+0x18>
    80000068:	30529073          	csrw	mtvec,t0
    8000006c:	18005073          	csrwi	satp,0
    80000070:	00000297          	auipc	t0,0x0
    80000074:	01c28293          	addi	t0,t0,28 # 8000008c <reset_vector+0x34>
    80000078:	30529073          	csrw	mtvec,t0
    8000007c:	fff00293          	li	t0,-1
    80000080:	3b029073          	csrw	pmpaddr0,t0
    80000084:	01f00293          	li	t0,31
    80000088:	3a029073          	csrw	pmpcfg0,t0
    8000008c:	00000297          	auipc	t0,0x0
    80000090:	01828293          	addi	t0,t0,24 # 800000a4 <reset_vector+0x4c>
    80000094:	30529073          	csrw	mtvec,t0
    80000098:	30205073          	csrwi	medeleg,0
    8000009c:	30305073          	csrwi	mideleg,0
    800000a0:	30405073          	csrwi	mie,0
    800000a4:	00000193          	li	gp,0
    800000a8:	00000297          	auipc	t0,0x0
    800000ac:	f5c28293          	addi	t0,t0,-164 # 80000004 <trap_vector>
    800000b0:	30529073          	csrw	mtvec,t0
    800000b4:	00100513          	li	a0,1
    800000b8:	01f51513          	slli	a0,a0,0x1f
    800000bc:	00055863          	bgez	a0,800000cc <reset_vector+0x74>
    800000c0:	0ff0000f          	fence
    800000c4:	00100193          	li	gp,1
    800000c8:	00000073          	ecall
    800000cc:	00000293          	li	t0,0
    800000d0:	00028e63          	beqz	t0,800000ec <reset_vector+0x94>
    800000d4:	10529073          	csrw	stvec,t0
    800000d8:	0000b2b7          	lui	t0,0xb
    800000dc:	1092829b          	addiw	t0,t0,265
    800000e0:	30229073          	csrw	medeleg,t0
    800000e4:	30202373          	csrr	t1,medeleg
    800000e8:	f66290e3          	bne	t0,t1,80000048 <other_exception>
    800000ec:	30005073          	csrwi	mstatus,0
    800000f0:	00000297          	auipc	t0,0x0
    800000f4:	01428293          	addi	t0,t0,20 # 80000104 <reset_vector+0xac>
    800000f8:	34129073          	csrw	mepc,t0
    800000fc:	f1402573          	csrr	a0,mhartid
    80000100:	30200073          	mret
    80000104:	0180006f          	j	8000011c <test_start>

0000000080000108 <crash_backward>:
    80000108:	0ff0000f          	fence
    8000010c:	00018063          	beqz	gp,8000010c <crash_backward+0x4>
    80000110:	00119193          	slli	gp,gp,0x1
    80000114:	0011e193          	ori	gp,gp,1
    80000118:	00000073          	ecall

000000008000011c <test_start>:
    8000011c:	00001f97          	auipc	t6,0x1
    80000120:	fe4f8f93          	addi	t6,t6,-28 # 80001100 <hidden_data>
    80000124:	000fb003          	ld	zero,0(t6)
    80000128:	008fb083          	ld	ra,8(t6)
    8000012c:	010fb103          	ld	sp,16(t6)
    80000130:	018fb183          	ld	gp,24(t6)
    80000134:	020fb203          	ld	tp,32(t6)
    80000138:	028fb283          	ld	t0,40(t6)
    8000013c:	030fb303          	ld	t1,48(t6)
    80000140:	038fb383          	ld	t2,56(t6)
    80000144:	040fb403          	ld	s0,64(t6)
    80000148:	048fb483          	ld	s1,72(t6)
    8000014c:	050fb503          	ld	a0,80(t6)
    80000150:	058fb583          	ld	a1,88(t6)
    80000154:	060fb603          	ld	a2,96(t6)
    80000158:	068fb683          	ld	a3,104(t6)
    8000015c:	070fb703          	ld	a4,112(t6)
    80000160:	078fb783          	ld	a5,120(t6)
    80000164:	080fb803          	ld	a6,128(t6)
    80000168:	088fb883          	ld	a7,136(t6)
    8000016c:	090fb903          	ld	s2,144(t6)
    80000170:	098fb983          	ld	s3,152(t6)
    80000174:	0a0fba03          	ld	s4,160(t6)
    80000178:	0a8fba83          	ld	s5,168(t6)
    8000017c:	0b0fbb03          	ld	s6,176(t6)
    80000180:	0b8fbb83          	ld	s7,184(t6)
    80000184:	0c0fbc03          	ld	s8,192(t6)
    80000188:	0c8fbc83          	ld	s9,200(t6)
    8000018c:	0d0fbd03          	ld	s10,208(t6)
    80000190:	0d8fbd83          	ld	s11,216(t6)
    80000194:	0e0fbe03          	ld	t3,224(t6)
    80000198:	0e8fbe83          	ld	t4,232(t6)
    8000019c:	0f0fbf03          	ld	t5,240(t6)
    800001a0:	0f8fbf83          	ld	t6,248(t6)
    800001a4:	0040006f          	j	800001a8 <pseg_0>

00000000800001a8 <pseg_0>:
    800001a8:	00001097          	auipc	ra,0x1
    800001ac:	02e08093          	addi	ra,ra,46 # 800011d6 <reg_x26_init+0x6>
    800001b0:	00001217          	auipc	tp,0x1
    800001b4:	3bb20213          	addi	tp,tp,955 # 8000156b <test_memory+0x26b>
    800001b8:	87e00d93          	li	s11,-1922
    800001bc:	00100713          	li	a4,1
    800001c0:	01e688b3          	add	a7,a3,t5
    800001c4:	03f71713          	slli	a4,a4,0x3f
    800001c8:	45400613          	li	a2,1108
    800001cc:	02c657bb          	divuw	a5,a2,a2
    800001d0:	a2000c93          	li	s9,-1504
    800001d4:	f2846ae3          	bltu	s0,s0,80000108 <crash_backward>
    800001d8:	00001697          	auipc	a3,0x1
    800001dc:	c2868693          	addi	a3,a3,-984 # 80000e00 <test_end+0x3ec>
    800001e0:	25d00413          	li	s0,605
    800001e4:	fff00393          	li	t2,-1
    800001e8:	60c6d983          	lhu	s3,1548(a3)
    800001ec:	acf18813          	addi	a6,gp,-1329 # 800019df <_end+0x2cf>
    800001f0:	00001d17          	auipc	s10,0x1
    800001f4:	e33d0d13          	addi	s10,s10,-461 # 80001023 <tohost+0x23>
    800001f8:	27400a13          	li	s4,628
    800001fc:	15521b03          	lh	s6,341(tp) # 155 <_start-0x7ffffeab>
    80000200:	00001317          	auipc	t1,0x1
    80000204:	f0730313          	addi	t1,t1,-249 # 80001107 <hidden_data+0x7>
    80000208:	43d31283          	lh	t0,1085(t1)
    8000020c:	414401b3          	sub	gp,s0,s4
    80000210:	f9e00493          	li	s1,-98
    80000214:	009dfbb3          	and	s7,s11,s1
    80000218:	00e3c3b3          	xor	t2,t2,a4
    8000021c:	32dd3c03          	ld	s8,813(s10)
    80000220:	00100613          	li	a2,1
    80000224:	00001517          	auipc	a0,0x1
    80000228:	07f50513          	addi	a0,a0,127 # 800012a3 <reg_x20_output+0x3>
    8000022c:	ce980423          	sb	s1,-792(a6)
    80000230:	03f61613          	slli	a2,a2,0x3f
    80000234:	bf85ce13          	xori	t3,a1,-1032
    80000238:	039c8933          	mul	s2,s9,s9
    8000023c:	039cb333          	mulhu	t1,s9,s9
    80000240:	fff00f13          	li	t5,-1
    80000244:	27a54f83          	lbu	t6,634(a0)
    80000248:	00cf4f33          	xor	t5,t5,a2
    8000024c:	00001217          	auipc	tp,0x1
    80000250:	03520213          	addi	tp,tp,53 # 80001281 <reg_x16_output+0x1>
    80000254:	02d675b3          	remu	a1,a2,a3
    80000258:	025f5e3b          	divuw	t3,t5,t0
    8000025c:	014a31b3          	sltu	gp,s4,s4
    80000260:	48509e23          	sh	t0,1180(ra)
    80000264:	01eaf133          	and	sp,s5,t5
    80000268:	00cce7b3          	or	a5,s9,a2
    8000026c:	0f200813          	li	a6,242
    80000270:	00001e17          	auipc	t3,0x1
    80000274:	13be0e13          	addi	t3,t3,315 # 800013ab <test_memory+0xab>
    80000278:	a2e00413          	li	s0,-1490
    8000027c:	ff9e4583          	lbu	a1,-7(t3)
    80000280:	e2200993          	li	s3,-478
    80000284:	d6700a13          	li	s4,-665
    80000288:	00001917          	auipc	s2,0x1
    8000028c:	47390913          	addi	s2,s2,1139 # 800016fb <test_memory+0x3fb>
    80000290:	33d00f93          	li	t6,829
    80000294:	22500c13          	li	s8,549
    80000298:	02e760bb          	remw	ra,a4,a4
    8000029c:	3df00293          	li	t0,991
    800002a0:	033858b3          	divu	a7,a6,s3
    800002a4:	016b36b3          	sltu	a3,s6,s6
    800002a8:	20100e13          	li	t3,513
    800002ac:	c6b18493          	addi	s1,gp,-917 # 80001b7b <_end+0x46b>
    800002b0:	0171e633          	or	a2,gp,s7
    800002b4:	ef991503          	lh	a0,-263(s2)
    800002b8:	01447db3          	and	s11,s0,s4
    800002bc:	c6900f13          	li	t5,-919
    800002c0:	00001197          	auipc	gp,0x1
    800002c4:	fad18193          	addi	gp,gp,-83 # 8000126d <reg_x13_output+0x5>
    800002c8:	01ffbcb3          	sltu	s9,t6,t6
    800002cc:	405c0bb3          	sub	s7,s8,t0
    800002d0:	9a318d13          	addi	s10,gp,-1629 # 800018b3 <_end+0x1a3>
    800002d4:	c79d18a3          	sh	s9,-911(s10)
    800002d8:	1531e303          	lwu	t1,339(gp) # 80002063 <__global_pointer$+0x153>
    800002dc:	007a7eb3          	and	t4,s4,t2
    800002e0:	01ee3133          	sltu	sp,t3,t5
    800002e4:	15322b03          	lw	s6,339(tp) # 153 <_start-0x7ffffead>
    800002e8:	00eeeab3          	or	s5,t4,a4
    800002ec:	84249da3          	sh	sp,-1957(s1)
    800002f0:	715ef863          	bgeu	t4,s5,80000a00 <crash_forward>
    800002f4:	a6618113          	addi	sp,gp,-1434 # 80001976 <_end+0x266>
    800002f8:	02a5443b          	divw	s0,a0,a0
    800002fc:	10100f93          	li	t6,257
    80000300:	00001097          	auipc	ra,0x1
    80000304:	dc808093          	addi	ra,ra,-568 # 800010c8 <fromhost+0x88>
    80000308:	6bc33d37          	lui	s10,0x6bc33
    8000030c:	ce300a93          	li	s5,-797
    80000310:	c2c10783          	lb	a5,-980(sp)
    80000314:	5b100713          	li	a4,1457
    80000318:	d4018e13          	addi	t3,gp,-704 # 80001c50 <_end+0x540>
    8000031c:	00001e97          	auipc	t4,0x1
    80000320:	467e8e93          	addi	t4,t4,1127 # 80001783 <_end+0x73>
    80000324:	00001217          	auipc	tp,0x1
    80000328:	b2220213          	addi	tp,tp,-1246 # 80000e46 <test_end+0x432>
    8000032c:	031ffbbb          	remuw	s7,t6,a7
    80000330:	015ff2b3          	and	t0,t6,s5
    80000334:	dc006ae3          	bltu	zero,zero,80000108 <crash_backward>
    80000338:	00001397          	auipc	t2,0x1
    8000033c:	48b38393          	addi	t2,t2,1163 # 800017c3 <_end+0xb3>
    80000340:	0249e1bb          	remw	gp,s3,tp
    80000344:	00e71cb3          	sll	s9,a4,a4
    80000348:	2a008a03          	lb	s4,672(ra)
    8000034c:	00001a97          	auipc	s5,0x1
    80000350:	b62a8a93          	addi	s5,s5,-1182 # 80000eae <test_end+0x49a>
    80000354:	a3000493          	li	s1,-1488
    80000358:	0294c83b          	divw	a6,s1,s1
    8000035c:	49000993          	li	s3,1168
    80000360:	00001897          	auipc	a7,0x1
    80000364:	db488893          	addi	a7,a7,-588 # 80001114 <reg_x2_init+0x4>
    80000368:	c553e903          	lwu	s2,-939(t2)
    8000036c:	675acf83          	lbu	t6,1653(s5)
    80000370:	00100d13          	li	s10,1
    80000374:	03fd1d13          	slli	s10,s10,0x3f
    80000378:	4e600f93          	li	t6,1254
    8000037c:	99300f13          	li	t5,-1645
    80000380:	53921223          	sh	s9,1316(tp) # 524 <_start-0x7ffffadc>
    80000384:	00001817          	auipc	a6,0x1
    80000388:	fb980813          	addi	a6,a6,-71 # 8000133d <test_memory+0x3d>
    8000038c:	0273ddb3          	divu	s11,t2,t2
    80000390:	07600c13          	li	s8,118
    80000394:	012e5cb3          	srl	s9,t3,s2
    80000398:	88c00913          	li	s2,-1908
    8000039c:	43300213          	li	tp,1075
    800003a0:	00001497          	auipc	s1,0x1
    800003a4:	1e948493          	addi	s1,s1,489 # 80001589 <test_memory+0x289>
    800003a8:	d4500a93          	li	s5,-699
    800003ac:	e10ec683          	lbu	a3,-496(t4)
    800003b0:	61f00a13          	li	s4,1567
    800003b4:	1264aba3          	sw	t1,311(s1)
    800003b8:	fff00793          	li	a5,-1
    800003bc:	01423733          	sltu	a4,tp,s4
    800003c0:	5d3c0b93          	addi	s7,s8,1491
    800003c4:	01a7c7b3          	xor	a5,a5,s10
    800003c8:	015fa1b3          	slt	gp,t6,s5
    800003cc:	33100c93          	li	s9,817
    800003d0:	b4f18513          	addi	a0,gp,-1201 # 80001a5f <_end+0x34f>
    800003d4:	00fd7433          	and	s0,s10,a5
    800003d8:	c4f18d93          	addi	s11,gp,-945 # 80001b5f <_end+0x44f>
    800003dc:	419cd0b3          	sra	ra,s9,s9
    800003e0:	03e9e63b          	remw	a2,s3,t5
    800003e4:	871de483          	lwu	s1,-1935(s11)
    800003e8:	34382283          	lw	t0,835(a6)
    800003ec:	d18bcee3          	blt	s7,s8,80000108 <crash_backward>
    800003f0:	00001b17          	auipc	s6,0x1
    800003f4:	e01b0b13          	addi	s6,s6,-511 # 800011f1 <reg_x30_init+0x1>
    800003f8:	a10e6303          	lwu	t1,-1520(t3)
    800003fc:	01a26133          	or	sp,tp,s10
    80000400:	d02474e3          	bgeu	s0,sp,80000108 <crash_backward>
    80000404:	3a7b3583          	ld	a1,935(s6)
    80000408:	47f8be23          	sd	t6,1148(a7)
    8000040c:	c17522a3          	sw	s7,-1019(a0)
    80000410:	00001717          	auipc	a4,0x1
    80000414:	f1070713          	addi	a4,a4,-240 # 80001320 <test_memory+0x20>
    80000418:	032973bb          	remuw	t2,s2,s2
    8000041c:	33c72a03          	lw	s4,828(a4)
    80000420:	009882bb          	addw	t0,a7,s1
    80000424:	00100113          	li	sp,1
    80000428:	03579833          	mulh	a6,a5,s5
    8000042c:	00001c97          	auipc	s9,0x1
    80000430:	cedc8c93          	addi	s9,s9,-787 # 80001119 <reg_x3_init+0x1>
    80000434:	03085b3b          	divuw	s6,a6,a6
    80000438:	40fd8f3b          	subw	t5,s11,a5
    8000043c:	e0f18c13          	addi	s8,gp,-497 # 80001d1f <_end+0x60f>
    80000440:	cb900693          	li	a3,-839
    80000444:	407cd603          	lhu	a2,1031(s9)
    80000448:	80fc12a3          	sh	a5,-2043(s8)
    8000044c:	a5818e13          	addi	t3,gp,-1448 # 80001968 <_end+0x258>
    80000450:	00000d93          	li	s11,0
    80000454:	00000213          	li	tp,0
    80000458:	03f11113          	slli	sp,sp,0x3f
    8000045c:	5a4dc263          	blt	s11,tp,80000a00 <crash_forward>
    80000460:	ab168b93          	addi	s7,a3,-1359
    80000464:	00001a17          	auipc	s4,0x1
    80000468:	1eaa0a13          	addi	s4,s4,490 # 8000164e <test_memory+0x34e>
    8000046c:	00100513          	li	a0,1
    80000470:	00e709bb          	addw	s3,a4,a4
    80000474:	f24a0a23          	sb	tp,-204(s4)
    80000478:	4157593b          	sraw	s2,a4,s5
    8000047c:	b0618a13          	addi	s4,gp,-1274 # 80001a16 <_end+0x306>
    80000480:	f3300c13          	li	s8,-205
    80000484:	0063feb3          	and	t4,t2,t1
    80000488:	00001217          	auipc	tp,0x1
    8000048c:	ec120213          	addi	tp,tp,-319 # 80001349 <test_memory+0x49>
    80000490:	34326983          	lwu	s3,835(tp) # 343 <_start-0x7ffffcbd>
    80000494:	ae900593          	li	a1,-1303
    80000498:	03ce6dbb          	remw	s11,t3,t3
    8000049c:	03f51513          	slli	a0,a0,0x3f
    800004a0:	fff00313          	li	t1,-1
    800004a4:	00a34333          	xor	t1,t1,a0
    800004a8:	00100293          	li	t0,1
    800004ac:	c576eee3          	bltu	a3,s7,80000108 <crash_backward>
    800004b0:	c3bc0613          	addi	a2,s8,-965
    800004b4:	02b5f4b3          	remu	s1,a1,a1
    800004b8:	fff00393          	li	t2,-1
    800004bc:	a7fa07a3          	sb	t6,-1425(s4)
    800004c0:	00001897          	auipc	a7,0x1
    800004c4:	85888893          	addi	a7,a7,-1960 # 80000d18 <test_end+0x304>
    800004c8:	c8a00d13          	li	s10,-886
    800004cc:	03ad673b          	remw	a4,s10,s10
    800004d0:	79f8c783          	lbu	a5,1951(a7)
    800004d4:	6e400d13          	li	s10,1764
    800004d8:	00687433          	and	s0,a6,t1
    800004dc:	03f29293          	slli	t0,t0,0x3f
    800004e0:	00a0efb3          	or	t6,ra,a0
    800004e4:	0023c3b3          	xor	t2,t2,sp
    800004e8:	03ad06bb          	mulw	a3,s10,s10
    800004ec:	0079f1b3          	and	gp,s3,t2
    800004f0:	45c00613          	li	a2,1116
    800004f4:	69500a13          	li	s4,1685
    800004f8:	0021e0b3          	or	ra,gp,sp
    800004fc:	fff00813          	li	a6,-1
    80000500:	000c8e93          	mv	t4,s9
    80000504:	000e8593          	mv	a1,t4
    80000508:	dc600c13          	li	s8,-570
    8000050c:	43960913          	addi	s2,a2,1081
    80000510:	034a7abb          	remuw	s5,s4,s4
    80000514:	a9800993          	li	s3,-1384
    80000518:	027384bb          	mulw	s1,t2,t2
    8000051c:	00584833          	xor	a6,a6,t0
    80000520:	013c2233          	slt	tp,s8,s3
    80000524:	01077cb3          	and	s9,a4,a6
    80000528:	02006b3b          	remw	s6,zero,zero
    8000052c:	005cef33          	or	t5,s9,t0
    80000530:	bc30dce3          	bge	ra,gp,80000108 <crash_backward>
    80000534:	a95e02a3          	sb	s5,-1403(t3)
    80000538:	00001d97          	auipc	s11,0x1
    8000053c:	a29d8d93          	addi	s11,s11,-1495 # 80000f61 <test_end+0x54d>
    80000540:	a9818b93          	addi	s7,gp,-1384 # 800019a8 <_end+0x298>
    80000544:	4cbda703          	lw	a4,1227(s11)
    80000548:	a87bb023          	sd	t2,-1408(s7)
    8000054c:	4b9f5a63          	bge	t5,s9,80000a00 <crash_forward>
    80000550:	00001117          	auipc	sp,0x1
    80000554:	b8710113          	addi	sp,sp,-1145 # 800010d7 <fromhost+0x97>
    80000558:	a5800e13          	li	t3,-1448
    8000055c:	54900393          	li	t2,1353
    80000560:	1e300b93          	li	s7,483
    80000564:	5a913903          	ld	s2,1449(sp)
    80000568:	bb318193          	addi	gp,gp,-1101 # 80001ac3 <_end+0x3b3>
    8000056c:	edb18a93          	addi	s5,gp,-293 # 80001deb <_end+0x6db>
    80000570:	027382bb          	mulw	t0,t2,t2
    80000574:	00001217          	auipc	tp,0x1
    80000578:	a6720213          	addi	tp,tp,-1433 # 80000fdb <test_end+0x5c7>
    8000057c:	03ce3533          	mulhu	a0,t3,t3
    80000580:	9dd00b13          	li	s6,-1571
    80000584:	84da9403          	lh	s0,-1971(s5)
    80000588:	9bc18493          	addi	s1,gp,-1604 # 800018cc <_end+0x1bc>
    8000058c:	c2649c83          	lh	s9,-986(s1)
    80000590:	9e200893          	li	a7,-1566
    80000594:	016bb9b3          	sltu	s3,s7,s6
    80000598:	b5200313          	li	t1,-1198
    8000059c:	0068d6b3          	srl	a3,a7,t1
    800005a0:	4b700e93          	li	t4,1207
    800005a4:	3cd25f83          	lhu	t6,973(tp) # 3cd <_start-0x7ffffc33>
    800005a8:	038c40b3          	div	ra,s8,s8
    800005ac:	01dea5b3          	slt	a1,t4,t4
    800005b0:	403705bb          	subw	a1,a4,gp
    800005b4:	ca618693          	addi	a3,gp,-858 # 80001bb6 <_end+0x4a6>
    800005b8:	41ce53bb          	sraw	t2,t3,t3
    800005bc:	83d1af03          	lw	t5,-1987(gp) # 8000174d <_end+0x3d>
    800005c0:	24f00a93          	li	s5,591
    800005c4:	98a6bd23          	sd	a0,-1638(a3)
    800005c8:	e4e00393          	li	t2,-434
    800005cc:	01295c33          	srl	s8,s2,s2
    800005d0:	93418713          	addi	a4,gp,-1740 # 80001844 <_end+0x134>
    800005d4:	00001217          	auipc	tp,0x1
    800005d8:	b1a20213          	addi	tp,tp,-1254 # 800010ee <fromhost+0xae>
    800005dc:	00001117          	auipc	sp,0x1
    800005e0:	80f10113          	addi	sp,sp,-2033 # 80000deb <test_end+0x3d7>
    800005e4:	97c53813          	sltiu	a6,a0,-1668
    800005e8:	46d00313          	li	t1,1133
    800005ec:	90a00993          	li	s3,-1782
    800005f0:	26b20403          	lb	s0,619(tp) # 26b <_start-0x7ffffd95>
    800005f4:	00001e17          	auipc	t3,0x1
    800005f8:	1a5e0e13          	addi	t3,t3,421 # 80001799 <_end+0x89>
    800005fc:	00100c93          	li	s9,1
    80000600:	006af4b3          	and	s1,s5,t1
    80000604:	9cc38593          	addi	a1,t2,-1588
    80000608:	3e75dc63          	bge	a1,t2,80000a00 <crash_forward>
    8000060c:	00000893          	li	a7,0
    80000610:	00088793          	mv	a5,a7
    80000614:	f7800e93          	li	t4,-136
    80000618:	df500913          	li	s2,-523
    8000061c:	b3470d03          	lb	s10,-1228(a4)
    80000620:	00001c17          	auipc	s8,0x1
    80000624:	1a7c0c13          	addi	s8,s8,423 # 800017c7 <_end+0xb7>
    80000628:	81e00313          	li	t1,-2018
    8000062c:	03fc9c93          	slli	s9,s9,0x3f
    80000630:	e1dc2ca3          	sw	t4,-487(s8)
    80000634:	0063583b          	srlw	a6,t1,t1
    80000638:	0210fd3b          	remuw	s10,ra,ra
    8000063c:	be390613          	addi	a2,s2,-1053
    80000640:	acc964e3          	bltu	s2,a2,80000108 <crash_backward>
    80000644:	76800a93          	li	s5,1896
    80000648:	00100193          	li	gp,1
    8000064c:	03ce473b          	divw	a4,t3,t3
    80000650:	fff00513          	li	a0,-1
    80000654:	01954533          	xor	a0,a0,s9
    80000658:	00100c13          	li	s8,1
    8000065c:	03fc1c13          	slli	s8,s8,0x3f
    80000660:	00001d17          	auipc	s10,0x1
    80000664:	ab8d0d13          	addi	s10,s10,-1352 # 80001118 <reg_x3_init>
    80000668:	41398dbb          	subw	s11,s3,s3
    8000066c:	00572333          	slt	t1,a4,t0
    80000670:	38f89863          	bne	a7,a5,80000a00 <crash_forward>
    80000674:	03f19193          	slli	gp,gp,0x3f
    80000678:	015ad43b          	srlw	s0,s5,s5
    8000067c:	00a9fa33          	and	s4,s3,a0
    80000680:	00001817          	auipc	a6,0x1
    80000684:	d2680813          	addi	a6,a6,-730 # 800013a6 <test_memory+0xa6>
    80000688:	019a62b3          	or	t0,s4,s9
    8000068c:	fff00593          	li	a1,-1
    80000690:	03de9bb3          	mulh	s7,t4,t4
    80000694:	0035c5b3          	xor	a1,a1,gp
    80000698:	a65a08e3          	beq	s4,t0,80000108 <crash_backward>
    8000069c:	4c4d6703          	lwu	a4,1220(s10)
    800006a0:	bdee13a3          	sh	t5,-1081(t3)
    800006a4:	00b77f33          	and	t5,a4,a1
    800006a8:	bc418493          	addi	s1,gp,-1084 # 80001ad4 <_end+0x3c4>
    800006ac:	78611aa3          	sh	t1,1941(sp)
    800006b0:	00001217          	auipc	tp,0x1
    800006b4:	12f20213          	addi	tp,tp,303 # 800017df <_end+0xcf>
    800006b8:	014a6533          	or	a0,s4,s4
    800006bc:	0aa86903          	lwu	s2,170(a6)
    800006c0:	94520993          	addi	s3,tp,-1723 # fffffffffffff945 <__global_pointer$+0xffffffff7fffda35>
    800006c4:	02ab9333          	mulh	t1,s7,a0
    800006c8:	00001c97          	auipc	s9,0x1
    800006cc:	fb9c8c93          	addi	s9,s9,-71 # 80001681 <test_memory+0x381>
    800006d0:	fff00f93          	li	t6,-1
    800006d4:	00001e97          	auipc	t4,0x1
    800006d8:	dcfe8e93          	addi	t4,t4,-561 # 800014a3 <test_memory+0x1a3>
    800006dc:	015aeab3          	or	s5,s5,s5
    800006e0:	003f63b3          	or	t2,t5,gp
    800006e4:	018fcfb3          	xor	t6,t6,s8
    800006e8:	9ca49683          	lh	a3,-1590(s1)
    800006ec:	00001097          	auipc	ra,0x1
    800006f0:	8ad08093          	addi	ra,ra,-1875 # 80000f99 <test_end+0x585>
    800006f4:	cb122ca3          	sw	a7,-839(tp) # fffffffffffffcb9 <__global_pointer$+0xffffffff7fffdda9>
    800006f8:	00c62bb3          	slt	s7,a2,a2
    800006fc:	00001a17          	auipc	s4,0x1
    80000700:	e6ea0a13          	addi	s4,s4,-402 # 8000156a <test_memory+0x26a>
    80000704:	022e72bb          	remuw	t0,t3,sp
    80000708:	5a500413          	li	s0,1445
    8000070c:	00001d17          	auipc	s10,0x1
    80000710:	fd0d0d13          	addi	s10,s10,-48 # 800016dc <test_memory+0x3dc>
    80000714:	3c508523          	sb	t0,970(ra)
    80000718:	014157b3          	srl	a5,sp,s4
    8000071c:	01f47633          	and	a2,s0,t6
    80000720:	d5dd0e03          	lb	t3,-675(s10)
    80000724:	2fe00213          	li	tp,766
    80000728:	0adeb703          	ld	a4,173(t4)
    8000072c:	07400693          	li	a3,116
    80000730:	98600293          	li	t0,-1658
    80000734:	025bbd33          	mulhu	s10,s7,t0
    80000738:	00001317          	auipc	t1,0x1
    8000073c:	a4530313          	addi	t1,t1,-1467 # 8000117d <reg_x15_init+0x5>
    80000740:	005687b3          	add	a5,a3,t0
    80000744:	00001b97          	auipc	s7,0x1
    80000748:	b3fb8b93          	addi	s7,s7,-1217 # 80001283 <reg_x16_output+0x3>
    8000074c:	02845dbb          	divuw	s11,s0,s0
    80000750:	00001a97          	auipc	s5,0x1
    80000754:	d96a8a93          	addi	s5,s5,-618 # 800014e6 <test_memory+0x1e6>
    80000758:	d13caba3          	sw	s3,-745(s9)
    8000075c:	02420093          	addi	ra,tp,36 # 24 <_start-0x7fffffdc>
    80000760:	019cde3b          	srlw	t3,s9,s9
    80000764:	00100d93          	li	s11,1
    80000768:	00000797          	auipc	a5,0x0
    8000076c:	71878793          	addi	a5,a5,1816 # 80000e80 <test_end+0x46c>
    80000770:	6e200113          	li	sp,1762
    80000774:	00001517          	auipc	a0,0x1
    80000778:	f2d50513          	addi	a0,a0,-211 # 800016a1 <test_memory+0x3a1>
    8000077c:	f8c504a3          	sb	a2,-119(a0)
    80000780:	fd6a1883          	lh	a7,-42(s4)
    80000784:	2640ee63          	bltu	ra,tp,80000a00 <crash_forward>
    80000788:	402b5e3b          	sraw	t3,s6,sp
    8000078c:	03fd9d93          	slli	s11,s11,0x3f
    80000790:	7e7eb193          	sltiu	gp,t4,2023
    80000794:	00001e97          	auipc	t4,0x1
    80000798:	df5e8e93          	addi	t4,t4,-523 # 80001589 <test_memory+0x289>
    8000079c:	0183eb33          	or	s6,t2,s8
    800007a0:	48b32703          	lw	a4,1163(t1)
    800007a4:	10db9903          	lh	s2,269(s7)
    800007a8:	976670e3          	bgeu	a2,s6,80000108 <crash_backward>
    800007ac:	080ea1a3          	sw	zero,131(t4)
    800007b0:	00217833          	and	a6,sp,sp
    800007b4:	00001f17          	auipc	t5,0x1
    800007b8:	bc5f0f13          	addi	t5,t5,-1083 # 80001379 <test_memory+0x79>
    800007bc:	b7f18b93          	addi	s7,gp,-1153 # 80001a8f <_end+0x37f>
    800007c0:	b3e00613          	li	a2,-1218
    800007c4:	00001297          	auipc	t0,0x1
    800007c8:	a5028293          	addi	t0,t0,-1456 # 80001214 <reg_x2_output+0x4>
    800007cc:	036b3733          	mulhu	a4,s6,s6
    800007d0:	037bdfbb          	divuw	t6,s7,s7
    800007d4:	931ba803          	lw	a6,-1743(s7)
    800007d8:	fff00d13          	li	s10,-1
    800007dc:	00c605b3          	add	a1,a2,a2
    800007e0:	1a4f4383          	lbu	t2,420(t5)
    800007e4:	000b8e93          	mv	t4,s7
    800007e8:	00100a13          	li	s4,1
    800007ec:	4b078403          	lb	s0,1200(a5)
    800007f0:	000e8913          	mv	s2,t4
    800007f4:	03fa1a13          	slli	s4,s4,0x3f
    800007f8:	10b28e23          	sb	a1,284(t0)
    800007fc:	01bd4d33          	xor	s10,s10,s11
    80000800:	05400113          	li	sp,84
    80000804:	00100e13          	li	t3,1
    80000808:	022158bb          	divuw	a7,sp,sp
    8000080c:	030854b3          	divu	s1,a6,a6
    80000810:	03fe1e13          	slli	t3,t3,0x3f
    80000814:	1f2e9663          	bne	t4,s2,80000a00 <crash_forward>
    80000818:	01a6f6b3          	and	a3,a3,s10
    8000081c:	01b6ecb3          	or	s9,a3,s11
    80000820:	fff00b13          	li	s6,-1
    80000824:	8f9682e3          	beq	a3,s9,80000108 <crash_backward>
    80000828:	01cb4b33          	xor	s6,s6,t3
    8000082c:	146aa983          	lw	s3,326(s5)
    80000830:	016970b3          	and	ra,s2,s6
    80000834:	fff00213          	li	tp,-1
    80000838:	01424233          	xor	tp,tp,s4
    8000083c:	7d400293          	li	t0,2004
    80000840:	d5090d1b          	addiw	s10,s2,-688
    80000844:	025287bb          	mulw	a5,t0,t0
    80000848:	00000897          	auipc	a7,0x0
    8000084c:	64c88893          	addi	a7,a7,1612 # 80000e94 <test_end+0x480>
    80000850:	05000e93          	li	t4,80
    80000854:	00447333          	and	t1,s0,tp
    80000858:	0146ec33          	or	s8,a3,s4
    8000085c:	01c0e1b3          	or	gp,ra,t3
    80000860:	8cd00913          	li	s2,-1843
    80000864:	13d00f13          	li	t5,317
    80000868:	d0a00613          	li	a2,-758
    8000086c:	00ce96bb          	sllw	a3,t4,a2
    80000870:	d0b18393          	addi	t2,gp,-757 # 80001c1b <_end+0x50b>
    80000874:	0221463b          	divw	a2,sp,sp
    80000878:	f9600713          	li	a4,-106
    8000087c:	32f00513          	li	a0,815
    80000880:	19834063          	blt	t1,s8,80000a00 <crash_forward>
    80000884:	16308e63          	beq	ra,gp,80000a00 <crash_forward>
    80000888:	9a600f93          	li	t6,-1626
    8000088c:	9d939403          	lh	s0,-1575(t2)
    80000890:	00a705bb          	addw	a1,a4,a0
    80000894:	b1f00493          	li	s1,-1249
    80000898:	41d85113          	srai	sp,a6,0x1d
    8000089c:	00100d13          	li	s10,1
    800008a0:	03fd1d13          	slli	s10,s10,0x3f
    800008a4:	01b00113          	li	sp,27
    800008a8:	d8f00d93          	li	s11,-625
    800008ac:	fff00813          	li	a6,-1
    800008b0:	01a84833          	xor	a6,a6,s10
    800008b4:	02842733          	mulhsu	a4,s0,s0
    800008b8:	03334333          	div	t1,t1,s3
    800008bc:	cdb00693          	li	a3,-805
    800008c0:	010a7eb3          	and	t4,s4,a6
    800008c4:	7d888c83          	lb	s9,2008(a7)
    800008c8:	03f979bb          	remuw	s3,s2,t6
    800008cc:	00100713          	li	a4,1
    800008d0:	01aee7b3          	or	a5,t4,s10
    800008d4:	00001597          	auipc	a1,0x1
    800008d8:	b2558593          	addi	a1,a1,-1243 # 800013f9 <test_memory+0xf9>
    800008dc:	00e70533          	add	a0,a4,a4
    800008e0:	00d6f1b3          	and	gp,a3,a3
    800008e4:	03b4fabb          	remuw	s5,s1,s11
    800008e8:	03f71713          	slli	a4,a4,0x3f
    800008ec:	10feca63          	blt	t4,a5,80000a00 <crash_forward>
    800008f0:	00001897          	auipc	a7,0x1
    800008f4:	cba88893          	addi	a7,a7,-838 # 800015aa <test_memory+0x2aa>
    800008f8:	01e28bbb          	addw	s7,t0,t5
    800008fc:	f615cc03          	lbu	s8,-159(a1)
    80000900:	e8000a13          	li	s4,-384
    80000904:	40d6deb3          	sra	t4,a3,a3
    80000908:	00001797          	auipc	a5,0x1
    8000090c:	b8978793          	addi	a5,a5,-1143 # 80001491 <test_memory+0x191>
    80000910:	c4e18493          	addi	s1,gp,-946 # 80001b5e <_end+0x44e>
    80000914:	03415633          	divu	a2,sp,s4
    80000918:	b7b18d13          	addi	s10,gp,-1157 # 80001a8b <_end+0x37b>
    8000091c:	40a28fbb          	subw	t6,t0,a0
    80000920:	14f00a93          	li	s5,335
    80000924:	b05d4683          	lbu	a3,-1275(s10)
    80000928:	0f878923          	sb	s8,242(a5)
    8000092c:	13988c83          	lb	s9,313(a7)
    80000930:	16e00993          	li	s3,366
    80000934:	fff00e13          	li	t3,-1
    80000938:	9da4a803          	lw	a6,-1574(s1)
    8000093c:	7e800d93          	li	s11,2024
    80000940:	00ee4e33          	xor	t3,t3,a4
    80000944:	2bba8913          	addi	s2,s5,699
    80000948:	01b981b3          	add	gp,s3,s11
    8000094c:	00100413          	li	s0,1
    80000950:	01c07333          	and	t1,zero,t3
    80000954:	00e8e0b3          	or	ra,a7,a4
    80000958:	03f41413          	slli	s0,s0,0x3f
    8000095c:	fff00393          	li	t2,-1
    80000960:	0083c3b3          	xor	t2,t2,s0
    80000964:	007df233          	and	tp,s11,t2
    80000968:	00826b33          	or	s6,tp,s0
    8000096c:	f84b6e63          	bltu	s6,tp,80000108 <crash_backward>
    80000970:	0040006f          	j	80000974 <reg_dump>

0000000080000974 <reg_dump>:
    80000974:	00001097          	auipc	ra,0x1
    80000978:	d8c08093          	addi	ra,ra,-628 # 80001700 <loop_count>
    8000097c:	0000a103          	lw	sp,0(ra)
    80000980:	fff10193          	addi	gp,sp,-1
    80000984:	0030a023          	sw	gp,0(ra)
    80000988:	820110e3          	bnez	sp,800001a8 <pseg_0>
    8000098c:	00001097          	auipc	ra,0x1
    80000990:	87408093          	addi	ra,ra,-1932 # 80001200 <begin_signature>
    80000994:	0000b023          	sd	zero,0(ra)
    80000998:	0020b823          	sd	sp,16(ra)
    8000099c:	0030bc23          	sd	gp,24(ra)
    800009a0:	0240b023          	sd	tp,32(ra)
    800009a4:	0250b423          	sd	t0,40(ra)
    800009a8:	0260b823          	sd	t1,48(ra)
    800009ac:	0270bc23          	sd	t2,56(ra)
    800009b0:	0480b023          	sd	s0,64(ra)
    800009b4:	04a0b823          	sd	a0,80(ra)
    800009b8:	06c0b023          	sd	a2,96(ra)
    800009bc:	06d0b423          	sd	a3,104(ra)
    800009c0:	06e0b823          	sd	a4,112(ra)
    800009c4:	0900b023          	sd	a6,128(ra)
    800009c8:	0920b823          	sd	s2,144(ra)
    800009cc:	0930bc23          	sd	s3,152(ra)
    800009d0:	0b40b023          	sd	s4,160(ra)
    800009d4:	0b50b423          	sd	s5,168(ra)
    800009d8:	0b60b823          	sd	s6,176(ra)
    800009dc:	0b70bc23          	sd	s7,184(ra)
    800009e0:	0d80b023          	sd	s8,192(ra)
    800009e4:	0d90b423          	sd	s9,200(ra)
    800009e8:	0db0bc23          	sd	s11,216(ra)
    800009ec:	0fc0b023          	sd	t3,224(ra)
    800009f0:	0fd0b423          	sd	t4,232(ra)
    800009f4:	0fe0b823          	sd	t5,240(ra)
    800009f8:	0ff0bc23          	sd	t6,248(ra)
    800009fc:	0180006f          	j	80000a14 <test_end>

0000000080000a00 <crash_forward>:
    80000a00:	0ff0000f          	fence
    80000a04:	00018063          	beqz	gp,80000a04 <crash_forward+0x4>
    80000a08:	00119193          	slli	gp,gp,0x1
    80000a0c:	0011e193          	ori	gp,gp,1
    80000a10:	00000073          	ecall

0000000080000a14 <test_end>:
    80000a14:	0ff0000f          	fence
    80000a18:	00100193          	li	gp,1
    80000a1c:	00000073          	ecall
    80000a20:	c0001073          	unimp
    80000a24:	0000                	unimp
	...

Disassembly of section .tohost:

0000000080001000 <tohost>:
	...

0000000080001040 <fromhost>:
	...
