
test.elf:     file format elf64-littleriscv


Disassembly of section .text.init:

0000000080000000 <_start>:
    80000000:	0580006f          	j	80000058 <reset_vector>

0000000080000004 <trap_vector>:
    80000004:	34202f73          	csrr	t5,mcause
    80000008:	00800f93          	li	t6,8
    8000000c:	05ff0063          	beq	t5,t6,8000004c <write_tohost>
    80000010:	00900f93          	li	t6,9
    80000014:	03ff0c63          	beq	t5,t6,8000004c <write_tohost>
    80000018:	00b00f93          	li	t6,11
    8000001c:	03ff0863          	beq	t5,t6,8000004c <write_tohost>
    80000020:	00000f13          	li	t5,0
    80000024:	000f0463          	beqz	t5,8000002c <trap_vector+0x28>
    80000028:	000f0067          	jr	t5
    8000002c:	34202f73          	csrr	t5,mcause
    80000030:	000f5463          	bgez	t5,80000038 <handle_exception>
    80000034:	0140006f          	j	80000048 <other_exception>

0000000080000038 <handle_exception>:
    80000038:	34102e73          	csrr	t3,mepc
    8000003c:	004e0e13          	addi	t3,t3,4
    80000040:	341e1073          	csrw	mepc,t3
    80000044:	30200073          	mret

0000000080000048 <other_exception>:
    80000048:	5391e193          	ori	gp,gp,1337

000000008000004c <write_tohost>:
    8000004c:	00001f17          	auipc	t5,0x1
    80000050:	fa3f2a23          	sw	gp,-76(t5) # 80001000 <tohost>
    80000054:	ff9ff06f          	j	8000004c <write_tohost>

0000000080000058 <reset_vector>:
    80000058:	f1402573          	csrr	a0,mhartid
    8000005c:	00051063          	bnez	a0,8000005c <reset_vector+0x4>
    80000060:	00000297          	auipc	t0,0x0
    80000064:	01028293          	addi	t0,t0,16 # 80000070 <reset_vector+0x18>
    80000068:	30529073          	csrw	mtvec,t0
    8000006c:	18005073          	csrwi	satp,0
    80000070:	00000297          	auipc	t0,0x0
    80000074:	01c28293          	addi	t0,t0,28 # 8000008c <reset_vector+0x34>
    80000078:	30529073          	csrw	mtvec,t0
    8000007c:	fff00293          	li	t0,-1
    80000080:	3b029073          	csrw	pmpaddr0,t0
    80000084:	01f00293          	li	t0,31
    80000088:	3a029073          	csrw	pmpcfg0,t0
    8000008c:	00000297          	auipc	t0,0x0
    80000090:	01828293          	addi	t0,t0,24 # 800000a4 <reset_vector+0x4c>
    80000094:	30529073          	csrw	mtvec,t0
    80000098:	30205073          	csrwi	medeleg,0
    8000009c:	30305073          	csrwi	mideleg,0
    800000a0:	30405073          	csrwi	mie,0
    800000a4:	00000193          	li	gp,0
    800000a8:	00000297          	auipc	t0,0x0
    800000ac:	f5c28293          	addi	t0,t0,-164 # 80000004 <trap_vector>
    800000b0:	30529073          	csrw	mtvec,t0
    800000b4:	00100513          	li	a0,1
    800000b8:	01f51513          	slli	a0,a0,0x1f
    800000bc:	00055863          	bgez	a0,800000cc <reset_vector+0x74>
    800000c0:	0ff0000f          	fence
    800000c4:	00100193          	li	gp,1
    800000c8:	00000073          	ecall
    800000cc:	00000293          	li	t0,0
    800000d0:	00028e63          	beqz	t0,800000ec <reset_vector+0x94>
    800000d4:	10529073          	csrw	stvec,t0
    800000d8:	0000b2b7          	lui	t0,0xb
    800000dc:	1092829b          	addiw	t0,t0,265
    800000e0:	30229073          	csrw	medeleg,t0
    800000e4:	30202373          	csrr	t1,medeleg
    800000e8:	f66290e3          	bne	t0,t1,80000048 <other_exception>
    800000ec:	30005073          	csrwi	mstatus,0
    800000f0:	00000297          	auipc	t0,0x0
    800000f4:	01428293          	addi	t0,t0,20 # 80000104 <reset_vector+0xac>
    800000f8:	34129073          	csrw	mepc,t0
    800000fc:	f1402573          	csrr	a0,mhartid
    80000100:	30200073          	mret
    80000104:	0180006f          	j	8000011c <test_start>

0000000080000108 <crash_backward>:
    80000108:	0ff0000f          	fence
    8000010c:	00018063          	beqz	gp,8000010c <crash_backward+0x4>
    80000110:	00119193          	slli	gp,gp,0x1
    80000114:	0011e193          	ori	gp,gp,1
    80000118:	00000073          	ecall

000000008000011c <test_start>:
    8000011c:	00001f97          	auipc	t6,0x1
    80000120:	fe4f8f93          	addi	t6,t6,-28 # 80001100 <hidden_data>
    80000124:	000fb003          	ld	zero,0(t6)
    80000128:	008fb083          	ld	ra,8(t6)
    8000012c:	010fb103          	ld	sp,16(t6)
    80000130:	018fb183          	ld	gp,24(t6)
    80000134:	020fb203          	ld	tp,32(t6)
    80000138:	028fb283          	ld	t0,40(t6)
    8000013c:	030fb303          	ld	t1,48(t6)
    80000140:	038fb383          	ld	t2,56(t6)
    80000144:	040fb403          	ld	s0,64(t6)
    80000148:	048fb483          	ld	s1,72(t6)
    8000014c:	050fb503          	ld	a0,80(t6)
    80000150:	058fb583          	ld	a1,88(t6)
    80000154:	060fb603          	ld	a2,96(t6)
    80000158:	068fb683          	ld	a3,104(t6)
    8000015c:	070fb703          	ld	a4,112(t6)
    80000160:	078fb783          	ld	a5,120(t6)
    80000164:	080fb803          	ld	a6,128(t6)
    80000168:	088fb883          	ld	a7,136(t6)
    8000016c:	090fb903          	ld	s2,144(t6)
    80000170:	098fb983          	ld	s3,152(t6)
    80000174:	0a0fba03          	ld	s4,160(t6)
    80000178:	0a8fba83          	ld	s5,168(t6)
    8000017c:	0b0fbb03          	ld	s6,176(t6)
    80000180:	0b8fbb83          	ld	s7,184(t6)
    80000184:	0c0fbc03          	ld	s8,192(t6)
    80000188:	0c8fbc83          	ld	s9,200(t6)
    8000018c:	0d0fbd03          	ld	s10,208(t6)
    80000190:	0d8fbd83          	ld	s11,216(t6)
    80000194:	0e0fbe03          	ld	t3,224(t6)
    80000198:	0e8fbe83          	ld	t4,232(t6)
    8000019c:	0f0fbf03          	ld	t5,240(t6)
    800001a0:	0f8fbf83          	ld	t6,248(t6)
    800001a4:	0040006f          	j	800001a8 <pseg_0>

00000000800001a8 <pseg_0>:
    800001a8:	9ff00d13          	li	s10,-1537
    800001ac:	3e26cb13          	xori	s6,a3,994
    800001b0:	f5d00313          	li	t1,-163
    800001b4:	00001c97          	auipc	s9,0x1
    800001b8:	5bec8c93          	addi	s9,s9,1470 # 80001772 <_end+0x62>
    800001bc:	c8f18113          	addi	sp,gp,-881 # 80001b9f <_end+0x48f>
    800001c0:	022fcfb3          	div	t6,t6,sp
    800001c4:	03de1933          	mulh	s2,t3,t4
    800001c8:	be500d93          	li	s11,-1051
    800001cc:	cc100213          	li	tp,-831
    800001d0:	41bdd73b          	sraw	a4,s11,s11
    800001d4:	02635ab3          	divu	s5,t1,t1
    800001d8:	d3a18613          	addi	a2,gp,-710 # 80001c4a <_end+0x53a>
    800001dc:	00001b17          	auipc	s6,0x1
    800001e0:	1c2b0b13          	addi	s6,s6,450 # 8000139e <test_memory+0x9e>
    800001e4:	b1518493          	addi	s1,gp,-1259 # 80001a25 <_end+0x315>
    800001e8:	00078f13          	mv	t5,a5
    800001ec:	00001597          	auipc	a1,0x1
    800001f0:	e7f58593          	addi	a1,a1,-385 # 8000106b <fromhost+0x2b>
    800001f4:	fc600c13          	li	s8,-58
    800001f8:	00001517          	auipc	a0,0x1
    800001fc:	61450513          	addi	a0,a0,1556 # 8000180c <_end+0xfc>
    80000200:	a40606a3          	sb	zero,-1459(a2)
    80000204:	00427433          	and	s0,tp,tp
    80000208:	2dd58a03          	lb	s4,733(a1)
    8000020c:	89010ba3          	sb	a6,-1897(sp)
    80000210:	8f84a5a3          	sw	s8,-1813(s1)
    80000214:	000f0993          	mv	s3,t5
    80000218:	00001797          	auipc	a5,0x1
    8000021c:	0e678793          	addi	a5,a5,230 # 800012fe <reg_x31_output+0x6>
    80000220:	00100e13          	li	t3,1
    80000224:	f1ecc283          	lbu	t0,-226(s9)
    80000228:	2c6b0623          	sb	t1,716(s6)
    8000022c:	cbd18b93          	addi	s7,gp,-835 # 80001bcd <_end+0x4bd>
    80000230:	024d7eb3          	remu	t4,s10,tp
    80000234:	0027a183          	lw	gp,2(a5)
    80000238:	c0e00093          	li	ra,-1010
    8000023c:	e2e52e23          	sw	a4,-452(a0)
    80000240:	03fe1e13          	slli	t3,t3,0x3f
    80000244:	001c33b3          	sltu	t2,s8,ra
    80000248:	875b8a23          	sb	s5,-1932(s7)
    8000024c:	7d3f4c63          	blt	t5,s3,80000a24 <crash_forward>
    80000250:	15800c13          	li	s8,344
    80000254:	00001297          	auipc	t0,0x1
    80000258:	1d628293          	addi	t0,t0,470 # 8000142a <test_memory+0x12a>
    8000025c:	00100a13          	li	s4,1
    80000260:	03fa1a13          	slli	s4,s4,0x3f
    80000264:	fff00213          	li	tp,-1
    80000268:	cbf18593          	addi	a1,gp,-833 # 80001bcf <_end+0x4bf>
    8000026c:	81c58503          	lb	a0,-2020(a1)
    80000270:	c00bc713          	xori	a4,s7,-1024
    80000274:	09100c93          	li	s9,145
    80000278:	01424233          	xor	tp,tp,s4
    8000027c:	00100913          	li	s2,1
    80000280:	31d00513          	li	a0,797
    80000284:	00001317          	auipc	t1,0x1
    80000288:	4aa30313          	addi	t1,t1,1194 # 8000172e <_end+0x1e>
    8000028c:	59800993          	li	s3,1432
    80000290:	00001097          	auipc	ra,0x1
    80000294:	bcb08093          	addi	ra,ra,-1077 # 80000e5b <test_end+0x423>
    80000298:	00001617          	auipc	a2,0x1
    8000029c:	f7b60613          	addi	a2,a2,-133 # 80001213 <reg_x2_output+0x3>
    800002a0:	00477d33          	and	s10,a4,tp
    800002a4:	01486433          	or	s0,a6,s4
    800002a8:	013c5b3b          	srlw	s6,s8,s3
    800002ac:	bea33f03          	ld	t5,-1046(t1)
    800002b0:	76900593          	li	a1,1897
    800002b4:	00b5173b          	sllw	a4,a0,a1
    800002b8:	00001197          	auipc	gp,0x1
    800002bc:	0af18193          	addi	gp,gp,175 # 80001367 <test_memory+0x67>
    800002c0:	02b5ddbb          	divuw	s11,a1,a1
    800002c4:	0b71de83          	lhu	t4,183(gp) # 80001fc7 <__global_pointer$+0xb7>
    800002c8:	21460b83          	lb	s7,532(a2)
    800002cc:	f6e2e783          	lwu	a5,-146(t0)
    800002d0:	5240bea3          	sd	tp,1341(ra)
    800002d4:	03f91913          	slli	s2,s2,0x3f
    800002d8:	cc300593          	li	a1,-829
    800002dc:	90818f13          	addi	t5,gp,-1784 # 80001818 <_end+0x108>
    800002e0:	78b00713          	li	a4,1931
    800002e4:	fff00693          	li	a3,-1
    800002e8:	410907b3          	sub	a5,s2,a6
    800002ec:	fff00a93          	li	s5,-1
    800002f0:	00100613          	li	a2,1
    800002f4:	43200d13          	li	s10,1074
    800002f8:	01c6c6b3          	xor	a3,a3,t3
    800002fc:	00001997          	auipc	s3,0x1
    80000300:	b0b98993          	addi	s3,s3,-1269 # 80000e07 <test_end+0x3cf>
    80000304:	03a76a3b          	remw	s4,a4,s10
    80000308:	b4cf2d83          	lw	s11,-1204(t5)
    8000030c:	00001b17          	auipc	s6,0x1
    80000310:	0c9b0b13          	addi	s6,s6,201 # 800013d5 <test_memory+0xd5>
    80000314:	00d47833          	and	a6,s0,a3
    80000318:	f70b31a3          	sd	a6,-157(s6)
    8000031c:	46500d13          	li	s10,1125
    80000320:	41ad0a3b          	subw	s4,s10,s10
    80000324:	e794ec13          	ori	s8,s1,-391
    80000328:	012acab3          	xor	s5,s5,s2
    8000032c:	01c868b3          	or	a7,a6,t3
    80000330:	c8000113          	li	sp,-896
    80000334:	557982a3          	sb	s7,1349(s3)
    80000338:	00001717          	auipc	a4,0x1
    8000033c:	12170713          	addi	a4,a4,289 # 80001459 <test_memory+0x159>
    80000340:	03f61613          	slli	a2,a2,0x3f
    80000344:	dd08e2e3          	bltu	a7,a6,80000108 <crash_backward>
    80000348:	002c93bb          	sllw	t2,s9,sp
    8000034c:	00001097          	auipc	ra,0x1
    80000350:	27808093          	addi	ra,ra,632 # 800015c4 <test_memory+0x2c4>
    80000354:	00001297          	auipc	t0,0x1
    80000358:	c0a28293          	addi	t0,t0,-1014 # 80000f5e <test_end+0x526>
    8000035c:	b1b18313          	addi	t1,gp,-1253 # 80001a2b <_end+0x31b>
    80000360:	58428b23          	sb	tp,1430(t0)
    80000364:	ab532403          	lw	s0,-1355(t1)
    80000368:	015974b3          	and	s1,s2,s5
    8000036c:	f2c09183          	lh	gp,-212(ra)
    80000370:	edd70923          	sb	t4,-302(a4)
    80000374:	fff00213          	li	tp,-1
    80000378:	00001b17          	auipc	s6,0x1
    8000037c:	46fb0b13          	addi	s6,s6,1135 # 800017e7 <_end+0xd7>
    80000380:	012c6fb3          	or	t6,s8,s2
    80000384:	c9358e93          	addi	t4,a1,-877
    80000388:	00c24233          	xor	tp,tp,a2
    8000038c:	00447bb3          	and	s7,s0,tp
    80000390:	00001f17          	auipc	t5,0x1
    80000394:	11cf0f13          	addi	t5,t5,284 # 800014ac <test_memory+0x1ac>
    80000398:	00c1e533          	or	a0,gp,a2
    8000039c:	ebcf2783          	lw	a5,-324(t5)
    800003a0:	bcab4d83          	lbu	s11,-1078(s6)
    800003a4:	69d58063          	beq	a1,t4,80000a24 <crash_forward>
    800003a8:	66ab8e63          	beq	s7,a0,80000a24 <crash_forward>
    800003ac:	e8818b93          	addi	s7,gp,-376 # 80001d98 <_end+0x688>
    800003b0:	00100193          	li	gp,1
    800003b4:	00001697          	auipc	a3,0x1
    800003b8:	0ab68693          	addi	a3,a3,171 # 8000145f <test_memory+0x15f>
    800003bc:	02421e33          	mulh	t3,tp,tp
    800003c0:	00000213          	li	tp,0
    800003c4:	00001c97          	auipc	s9,0x1
    800003c8:	100c8c93          	addi	s9,s9,256 # 800014c4 <test_memory+0x1c4>
    800003cc:	00001297          	auipc	t0,0x1
    800003d0:	fa428293          	addi	t0,t0,-92 # 80001370 <test_memory+0x70>
    800003d4:	03f19193          	slli	gp,gp,0x3f
    800003d8:	64001663          	bnez	zero,80000a24 <crash_forward>
    800003dc:	fb000913          	li	s2,-80
    800003e0:	03235a3b          	divuw	s4,t1,s2
    800003e4:	00000593          	li	a1,0
    800003e8:	00100c13          	li	s8,1
    800003ec:	08b00993          	li	s3,139
    800003f0:	413988b3          	sub	a7,s3,s3
    800003f4:	41108f3b          	subw	t5,ra,a7
    800003f8:	00ee7233          	and	tp,t3,a4
    800003fc:	874baa83          	lw	s5,-1932(s7)
    80000400:	03fc1c13          	slli	s8,s8,0x3f
    80000404:	1cf2bc23          	sd	a5,472(t0)
    80000408:	17200d13          	li	s10,370
    8000040c:	fff00e93          	li	t4,-1
    80000410:	fff00113          	li	sp,-1
    80000414:	d8500293          	li	t0,-635
    80000418:	f9500793          	li	a5,-107
    8000041c:	1d800e13          	li	t3,472
    80000420:	70800393          	li	t2,1800
    80000424:	e4700f13          	li	t5,-441
    80000428:	00001597          	auipc	a1,0x1
    8000042c:	0d458593          	addi	a1,a1,212 # 800014fc <test_memory+0x1fc>
    80000430:	7a9d0713          	addi	a4,s10,1961
    80000434:	b0100b13          	li	s6,-1279
    80000438:	03e2d233          	divu	tp,t0,t5
    8000043c:	ea8cba23          	sd	s0,-332(s9)
    80000440:	ef359b23          	sh	s3,-266(a1)
    80000444:	018b3233          	sltu	tp,s6,s8
    80000448:	036b79bb          	remuw	s3,s6,s6
    8000044c:	f7d18f93          	addi	t6,gp,-131 # 80001e8d <_end+0x77d>
    80000450:	f31b0613          	addi	a2,s6,-207
    80000454:	f1d6a483          	lw	s1,-227(a3)
    80000458:	5d667663          	bgeu	a2,s6,80000a24 <crash_forward>
    8000045c:	01814133          	xor	sp,sp,s8
    80000460:	407950b3          	sra	ra,s2,t2
    80000464:	00000f17          	auipc	t5,0x0
    80000468:	7eaf0f13          	addi	t5,t5,2026 # 80000c4e <test_end+0x216>
    8000046c:	849f9403          	lh	s0,-1975(t6)
    80000470:	00001297          	auipc	t0,0x1
    80000474:	07328293          	addi	t0,t0,115 # 800014e3 <test_memory+0x1e3>
    80000478:	6d9f4203          	lbu	tp,1753(t5)
    8000047c:	00d083b3          	add	t2,ra,a3
    80000480:	40b58933          	sub	s2,a1,a1
    80000484:	00001597          	auipc	a1,0x1
    80000488:	9da58593          	addi	a1,a1,-1574 # 80000e5e <test_end+0x426>
    8000048c:	b2118693          	addi	a3,gp,-1247 # 80001a31 <_end+0x321>
    80000490:	00207833          	and	a6,zero,sp
    80000494:	01c7aa33          	slt	s4,a5,t3
    80000498:	00001897          	auipc	a7,0x1
    8000049c:	fcb88893          	addi	a7,a7,-53 # 80001463 <test_memory+0x163>
    800004a0:	01886db3          	or	s11,a6,s8
    800004a4:	00001b17          	auipc	s6,0x1
    800004a8:	337b0b13          	addi	s6,s6,823 # 800017db <_end+0xcb>
    800004ac:	c5b87ee3          	bgeu	a6,s11,80000108 <crash_backward>
    800004b0:	cb5b2983          	lw	s3,-843(s6)
    800004b4:	003eceb3          	xor	t4,t4,gp
    800004b8:	f60296a3          	sh	zero,-147(t0)
    800004bc:	02424933          	div	s2,tp,tp
    800004c0:	0308473b          	divw	a4,a6,a6
    800004c4:	00001b97          	auipc	s7,0x1
    800004c8:	2d6b8b93          	addi	s7,s7,726 # 8000179a <_end+0x8a>
    800004cc:	bf318413          	addi	s0,gp,-1037 # 80001b03 <_end+0x3f3>
    800004d0:	a9700613          	li	a2,-1385
    800004d4:	b2f18c93          	addi	s9,gp,-1233 # 80001a3f <_end+0x32f>
    800004d8:	bed00f93          	li	t6,-1043
    800004dc:	01d37333          	and	t1,t1,t4
    800004e0:	00001d17          	auipc	s10,0x1
    800004e4:	a4fd0d13          	addi	s10,s10,-1457 # 80000f2f <test_end+0x4f7>
    800004e8:	485d4483          	lbu	s1,1157(s10)
    800004ec:	00001d17          	auipc	s10,0x1
    800004f0:	001d0d13          	addi	s10,s10,1 # 800014ed <test_memory+0x1ed>
    800004f4:	9f1ce203          	lwu	tp,-1551(s9)
    800004f8:	01f600b3          	add	ra,a2,t6
    800004fc:	f4988a83          	lb	s5,-183(a7)
    80000500:	00001e17          	auipc	t3,0x1
    80000504:	dcee0e13          	addi	t3,t3,-562 # 800012ce <reg_x25_output+0x6>
    80000508:	09100293          	li	t0,145
    8000050c:	0118d633          	srl	a2,a7,a7
    80000510:	c0100093          	li	ra,-1023
    80000514:	00336533          	or	a0,t1,gp
    80000518:	77768f1b          	addiw	t5,a3,1911
    8000051c:	b50694a3          	sh	a6,-1207(a3)
    80000520:	00000993          	li	s3,0
    80000524:	f0000f13          	li	t5,-256
    80000528:	37be0103          	lb	sp,891(t3)
    8000052c:	bd2418a3          	sh	s2,-1071(s0)
    80000530:	c18b9823          	sh	s8,-1008(s7)
    80000534:	00000b13          	li	s6,0
    80000538:	413d5c33          	sra	s8,s10,s3
    8000053c:	03ffc933          	div	s2,t6,t6
    80000540:	75059023          	sh	a6,1856(a1)
    80000544:	eeed13a3          	sh	a4,-281(s10)
    80000548:	00001c97          	auipc	s9,0x1
    8000054c:	f8bc8c93          	addi	s9,s9,-117 # 800014d3 <test_memory+0x1d3>
    80000550:	a0e00413          	li	s0,-1522
    80000554:	14d00493          	li	s1,333
    80000558:	00100793          	li	a5,1
    8000055c:	008428b3          	slt	a7,s0,s0
    80000560:	93d00593          	li	a1,-1731
    80000564:	03ffdb3b          	divuw	s6,t6,t6
    80000568:	01ce1133          	sll	sp,t3,t3
    8000056c:	00100913          	li	s2,1
    80000570:	03f79793          	slli	a5,a5,0x3f
    80000574:	a0f18a13          	addi	s4,gp,-1521 # 8000191f <_end+0x20f>
    80000578:	b29a0523          	sb	s1,-1238(s4)
    8000057c:	04100c13          	li	s8,65
    80000580:	fff00393          	li	t2,-1
    80000584:	0210a233          	mulhsu	tp,ra,ra
    80000588:	00001897          	auipc	a7,0x1
    8000058c:	1fe88893          	addi	a7,a7,510 # 80001786 <_end+0x76>
    80000590:	0292b733          	mulhu	a4,t0,s1
    80000594:	00001417          	auipc	s0,0x1
    80000598:	1f740413          	addi	s0,s0,503 # 8000178b <_end+0x7b>
    8000059c:	00f3c3b3          	xor	t2,t2,a5
    800005a0:	1ff00293          	li	t0,511
    800005a4:	0070f833          	and	a6,ra,t2
    800005a8:	eedcbf83          	ld	t6,-275(s9)
    800005ac:	d5e8a103          	lw	sp,-674(a7)
    800005b0:	d4541b03          	lh	s6,-699(s0)
    800005b4:	03f91913          	slli	s2,s2,0x3f
    800005b8:	43200693          	li	a3,1074
    800005bc:	ae500493          	li	s1,-1307
    800005c0:	038c3fb3          	mulhu	t6,s8,s8
    800005c4:	00df163b          	sllw	a2,t5,a3
    800005c8:	00001117          	auipc	sp,0x1
    800005cc:	8fe10113          	addi	sp,sp,-1794 # 80000ec6 <test_end+0x48e>
    800005d0:	00001317          	auipc	t1,0x1
    800005d4:	0b430313          	addi	t1,t1,180 # 80001684 <test_memory+0x384>
    800005d8:	00100c93          	li	s9,1
    800005dc:	01859abb          	sllw	s5,a1,s8
    800005e0:	e4433503          	ld	a0,-444(t1)
    800005e4:	00f86db3          	or	s11,a6,a5
    800005e8:	4a600093          	li	ra,1190
    800005ec:	00001997          	auipc	s3,0x1
    800005f0:	b0598993          	addi	s3,s3,-1275 # 800010f1 <fromhost+0xb1>
    800005f4:	b3218e93          	addi	t4,gp,-1230 # 80001a42 <_end+0x332>
    800005f8:	006f4633          	xor	a2,t5,t1
    800005fc:	03fc9c93          	slli	s9,s9,0x3f
    80000600:	fff00b93          	li	s7,-1
    80000604:	012bcbb3          	xor	s7,s7,s2
    80000608:	4ba00713          	li	a4,1210
    8000060c:	4bb98623          	sb	s11,1196(s3)
    80000610:	00001f97          	auipc	t6,0x1
    80000614:	bc9f8f93          	addi	t6,t6,-1079 # 800011d9 <reg_x27_init+0x1>
    80000618:	55513923          	sd	s5,1362(sp)
    8000061c:	b76eb183          	ld	gp,-1162(t4)
    80000620:	00929233          	sll	tp,t0,s1
    80000624:	017d7e33          	and	t3,s10,s7
    80000628:	49dfd683          	lhu	a3,1181(t6)
    8000062c:	fff00413          	li	s0,-1
    80000630:	01944433          	xor	s0,s0,s9
    80000634:	012b6d33          	or	s10,s6,s2
    80000638:	02e0ca33          	div	s4,ra,a4
    8000063c:	00837b33          	and	s6,t1,s0
    80000640:	019de8b3          	or	a7,s11,s9
    80000644:	00001217          	auipc	tp,0x1
    80000648:	fbe20213          	addi	tp,tp,-66 # 80001602 <test_memory+0x302>
    8000064c:	b5c18113          	addi	sp,gp,-1188 # 80001a6c <_end+0x35c>
    80000650:	a4d18993          	addi	s3,gp,-1459 # 8000195d <_end+0x24d>
    80000654:	b4100a13          	li	s4,-1215
    80000658:	0ce23783          	ld	a5,206(tp) # ce <_start-0x7fffff32>
    8000065c:	00001d97          	auipc	s11,0x1
    80000660:	837d8d93          	addi	s11,s11,-1993 # 80000e93 <test_end+0x45b>
    80000664:	00001197          	auipc	gp,0x1
    80000668:	f2918193          	addi	gp,gp,-215 # 8000158d <test_memory+0x28d>
    8000066c:	00100893          	li	a7,1
    80000670:	e231e803          	lwu	a6,-477(gp) # 80001d33 <_end+0x623>
    80000674:	799d9a83          	lh	s5,1945(s11)
    80000678:	9b112823          	sw	a7,-1616(sp)
    8000067c:	00100d13          	li	s10,1
    80000680:	ab300493          	li	s1,-1357
    80000684:	03fd1d13          	slli	s10,s10,0x3f
    80000688:	22700393          	li	t2,551
    8000068c:	00038313          	mv	t1,t2
    80000690:	034a7bbb          	remuw	s7,s4,s4
    80000694:	039cf0b3          	remu	ra,s9,s9
    80000698:	0094beb3          	sltu	t4,s1,s1
    8000069c:	40a00513          	li	a0,1034
    800006a0:	d0d18113          	addi	sp,gp,-755 # 80001c1d <_end+0x50d>
    800006a4:	2dc00193          	li	gp,732
    800006a8:	ed700d93          	li	s11,-297
    800006ac:	00100a13          	li	s4,1
    800006b0:	8ae12ba3          	sw	a4,-1865(sp)
    800006b4:	fff00613          	li	a2,-1
    800006b8:	1a800c93          	li	s9,424
    800006bc:	03f89893          	slli	a7,a7,0x3f
    800006c0:	fff00f93          	li	t6,-1
    800006c4:	4c600c13          	li	s8,1222
    800006c8:	01a64633          	xor	a2,a2,s10
    800006cc:	019cc433          	xor	s0,s9,s9
    800006d0:	41855f3b          	sraw	t5,a0,s8
    800006d4:	03bdf233          	remu	tp,s11,s11
    800006d8:	00cff5b3          	and	a1,t6,a2
    800006dc:	005f883b          	addw	a6,t6,t0
    800006e0:	aea18493          	addi	s1,gp,-1302 # 800019fa <_end+0x2ea>
    800006e4:	03338b13          	addi	s6,t2,51
    800006e8:	af199683          	lh	a3,-1295(s3)
    800006ec:	011fcfb3          	xor	t6,t6,a7
    800006f0:	01cd3cb3          	sltu	s9,s10,t3
    800006f4:	00030e13          	mv	t3,t1
    800006f8:	01f072b3          	and	t0,zero,t6
    800006fc:	01a5e933          	or	s2,a1,s10
    80000700:	c7e00693          	li	a3,-898
    80000704:	03fa1a13          	slli	s4,s4,0x3f
    80000708:	0118e733          	or	a4,a7,a7
    8000070c:	00000117          	auipc	sp,0x0
    80000710:	7d010113          	addi	sp,sp,2000 # 80000edc <test_end+0x4a4>
    80000714:	fff00a93          	li	s5,-1
    80000718:	9a472d93          	slti	s11,a4,-1628
    8000071c:	f6768c13          	addi	s8,a3,-153
    80000720:	014acab3          	xor	s5,s5,s4
    80000724:	0231e7bb          	remw	a5,gp,gp
    80000728:	015bfeb3          	and	t4,s7,s5
    8000072c:	9f64ab83          	lw	s7,-1546(s1)
    80000730:	51712a23          	sw	s7,1300(sp)
    80000734:	014ee0b3          	or	ra,t4,s4
    80000738:	2e1e8663          	beq	t4,ra,80000a24 <crash_forward>
    8000073c:	00100293          	li	t0,1
    80000740:	03f29293          	slli	t0,t0,0x3f
    80000744:	49c00113          	li	sp,1180
    80000748:	87900c13          	li	s8,-1927
    8000074c:	00001997          	auipc	s3,0x1
    80000750:	e2d98993          	addi	s3,s3,-467 # 80001579 <test_memory+0x279>
    80000754:	fff00893          	li	a7,-1
    80000758:	c2000f93          	li	t6,-992
    8000075c:	9fa00f13          	li	t5,-1542
    80000760:	cf5f8393          	addi	t2,t6,-779
    80000764:	7e800213          	li	tp,2024
    80000768:	ddaf0193          	addi	gp,t5,-550
    8000076c:	d8498423          	sb	tp,-632(s3)
    80000770:	0058c8b3          	xor	a7,a7,t0
    80000774:	011bfdb3          	and	s11,s7,a7
    80000778:	00001b17          	auipc	s6,0x1
    8000077c:	e2db0b13          	addi	s6,s6,-467 # 800015a5 <test_memory+0x2a5>
    80000780:	00001a17          	auipc	s4,0x1
    80000784:	924a0a13          	addi	s4,s4,-1756 # 800010a4 <fromhost+0x64>
    80000788:	030b7bb3          	remu	s7,s6,a6
    8000078c:	a9c00693          	li	a3,-1380
    80000790:	02e70833          	mul	a6,a4,a4
    80000794:	eecb0603          	lb	a2,-276(s6)
    80000798:	018c3cb3          	sltu	s9,s8,s8
    8000079c:	ddb00d13          	li	s10,-549
    800007a0:	bc900793          	li	a5,-1079
    800007a4:	2a6a3223          	sd	t1,676(s4)
    800007a8:	03ef4abb          	divw	s5,t5,t5
    800007ac:	02d6c533          	div	a0,a3,a3
    800007b0:	024244b3          	div	s1,tp,tp
    800007b4:	02060bb3          	mul	s7,a2,zero
    800007b8:	02f16ebb          	remw	t4,sp,a5
    800007bc:	95e1d6e3          	bge	gp,t5,80000108 <crash_backward>
    800007c0:	005dee33          	or	t3,s11,t0
    800007c4:	95cdf2e3          	bgeu	s11,t3,80000108 <crash_backward>
    800007c8:	0131959b          	slliw	a1,gp,0x13
    800007cc:	03ad693b          	remw	s2,s10,s10
    800007d0:	01a17433          	and	s0,sp,s10
    800007d4:	63000313          	li	t1,1584
    800007d8:	026309bb          	mulw	s3,t1,t1
    800007dc:	02f7a733          	mulhsu	a4,a5,a5
    800007e0:	00100093          	li	ra,1
    800007e4:	00000b17          	auipc	s6,0x0
    800007e8:	5d7b0b13          	addi	s6,s6,1495 # 80000dbb <test_end+0x383>
    800007ec:	00001397          	auipc	t2,0x1
    800007f0:	fa438393          	addi	t2,t2,-92 # 80001790 <_end+0x80>
    800007f4:	c053a623          	sw	t0,-1012(t2)
    800007f8:	016bdb9b          	srliw	s7,s7,0x16
    800007fc:	02a50833          	mul	a6,a0,a0
    80000800:	3c300513          	li	a0,963
    80000804:	00001697          	auipc	a3,0x1
    80000808:	fef68693          	addi	a3,a3,-17 # 800017f3 <_end+0xe3>
    8000080c:	00001817          	auipc	a6,0x1
    80000810:	91480813          	addi	a6,a6,-1772 # 80001120 <reg_x4_init>
    80000814:	012975b3          	and	a1,s2,s2
    80000818:	026bf1b3          	remu	gp,s7,t1
    8000081c:	aaf00e93          	li	t4,-1361
    80000820:	d786c903          	lbu	s2,-648(a3)
    80000824:	023fc3b3          	div	t2,t6,gp
    80000828:	00001997          	auipc	s3,0x1
    8000082c:	ade98993          	addi	s3,s3,-1314 # 80001306 <test_memory+0x6>
    80000830:	1a300613          	li	a2,419
    80000834:	03f09093          	slli	ra,ra,0x3f
    80000838:	3ea83823          	sd	a0,1008(a6)
    8000083c:	fbb00893          	li	a7,-69
    80000840:	29600313          	li	t1,662
    80000844:	00001697          	auipc	a3,0x1
    80000848:	80d68693          	addi	a3,a3,-2035 # 80001051 <fromhost+0x11>
    8000084c:	fff00793          	li	a5,-1
    80000850:	b3a18a93          	addi	s5,gp,-1222 # 80001a4a <_end+0x33a>
    80000854:	011ea733          	slt	a4,t4,a7
    80000858:	abd07c93          	andi	s9,zero,-1347
    8000085c:	00000b97          	auipc	s7,0x0
    80000860:	311b8b93          	addi	s7,s7,785 # 80000b6d <test_end+0x135>
    80000864:	29500413          	li	s0,661
    80000868:	40ff0ebb          	subw	t4,t5,a5
    8000086c:	00001397          	auipc	t2,0x1
    80000870:	c3238393          	addi	t2,t2,-974 # 8000149e <test_memory+0x19e>
    80000874:	0017c7b3          	xor	a5,a5,ra
    80000878:	3d19a323          	sw	a7,966(s3)
    8000087c:	992aaf03          	lw	t5,-1646(s5)
    80000880:	00f27db3          	and	s11,tp,a5
    80000884:	00842833          	slt	a6,s0,s0
    80000888:	41ef58b3          	sra	a7,t5,t5
    8000088c:	7edbc183          	lbu	gp,2029(s7)
    80000890:	0283513b          	divuw	sp,t1,s0
    80000894:	c5000493          	li	s1,-944
    80000898:	00000597          	auipc	a1,0x0
    8000089c:	67758593          	addi	a1,a1,1655 # 80000f0f <test_end+0x4d7>
    800008a0:	03ad3d33          	mulhu	s10,s10,s10
    800008a4:	e18f2eb7          	lui	t4,0xe18f2
    800008a8:	1183b123          	sd	s8,258(t2)
    800008ac:	00001d17          	auipc	s10,0x1
    800008b0:	d83d0d13          	addi	s10,s10,-637 # 8000162f <test_memory+0x32f>
    800008b4:	00001217          	auipc	tp,0x1
    800008b8:	b6620213          	addi	tp,tp,-1178 # 8000141a <test_memory+0x11a>
    800008bc:	00000b97          	auipc	s7,0x0
    800008c0:	77cb8b93          	addi	s7,s7,1916 # 80001038 <tohost+0x38>
    800008c4:	fa500e13          	li	t3,-91
    800008c8:	03c62fb3          	mulhsu	t6,a2,t3
    800008cc:	01ef5433          	srl	s0,t5,t5
    800008d0:	c13ab813          	sltiu	a6,s5,-1005
    800008d4:	a5218c93          	addi	s9,gp,-1454 # 80001962 <_end+0x252>
    800008d8:	84100813          	li	a6,-1983
    800008dc:	73400e93          	li	t4,1844
    800008e0:	c6080e13          	addi	t3,a6,-928
    800008e4:	b0b18393          	addi	t2,gp,-1269 # 80001a1b <_end+0x30b>
    800008e8:	45b6a903          	lw	s2,1115(a3)
    800008ec:	b60cb723          	sd	zero,-1170(s9)
    800008f0:	130e7a63          	bgeu	t3,a6,80000a24 <crash_forward>
    800008f4:	01def633          	and	a2,t4,t4
    800008f8:	f9d00a93          	li	s5,-99
    800008fc:	02952a33          	mulhsu	s4,a0,s1
    80000900:	0f822b23          	sw	s8,246(tp) # f6 <_start-0x7fffff0a>
    80000904:	bb700313          	li	t1,-1097
    80000908:	00000417          	auipc	s0,0x0
    8000090c:	6b140413          	addi	s0,s0,1713 # 80000fb9 <test_end+0x581>
    80000910:	febd1183          	lh	gp,-21(s10)
    80000914:	00196c33          	or	s8,s2,ra
    80000918:	ffbc5863          	bge	s8,s11,80000108 <crash_backward>
    8000091c:	ad53af83          	lw	t6,-1323(t2)
    80000920:	52c40e23          	sb	a2,1340(s0)
    80000924:	75cb0283          	lb	t0,1884(s6)
    80000928:	56b00893          	li	a7,1387
    8000092c:	ee5a8113          	addi	sp,s5,-283
    80000930:	58e5aca3          	sw	a4,1433(a1)
    80000934:	031349bb          	divw	s3,t1,a7
    80000938:	3d4bef03          	lwu	t5,980(s7)
    8000093c:	00001c17          	auipc	s8,0x1
    80000940:	828c0c13          	addi	s8,s8,-2008 # 80001164 <reg_x12_init+0x4>
    80000944:	1b8c5983          	lhu	s3,440(s8)
    80000948:	57800493          	li	s1,1400
    8000094c:	89d00613          	li	a2,-1891
    80000950:	011f23b3          	slt	t2,t5,a7
    80000954:	84c00213          	li	tp,-1972
    80000958:	71400093          	li	ra,1812
    8000095c:	00100e93          	li	t4,1
    80000960:	c9d18913          	addi	s2,gp,-867 # 80001bad <_end+0x49d>
    80000964:	00000317          	auipc	t1,0x0
    80000968:	66e30313          	addi	t1,t1,1646 # 80000fd2 <test_end+0x59a>
    8000096c:	0044edb3          	or	s11,s1,tp
    80000970:	03fe9e93          	slli	t4,t4,0x3f
    80000974:	021622b3          	mulhsu	t0,a2,ra
    80000978:	fff00593          	li	a1,-1
    8000097c:	00000f97          	auipc	t6,0x0
    80000980:	55ef8f93          	addi	t6,t6,1374 # 80000eda <test_end+0x4a2>
    80000984:	01d5c5b3          	xor	a1,a1,t4
    80000988:	4de36c83          	lwu	s9,1246(t1)
    8000098c:	87c94a83          	lbu	s5,-1924(s2)
    80000990:	5cafad23          	sw	a0,1498(t6)
    80000994:	00bdf6b3          	and	a3,s11,a1
    80000998:	01d6e133          	or	sp,a3,t4
    8000099c:	f6d15663          	bge	sp,a3,80000108 <crash_backward>
    800009a0:	0040006f          	j	800009a4 <reg_dump>

00000000800009a4 <reg_dump>:
    800009a4:	00001097          	auipc	ra,0x1
    800009a8:	d5c08093          	addi	ra,ra,-676 # 80001700 <loop_count>
    800009ac:	0000a103          	lw	sp,0(ra)
    800009b0:	fff10193          	addi	gp,sp,-1
    800009b4:	0030a023          	sw	gp,0(ra)
    800009b8:	fe011863          	bnez	sp,800001a8 <pseg_0>
    800009bc:	00001097          	auipc	ra,0x1
    800009c0:	84408093          	addi	ra,ra,-1980 # 80001200 <begin_signature>
    800009c4:	0000b023          	sd	zero,0(ra)
    800009c8:	0020b823          	sd	sp,16(ra)
    800009cc:	0030bc23          	sd	gp,24(ra)
    800009d0:	0240b023          	sd	tp,32(ra)
    800009d4:	0250b423          	sd	t0,40(ra)
    800009d8:	0270bc23          	sd	t2,56(ra)
    800009dc:	0490b423          	sd	s1,72(ra)
    800009e0:	04a0b823          	sd	a0,80(ra)
    800009e4:	04b0bc23          	sd	a1,88(ra)
    800009e8:	06c0b023          	sd	a2,96(ra)
    800009ec:	06d0b423          	sd	a3,104(ra)
    800009f0:	06e0b823          	sd	a4,112(ra)
    800009f4:	06f0bc23          	sd	a5,120(ra)
    800009f8:	0900b023          	sd	a6,128(ra)
    800009fc:	0910b423          	sd	a7,136(ra)
    80000a00:	0930bc23          	sd	s3,152(ra)
    80000a04:	0b40b023          	sd	s4,160(ra)
    80000a08:	0b50b423          	sd	s5,168(ra)
    80000a0c:	0d90b423          	sd	s9,200(ra)
    80000a10:	0db0bc23          	sd	s11,216(ra)
    80000a14:	0fc0b023          	sd	t3,224(ra)
    80000a18:	0fd0b423          	sd	t4,232(ra)
    80000a1c:	0fe0b823          	sd	t5,240(ra)
    80000a20:	0180006f          	j	80000a38 <test_end>

0000000080000a24 <crash_forward>:
    80000a24:	0ff0000f          	fence
    80000a28:	00018063          	beqz	gp,80000a28 <crash_forward+0x4>
    80000a2c:	00119193          	slli	gp,gp,0x1
    80000a30:	0011e193          	ori	gp,gp,1
    80000a34:	00000073          	ecall

0000000080000a38 <test_end>:
    80000a38:	0ff0000f          	fence
    80000a3c:	00100193          	li	gp,1
    80000a40:	00000073          	ecall
    80000a44:	c0001073          	unimp
	...

Disassembly of section .tohost:

0000000080001000 <tohost>:
	...

0000000080001040 <fromhost>:
	...
