
test.elf:     file format elf64-littleriscv


Disassembly of section .text.init:

0000000080000000 <_start>:
    80000000:	0580006f          	j	80000058 <reset_vector>

0000000080000004 <trap_vector>:
    80000004:	34202f73          	csrr	t5,mcause
    80000008:	00800f93          	li	t6,8
    8000000c:	05ff0063          	beq	t5,t6,8000004c <write_tohost>
    80000010:	00900f93          	li	t6,9
    80000014:	03ff0c63          	beq	t5,t6,8000004c <write_tohost>
    80000018:	00b00f93          	li	t6,11
    8000001c:	03ff0863          	beq	t5,t6,8000004c <write_tohost>
    80000020:	00000f13          	li	t5,0
    80000024:	000f0463          	beqz	t5,8000002c <trap_vector+0x28>
    80000028:	000f0067          	jr	t5
    8000002c:	34202f73          	csrr	t5,mcause
    80000030:	000f5463          	bgez	t5,80000038 <handle_exception>
    80000034:	0140006f          	j	80000048 <other_exception>

0000000080000038 <handle_exception>:
    80000038:	34102e73          	csrr	t3,mepc
    8000003c:	004e0e13          	addi	t3,t3,4
    80000040:	341e1073          	csrw	mepc,t3
    80000044:	30200073          	mret

0000000080000048 <other_exception>:
    80000048:	5391e193          	ori	gp,gp,1337

000000008000004c <write_tohost>:
    8000004c:	00001f17          	auipc	t5,0x1
    80000050:	fa3f2a23          	sw	gp,-76(t5) # 80001000 <tohost>
    80000054:	ff9ff06f          	j	8000004c <write_tohost>

0000000080000058 <reset_vector>:
    80000058:	f1402573          	csrr	a0,mhartid
    8000005c:	00051063          	bnez	a0,8000005c <reset_vector+0x4>
    80000060:	00000297          	auipc	t0,0x0
    80000064:	01028293          	addi	t0,t0,16 # 80000070 <reset_vector+0x18>
    80000068:	30529073          	csrw	mtvec,t0
    8000006c:	18005073          	csrwi	satp,0
    80000070:	00000297          	auipc	t0,0x0
    80000074:	01c28293          	addi	t0,t0,28 # 8000008c <reset_vector+0x34>
    80000078:	30529073          	csrw	mtvec,t0
    8000007c:	fff00293          	li	t0,-1
    80000080:	3b029073          	csrw	pmpaddr0,t0
    80000084:	01f00293          	li	t0,31
    80000088:	3a029073          	csrw	pmpcfg0,t0
    8000008c:	00000297          	auipc	t0,0x0
    80000090:	01828293          	addi	t0,t0,24 # 800000a4 <reset_vector+0x4c>
    80000094:	30529073          	csrw	mtvec,t0
    80000098:	30205073          	csrwi	medeleg,0
    8000009c:	30305073          	csrwi	mideleg,0
    800000a0:	30405073          	csrwi	mie,0
    800000a4:	00000193          	li	gp,0
    800000a8:	00000297          	auipc	t0,0x0
    800000ac:	f5c28293          	addi	t0,t0,-164 # 80000004 <trap_vector>
    800000b0:	30529073          	csrw	mtvec,t0
    800000b4:	00100513          	li	a0,1
    800000b8:	01f51513          	slli	a0,a0,0x1f
    800000bc:	00055863          	bgez	a0,800000cc <reset_vector+0x74>
    800000c0:	0ff0000f          	fence
    800000c4:	00100193          	li	gp,1
    800000c8:	00000073          	ecall
    800000cc:	00000293          	li	t0,0
    800000d0:	00028e63          	beqz	t0,800000ec <reset_vector+0x94>
    800000d4:	10529073          	csrw	stvec,t0
    800000d8:	0000b2b7          	lui	t0,0xb
    800000dc:	1092829b          	addiw	t0,t0,265
    800000e0:	30229073          	csrw	medeleg,t0
    800000e4:	30202373          	csrr	t1,medeleg
    800000e8:	f66290e3          	bne	t0,t1,80000048 <other_exception>
    800000ec:	30005073          	csrwi	mstatus,0
    800000f0:	00000297          	auipc	t0,0x0
    800000f4:	01428293          	addi	t0,t0,20 # 80000104 <reset_vector+0xac>
    800000f8:	34129073          	csrw	mepc,t0
    800000fc:	f1402573          	csrr	a0,mhartid
    80000100:	30200073          	mret
    80000104:	0180006f          	j	8000011c <test_start>

0000000080000108 <crash_backward>:
    80000108:	0ff0000f          	fence
    8000010c:	00018063          	beqz	gp,8000010c <crash_backward+0x4>
    80000110:	00119193          	slli	gp,gp,0x1
    80000114:	0011e193          	ori	gp,gp,1
    80000118:	00000073          	ecall

000000008000011c <test_start>:
    8000011c:	00001f97          	auipc	t6,0x1
    80000120:	fe4f8f93          	addi	t6,t6,-28 # 80001100 <hidden_data>
    80000124:	000fb003          	ld	zero,0(t6)
    80000128:	008fb083          	ld	ra,8(t6)
    8000012c:	010fb103          	ld	sp,16(t6)
    80000130:	018fb183          	ld	gp,24(t6)
    80000134:	020fb203          	ld	tp,32(t6)
    80000138:	028fb283          	ld	t0,40(t6)
    8000013c:	030fb303          	ld	t1,48(t6)
    80000140:	038fb383          	ld	t2,56(t6)
    80000144:	040fb403          	ld	s0,64(t6)
    80000148:	048fb483          	ld	s1,72(t6)
    8000014c:	050fb503          	ld	a0,80(t6)
    80000150:	058fb583          	ld	a1,88(t6)
    80000154:	060fb603          	ld	a2,96(t6)
    80000158:	068fb683          	ld	a3,104(t6)
    8000015c:	070fb703          	ld	a4,112(t6)
    80000160:	078fb783          	ld	a5,120(t6)
    80000164:	080fb803          	ld	a6,128(t6)
    80000168:	088fb883          	ld	a7,136(t6)
    8000016c:	090fb903          	ld	s2,144(t6)
    80000170:	098fb983          	ld	s3,152(t6)
    80000174:	0a0fba03          	ld	s4,160(t6)
    80000178:	0a8fba83          	ld	s5,168(t6)
    8000017c:	0b0fbb03          	ld	s6,176(t6)
    80000180:	0b8fbb83          	ld	s7,184(t6)
    80000184:	0c0fbc03          	ld	s8,192(t6)
    80000188:	0c8fbc83          	ld	s9,200(t6)
    8000018c:	0d0fbd03          	ld	s10,208(t6)
    80000190:	0d8fbd83          	ld	s11,216(t6)
    80000194:	0e0fbe03          	ld	t3,224(t6)
    80000198:	0e8fbe83          	ld	t4,232(t6)
    8000019c:	0f0fbf03          	ld	t5,240(t6)
    800001a0:	0f8fbf83          	ld	t6,248(t6)
    800001a4:	0040006f          	j	800001a8 <pseg_0>

00000000800001a8 <pseg_0>:
    800001a8:	b1e00c93          	li	s9,-1250
    800001ac:	00090e93          	mv	t4,s2
    800001b0:	03fa53bb          	divuw	t2,s4,t6
    800001b4:	029c41bb          	divw	gp,s8,s1
    800001b8:	77f00b13          	li	s6,1919
    800001bc:	00001717          	auipc	a4,0x1
    800001c0:	0b170713          	addi	a4,a4,177 # 8000126d <reg_x13_output+0x5>
    800001c4:	00001097          	auipc	ra,0x1
    800001c8:	61a08093          	addi	ra,ra,1562 # 800017de <_end+0xce>
    800001cc:	7dd00493          	li	s1,2013
    800001d0:	3af72803          	lw	a6,943(a4)
    800001d4:	d19c8d13          	addi	s10,s9,-743
    800001d8:	000e8413          	mv	s0,t4
    800001dc:	03ef4bb3          	div	s7,t5,t5
    800001e0:	2d200a93          	li	s5,722
    800001e4:	00001d97          	auipc	s11,0x1
    800001e8:	d00d8d93          	addi	s11,s11,-768 # 80000ee4 <test_end+0x578>
    800001ec:	779d5663          	bge	s10,s9,80000958 <crash_forward>
    800001f0:	6d8de203          	lwu	tp,1752(s11)
    800001f4:	416b52b3          	sra	t0,s6,s6
    800001f8:	a9300993          	li	s3,-1389
    800001fc:	0354c33b          	divw	t1,s1,s5
    80000200:	02d6df33          	divu	t5,a3,a3
    80000204:	54700793          	li	a5,1351
    80000208:	f08e90e3          	bne	t4,s0,80000108 <crash_backward>
    8000020c:	40f986b3          	sub	a3,s3,a5
    80000210:	ac300913          	li	s2,-1341
    80000214:	03297fb3          	remu	t6,s2,s2
    80000218:	00001617          	auipc	a2,0x1
    8000021c:	c9f60613          	addi	a2,a2,-865 # 80000eb7 <test_end+0x54b>
    80000220:	4aa00a13          	li	s4,1194
    80000224:	0329453b          	divw	a0,s2,s2
    80000228:	a8300893          	li	a7,-1405
    8000022c:	cd809583          	lh	a1,-808(ra)
    80000230:	5e761c03          	lh	s8,1511(a2)
    80000234:	031a5133          	divu	sp,s4,a7
    80000238:	03c0e93b          	remw	s2,ra,t3
    8000023c:	96118b13          	addi	s6,gp,-1695 # 80001871 <_end+0x161>
    80000240:	00001f17          	auipc	t5,0x1
    80000244:	2e2f0f13          	addi	t5,t5,738 # 80001522 <test_memory+0x222>
    80000248:	0139e1b3          	or	gp,s3,s3
    8000024c:	00fe121b          	slliw	tp,t3,0xf
    80000250:	e6200293          	li	t0,-414
    80000254:	00001a17          	auipc	s4,0x1
    80000258:	28ea0a13          	addi	s4,s4,654 # 800014e2 <test_memory+0x1e2>
    8000025c:	02e6553b          	divuw	a0,a2,a4
    80000260:	0094dc33          	srl	s8,s1,s1
    80000264:	dadb1883          	lh	a7,-595(s6)
    80000268:	c79c0d1b          	addiw	s10,s8,-903
    8000026c:	fe9f0823          	sb	s1,-16(t5)
    80000270:	a1e00513          	li	a0,-1506
    80000274:	41845e3b          	sraw	t3,s0,s8
    80000278:	9ec00493          	li	s1,-1556
    8000027c:	bca18113          	addi	sp,gp,-1078 # 80001ada <_end+0x3ca>
    80000280:	79c00b13          	li	s6,1948
    80000284:	8b700893          	li	a7,-1865
    80000288:	74000213          	li	tp,1856
    8000028c:	01154c33          	xor	s8,a0,a7
    80000290:	154a4e83          	lbu	t4,340(s4)
    80000294:	b4910da3          	sb	s1,-1189(sp)
    80000298:	42735e13          	srai	t3,t1,0x27
    8000029c:	02633cb3          	mulhu	s9,t1,t1
    800002a0:	0294c83b          	divw	a6,s1,s1
    800002a4:	b8a18613          	addi	a2,gp,-1142 # 80001a9a <_end+0x38a>
    800002a8:	00001317          	auipc	t1,0x1
    800002ac:	adf30313          	addi	t1,t1,-1313 # 80000d87 <test_end+0x41b>
    800002b0:	fa000693          	li	a3,-96
    800002b4:	68600a13          	li	s4,1670
    800002b8:	405289b3          	sub	s3,t0,t0
    800002bc:	00001597          	auipc	a1,0x1
    800002c0:	0a158593          	addi	a1,a1,161 # 8000135d <test_memory+0x5d>
    800002c4:	5cd20193          	addi	gp,tp,1485 # 5cd <_start-0x7ffffa33>
    800002c8:	9ea00893          	li	a7,-1558
    800002cc:	00679c9b          	slliw	s9,a5,0x6
    800002d0:	3a700c13          	li	s8,935
    800002d4:	f9500913          	li	s2,-107
    800002d8:	032b6d3b          	remw	s10,s6,s2
    800002dc:	0139cf33          	xor	t5,s3,s3
    800002e0:	9a500393          	li	t2,-1627
    800002e4:	000b8993          	mv	s3,s7
    800002e8:	a1f18913          	addi	s2,gp,-1505 # 8000192f <_end+0x21f>
    800002ec:	018a013b          	addw	sp,s4,s8
    800002f0:	e0327ce3          	bgeu	tp,gp,80000108 <crash_backward>
    800002f4:	00098293          	mv	t0,s3
    800002f8:	0076cfb3          	xor	t6,a3,t2
    800002fc:	00001b97          	auipc	s7,0x1
    80000300:	ac2b8b93          	addi	s7,s7,-1342 # 80000dbe <test_end+0x452>
    80000304:	a3b95b03          	lhu	s6,-1477(s2)
    80000308:	7b2be783          	lwu	a5,1970(s7)
    8000030c:	82d00e93          	li	t4,-2003
    80000310:	af000e13          	li	t3,-1296
    80000314:	38959ba3          	sh	s1,919(a1)
    80000318:	03ce5833          	divu	a6,t3,t3
    8000031c:	09200c93          	li	s9,146
    80000320:	03d8853b          	mulw	a0,a7,t4
    80000324:	c2400f13          	li	t5,-988
    80000328:	c5a65d83          	lhu	s11,-934(a2)
    8000032c:	5bf30703          	lb	a4,1471(t1)
    80000330:	01eccd33          	xor	s10,s9,t5
    80000334:	007414bb          	sllw	s1,s0,t2
    80000338:	8cd00f93          	li	t6,-1843
    8000033c:	c2d00813          	li	a6,-979
    80000340:	72200613          	li	a2,1826
    80000344:	00001e17          	auipc	t3,0x1
    80000348:	ee0e0e13          	addi	t3,t3,-288 # 80001224 <reg_x4_output+0x4>
    8000034c:	000de2b3          	or	t0,s11,zero
    80000350:	00001b97          	auipc	s7,0x1
    80000354:	c44b8b93          	addi	s7,s7,-956 # 80000f94 <test_end+0x628>
    80000358:	00001b17          	auipc	s6,0x1
    8000035c:	323b0b13          	addi	s6,s6,803 # 8000167b <test_memory+0x37b>
    80000360:	034a613b          	remw	sp,s4,s4
    80000364:	00c65933          	srl	s2,a2,a2
    80000368:	e95b2f03          	lw	t5,-363(s6)
    8000036c:	00001217          	auipc	tp,0x1
    80000370:	9c320213          	addi	tp,tp,-1597 # 80000d2f <test_end+0x3c3>
    80000374:	ab300793          	li	a5,-1357
    80000378:	bf400d13          	li	s10,-1036
    8000037c:	3cabc383          	lbu	t2,970(s7)
    80000380:	e9700593          	li	a1,-361
    80000384:	03a78ab3          	mul	s5,a5,s10
    80000388:	00000c93          	li	s9,0
    8000038c:	03082433          	mulhsu	s0,a6,a6
    80000390:	87300693          	li	a3,-1933
    80000394:	f3900313          	li	t1,-199
    80000398:	00000c13          	li	s8,0
    8000039c:	00001e97          	auipc	t4,0x1
    800003a0:	e17e8e93          	addi	t4,t4,-489 # 800011b3 <reg_x22_init+0x3>
    800003a4:	0066a733          	slt	a4,a3,t1
    800003a8:	63125983          	lhu	s3,1585(tp) # 631 <_start-0x7ffff9cf>
    800003ac:	02bfd8bb          	divuw	a7,t6,a1
    800003b0:	01247233          	and	tp,s0,s2
    800003b4:	3edecd83          	lbu	s11,1005(t4)
    800003b8:	f0700093          	li	ra,-249
    800003bc:	0210d1bb          	divuw	gp,ra,ra
    800003c0:	fe500b93          	li	s7,-27
    800003c4:	c5018793          	addi	a5,gp,-944 # 80001b60 <_end+0x450>
    800003c8:	c2018b13          	addi	s6,gp,-992 # 80001b30 <_end+0x420>
    800003cc:	1cf00493          	li	s1,463
    800003d0:	aa27a823          	sw	sp,-1360(a5)
    800003d4:	b8518713          	addi	a4,gp,-1147 # 80001a95 <_end+0x385>
    800003d8:	028ac5b3          	div	a1,s5,s0
    800003dc:	02426433          	rem	s0,tp,tp
    800003e0:	0020a833          	slt	a6,ra,sp
    800003e4:	16a2ef13          	ori	t5,t0,362
    800003e8:	97175303          	lhu	t1,-1679(a4)
    800003ec:	029e73b3          	remu	t2,t3,s1
    800003f0:	00001617          	auipc	a2,0x1
    800003f4:	efb60613          	addi	a2,a2,-261 # 800012eb <reg_x29_output+0x3>
    800003f8:	a98b2e23          	sw	s8,-1380(s6)
    800003fc:	3e962aa3          	sw	s1,1013(a2)
    80000400:	7fd00f93          	li	t6,2045
    80000404:	41f48abb          	subw	s5,s1,t6
    80000408:	9ea00293          	li	t0,-1558
    8000040c:	405bd133          	sra	sp,s7,t0
    80000410:	48ce6a03          	lwu	s4,1164(t3)
    80000414:	00050713          	mv	a4,a0
    80000418:	00100813          	li	a6,1
    8000041c:	00000893          	li	a7,0
    80000420:	00000193          	li	gp,0
    80000424:	14e0fc13          	andi	s8,ra,334
    80000428:	43200d93          	li	s11,1074
    8000042c:	03e0f5bb          	remuw	a1,ra,t5
    80000430:	0284463b          	divw	a2,s0,s0
    80000434:	00003eb3          	snez	t4,zero
    80000438:	43600413          	li	s0,1078
    8000043c:	0a7d8113          	addi	sp,s11,167
    80000440:	b9c00c93          	li	s9,-1124
    80000444:	00100793          	li	a5,1
    80000448:	4cd00d13          	li	s10,1229
    8000044c:	03f81813          	slli	a6,a6,0x3f
    80000450:	3e940e13          	addi	t3,s0,1001
    80000454:	03f79793          	slli	a5,a5,0x3f
    80000458:	508e6063          	bltu	t3,s0,80000958 <crash_forward>
    8000045c:	00070213          	mv	tp,a4
    80000460:	00070913          	mv	s2,a4
    80000464:	000f8313          	mv	t1,t6
    80000468:	00090a93          	mv	s5,s2
    8000046c:	419cd6b3          	sra	a3,s9,s9
    80000470:	4d500393          	li	t2,1237
    80000474:	41ad52bb          	sraw	t0,s10,s10
    80000478:	00030993          	mv	s3,t1
    8000047c:	00001897          	auipc	a7,0x1
    80000480:	eb788893          	addi	a7,a7,-329 # 80001333 <test_memory+0x33>
    80000484:	bbf18293          	addi	t0,gp,-1089 # 80001acf <_end+0x3bf>
    80000488:	fff00b93          	li	s7,-1
    8000048c:	fff00f93          	li	t6,-1
    80000490:	00001e17          	auipc	t3,0x1
    80000494:	924e0e13          	addi	t3,t3,-1756 # 80000db4 <test_end+0x448>
    80000498:	0184d69b          	srliw	a3,s1,0x18
    8000049c:	00ffcfb3          	xor	t6,t6,a5
    800004a0:	98f2dd83          	lhu	s11,-1649(t0)
    800004a4:	01bded33          	or	s10,s11,s11
    800004a8:	010bcbb3          	xor	s7,s7,a6
    800004ac:	00100593          	li	a1,1
    800004b0:	5f3e3623          	sd	s3,1516(t3)
    800004b4:	0272e0bb          	remw	ra,t0,t2
    800004b8:	4073d4b3          	sra	s1,t2,t2
    800004bc:	03f59593          	slli	a1,a1,0x3f
    800004c0:	0094863b          	addw	a2,s1,s1
    800004c4:	b7100e13          	li	t3,-1167
    800004c8:	00100313          	li	t1,1
    800004cc:	8f600993          	li	s3,-1802
    800004d0:	51c00713          	li	a4,1308
    800004d4:	017cf533          	and	a0,s9,s7
    800004d8:	03ce42bb          	divw	t0,t3,t3
    800004dc:	8a000493          	li	s1,-1888
    800004e0:	f0198693          	addi	a3,s3,-255
    800004e4:	00000393          	li	t2,0
    800004e8:	02e72cb3          	mulhsu	s9,a4,a4
    800004ec:	fff00113          	li	sp,-1
    800004f0:	00b14133          	xor	sp,sp,a1
    800004f4:	00000093          	li	ra,0
    800004f8:	0023f433          	and	s0,t2,sp
    800004fc:	00004233          	xor	tp,zero,zero
    80000500:	02948c3b          	mulw	s8,s1,s1
    80000504:	03f31313          	slli	t1,t1,0x3f
    80000508:	00b461b3          	or	gp,s0,a1
    8000050c:	01f77b33          	and	s6,a4,t6
    80000510:	010bef33          	or	t5,s7,a6
    80000514:	00f46a33          	or	s4,s0,a5
    80000518:	4413c063          	blt	t2,ra,80000958 <crash_forward>
    8000051c:	1f58be83          	ld	t4,501(a7)
    80000520:	72300493          	li	s1,1827
    80000524:	00001a97          	auipc	s5,0x1
    80000528:	abfa8a93          	addi	s5,s5,-1345 # 80000fe3 <test_end+0x677>
    8000052c:	fff00d13          	li	s10,-1
    80000530:	e5f00c93          	li	s9,-417
    80000534:	42a00b93          	li	s7,1066
    80000538:	006d4d33          	xor	s10,s10,t1
    8000053c:	bd4b76e3          	bgeu	s6,s4,80000108 <crash_backward>
    80000540:	00000217          	auipc	tp,0x0
    80000544:	72220213          	addi	tp,tp,1826 # 80000c62 <test_end+0x2f6>
    80000548:	00001897          	auipc	a7,0x1
    8000054c:	a6888893          	addi	a7,a7,-1432 # 80000fb0 <test_end+0x644>
    80000550:	24000e93          	li	t4,576
    80000554:	3b1ac703          	lbu	a4,945(s5)
    80000558:	0194ae33          	slt	t3,s1,s9
    8000055c:	3e340e63          	beq	s0,gp,80000958 <crash_forward>
    80000560:	00001417          	auipc	s0,0x1
    80000564:	c6c40413          	addi	s0,s0,-916 # 800011cc <reg_x25_init+0x4>
    80000568:	3f36f863          	bgeu	a3,s3,80000958 <crash_forward>
    8000056c:	03bd3733          	mulhu	a4,s10,s11
    80000570:	40c6053b          	subw	a0,a2,a2
    80000574:	0104c5b3          	xor	a1,s1,a6
    80000578:	00001297          	auipc	t0,0x1
    8000057c:	ef028293          	addi	t0,t0,-272 # 80001468 <test_memory+0x168>
    80000580:	34d00a93          	li	s5,845
    80000584:	01acfdb3          	and	s11,s9,s10
    80000588:	00001f97          	auipc	t6,0x1
    8000058c:	f72f8f93          	addi	t6,t6,-142 # 800014fa <test_memory+0x1fa>
    80000590:	01dbdc33          	srl	s8,s7,t4
    80000594:	09700593          	li	a1,151
    80000598:	00001817          	auipc	a6,0x1
    8000059c:	04080813          	addi	a6,a6,64 # 800015d8 <test_memory+0x2d8>
    800005a0:	8f3a2b13          	slti	s6,s4,-1805
    800005a4:	1f046a03          	lwu	s4,496(s0)
    800005a8:	22e00493          	li	s1,558
    800005ac:	09c48c93          	addi	s9,s1,156
    800005b0:	00001097          	auipc	ra,0x1
    800005b4:	05908093          	addi	ra,ra,89 # 80001609 <test_memory+0x309>
    800005b8:	abb18c13          	addi	s8,gp,-1349 # 800019cb <_end+0x2bb>
    800005bc:	178a8193          	addi	gp,s5,376
    800005c0:	da481383          	lh	t2,-604(a6)
    800005c4:	92f18793          	addi	a5,gp,-1745 # 8000183f <_end+0x12f>
    800005c8:	b4dc28a3          	sw	a3,-1199(s8)
    800005cc:	6ae8b823          	sd	a4,1712(a7)
    800005d0:	02b5ca33          	div	s4,a1,a1
    800005d4:	b417be03          	ld	t3,-1215(a5)
    800005d8:	b23ad8e3          	bge	s5,gp,80000108 <crash_backward>
    800005dc:	6a921c23          	sh	s1,1720(tp) # 6b8 <_start-0x7ffff948>
    800005e0:	d730b7a3          	sd	s3,-657(ra)
    800005e4:	10afd703          	lhu	a4,266(t6)
    800005e8:	006de633          	or	a2,s11,t1
    800005ec:	026183b3          	mul	t2,gp,t1
    800005f0:	00000117          	auipc	sp,0x0
    800005f4:	79910113          	addi	sp,sp,1945 # 80000d89 <test_end+0x41d>
    800005f8:	00c66a33          	or	s4,a2,a2
    800005fc:	40000193          	li	gp,1024
    80000600:	d1800713          	li	a4,-744
    80000604:	a2e00b13          	li	s6,-1490
    80000608:	036b2433          	mulhsu	s0,s6,s6
    8000060c:	d0c00393          	li	t2,-756
    80000610:	403180b3          	sub	ra,gp,gp
    80000614:	2162d903          	lhu	s2,534(t0)
    80000618:	93218b93          	addi	s7,gp,-1742 # 80001842 <_end+0x132>
    8000061c:	03a3b6b3          	mulhu	a3,t2,s10
    80000620:	02b5e533          	rem	a0,a1,a1
    80000624:	5c715f03          	lhu	t5,1479(sp)
    80000628:	00005833          	srl	a6,zero,zero
    8000062c:	56e00893          	li	a7,1390
    80000630:	02774fb3          	div	t6,a4,t2
    80000634:	1b540c37          	lui	s8,0x1b540
    80000638:	0278e9bb          	remw	s3,a7,t2
    8000063c:	414a0ebb          	subw	t4,s4,s4
    80000640:	00001417          	auipc	s0,0x1
    80000644:	f8040413          	addi	s0,s0,-128 # 800015c0 <test_memory+0x2c0>
    80000648:	00001c17          	auipc	s8,0x1
    8000064c:	e11c0c13          	addi	s8,s8,-495 # 80001459 <test_memory+0x159>
    80000650:	00001917          	auipc	s2,0x1
    80000654:	b2c90913          	addi	s2,s2,-1236 # 8000117c <reg_x15_init+0x4>
    80000658:	01a91a33          	sll	s4,s2,s10
    8000065c:	1c0c4583          	lbu	a1,448(s8)
    80000660:	22c92383          	lw	t2,556(s2)
    80000664:	fb043483          	ld	s1,-80(s0)
    80000668:	03c330b3          	mulhu	ra,t1,t3
    8000066c:	55300f93          	li	t6,1363
    80000670:	2ecdf463          	bgeu	s11,a2,80000958 <crash_forward>
    80000674:	03ea1113          	slli	sp,s4,0x3e
    80000678:	dc9b80a3          	sb	s1,-575(s7)
    8000067c:	00001197          	auipc	gp,0x1
    80000680:	c7618193          	addi	gp,gp,-906 # 800012f2 <reg_x30_output+0x2>
    80000684:	41188e3b          	subw	t3,a7,a7
    80000688:	a6018993          	addi	s3,gp,-1440 # 80001970 <_end+0x260>
    8000068c:	36c18f03          	lb	t5,876(gp) # 8000227c <__global_pointer$+0x36c>
    80000690:	2a3f8293          	addi	t0,t6,675
    80000694:	0fe00e93          	li	t4,254
    80000698:	00100113          	li	sp,1
    8000069c:	00001617          	auipc	a2,0x1
    800006a0:	9fa60613          	addi	a2,a2,-1542 # 80001096 <fromhost+0x56>
    800006a4:	00001197          	auipc	gp,0x1
    800006a8:	baa18193          	addi	gp,gp,-1110 # 8000124e <reg_x9_output+0x6>
    800006ac:	01f902bb          	addw	t0,s2,t6
    800006b0:	d4600813          	li	a6,-698
    800006b4:	037dab33          	mulhsu	s6,s11,s7
    800006b8:	9f59b423          	sd	s5,-1560(s3)
    800006bc:	21a1b483          	ld	s1,538(gp) # 8000212a <__global_pointer$+0x21a>
    800006c0:	6a000a93          	li	s5,1696
    800006c4:	bc118093          	addi	ra,gp,-1087 # 80001ad1 <_end+0x3c1>
    800006c8:	29300f13          	li	t5,659
    800006cc:	80c00a13          	li	s4,-2036
    800006d0:	9b600513          	li	a0,-1610
    800006d4:	62600e13          	li	t3,1574
    800006d8:	c0000d13          	li	s10,-1024
    800006dc:	c070b383          	ld	t2,-1017(ra)
    800006e0:	01ce6db3          	or	s11,t3,t3
    800006e4:	00000417          	auipc	s0,0x0
    800006e8:	54340413          	addi	s0,s0,1347 # 80000c27 <test_end+0x2bb>
    800006ec:	a9900713          	li	a4,-1383
    800006f0:	00100b13          	li	s6,1
    800006f4:	03fb1b13          	slli	s6,s6,0x3f
    800006f8:	03082cb3          	mulhsu	s9,a6,a6
    800006fc:	03deefbb          	remw	t6,t4,t4
    80000700:	01ef133b          	sllw	t1,t5,t5
    80000704:	4d8a8213          	addi	tp,s5,1240
    80000708:	036b77b3          	remu	a5,s6,s6
    8000070c:	03f11113          	slli	sp,sp,0x3f
    80000710:	03aa35b3          	mulhu	a1,s4,s10
    80000714:	fff00193          	li	gp,-1
    80000718:	25399063          	bne	s3,s3,80000958 <crash_forward>
    8000071c:	fff00c13          	li	s8,-1
    80000720:	002c4c33          	xor	s8,s8,sp
    80000724:	75440323          	sb	s4,1862(s0)
    80000728:	e81d8493          	addi	s1,s11,-383
    8000072c:	018cf8b3          	and	a7,s9,s8
    80000730:	0161c1b3          	xor	gp,gp,s6
    80000734:	3b263b83          	ld	s7,946(a2)
    80000738:	003872b3          	and	t0,a6,gp
    8000073c:	016b69b3          	or	s3,s6,s6
    80000740:	0028e933          	or	s2,a7,sp
    80000744:	00e506bb          	addw	a3,a0,a4
    80000748:	21ad4863          	blt	s10,s10,80000958 <crash_forward>
    8000074c:	caa00793          	li	a5,-854
    80000750:	00001a97          	auipc	s5,0x1
    80000754:	a7da8a93          	addi	s5,s5,-1411 # 800011cd <reg_x25_init+0x5>
    80000758:	9b1958e3          	bge	s2,a7,80000108 <crash_backward>
    8000075c:	0dd00813          	li	a6,221
    80000760:	00000f97          	auipc	t6,0x0
    80000764:	7c7f8f93          	addi	t6,t6,1991 # 80000f27 <test_end+0x5bb>
    80000768:	2d380f13          	addi	t5,a6,723
    8000076c:	00001497          	auipc	s1,0x1
    80000770:	82648493          	addi	s1,s1,-2010 # 80000f92 <test_end+0x626>
    80000774:	00000617          	auipc	a2,0x0
    80000778:	4f260613          	addi	a2,a2,1266 # 80000c66 <test_end+0x2fa>
    8000077c:	00001317          	auipc	t1,0x1
    80000780:	07330313          	addi	t1,t1,115 # 800017ef <_end+0xdf>
    80000784:	00001e17          	auipc	t3,0x1
    80000788:	b8de0e13          	addi	t3,t3,-1139 # 80001311 <test_memory+0x11>
    8000078c:	74762f23          	sw	t2,1886(a2)
    80000790:	02f78a33          	mul	s4,a5,a5
    80000794:	1edac583          	lbu	a1,493(s5)
    80000798:	8ee00093          	li	ra,-1810
    8000079c:	9732f6e3          	bgeu	t0,s3,80000108 <crash_backward>
    800007a0:	0d900e93          	li	t4,217
    800007a4:	38fe2c83          	lw	s9,911(t3)
    800007a8:	4da4b723          	sd	s10,1230(s1)
    800007ac:	40c2073b          	subw	a4,tp,a2
    800007b0:	539fab83          	lw	s7,1337(t6)
    800007b4:	fe600413          	li	s0,-26
    800007b8:	00100893          	li	a7,1
    800007bc:	03f89893          	slli	a7,a7,0x3f
    800007c0:	e3735203          	lhu	tp,-457(t1)
    800007c4:	66e00393          	li	t2,1646
    800007c8:	00709dbb          	sllw	s11,ra,t2
    800007cc:	028e9d33          	mulh	s10,t4,s0
    800007d0:	a4718613          	addi	a2,gp,-1465 # 80001957 <_end+0x247>
    800007d4:	00001117          	auipc	sp,0x1
    800007d8:	f6f10113          	addi	sp,sp,-145 # 80001743 <_end+0x33>
    800007dc:	e9612aa3          	sw	s6,-363(sp)
    800007e0:	f0300293          	li	t0,-253
    800007e4:	6df00d13          	li	s10,1759
    800007e8:	02003eb3          	mulhu	t4,zero,zero
    800007ec:	00001d97          	auipc	s11,0x1
    800007f0:	a6ed8d93          	addi	s11,s11,-1426 # 8000125a <reg_x11_output+0x2>
    800007f4:	00001817          	auipc	a6,0x1
    800007f8:	a5080813          	addi	a6,a6,-1456 # 80001244 <reg_x8_output+0x4>
    800007fc:	fff00513          	li	a0,-1
    80000800:	00219993          	slli	s3,gp,0x2
    80000804:	e3800713          	li	a4,-456
    80000808:	02e726b3          	mulhsu	a3,a4,a4
    8000080c:	00001e17          	auipc	t3,0x1
    80000810:	b76e0e13          	addi	t3,t3,-1162 # 80001382 <test_memory+0x82>
    80000814:	1f1d8123          	sb	a7,482(s11)
    80000818:	2a384a83          	lbu	s5,675(a6)
    8000081c:	d6761fa3          	sh	t2,-641(a2)
    80000820:	12004c63          	bltz	zero,80000958 <crash_forward>
    80000824:	7c100993          	li	s3,1985
    80000828:	35dd0a13          	addi	s4,s10,861
    8000082c:	01dd843b          	addw	s0,s11,t4
    80000830:	4c300713          	li	a4,1219
    80000834:	94c00813          	li	a6,-1716
    80000838:	010801b3          	add	gp,a6,a6
    8000083c:	92418813          	addi	a6,gp,-1756 # 80001834 <_end+0x124>
    80000840:	00001497          	auipc	s1,0x1
    80000844:	fbc48493          	addi	s1,s1,-68 # 800017fc <_end+0xec>
    80000848:	00000617          	auipc	a2,0x0
    8000084c:	71e60613          	addi	a2,a2,1822 # 80000f66 <test_end+0x5fa>
    80000850:	00001797          	auipc	a5,0x1
    80000854:	80378793          	addi	a5,a5,-2045 # 80001053 <fromhost+0x13>
    80000858:	01154533          	xor	a0,a0,a7
    8000085c:	00100113          	li	sp,1
    80000860:	3657b583          	ld	a1,869(a5)
    80000864:	2ece4f83          	lbu	t6,748(t3)
    80000868:	53b64183          	lbu	gp,1339(a2)
    8000086c:	e7148623          	sb	a7,-404(s1)
    80000870:	0faa4463          	blt	s4,s10,80000958 <crash_forward>
    80000874:	03aae23b          	remw	tp,s5,s10
    80000878:	03f11113          	slli	sp,sp,0x3f
    8000087c:	0ca00b13          	li	s6,202
    80000880:	0162ef33          	or	t5,t0,s6
    80000884:	02e9edbb          	remw	s11,s3,a4
    80000888:	fff00a93          	li	s5,-1
    8000088c:	002acab3          	xor	s5,s5,sp
    80000890:	008405b3          	add	a1,s0,s0
    80000894:	00a47c33          	and	s8,s0,a0
    80000898:	01527eb3          	and	t4,tp,s5
    8000089c:	00001b97          	auipc	s7,0x1
    800008a0:	b03b8b93          	addi	s7,s7,-1277 # 8000139f <test_memory+0x9f>
    800008a4:	2d5be303          	lwu	t1,725(s7)
    800008a8:	97800c93          	li	s9,-1672
    800008ac:	7d900093          	li	ra,2009
    800008b0:	023de9b3          	rem	s3,s11,gp
    800008b4:	ed6c879b          	addiw	a5,s9,-298
    800008b8:	001c83bb          	addw	t2,s9,ra
    800008bc:	e4285403          	lhu	s0,-446(a6)
    800008c0:	002ee6b3          	or	a3,t4,sp
    800008c4:	0116e933          	or	s2,a3,a7
    800008c8:	0040006f          	j	800008cc <reg_dump>

00000000800008cc <reg_dump>:
    800008cc:	00001097          	auipc	ra,0x1
    800008d0:	e3408093          	addi	ra,ra,-460 # 80001700 <loop_count>
    800008d4:	0000a103          	lw	sp,0(ra)
    800008d8:	fff10193          	addi	gp,sp,-1
    800008dc:	0030a023          	sw	gp,0(ra)
    800008e0:	8c0114e3          	bnez	sp,800001a8 <pseg_0>
    800008e4:	00001097          	auipc	ra,0x1
    800008e8:	91c08093          	addi	ra,ra,-1764 # 80001200 <begin_signature>
    800008ec:	0000b023          	sd	zero,0(ra)
    800008f0:	0020b823          	sd	sp,16(ra)
    800008f4:	0030bc23          	sd	gp,24(ra)
    800008f8:	0240b023          	sd	tp,32(ra)
    800008fc:	0250b423          	sd	t0,40(ra)
    80000900:	0260b823          	sd	t1,48(ra)
    80000904:	0270bc23          	sd	t2,56(ra)
    80000908:	0480b023          	sd	s0,64(ra)
    8000090c:	04a0b823          	sd	a0,80(ra)
    80000910:	04b0bc23          	sd	a1,88(ra)
    80000914:	06d0b423          	sd	a3,104(ra)
    80000918:	06e0b823          	sd	a4,112(ra)
    8000091c:	06f0bc23          	sd	a5,120(ra)
    80000920:	0910b423          	sd	a7,136(ra)
    80000924:	0920b823          	sd	s2,144(ra)
    80000928:	0930bc23          	sd	s3,152(ra)
    8000092c:	0b40b023          	sd	s4,160(ra)
    80000930:	0b50b423          	sd	s5,168(ra)
    80000934:	0b60b823          	sd	s6,176(ra)
    80000938:	0d80b023          	sd	s8,192(ra)
    8000093c:	0d90b423          	sd	s9,200(ra)
    80000940:	0da0b823          	sd	s10,208(ra)
    80000944:	0db0bc23          	sd	s11,216(ra)
    80000948:	0fd0b423          	sd	t4,232(ra)
    8000094c:	0fe0b823          	sd	t5,240(ra)
    80000950:	0ff0bc23          	sd	t6,248(ra)
    80000954:	0180006f          	j	8000096c <test_end>

0000000080000958 <crash_forward>:
    80000958:	0ff0000f          	fence
    8000095c:	00018063          	beqz	gp,8000095c <crash_forward+0x4>
    80000960:	00119193          	slli	gp,gp,0x1
    80000964:	0011e193          	ori	gp,gp,1
    80000968:	00000073          	ecall

000000008000096c <test_end>:
    8000096c:	0ff0000f          	fence
    80000970:	00100193          	li	gp,1
    80000974:	00000073          	ecall
    80000978:	c0001073          	unimp
    8000097c:	0000                	unimp
	...

Disassembly of section .tohost:

0000000080001000 <tohost>:
	...

0000000080001040 <fromhost>:
	...
