
test.elf:     file format elf64-littleriscv


Disassembly of section .text.init:

0000000080000000 <_start>:
    80000000:	0580006f          	j	80000058 <reset_vector>

0000000080000004 <trap_vector>:
    80000004:	34202f73          	csrr	t5,mcause
    80000008:	00800f93          	li	t6,8
    8000000c:	05ff0063          	beq	t5,t6,8000004c <write_tohost>
    80000010:	00900f93          	li	t6,9
    80000014:	03ff0c63          	beq	t5,t6,8000004c <write_tohost>
    80000018:	00b00f93          	li	t6,11
    8000001c:	03ff0863          	beq	t5,t6,8000004c <write_tohost>
    80000020:	00000f13          	li	t5,0
    80000024:	000f0463          	beqz	t5,8000002c <trap_vector+0x28>
    80000028:	000f0067          	jr	t5
    8000002c:	34202f73          	csrr	t5,mcause
    80000030:	000f5463          	bgez	t5,80000038 <handle_exception>
    80000034:	0140006f          	j	80000048 <other_exception>

0000000080000038 <handle_exception>:
    80000038:	34102e73          	csrr	t3,mepc
    8000003c:	004e0e13          	addi	t3,t3,4
    80000040:	341e1073          	csrw	mepc,t3
    80000044:	30200073          	mret

0000000080000048 <other_exception>:
    80000048:	5391e193          	ori	gp,gp,1337

000000008000004c <write_tohost>:
    8000004c:	00001f17          	auipc	t5,0x1
    80000050:	fa3f2a23          	sw	gp,-76(t5) # 80001000 <tohost>
    80000054:	ff9ff06f          	j	8000004c <write_tohost>

0000000080000058 <reset_vector>:
    80000058:	f1402573          	csrr	a0,mhartid
    8000005c:	00051063          	bnez	a0,8000005c <reset_vector+0x4>
    80000060:	00000297          	auipc	t0,0x0
    80000064:	01028293          	addi	t0,t0,16 # 80000070 <reset_vector+0x18>
    80000068:	30529073          	csrw	mtvec,t0
    8000006c:	18005073          	csrwi	satp,0
    80000070:	00000297          	auipc	t0,0x0
    80000074:	01c28293          	addi	t0,t0,28 # 8000008c <reset_vector+0x34>
    80000078:	30529073          	csrw	mtvec,t0
    8000007c:	fff00293          	li	t0,-1
    80000080:	3b029073          	csrw	pmpaddr0,t0
    80000084:	01f00293          	li	t0,31
    80000088:	3a029073          	csrw	pmpcfg0,t0
    8000008c:	00000297          	auipc	t0,0x0
    80000090:	01828293          	addi	t0,t0,24 # 800000a4 <reset_vector+0x4c>
    80000094:	30529073          	csrw	mtvec,t0
    80000098:	30205073          	csrwi	medeleg,0
    8000009c:	30305073          	csrwi	mideleg,0
    800000a0:	30405073          	csrwi	mie,0
    800000a4:	00000193          	li	gp,0
    800000a8:	00000297          	auipc	t0,0x0
    800000ac:	f5c28293          	addi	t0,t0,-164 # 80000004 <trap_vector>
    800000b0:	30529073          	csrw	mtvec,t0
    800000b4:	00100513          	li	a0,1
    800000b8:	01f51513          	slli	a0,a0,0x1f
    800000bc:	00055863          	bgez	a0,800000cc <reset_vector+0x74>
    800000c0:	0ff0000f          	fence
    800000c4:	00100193          	li	gp,1
    800000c8:	00000073          	ecall
    800000cc:	00000293          	li	t0,0
    800000d0:	00028e63          	beqz	t0,800000ec <reset_vector+0x94>
    800000d4:	10529073          	csrw	stvec,t0
    800000d8:	0000b2b7          	lui	t0,0xb
    800000dc:	1092829b          	addiw	t0,t0,265
    800000e0:	30229073          	csrw	medeleg,t0
    800000e4:	30202373          	csrr	t1,medeleg
    800000e8:	f66290e3          	bne	t0,t1,80000048 <other_exception>
    800000ec:	30005073          	csrwi	mstatus,0
    800000f0:	00000297          	auipc	t0,0x0
    800000f4:	01428293          	addi	t0,t0,20 # 80000104 <reset_vector+0xac>
    800000f8:	34129073          	csrw	mepc,t0
    800000fc:	f1402573          	csrr	a0,mhartid
    80000100:	30200073          	mret
    80000104:	0180006f          	j	8000011c <test_start>

0000000080000108 <crash_backward>:
    80000108:	0ff0000f          	fence
    8000010c:	00018063          	beqz	gp,8000010c <crash_backward+0x4>
    80000110:	00119193          	slli	gp,gp,0x1
    80000114:	0011e193          	ori	gp,gp,1
    80000118:	00000073          	ecall

000000008000011c <test_start>:
    8000011c:	00001f97          	auipc	t6,0x1
    80000120:	fe4f8f93          	addi	t6,t6,-28 # 80001100 <hidden_data>
    80000124:	000fb003          	ld	zero,0(t6)
    80000128:	008fb083          	ld	ra,8(t6)
    8000012c:	010fb103          	ld	sp,16(t6)
    80000130:	018fb183          	ld	gp,24(t6)
    80000134:	020fb203          	ld	tp,32(t6)
    80000138:	028fb283          	ld	t0,40(t6)
    8000013c:	030fb303          	ld	t1,48(t6)
    80000140:	038fb383          	ld	t2,56(t6)
    80000144:	040fb403          	ld	s0,64(t6)
    80000148:	048fb483          	ld	s1,72(t6)
    8000014c:	050fb503          	ld	a0,80(t6)
    80000150:	058fb583          	ld	a1,88(t6)
    80000154:	060fb603          	ld	a2,96(t6)
    80000158:	068fb683          	ld	a3,104(t6)
    8000015c:	070fb703          	ld	a4,112(t6)
    80000160:	078fb783          	ld	a5,120(t6)
    80000164:	080fb803          	ld	a6,128(t6)
    80000168:	088fb883          	ld	a7,136(t6)
    8000016c:	090fb903          	ld	s2,144(t6)
    80000170:	098fb983          	ld	s3,152(t6)
    80000174:	0a0fba03          	ld	s4,160(t6)
    80000178:	0a8fba83          	ld	s5,168(t6)
    8000017c:	0b0fbb03          	ld	s6,176(t6)
    80000180:	0b8fbb83          	ld	s7,184(t6)
    80000184:	0c0fbc03          	ld	s8,192(t6)
    80000188:	0c8fbc83          	ld	s9,200(t6)
    8000018c:	0d0fbd03          	ld	s10,208(t6)
    80000190:	0d8fbd83          	ld	s11,216(t6)
    80000194:	0e0fbe03          	ld	t3,224(t6)
    80000198:	0e8fbe83          	ld	t4,232(t6)
    8000019c:	0f0fbf03          	ld	t5,240(t6)
    800001a0:	0f8fbf83          	ld	t6,248(t6)
    800001a4:	0040006f          	j	800001a8 <pseg_0>

00000000800001a8 <pseg_0>:
    800001a8:	b1e00c93          	li	s9,-1250
    800001ac:	00090e93          	mv	t4,s2
    800001b0:	03fa53bb          	divuw	t2,s4,t6
    800001b4:	029c41bb          	divw	gp,s8,s1
    800001b8:	77f00b13          	li	s6,1919
    800001bc:	00001717          	auipc	a4,0x1
    800001c0:	0b170713          	addi	a4,a4,177 # 8000126d <reg_x13_output+0x5>
    800001c4:	00001097          	auipc	ra,0x1
    800001c8:	61a08093          	addi	ra,ra,1562 # 800017de <_end+0xce>
    800001cc:	7dd00493          	li	s1,2013
    800001d0:	3af72803          	lw	a6,943(a4)
    800001d4:	d19c8d13          	addi	s10,s9,-743
    800001d8:	000e8413          	mv	s0,t4
    800001dc:	03ef4bb3          	div	s7,t5,t5
    800001e0:	2d200a93          	li	s5,722
    800001e4:	00001d97          	auipc	s11,0x1
    800001e8:	d00d8d93          	addi	s11,s11,-768 # 80000ee4 <test_end+0x578>
    800001ec:	779d5663          	bge	s10,s9,80000958 <crash_forward>
    800001f0:	6d8de203          	lwu	tp,1752(s11)
    800001f4:	416b52b3          	sra	t0,s6,s6
    800001f8:	a9300993          	li	s3,-1389
    800001fc:	0354c33b          	divw	t1,s1,s5
    80000200:	02d6df33          	divu	t5,a3,a3
    80000204:	54700793          	li	a5,1351
    80000208:	f08e90e3          	bne	t4,s0,80000108 <crash_backward>
    8000020c:	40f986b3          	sub	a3,s3,a5
    80000210:	ac300913          	li	s2,-1341
    80000214:	03297fb3          	remu	t6,s2,s2
    80000218:	00001617          	auipc	a2,0x1
    8000021c:	c9f60613          	addi	a2,a2,-865 # 80000eb7 <test_end+0x54b>
    80000220:	4aa00a13          	li	s4,1194
    80000224:	0329453b          	divw	a0,s2,s2
    80000228:	a8300893          	li	a7,-1405
    8000022c:	cd809583          	lh	a1,-808(ra)
    80000230:	5e761c03          	lh	s8,1511(a2)
    80000234:	031a5133          	divu	sp,s4,a7
    80000238:	03c0e93b          	remw	s2,ra,t3
    8000023c:	96118b13          	addi	s6,gp,-1695 # 80001871 <_end+0x161>
    80000240:	00001f17          	auipc	t5,0x1
    80000244:	2e2f0f13          	addi	t5,t5,738 # 80001522 <test_memory+0x222>
    80000248:	0139e1b3          	or	gp,s3,s3
    8000024c:	00fe121b          	slliw	tp,t3,0xf
    80000250:	e6200293          	li	t0,-414
    80000254:	00001a17          	auipc	s4,0x1
    80000258:	28ea0a13          	addi	s4,s4,654 # 800014e2 <test_memory+0x1e2>
    8000025c:	02e6553b          	divuw	a0,a2,a4
    80000260:	0094dc33          	srl	s8,s1,s1
    80000264:	dadb1883          	lh	a7,-595(s6)
    80000268:	c79c0d1b          	addiw	s10,s8,-903
    8000026c:	fe9f0823          	sb	s1,-16(t5)
    80000270:	a1e00513          	li	a0,-1506
    80000274:	41845e3b          	sraw	t3,s0,s8
    80000278:	9ec00493          	li	s1,-1556
    8000027c:	bca18113          	addi	sp,gp,-1078 # 80001ada <_end+0x3ca>
    80000280:	79c00b13          	li	s6,1948
    80000284:	8b700893          	li	a7,-1865
    80000288:	74000213          	li	tp,1856
    8000028c:	01154c33          	xor	s8,a0,a7
    80000290:	154a4e83          	lbu	t4,340(s4)
    80000294:	b4910da3          	sb	s1,-1189(sp)
    80000298:	42735e13          	srai	t3,t1,0x27
    8000029c:	02633cb3          	mulhu	s9,t1,t1
    800002a0:	0294c83b          	divw	a6,s1,s1
    800002a4:	b8a18613          	addi	a2,gp,-1142 # 80001a9a <_end+0x38a>
    800002a8:	00001317          	auipc	t1,0x1
    800002ac:	adf30313          	addi	t1,t1,-1313 # 80000d87 <test_end+0x41b>
    800002b0:	fa000693          	li	a3,-96
    800002b4:	68600a13          	li	s4,1670
    800002b8:	405289b3          	sub	s3,t0,t0
    800002bc:	00001597          	auipc	a1,0x1
    800002c0:	0a158593          	addi	a1,a1,161 # 8000135d <test_memory+0x5d>
    800002c4:	5cd20193          	addi	gp,tp,1485 # 5cd <_start-0x7ffffa33>
    800002c8:	9ea00893          	li	a7,-1558
    800002cc:	00679c9b          	slliw	s9,a5,0x6
    800002d0:	3a700c13          	li	s8,935
    800002d4:	f9500913          	li	s2,-107
    800002d8:	032b6d3b          	remw	s10,s6,s2
    800002dc:	0139cf33          	xor	t5,s3,s3
    800002e0:	9a500393          	li	t2,-1627
    800002e4:	000b8993          	mv	s3,s7
    800002e8:	a1f18913          	addi	s2,gp,-1505 # 8000192f <_end+0x21f>
    800002ec:	018a013b          	addw	sp,s4,s8
    800002f0:	e0327ce3          	bgeu	tp,gp,80000108 <crash_backward>
    800002f4:	00098293          	mv	t0,s3
    800002f8:	0076cfb3          	xor	t6,a3,t2
    800002fc:	00001b97          	auipc	s7,0x1
    80000300:	ac2b8b93          	addi	s7,s7,-1342 # 80000dbe <test_end+0x452>
    80000304:	a3b95b03          	lhu	s6,-1477(s2)
    80000308:	7b2be783          	lwu	a5,1970(s7)
    8000030c:	82d00e93          	li	t4,-2003
    80000310:	af000e13          	li	t3,-1296
    80000314:	38959ba3          	sh	s1,919(a1)
    80000318:	03ce5833          	divu	a6,t3,t3
    8000031c:	09200c93          	li	s9,146
    80000320:	03d8853b          	mulw	a0,a7,t4
    80000324:	c2400f13          	li	t5,-988
    80000328:	c5a65d83          	lhu	s11,-934(a2)
    8000032c:	5bf30703          	lb	a4,1471(t1)
    80000330:	01eccd33          	xor	s10,s9,t5
    80000334:	007414bb          	sllw	s1,s0,t2
    80000338:	8cd00f93          	li	t6,-1843
    8000033c:	c2d00813          	li	a6,-979
    80000340:	72200613          	li	a2,1826
    80000344:	00001e17          	auipc	t3,0x1
    80000348:	ee0e0e13          	addi	t3,t3,-288 # 80001224 <reg_x4_output+0x4>
    8000034c:	000de2b3          	or	t0,s11,zero
    80000350:	00001b97          	auipc	s7,0x1
    80000354:	c44b8b93          	addi	s7,s7,-956 # 80000f94 <test_end+0x628>
    80000358:	00001b17          	auipc	s6,0x1
    8000035c:	323b0b13          	addi	s6,s6,803 # 8000167b <test_memory+0x37b>
    80000360:	034a613b          	remw	sp,s4,s4
    80000364:	00c65933          	srl	s2,a2,a2
    80000368:	e95b2f03          	lw	t5,-363(s6)
    8000036c:	00001217          	auipc	tp,0x1
    80000370:	9c320213          	addi	tp,tp,-1597 # 80000d2f <test_end+0x3c3>
    80000374:	ab300793          	li	a5,-1357
    80000378:	bf400d13          	li	s10,-1036
    8000037c:	3cabc383          	lbu	t2,970(s7)
    80000380:	e9700593          	li	a1,-361
    80000384:	03a78ab3          	mul	s5,a5,s10
    80000388:	00000c93          	li	s9,0
    8000038c:	03082433          	mulhsu	s0,a6,a6
    80000390:	87300693          	li	a3,-1933
    80000394:	f3900313          	li	t1,-199
    80000398:	00000c13          	li	s8,0
    8000039c:	00001e97          	auipc	t4,0x1
    800003a0:	e17e8e93          	addi	t4,t4,-489 # 800011b3 <reg_x22_init+0x3>
    800003a4:	0066a733          	slt	a4,a3,t1
    800003a8:	63125983          	lhu	s3,1585(tp) # 631 <_start-0x7ffff9cf>
    800003ac:	02bfd8bb          	divuw	a7,t6,a1
    800003b0:	01247233          	and	tp,s0,s2
    800003b4:	3edecd83          	lbu	s11,1005(t4)
    800003b8:	f0700093          	li	ra,-249
    800003bc:	0210d1bb          	divuw	gp,ra,ra
    800003c0:	fe500b93          	li	s7,-27
    800003c4:	c5018793          	addi	a5,gp,-944 # 80001b60 <_end+0x450>
    800003c8:	c2018b13          	addi	s6,gp,-992 # 80001b30 <_end+0x420>
    800003cc:	1cf00493          	li	s1,463
    800003d0:	aa27a823          	sw	sp,-1360(a5)
    800003d4:	b8518713          	addi	a4,gp,-1147 # 80001a95 <_end+0x385>
    800003d8:	028ac5b3          	div	a1,s5,s0
    800003dc:	02426433          	rem	s0,tp,tp
    800003e0:	0020a833          	slt	a6,ra,sp
    800003e4:	16a2ef13          	ori	t5,t0,362
    800003e8:	97175303          	lhu	t1,-1679(a4)
    800003ec:	029e73b3          	remu	t2,t3,s1
    800003f0:	00001617          	auipc	a2,0x1
    800003f4:	efb60613          	addi	a2,a2,-261 # 800012eb <reg_x29_output+0x3>
    800003f8:	a98b2e23          	sw	s8,-1380(s6)
    800003fc:	3e962aa3          	sw	s1,1013(a2)
    80000400:	7fd00f93          	li	t6,2045
    80000404:	41f48abb          	subw	s5,s1,t6
    80000408:	9ea00293          	li	t0,-1558
    8000040c:	405bd133          	sra	sp,s7,t0
    80000410:	48ce6a03          	lwu	s4,1164(t3)
    80000414:	00050713          	mv	a4,a0
    80000418:	00100813          	li	a6,1
    8000041c:	00000893          	li	a7,0
    80000420:	00000193          	li	gp,0
    80000424:	14e0fc13          	andi	s8,ra,334
    80000428:	43200d93          	li	s11,1074
    8000042c:	03e0f5bb          	remuw	a1,ra,t5
    80000430:	0284463b          	divw	a2,s0,s0
    80000434:	00003eb3          	snez	t4,zero
    80000438:	43600413          	li	s0,1078
    8000043c:	0a7d8113          	addi	sp,s11,167
    80000440:	b9c00c93          	li	s9,-1124
    80000444:	00100793          	li	a5,1
    80000448:	4cd00d13          	li	s10,1229
    8000044c:	03f81813          	slli	a6,a6,0x3f
    80000450:	3e940e13          	addi	t3,s0,1001
    80000454:	03f79793          	slli	a5,a5,0x3f
    80000458:	508e6063          	bltu	t3,s0,80000958 <crash_forward>
    8000045c:	00070213          	mv	tp,a4
    80000460:	00070913          	mv	s2,a4
    80000464:	000f8313          	mv	t1,t6
    80000468:	00090a93          	mv	s5,s2
    8000046c:	419cd6b3          	sra	a3,s9,s9
    80000470:	4d500393          	li	t2,1237
    80000474:	41ad52bb          	sraw	t0,s10,s10
    80000478:	00030993          	mv	s3,t1
    8000047c:	00001897          	auipc	a7,0x1
    80000480:	eb788893          	addi	a7,a7,-329 # 80001333 <test_memory+0x33>
    80000484:	bbf18293          	addi	t0,gp,-1089 # 80001acf <_end+0x3bf>
    80000488:	fff00b93          	li	s7,-1
    8000048c:	fff00f93          	li	t6,-1
    80000490:	00001e17          	auipc	t3,0x1
    80000494:	924e0e13          	addi	t3,t3,-1756 # 80000db4 <test_end+0x448>
    80000498:	0184d69b          	srliw	a3,s1,0x18
    8000049c:	00ffcfb3          	xor	t6,t6,a5
    800004a0:	98f2dd83          	lhu	s11,-1649(t0)
    800004a4:	01bded33          	or	s10,s11,s11
    800004a8:	010bcbb3          	xor	s7,s7,a6
    800004ac:	00100593          	li	a1,1
    800004b0:	5f3e3623          	sd	s3,1516(t3)
    800004b4:	0272e0bb          	remw	ra,t0,t2
    800004b8:	4073d4b3          	sra	s1,t2,t2
    800004bc:	03f59593          	slli	a1,a1,0x3f
    800004c0:	0094863b          	addw	a2,s1,s1
    800004c4:	b7100e13          	li	t3,-1167
    800004c8:	00100313          	li	t1,1
    800004cc:	8f600993          	li	s3,-1802
    800004d0:	51c00713          	li	a4,1308
    800004d4:	017cf533          	and	a0,s9,s7
    800004d8:	03ce42bb          	divw	t0,t3,t3
    800004dc:	8a000493          	li	s1,-1888
    800004e0:	f0198693          	addi	a3,s3,-255
    800004e4:	00000393          	li	t2,0
    800004e8:	02e72cb3          	mulhsu	s9,a4,a4
    800004ec:	fff00113          	li	sp,-1
    800004f0:	00b14133          	xor	sp,sp,a1
    800004f4:	00000093          	li	ra,0
    800004f8:	0023f433          	and	s0,t2,sp
    800004fc:	00004233          	xor	tp,zero,zero
    80000500:	02948c3b          	mulw	s8,s1,s1
    80000504:	03f31313          	slli	t1,t1,0x3f
    80000508:	00b461b3          	or	gp,s0,a1
    8000050c:	01f77b33          	and	s6,a4,t6
    80000510:	010bef33          	or	t5,s7,a6
    80000514:	00f46a33          	or	s4,s0,a5
    80000518:	4413c063          	blt	t2,ra,80000958 <crash_forward>
    8000051c:	1f58be83          	ld	t4,501(a7)
    80000520:	72300493          	li	s1,1827
    80000524:	00001a97          	auipc	s5,0x1
    80000528:	abfa8a93          	addi	s5,s5,-1345 # 80000fe3 <test_end+0x677>
    8000052c:	fff00d13          	li	s10,-1
    80000530:	e5f00c93          	li	s9,-417
    80000534:	42a00b93          	li	s7,1066
    80000538:	006d4d33          	xor	s10,s10,t1
    8000053c:	bd4b76e3          	bgeu	s6,s4,80000108 <crash_backward>
    80000540:	00000217          	auipc	tp,0x0
    80000544:	72220213          	addi	tp,tp,1826 # 80000c62 <test_end+0x2f6>
    80000548:	00001897          	auipc	a7,0x1
    8000054c:	a6888893          	addi	a7,a7,-1432 # 80000fb0 <test_end+0x644>
    80000550:	24000e93          	li	t4,576
    80000554:	3b1ac703          	lbu	a4,945(s5)
    80000558:	0194ae33          	slt	t3,s1,s9
    8000055c:	3e340e63          	beq	s0,gp,80000958 <crash_forward>
    80000560:	00001417          	auipc	s0,0x1
    80000564:	c6c40413          	addi	s0,s0,-916 # 800011cc <reg_x25_init+0x4>
    80000568:	3f36f863          	bgeu	a3,s3,80000958 <crash_forward>
    8000056c:	03bd3733          	mulhu	a4,s10,s11
    80000570:	40c6053b          	subw	a0,a2,a2
    80000574:	0104c5b3          	xor	a1,s1,a6
    80000578:	00001297          	auipc	t0,0x1
    8000057c:	ef028293          	addi	t0,t0,-272 # 80001468 <test_memory+0x168>
    80000580:	34d00a93          	li	s5,845
    80000584:	01acfdb3          	and	s11,s9,s10
    80000588:	00001f97          	auipc	t6,0x1
    8000058c:	f72f8f93          	addi	t6,t6,-142 # 800014fa <test_memory+0x1fa>
    80000590:	01dbdc33          	srl	s8,s7,t4
    80000594:	09700593          	li	a1,151
    80000598:	00001817          	auipc	a6,0x1
    8000059c:	04080813          	addi	a6,a6,64 # 800015d8 <test_memory+0x2d8>
    800005a0:	8f3a2b13          	slti	s6,s4,-1805
    800005a4:	1f046a03          	lwu	s4,496(s0)
    800005a8:	22e00493          	li	s1,558
    800005ac:	09c48c93          	addi	s9,s1,156
    800005b0:	00001097          	auipc	ra,0x1
    800005b4:	05908093          	addi	ra,ra,89 # 80001609 <test_memory+0x309>
    800005b8:	abb18c13          	addi	s8,gp,-1349 # 800019cb <_end+0x2bb>
    800005bc:	178a8193          	addi	gp,s5,376
    800005c0:	da481383          	lh	t2,-604(a6)
    800005c4:	92f18793          	addi	a5,gp,-1745 # 8000183f <_end+0x12f>
    800005c8:	b4dc28a3          	sw	a3,-1199(s8)
    800005cc:	6ae8b823          	sd	a4,1712(a7)
    800005d0:	02b5ca33          	div	s4,a1,a1
    800005d4:	b417be03          	ld	t3,-1215(a5)
    800005d8:	b23ad8e3          	bge	s5,gp,80000108 <crash_backward>
    800005dc:	6a921c23          	sh	s1,1720(tp) # 6b8 <_start-0x7ffff948>
    800005e0:	d730b7a3          	sd	s3,-657(ra)
    800005e4:	10afd703          	lhu	a4,266(t6)
    800005e8:	006de633          	or	a2,s11,t1
    800005ec:	026183b3          	mul	t2,gp,t1
    800005f0:	00000117          	auipc	sp,0x0
    800005f4:	79910113          	addi	sp,sp,1945 # 80000d89 <test_end+0x41d>
    800005f8:	00c66a33          	or	s4,a2,a2
    800005fc:	40000193          	li	gp,1024
    80000600:	d1800713          	li	a4,-744
    80000604:	a2e00b13          	li	s6,-1490
    80000608:	036b2433          	mulhsu	s0,s6,s6
    8000060c:	d0c00393          	li	t2,-756
    80000610:	403180b3          	sub	ra,gp,gp
    80000614:	2162d903          	lhu	s2,534(t0)
    80000618:	93218b93          	addi	s7,gp,-1742 # 80001842 <_end+0x132>
    8000061c:	03a3b6b3          	mulhu	a3,t2,s10
    80000620:	02b5e533          	rem	a0,a1,a1
    80000624:	5c715f03          	lhu	t5,1479(sp)
    80000628:	00005833          	srl	a6,zero,zero
    8000062c:	56e00893          	li	a7,1390
    80000630:	02774fb3          	div	t6,a4,t2
    80000634:	1b540c37          	lui	s8,0x1b540
    80000638:	0278e9bb          	remw	s3,a7,t2
    8000063c:	414a0ebb          	subw	t4,s4,s4
    80000640:	00001417          	auipc	s0,0x1
    80000644:	f8040413          	addi	s0,s0,-128 # 800015c0 <test_memory+0x2c0>
    80000648:	00001c17          	auipc	s8,0x1
    8000064c:	e11c0c13          	addi	s8,s8,-495 # 80001459 <test_memory+0x159>
    80000650:	00001917          	auipc	s2,0x1
    80000654:	b2c90913          	addi	s2,s2,-1236 # 8000117c <reg_x15_init+0x4>
    80000658:	01a91a33          	sll	s4,s2,s10
    8000065c:	1c0c4583          	lbu	a1,448(s8)
    80000660:	22c92383          	lw	t2,556(s2)
    80000664:	fb043483          	ld	s1,-80(s0)
    80000668:	03c330b3          	mulhu	ra,t1,t3
    8000066c:	55300f93          	li	t6,1363
    80000670:	2ecdf463          	bgeu	s11,a2,80000958 <crash_forward>
    80000674:	03ea1113          	slli	sp,s4,0x3e
    80000678:	dc9b80a3          	sb	s1,-575(s7)
    8000067c:	00001197          	auipc	gp,0x1
    80000680:	c7618193          	addi	gp,gp,-906 # 800012f2 <reg_x30_output+0x2>
    80000684:	41188e3b          	subw	t3,a7,a7
    80000688:	a6018993          	addi	s3,gp,-1440 # 80001970 <_end+0x260>
    8000068c:	36c18f03          	lb	t5,876(gp) # 8000227c <__global_pointer$+0x36c>
    80000690:	2a3f8293          	addi	t0,t6,675
    80000694:	0fe00e93          	li	t4,254
    80000698:	00100113          	li	sp,1
    8000069c:	00001617          	auipc	a2,0x1
    800006a0:	9fa60613          	addi	a2,a2,-1542 # 80001096 <fromhost+0x56>
    800006a4:	00001197          	auipc	gp,0x1
    800006a8:	baa18193          	addi	gp,gp,-1110 # 8000124e <reg_x9_output+0x6>
    800006ac:	01f902bb          	addw	t0,s2,t6
    800006b0:	d4600813          	li	a6,-698
    800006b4:	037dab33          	mulhsu	s6,s11,s7
    800006b8:	9f59b423          	sd	s5,-1560(s3)
    800006bc:	21a1b483          	ld	s1,538(gp) # 8000212a <__global_pointer$+0x21a>
    800006c0:	6a000a93          	li	s5,1696
    800006c4:	bc118093          	addi	ra,gp,-1087 # 80001ad1 <_end+0x3c1>
    800006c8:	29300f13          	li	t5,659
    800006cc:	80c00a13          	li	s4,-2036
    800006d0:	9b600513          	li	a0,-1610
    800006d4:	62600e13          	li	t3,1574
    800006d8:	c0000d13          	li	s10,-1024
    800006dc:	c070b383          	ld	t2,-1017(ra)
    800006e0:	01ce6db3          	or	s11,t3,t3
    800006e4:	00000417          	auipc	s0,0x0
    800006e8:	54340413          	addi	s0,s0,1347 # 80000c27 <test_end+0x2bb>
    800006ec:	a9900713          	li	a4,-1383
    800006f0:	00100b13          	li	s6,1
    800006f4:	03fb1b13          	slli	s6,s6,0x3f
    800006f8:	03082cb3          	mulhsu	s9,a6,a6
    800006fc:	03deefbb          	remw	t6,t4,t4
    80000700:	01ef133b          	sllw	t1,t5,t5
    80000704:	4d8a8213          	addi	tp,s5,1240
    80000708:	036b77b3          	remu	a5,s6,s6
    8000070c:	03f11113          	slli	sp,sp,0x3f
    80000710:	03aa35b3          	mulhu	a1,s4,s10
    80000714:	fff00193          	li	gp,-1
    80000718:	25399063          	bne	s3,s3,80000958 <crash_forward>
    8000071c:	fff00c13          	li	s8,-1
    80000720:	002c4c33          	xor	s8,s8,sp
    80000724:	75440323          	sb	s4,1862(s0)
    80000728:	e81d8493          	addi	s1,s11,-383
    8000072c:	018cf8b3          	and	a7,s9,s8
    80000730:	0161c1b3          	xor	gp,gp,s6
    80000734:	3b263b83          	ld	s7,946(a2)
    80000738:	003872b3          	and	t0,a6,gp
    8000073c:	016b69b3          	or	s3,s6,s6
    80000740:	0028e933          	or	s2,a7,sp
    80000744:	00e506bb          	addw	a3,a0,a4
    80000748:	21ad4863          	blt	s10,s10,80000958 <crash_forward>
    8000074c:	caa00793          	li	a5,-854
    80000750:	00001a97          	auipc	s5,0x1
    80000754:	a7da8a93          	addi	s5,s5,-1411 # 800011cd <reg_x25_init+0x5>
    80000758:	9b1958e3          	bge	s2,a7,80000108 <crash_backward>
    8000075c:	0dd00813          	li	a6,221
    80000760:	00000f97          	auipc	t6,0x0
    80000764:	7c7f8f93          	addi	t6,t6,1991 # 80000f27 <test_end+0x5bb>
    80000768:	2d380f13          	addi	t5,a6,723
    8000076c:	00001497          	auipc	s1,0x1
    80000770:	82648493          	addi	s1,s1,-2010 # 80000f92 <test_end+0x626>
    80000774:	00000617          	auipc	a2,0x0
    80000778:	4f260613          	addi	a2,a2,1266 # 80000c66 <test_end+0x2fa>
    8000077c:	00001317          	auipc	t1,0x1
    80000780:	07330313          	addi	t1,t1,115 # 800017ef <_end+0xdf>
    80000784:	00001e17          	auipc	t3,0x1
    80000788:	b8de0e13          	addi	t3,t3,-1139 # 80001311 <test_memory+0x11>
    8000078c:	74762f23          	sw	t2,1886(a2)
    80000790:	02f78a33          	mul	s4,a5,a5
    80000794:	1edac583          	lbu	a1,493(s5)
    80000798:	8ee00093          	li	ra,-1810
    8000079c:	9732f6e3          	bgeu	t0,s3,80000108 <crash_backward>
    800007a0:	0d900e93          	li	t4,217
    800007a4:	38fe2c83          	lw	s9,911(t3)
    800007a8:	4da4b723          	sd	s10,1230(s1)
    800007ac:	40c2073b          	subw	a4,tp,a2
    800007b0:	539fab83          	lw	s7,1337(t6)
    800007b4:	fe600413          	li	s0,-26
    800007b8:	00100893          	li	a7,1
    800007bc:	03f89893          	slli	a7,a7,0x3f
    800007c0:	e3735203          	lhu	tp,-457(t1)
    800007c4:	66e00393          	li	t2,1646
    800007c8:	00709dbb          	sllw	s11,ra,t2
    800007cc:	028e9d33          	mulh	s10,t4,s0
    800007d0:	a4718613          	addi	a2,gp,-1465 # 80001957 <_end+0x247>
    800007d4:	00001117          	auipc	sp,0x1
    800007d8:	f6f10113          	addi	sp,sp,-145 # 80001743 <_end+0x33>
    800007dc:	e9612aa3          	sw	s6,-363(sp)
    800007e0:	f0300293          	li	t0,-253
    800007e4:	6df00d13          	li	s10,1759
    800007e8:	02003eb3          	mulhu	t4,zero,zero
    800007ec:	00001d97          	auipc	s11,0x1
    800007f0:	a6ed8d93          	addi	s11,s11,-1426 # 8000125a <reg_x11_output+0x2>
    800007f4:	00001817          	auipc	a6,0x1
    800007f8:	a5080813          	addi	a6,a6,-1456 # 80001244 <reg_x8_output+0x4>
    800007fc:	fff00513          	li	a0,-1
    80000800:	00219993          	slli	s3,gp,0x2
    80000804:	e3800713          	li	a4,-456
    80000808:	02e726b3          	mulhsu	a3,a4,a4
    8000080c:	00001e17          	auipc	t3,0x1
    80000810:	b76e0e13          	addi	t3,t3,-1162 # 80001382 <test_memory+0x82>
    80000814:	1f1d8123          	sb	a7,482(s11)
    80000818:	2a384a83          	lbu	s5,675(a6)
    8000081c:	d6761fa3          	sh	t2,-641(a2)
    80000820:	12004c63          	bltz	zero,80000958 <crash_forward>
    80000824:	7c100993          	li	s3,1985
    80000828:	35dd0a13          	addi	s4,s10,861
    8000082c:	01dd843b          	addw	s0,s11,t4
    80000830:	4c300713          	li	a4,1219
    80000834:	94c00813          	li	a6,-1716
    80000838:	010801b3          	add	gp,a6,a6
    8000083c:	92418813          	addi	a6,gp,-1756 # 80001834 <_end+0x124>
    80000840:	00001497          	auipc	s1,0x1
    80000844:	fbc48493          	addi	s1,s1,-68 # 800017fc <_end+0xec>
    80000848:	00000617          	auipc	a2,0x0
    8000084c:	71e60613          	addi	a2,a2,1822 # 80000f66 <test_end+0x5fa>
    80000850:	00001797          	auipc	a5,0x1
    80000854:	80378793          	addi	a5,a5,-2045 # 80001053 <fromhost+0x13>
    80000858:	01154533          	xor	a0,a0,a7
    8000085c:	00100113          	li	sp,1
    80000860:	3657b583          	ld	a1,869(a5)
    80000864:	2ece4f83          	lbu	t6,748(t3)
    80000868:	53b64183          	lbu	gp,1339(a2)
    8000086c:	e7148623          	sb	a7,-404(s1)
    80000870:	0faa4463          	blt	s4,s10,80000958 <crash_forward>
    80000874:	03aae23b          	remw	tp,s5,s10
    80000878:	03f11113          	slli	sp,sp,0x3f
    8000087c:	0ca00b13          	li	s6,202
    80000880:	0162ef33          	or	t5,t0,s6
    80000884:	02e9edbb          	remw	s11,s3,a4
    80000888:	fff00a93          	li	s5,-1
    8000088c:	002acab3          	xor	s5,s5,sp
    80000890:	008405b3          	add	a1,s0,s0
    80000894:	00a47c33          	and	s8,s0,a0
    80000898:	01527eb3          	and	t4,tp,s5
    8000089c:	00001b97          	auipc	s7,0x1
    800008a0:	b03b8b93          	addi	s7,s7,-1277 # 8000139f <test_memory+0x9f>
    800008a4:	2d5be303          	lwu	t1,725(s7)
    800008a8:	97800c93          	li	s9,-1672
    800008ac:	7d900093          	li	ra,2009
    800008b0:	023de9b3          	rem	s3,s11,gp
    800008b4:	ed6c879b          	addiw	a5,s9,-298
    800008b8:	001c83bb          	addw	t2,s9,ra
    800008bc:	e4285403          	lhu	s0,-446(a6)
    800008c0:	002ee6b3          	or	a3,t4,sp
    800008c4:	0116e933          	or	s2,a3,a7
    800008c8:	0040006f          	j	800008cc <reg_dump>

00000000800008cc <reg_dump>:
    800008cc:	00001097          	auipc	ra,0x1
    800008d0:	e3408093          	addi	ra,ra,-460 # 80001700 <loop_count>
    800008d4:	0000a103          	lw	sp,0(ra)
    800008d8:	fff10193          	addi	gp,sp,-1
    800008dc:	0030a023          	sw	gp,0(ra)
    800008e0:	8c0114e3          	bnez	sp,800001a8 <pseg_0>
    800008e4:	00001097          	auipc	ra,0x1
    800008e8:	91c08093          	addi	ra,ra,-1764 # 80001200 <begin_signature>
    800008ec:	0000b023          	sd	zero,0(ra)
    800008f0:	0020b823          	sd	sp,16(ra)
    800008f4:	0030bc23          	sd	gp,24(ra)
    800008f8:	0240b023          	sd	tp,32(ra)
    800008fc:	0250b423          	sd	t0,40(ra)
    80000900:	0260b823          	sd	t1,48(ra)
    80000904:	0270bc23          	sd	t2,56(ra)
    80000908:	0480b023          	sd	s0,64(ra)
    8000090c:	04a0b823          	sd	a0,80(ra)
    80000910:	04b0bc23          	sd	a1,88(ra)
    80000914:	06d0b423          	sd	a3,104(ra)
    80000918:	06e0b823          	sd	a4,112(ra)
    8000091c:	06f0bc23          	sd	a5,120(ra)
    80000920:	0910b423          	sd	a7,136(ra)
    80000924:	0920b823          	sd	s2,144(ra)
    80000928:	0930bc23          	sd	s3,152(ra)
    8000092c:	0b40b023          	sd	s4,160(ra)
    80000930:	0b50b423          	sd	s5,168(ra)
    80000934:	0b60b823          	sd	s6,176(ra)
    80000938:	0d80b023          	sd	s8,192(ra)
    8000093c:	0d90b423          	sd	s9,200(ra)
    80000940:	0da0b823          	sd	s10,208(ra)
    80000944:	0db0bc23          	sd	s11,216(ra)
    80000948:	0fd0b423          	sd	t4,232(ra)
    8000094c:	0fe0b823          	sd	t5,240(ra)
    80000950:	0ff0bc23          	sd	t6,248(ra)
    80000954:	0180006f          	j	8000096c <test_end>

0000000080000958 <crash_forward>:
    80000958:	0ff0000f          	fence
    8000095c:	00018063          	beqz	gp,8000095c <crash_forward+0x4>
    80000960:	00119193          	slli	gp,gp,0x1
    80000964:	0011e193          	ori	gp,gp,1
    80000968:	00000073          	ecall

000000008000096c <test_end>:
    8000096c:	0ff0000f          	fence
    80000970:	00100193          	li	gp,1
    80000974:	00000073          	ecall
    80000978:	c0001073          	unimp
    8000097c:	0000                	unimp
	...

Disassembly of section .tohost:

0000000080001000 <tohost>:
	...

0000000080001040 <fromhost>:
	...

Disassembly of section .data:

0000000080001100 <hidden_data>:
    80001100:	300a                	fld	ft0,160(sp)
    80001102:	65a9                	lui	a1,0xa
    80001104:	f8ed                	bnez	s1,800010f6 <fromhost+0xb6>
    80001106:	          	csrrsi	t1,0xff8,5

0000000080001108 <reg_x1_init>:
    80001108:	ff82                	sd	zero,504(sp)
    8000110a:	ffff                	0xffff
    8000110c:	ffff                	0xffff
    8000110e:	ffff                	0xffff

0000000080001110 <reg_x2_init>:
    80001110:	8006                	c.mv	zero,ra
    80001112:	ffff                	0xffff
    80001114:	ffff                	0xffff
    80001116:	ffff                	0xffff

0000000080001118 <reg_x3_init>:
	...

0000000080001120 <reg_x4_init>:
    80001120:	ffff                	0xffff
    80001122:	ffff                	0xffff
    80001124:	ffff                	0xffff
    80001126:	ffff                	0xffff

0000000080001128 <reg_x5_init>:
    80001128:	5891                	li	a7,-28
    8000112a:	2784                	fld	fs1,8(a5)
    8000112c:	cf70                	sw	a2,92(a4)
    8000112e:	9455                	srai	s0,s0,0x35

0000000080001130 <reg_x6_init>:
    80001130:	ffff                	0xffff
    80001132:	ffff                	0xffff
    80001134:	ffff                	0xffff
    80001136:	ffff                	0xffff

0000000080001138 <reg_x7_init>:
	...

0000000080001140 <reg_x8_init>:
    80001140:	ffff                	0xffff
    80001142:	ffff                	0xffff
    80001144:	ffff                	0xffff
    80001146:	ffff                	0xffff

0000000080001148 <reg_x9_init>:
    80001148:	161f4487          	flq	fs1,353(t5)
    8000114c:	7ee1                	lui	t4,0xffff8
    8000114e:	9b9d                	andi	a5,a5,-25

0000000080001150 <reg_x10_init>:
    80001150:	9c91                	subw	s1,s1,a2
    80001152:	49a1                	li	s3,8
    80001154:	ce8c                	sw	a1,24(a3)
    80001156:	06df        	0xb1d5f75306df

0000000080001158 <reg_x11_init>:
    80001158:	b1d5f753          	0xb1d5f753
    8000115c:	0a8a                	slli	s5,s5,0x2
    8000115e:	c9a1                	beqz	a1,800011ae <reg_x21_init+0x6>

0000000080001160 <reg_x12_init>:
	...

0000000080001168 <reg_x13_init>:
    80001168:	ffff                	0xffff
    8000116a:	ffff                	0xffff
    8000116c:	ffff                	0xffff
    8000116e:	ffff                	0xffff

0000000080001170 <reg_x14_init>:
    80001170:	bc1a                	fsd	ft6,56(sp)
    80001172:	2b72                	fld	fs6,280(sp)
    80001174:	7253117b          	0x7253117b

0000000080001178 <reg_x15_init>:
    80001178:	c5f83587          	fld	fa1,-929(a6)
    8000117c:	89c1                	andi	a1,a1,16
    8000117e:	d47f                	0xd47f

0000000080001180 <reg_x16_init>:
    80001180:	0000                	unimp
    80001182:	0000                	unimp
    80001184:	0000                	unimp
    80001186:	0800                	addi	s0,sp,16

0000000080001188 <reg_x17_init>:
    80001188:	be36                	fsd	fa3,312(sp)
    8000118a:	b5644a63          	blt	s0,s6,800004de <pseg_0+0x336>
    8000118e:	39e8                	fld	fa0,240(a1)

0000000080001190 <reg_x18_init>:
	...

0000000080001198 <reg_x19_init>:
    80001198:	2aea                	fld	fs5,152(sp)
    8000119a:	edac                	sd	a1,88(a1)
    8000119c:	bf58                	fsd	fa4,184(a4)
    8000119e:	124a                	slli	tp,tp,0x32

00000000800011a0 <reg_x20_init>:
	...

00000000800011a8 <reg_x21_init>:
    800011a8:	8001                	c.srli64	s0
    800011aa:	ffff                	0xffff
    800011ac:	ffff                	0xffff
    800011ae:	ffff                	0xffff

00000000800011b0 <reg_x22_init>:
    800011b0:	0004                	0x4
    800011b2:	0000                	unimp
    800011b4:	0000                	unimp
    800011b6:	0800                	addi	s0,sp,16

00000000800011b8 <reg_x23_init>:
    800011b8:	5e6a                	lw	t3,184(sp)
    800011ba:	955f 048b c8ec      	0xc8ec048b955f

00000000800011c0 <reg_x24_init>:
    800011c0:	ff86                	sd	ra,504(sp)
    800011c2:	ffff                	0xffff
    800011c4:	ffff                	0xffff
    800011c6:	ffff                	0xffff

00000000800011c8 <reg_x25_init>:
    800011c8:	7454cbcb          	0x7454cbcb
    800011cc:	d82a                	sw	a0,48(sp)
    800011ce:	          	sltu	s4,t2,zero

00000000800011d0 <reg_x26_init>:
    800011d0:	00000003          	lb	zero,0(zero) # 0 <_start-0x80000000>
    800011d4:	0000                	unimp
	...

00000000800011d8 <reg_x27_init>:
    800011d8:	e59c                	sd	a5,8(a1)
    800011da:	6985                	lui	s3,0x1
    800011dc:	ac85                	j	8000144c <test_memory+0x14c>
    800011de:	          	lhu	t5,0(t0)

00000000800011e0 <reg_x28_init>:
    800011e0:	0002                	c.slli64	zero
    800011e2:	0000                	unimp
    800011e4:	0000                	unimp
	...

00000000800011e8 <reg_x29_init>:
    800011e8:	ffff                	0xffff
    800011ea:	ffff                	0xffff
    800011ec:	ffff                	0xffff
    800011ee:	ffff                	0xffff

00000000800011f0 <reg_x30_init>:
    800011f0:	0006                	c.slli	zero,0x1
    800011f2:	0000                	unimp
    800011f4:	0000                	unimp
    800011f6:	0800                	addi	s0,sp,16

00000000800011f8 <reg_x31_init>:
    800011f8:	4593f78f          	0x4593f78f
    800011fc:	a359                	j	80001782 <_end+0x72>
    800011fe:	265f        	0x6cc47608265f

0000000080001200 <begin_signature>:
    80001200:	7608                	ld	a0,40(a2)
    80001202:	6cc4                	ld	s1,152(s1)
    80001204:	444c                	lw	a1,12(s0)
    80001206:	333c                	fld	fa5,96(a4)

0000000080001208 <reg_x1_output>:
    80001208:	2dc8                	fld	fa0,152(a1)
    8000120a:	7c9d                	lui	s9,0xfffe7
    8000120c:	c0da                	sw	s6,64(sp)
    8000120e:	9502                	jalr	a0

0000000080001210 <reg_x2_output>:
    80001210:	48d08bc7          	fmsub.s	fs7,ft1,fa3,fs1,rne
    80001214:	7451                	lui	s0,0xffff4
    80001216:	          	0x4e4c7753

0000000080001218 <reg_x3_output>:
    80001218:	4e4c                	lw	a1,28(a2)
    8000121a:	3788                	fld	fa0,40(a5)
    8000121c:	e765                	bnez	a4,80001304 <test_memory+0x4>
    8000121e:	c14c                	sw	a1,4(a0)

0000000080001220 <reg_x4_output>:
    80001220:	bbed                	j	8000101a <tohost+0x1a>
    80001222:	c6b6                	sw	a3,76(sp)
    80001224:	5f60                	lw	s0,124(a4)
    80001226:	84bc                	0x84bc

0000000080001228 <reg_x5_output>:
    80001228:	a055                	j	800012cc <reg_x25_output+0x4>
    8000122a:	a80e                	fsd	ft3,16(sp)
    8000122c:	e8d0                	sd	a2,144(s1)
    8000122e:	          	0x92530beb

0000000080001230 <reg_x6_output>:
    80001230:	8b159253          	0x8b159253
    80001234:	521f 797b       	0x7628797b521f

0000000080001238 <reg_x7_output>:
    80001238:	7628                	ld	a0,104(a2)
    8000123a:	23b2c93b          	0x23b2c93b
    8000123e:	fbf5                	bnez	a5,80001232 <reg_x6_output+0x2>

0000000080001240 <reg_x8_output>:
    80001240:	a3d1ed37          	lui	s10,0xa3d1e
    80001244:	7249                	lui	tp,0xffff2
    80001246:	e445                	bnez	s0,800012ee <reg_x29_output+0x6>

0000000080001248 <reg_x9_output>:
    80001248:	ec78                	sd	a4,216(s0)
    8000124a:	4e81                	li	t4,0
    8000124c:	e9ac                	sd	a1,80(a1)
    8000124e:	fb39                	bnez	a4,800011a4 <reg_x20_init+0x4>

0000000080001250 <reg_x10_output>:
    80001250:	a6631563          	bne	t1,t1,800004ba <pseg_0+0x312>
    80001254:	f0e6                	sd	s9,96(sp)
    80001256:	4edc                	lw	a5,28(a3)

0000000080001258 <reg_x11_output>:
    80001258:	392d                	addiw	s2,s2,-21
    8000125a:	6764                	ld	s1,200(a4)
    8000125c:	1eb6                	slli	t4,t4,0x2d
    8000125e:	138e                	slli	t2,t2,0x23

0000000080001260 <reg_x12_output>:
    80001260:	b48d                	j	80000cc2 <test_end+0x356>
    80001262:	d205                	beqz	a2,80001182 <reg_x16_init+0x2>
    80001264:	abbd                	j	800017e2 <_end+0xd2>
    80001266:	71c1                	lui	gp,0xffff0

0000000080001268 <reg_x13_output>:
    80001268:	a266                	fsd	fs9,256(sp)
    8000126a:	797a                	ld	s2,440(sp)
    8000126c:	f9c1                	bnez	a1,800011fc <reg_x31_init+0x4>
    8000126e:	2408                	fld	fa0,8(s0)

0000000080001270 <reg_x14_output>:
    80001270:	4e01                	li	t3,0
    80001272:	13bd                	addi	t2,t2,-17
    80001274:	f206                	sd	ra,288(sp)
    80001276:	dac5                	beqz	a3,80001226 <reg_x4_output+0x6>

0000000080001278 <reg_x15_output>:
    80001278:	61c1                	lui	gp,0x10
    8000127a:	6144                	ld	s1,128(a0)
    8000127c:	ba7e                	fsd	ft11,304(sp)
    8000127e:	5738                	lw	a4,104(a4)

0000000080001280 <reg_x16_output>:
    80001280:	1d7d                	addi	s10,s10,-1
    80001282:	ce62                	sw	s8,28(sp)
    80001284:	6062                	0x6062
    80001286:	acde                	fsd	fs7,88(sp)

0000000080001288 <reg_x17_output>:
    80001288:	f7d9                	bnez	a5,80001216 <reg_x2_output+0x6>
    8000128a:	f00c                	sd	a1,32(s0)
    8000128c:	6878                	ld	a4,208(s0)
    8000128e:	          	0x805bf97b

0000000080001290 <reg_x18_output>:
    80001290:	9473805b          	0x9473805b
    80001294:	b97f080f          	0xb97f080f

0000000080001298 <reg_x19_output>:
    80001298:	b410                	fsd	fa2,40(s0)
    8000129a:	18d4                	addi	a3,sp,116
    8000129c:	ef6d                	bnez	a4,80001396 <test_memory+0x96>
    8000129e:	          	0x4cf5c73b

00000000800012a0 <reg_x20_output>:
    800012a0:	4cf5                	li	s9,29
    800012a2:	6245                	lui	tp,0x11
    800012a4:	5558                	lw	a4,44(a0)
    800012a6:	          	0x748daa47

00000000800012a8 <reg_x21_output>:
    800012a8:	748d                	lui	s1,0xfffe3
    800012aa:	2cd2a7d3          	0x2cd2a7d3
    800012ae:	b6f4                	fsd	fa3,232(a3)

00000000800012b0 <reg_x22_output>:
    800012b0:	bc44                	fsd	fs1,184(s0)
    800012b2:	cfa0                	sw	s0,88(a5)
    800012b4:	6949                	lui	s2,0x12
    800012b6:	17e1                	addi	a5,a5,-8

00000000800012b8 <reg_x23_output>:
    800012b8:	e288                	sd	a0,0(a3)
    800012ba:	d418                	sw	a4,40(s0)
    800012bc:	c2ba                	sw	a4,68(sp)
    800012be:	47c9                	li	a5,18

00000000800012c0 <reg_x24_output>:
    800012c0:	c9ca                	sw	s2,208(sp)
    800012c2:	daac7657          	0xdaac7657
    800012c6:	0810                	addi	a2,sp,16

00000000800012c8 <reg_x25_output>:
    800012c8:	aec4                	fsd	fs1,152(a3)
    800012ca:	593d                	li	s2,-17
    800012cc:	c3df b4a4       	0x2db1b4a4c3df

00000000800012d0 <reg_x26_output>:
    800012d0:	2db1                	addiw	s11,s11,12
    800012d2:	e9d4                	sd	a3,144(a1)
    800012d4:	122e                	slli	tp,tp,0x2b
    800012d6:	5c38                	lw	a4,120(s0)

00000000800012d8 <reg_x27_output>:
    800012d8:	925d                	srli	a2,a2,0x37
    800012da:	b44d                	j	80000d7c <test_end+0x410>
    800012dc:	8cf4                	0x8cf4
    800012de:	a1fc                	fsd	fa5,192(a1)

00000000800012e0 <reg_x28_output>:
    800012e0:	5534                	lw	a3,104(a0)
    800012e2:	f099                	bnez	s1,800011e8 <reg_x29_init>
    800012e4:	aa5ab5e3          	0xaa5ab5e3

00000000800012e8 <reg_x29_output>:
    800012e8:	434a17c3          	fmadd.d	fa5,fs4,fs4,fs0,rtz
    800012ec:	5f44                	lw	s1,60(a4)
    800012ee:	1388                	addi	a0,sp,480

00000000800012f0 <reg_x30_output>:
    800012f0:	fd3e                	sd	a5,184(sp)
    800012f2:	be42                	fsd	fa6,312(sp)
    800012f4:	d7ed                	beqz	a5,800012de <reg_x27_output+0x6>
    800012f6:	f016                	sd	t0,32(sp)

00000000800012f8 <reg_x31_output>:
    800012f8:	7006                	0x7006
    800012fa:	4e22                	lw	t3,8(sp)
    800012fc:	907a                	c.add	zero,t5
    800012fe:	a3c6                	fsd	fa7,448(sp)

0000000080001300 <test_memory>:
    80001300:	5350                	lw	a2,36(a4)
    80001302:	1900                	addi	s0,sp,176
    80001304:	dc79                	beqz	s0,800012e2 <reg_x28_output+0x2>
    80001306:	a075                	j	800013b2 <test_memory+0xb2>
    80001308:	dafcd853          	0xdafcd853
    8000130c:	232663bb          	0x232663bb
    80001310:	2b25c0a7          	fsq	fs2,673(a1) # a2a1 <_start-0x7fff5d5f>
    80001314:	4aea                	lw	s5,152(sp)
    80001316:	0611                	addi	a2,a2,4
    80001318:	53be                	lw	t2,236(sp)
    8000131a:	d272                	sw	t3,36(sp)
    8000131c:	dffc                	sw	a5,124(a5)
    8000131e:	4ccd                	li	s9,19
    80001320:	c39d                	beqz	a5,80001346 <test_memory+0x46>
    80001322:	2e6d                	addiw	t3,t3,27
    80001324:	9216fe57          	0x9216fe57
    80001328:	bd41                	j	800011b8 <reg_x23_init>
    8000132a:	9b25                	andi	a4,a4,-23
    8000132c:	3791                	addiw	a5,a5,-28
    8000132e:	14b6                	slli	s1,s1,0x2d
    80001330:	b5237b4f          	0xb5237b4f
    80001334:	6938                	ld	a4,80(a0)
    80001336:	7604e97b          	0x7604e97b
    8000133a:	9506732b          	0x9506732b
    8000133e:	fb6e                	sd	s11,432(sp)
    80001340:	c97f                	0xc97f
    80001342:	e05f8bf7          	0xe05f8bf7
    80001346:	bb5f 33de 6947      	0x694733debb5f
    8000134c:	a87e612b          	0xa87e612b
    80001350:	2ebc                	fld	fa5,88(a3)
    80001352:	9fec                	0x9fec
    80001354:	2125                	addiw	sp,sp,9
    80001356:	419e                	lw	gp,196(sp)
    80001358:	b459b41b          	0xb459b41b
    8000135c:	5670                	lw	a2,108(a2)
    8000135e:	fa5d                	bnez	a2,80001314 <test_memory+0x14>
    80001360:	c4c0                	sw	s0,12(s1)
    80001362:	fccc                	sd	a1,184(s1)
    80001364:	86e6                	mv	a3,s9
    80001366:	cdc9                	beqz	a1,80001400 <test_memory+0x100>
    80001368:	567f                	0x567f
    8000136a:	0cb0                	addi	a2,sp,600
    8000136c:	f57a                	sd	t5,168(sp)
    8000136e:	8388                	0x8388
    80001370:	fb18                	sd	a4,48(a4)
    80001372:	7c64                	ld	s1,248(s0)
    80001374:	a3b0                	fsd	fa2,64(a5)
    80001376:	b509                	j	80001178 <reg_x15_init>
    80001378:	e48a                	sd	sp,72(sp)
    8000137a:	a584                	fsd	fs1,8(a1)
    8000137c:	2eec                	fld	fa1,216(a3)
    8000137e:	a4a4                	fsd	fs1,72(s1)
    80001380:	fa0a                	sd	sp,304(sp)
    80001382:	a330                	fsd	fa2,64(a4)
    80001384:	3035                	0x3035
    80001386:	0339                	addi	t1,t1,14
    80001388:	08fe                	slli	a7,a7,0x1f
    8000138a:	051c                	addi	a5,sp,640
    8000138c:	5689                	li	a3,-30
    8000138e:	cfb2c507          	flq	fa0,-773(t0)
    80001392:	87081707          	0x87081707
    80001396:	3b9e84ef          	jal	s1,800e9f4e <__global_pointer$+0xe803e>
    8000139a:	93d5                	srli	a5,a5,0x35
    8000139c:	b37c                	fsd	fa5,224(a4)
    8000139e:	cb6e92f3          	csrrw	t0,0xcb6,t4
    800013a2:	2558                	fld	fa4,136(a0)
    800013a4:	1f08                	addi	a0,sp,944
    800013a6:	4fca                	lw	t6,144(sp)
    800013a8:	a6672537          	lui	a0,0xa6672
    800013ac:	41f6                	lw	gp,92(sp)
    800013ae:	43ff                	0x43ff
    800013b0:	a358ab7b          	0xa358ab7b
    800013b4:	b916                	fsd	ft5,176(sp)
    800013b6:	0bae                	slli	s7,s7,0xb
    800013b8:	a1afbfe3          	0xa1afbfe3
    800013bc:	79fa                	ld	s3,440(sp)
    800013be:	ea82                	sd	zero,336(sp)
    800013c0:	80e0                	0x80e0
    800013c2:	a921                	j	800017da <_end+0xca>
    800013c4:	350e                	fld	fa0,224(sp)
    800013c6:	e616                	sd	t0,264(sp)
    800013c8:	b78c                	fsd	fa1,40(a5)
    800013ca:	2f74bf2f          	0x2f74bf2f
    800013ce:	6d8a971b          	0x6d8a971b
    800013d2:	fb92                	sd	tp,496(sp)
    800013d4:	41f5                	li	gp,29
    800013d6:	ceaf84fb          	0xceaf84fb
    800013da:	d4bc                	sw	a5,104(s1)
    800013dc:	f2f4df8f          	0xf2f4df8f
    800013e0:	a0b8                	fsd	fa4,64(s1)
    800013e2:	85ea                	mv	a1,s10
    800013e4:	5d6e                	lw	s10,248(sp)
    800013e6:	4b623107          	fld	ft2,1206(tp) # 114b6 <_start-0x7ffeeb4a>
    800013ea:	ff48386f          	jal	a6,7ff84bde <_start-0x7b422>
    800013ee:	3598a9b7          	lui	s3,0x3598a
    800013f2:	cded                	beqz	a1,800014ec <test_memory+0x1ec>
    800013f4:	d672                	sw	t3,44(sp)
    800013f6:	b097294b          	fnmsub.s	fs2,fa4,fs1,fs6,rdn
    800013fa:	978a                	add	a5,a5,sp
    800013fc:	1f3d                	addi	t5,t5,-17
    800013fe:	d8328e07          	0xd8328e07
    80001402:	7a11                	lui	s4,0xfffe4
    80001404:	c741                	beqz	a4,8000148c <test_memory+0x18c>
    80001406:	47a2fd7b          	0x47a2fd7b
    8000140a:	0c62                	slli	s8,s8,0x18
    8000140c:	f8ca                	sd	s2,112(sp)
    8000140e:	2a89                	addiw	s5,s5,2
    80001410:	5485                	li	s1,-31
    80001412:	9b20                	0x9b20
    80001414:	3a92                	fld	fs5,288(sp)
    80001416:	3df87177          	0x3df87177
    8000141a:	603e                	0x603e
    8000141c:	b856                	fsd	fs5,48(sp)
    8000141e:	73ef08f3          	0x73ef08f3
    80001422:	f0109fd3          	0xf0109fd3
    80001426:	cd46                	sw	a7,152(sp)
    80001428:	5b39                	li	s6,-18
    8000142a:	ab4e                	fsd	fs3,400(sp)
    8000142c:	18e8                	addi	a0,sp,124
    8000142e:	ccd19173          	csrrw	sp,0xccd,gp
    80001432:	7c01                	lui	s8,0xfffe0
    80001434:	740a                	ld	s0,160(sp)
    80001436:	936f4aab          	0x936f4aab
    8000143a:	25022a03          	lw	s4,592(tp) # 250 <_start-0x7ffffdb0>
    8000143e:	04d0                	addi	a2,sp,580
    80001440:	6872                	ld	a6,280(sp)
    80001442:	5391                	li	t2,-28
    80001444:	7e61                	lui	t3,0xffff8
    80001446:	3459                	addiw	s0,s0,-10
    80001448:	f998                	sd	a4,48(a1)
    8000144a:	64f9                	lui	s1,0x1e
    8000144c:	d364b0a7          	fsd	fs6,-735(s1) # 1dd21 <_start-0x7ffe22df>
    80001450:	6324                	ld	s1,64(a4)
    80001452:	be65                	j	8000100a <tohost+0xa>
    80001454:	ccc4                	sw	s1,28(s1)
    80001456:	1e28                	addi	a0,sp,824
    80001458:	d661                	beqz	a2,80001420 <test_memory+0x120>
    8000145a:	b330                	fsd	fa2,96(a4)
    8000145c:	e059e0bb          	0xe059e0bb
    80001460:	eaa4                	sd	s1,80(a3)
    80001462:	bbc2                	fsd	fa6,496(sp)
    80001464:	b019ec23          	0xb019ec23
    80001468:	e734                	sd	a3,72(a4)
    8000146a:	b5e6                	fsd	fs9,232(sp)
    8000146c:	1c665397          	auipc	t2,0x1c665
    80001470:	3ec6                	fld	ft9,112(sp)
    80001472:	8b9d                	andi	a5,a5,7
    80001474:	a560                	fsd	fs0,200(a0)
    80001476:	d36a                	sw	s10,164(sp)
    80001478:	0974                	addi	a3,sp,156
    8000147a:	fe4d                	bnez	a2,80001434 <test_memory+0x134>
    8000147c:	bed4                	fsd	fa3,184(a3)
    8000147e:	22ed                	addiw	t0,t0,27
    80001480:	9851                	andi	s0,s0,-12
    80001482:	a90e                	fsd	ft3,144(sp)
    80001484:	0142                	slli	sp,sp,0x10
    80001486:	a038                	fsd	fa4,64(s0)
    80001488:	67a1d607          	0x67a1d607
    8000148c:	111c1667          	0x111c1667
    80001490:	f53e1a27          	0xf53e1a27
    80001494:	17b0                	addi	a2,sp,1000
    80001496:	5ea8                	lw	a0,120(a3)
    80001498:	f114                	sd	a3,32(a0)
    8000149a:	686c                	ld	a1,208(s0)
    8000149c:	e5a390ef          	jal	ra,7ff3aaf6 <_start-0xc550a>
    800014a0:	30a9                	addiw	ra,ra,-22
    800014a2:	1351                	addi	t1,t1,-12
    800014a4:	1e1c                	addi	a5,sp,816
    800014a6:	e785                	bnez	a5,800014ce <test_memory+0x1ce>
    800014a8:	120d                	addi	tp,tp,-29
    800014aa:	4bb9                	li	s7,14
    800014ac:	1d51                	addi	s10,s10,-12
    800014ae:	2a66                	fld	fs4,88(sp)
    800014b0:	0359                	addi	t1,t1,22
    800014b2:	f709                	bnez	a4,800013bc <test_memory+0xbc>
    800014b4:	693a                	ld	s2,392(sp)
    800014b6:	00d6                	slli	ra,ra,0x15
    800014b8:	c39807ef          	jal	a5,7ff820f0 <_start-0x7df10>
    800014bc:	1d82                	slli	s11,s11,0x20
    800014be:	1cc8                	addi	a0,sp,628
    800014c0:	dcc0                	sw	s0,60(s1)
    800014c2:	8e92                	mv	t4,tp
    800014c4:	55fd                	li	a1,-1
    800014c6:	3dc8429b          	0x3dc8429b
    800014ca:	f92c                	sd	a1,112(a0)
    800014cc:	b6f37aa7          	0xb6f37aa7
    800014d0:	ac91                	j	80001724 <_end+0x14>
    800014d2:	371c                	fld	fa5,40(a4)
    800014d4:	19974dbb          	0x19974dbb
    800014d8:	8379                	srli	a4,a4,0x1e
    800014da:	665c4827          	fsq	ft5,1648(s8) # fffffffffffe0670 <__global_pointer$+0xffffffff7ffde760>
    800014de:	080df12f          	0x80df12f
    800014e2:	b12d                	j	8000110c <reg_x1_init+0x4>
    800014e4:	59ad                	li	s3,-21
    800014e6:	915d                	srli	a0,a0,0x37
    800014e8:	1ebd                	addi	t4,t4,-17
    800014ea:	5d515c67          	0x5d515c67
    800014ee:	efe2                	sd	s8,472(sp)
    800014f0:	4ca9                	li	s9,10
    800014f2:	8fd0                	0x8fd0
    800014f4:	f99f 4ebc 6869      	0x68694ebcf99f
    800014fa:	dc51                	beqz	s0,80001496 <test_memory+0x196>
    800014fc:	3f19                	addiw	t5,t5,-26
    800014fe:	0e19                	addi	t3,t3,6
    80001500:	8aa2c8ef          	jal	a7,7ff2d5aa <_start-0xd2a56>
    80001504:	279931e3          	0x279931e3
    80001508:	79f5                	lui	s3,0xffffd
    8000150a:	1a19                	addi	s4,s4,-26
    8000150c:	56c78f47          	fmsub.q	ft10,fa5,fa2,fa0,rne
    80001510:	0fa1                	addi	t6,t6,8
    80001512:	b8da                	fsd	fs6,112(sp)
    80001514:	0489                	addi	s1,s1,2
    80001516:	d84e                	sw	s3,48(sp)
    80001518:	af3a                	fsd	fa4,408(sp)
    8000151a:	2551                	addiw	a0,a0,20
    8000151c:	33b1                	addiw	t2,t2,-20
    8000151e:	e5a2                	sd	s0,200(sp)
    80001520:	f8edd923          	0xf8edd923
    80001524:	c9ce                	sw	s3,208(sp)
    80001526:	007db857          	0x7db857
    8000152a:	bd7e                	fsd	ft11,184(sp)
    8000152c:	4415                	li	s0,5
    8000152e:	171a44b7          	lui	s1,0x171a4
    80001532:	1bd1b7a3          	sd	t4,431(gp) # 101af <_start-0x7ffefe51>
    80001536:	78abf333          	0x78abf333
    8000153a:	bee711e3          	bne	a4,a4,8000111c <reg_x3_init+0x4>
    8000153e:	72fa                	ld	t0,440(sp)
    80001540:	e0421e4f          	fnmadd.s	ft8,ft4,ft4,ft8,rtz
    80001544:	498c                	lw	a1,16(a1)
    80001546:	4be696a3          	sh	t5,1197(a3)
    8000154a:	6ae2                	ld	s5,24(sp)
    8000154c:	3760                	fld	fs0,232(a4)
    8000154e:	2b29                	addiw	s6,s6,10
    80001550:	0ad9                	addi	s5,s5,22
    80001552:	850218eb          	0x850218eb
    80001556:	d7f8                	sw	a4,108(a5)
    80001558:	5240                	lw	s0,36(a2)
    8000155a:	11fc                	addi	a5,sp,236
    8000155c:	d0d9                	beqz	s1,800014e2 <test_memory+0x1e2>
    8000155e:	eede                	sd	s7,344(sp)
    80001560:	0789c27b          	0x789c27b
    80001564:	40b4                	lw	a3,64(s1)
    80001566:	d5ce                	sw	s3,232(sp)
    80001568:	eac5                	bnez	a3,80001618 <test_memory+0x318>
    8000156a:	5781                	li	a5,-32
    8000156c:	1b5c                	addi	a5,sp,436
    8000156e:	88d2                	mv	a7,s4
    80001570:	394a                	fld	fs2,176(sp)
    80001572:	581d                	li	a6,-25
    80001574:	7058                	ld	a4,160(s0)
    80001576:	164d                	addi	a2,a2,-13
    80001578:	8abe                	mv	s5,a5
    8000157a:	a575fbfb          	0xa575fbfb
    8000157e:	dc934007          	flq	ft0,-567(t1)
    80001582:	a0cba21b          	0xa0cba21b
    80001586:	4a85                	li	s5,1
    80001588:	7d34                	ld	a3,120(a0)
    8000158a:	9806                	add	a6,a6,ra
    8000158c:	5751                	li	a4,-12
    8000158e:	fdcc                	sd	a1,184(a1)
    80001590:	42f947fb          	0x42f947fb
    80001594:	1b48                	addi	a0,sp,436
    80001596:	96b3e12b          	0x96b3e12b
    8000159a:	eb02b3bf a8e6ae91 	0xa8e6ae91eb02b3bf
    800015a2:	87d35d6f          	jal	s10,7ff36e1e <_start-0xc91e2>
    800015a6:	e14f8d37          	lui	s10,0xe14f8
    800015aa:	ef3e                	sd	a5,408(sp)
    800015ac:	161f 3baa 741c      	0x741c3baa161f
    800015b2:	9a71                	andi	a2,a2,-4
    800015b4:	c2f6                	sw	t4,68(sp)
    800015b6:	aacd                	j	800017a8 <_end+0x98>
    800015b8:	045384eb          	0x45384eb
    800015bc:	3895                	addiw	a7,a7,-27
    800015be:	8692                	mv	a3,tp
    800015c0:	51aa                	lw	gp,168(sp)
    800015c2:	1fce                	slli	t6,t6,0x33
    800015c4:	e598dab7          	lui	s5,0xe598d
    800015c8:	6fb8                	ld	a4,88(a5)
    800015ca:	26df a4b8 c74a      	0xc74aa4b826df
    800015d0:	6306                	ld	t1,64(sp)
    800015d2:	abe0                	fsd	fs0,208(a5)
    800015d4:	66c0                	ld	s0,136(a3)
    800015d6:	6ae9                	lui	s5,0x1a
    800015d8:	82fc                	0x82fc
    800015da:	c126                	sw	s1,128(sp)
    800015dc:	d499                	beqz	s1,800014ea <test_memory+0x1ea>
    800015de:	e351                	bnez	a4,80001662 <test_memory+0x362>
    800015e0:	4775                	li	a4,29
    800015e2:	8345                	srli	a4,a4,0x11
    800015e4:	afde                	fsd	fs7,472(sp)
    800015e6:	48147653          	0x48147653
    800015ea:	245d                	addiw	s0,s0,23
    800015ec:	209f a38d 82b1      	0x82b1a38d209f
    800015f2:	1ff8                	addi	a4,sp,1020
    800015f4:	0cc45ab3          	0xcc45ab3
    800015f8:	71bc                	ld	a5,96(a1)
    800015fa:	2fff                	0x2fff
    800015fc:	cb51                	beqz	a4,80001690 <test_memory+0x390>
    800015fe:	d1ed                	beqz	a1,800015e0 <test_memory+0x2e0>
    80001600:	29c5                	addiw	s3,s3,17
    80001602:	89a37e5b          	0x89a37e5b
    80001606:	1728                	addi	a0,sp,936
    80001608:	ad8c                	fsd	fa1,24(a1)
    8000160a:	5c36                	lw	s8,108(sp)
    8000160c:	7670                	ld	a2,232(a2)
    8000160e:	053a                	slli	a0,a0,0xe
    80001610:	fa3c                	sd	a5,112(a2)
    80001612:	c70e                	sw	gp,140(sp)
    80001614:	aa10                	fsd	fa2,16(a2)
    80001616:	ce21                	beqz	a2,8000166e <test_memory+0x36e>
    80001618:	89c5                	andi	a1,a1,17
    8000161a:	f11e                	sd	t2,160(sp)
    8000161c:	554c                	lw	a1,44(a0)
    8000161e:	5752                	lw	a4,52(sp)
    80001620:	3f7a                	fld	ft10,440(sp)
    80001622:	9a49                	andi	a2,a2,-14
    80001624:	60ce                	ld	ra,208(sp)
    80001626:	0b0c                	addi	a1,sp,400
    80001628:	734d                	lui	t1,0xffff3
    8000162a:	7e3a                	ld	t3,424(sp)
    8000162c:	21c0b057          	0x21c0b057
    80001630:	2a68                	fld	fa0,208(a2)
    80001632:	bca4                	fsd	fs1,120(s1)
    80001634:	49d1                	li	s3,20
    80001636:	cb25                	beqz	a4,800016a6 <test_memory+0x3a6>
    80001638:	0ff8                	addi	a4,sp,988
    8000163a:	8df6173f 7f57aacc 	0x7f57aacc8df6173f
    80001642:	7f238cbb          	0x7f238cbb
    80001646:	270d                	addiw	a4,a4,3
    80001648:	7908                	ld	a0,48(a0)
    8000164a:	35a0                	fld	fs0,104(a1)
    8000164c:	03999497          	auipc	s1,0x3999
    80001650:	be1d                	j	80001186 <reg_x16_init+0x6>
    80001652:	1b1ed64b          	fnmsub.d	fa2,ft9,fa7,ft3,unknown
    80001656:	8e9c                	0x8e9c
    80001658:	e56b19f7          	0xe56b19f7
    8000165c:	7a06                	ld	s4,96(sp)
    8000165e:	23ac                	fld	fa1,64(a5)
    80001660:	2884                	fld	fs1,16(s1)
    80001662:	0959                	addi	s2,s2,22
    80001664:	0e0929d7          	0xe0929d7
    80001668:	a0053773          	csrrc	a4,0xa00,a0
    8000166c:	10769403          	lh	s0,263(a3)
    80001670:	4ae5                	li	s5,25
    80001672:	f456                	sd	s5,40(sp)
    80001674:	4151bdd7          	0x4151bdd7
    80001678:	62a9                	lui	t0,0xa
    8000167a:	5e10b4d3          	0x5e10b4d3
    8000167e:	edb1                	bnez	a1,800016da <test_memory+0x3da>
    80001680:	2597eb0f          	0x2597eb0f
    80001684:	1c11                	addi	s8,s8,-28
    80001686:	dc7c                	sw	a5,124(s0)
    80001688:	5cc5                	li	s9,-15
    8000168a:	ae9a                	fsd	ft6,344(sp)
    8000168c:	0889                	addi	a7,a7,2
    8000168e:	968c                	0x968c
    80001690:	816c                	0x816c
    80001692:	74de                	ld	s1,496(sp)
    80001694:	330e                	fld	ft6,224(sp)
    80001696:	fe5e                	sd	s7,312(sp)
    80001698:	2eb9                	addiw	t4,t4,14
    8000169a:	d91d                	beqz	a0,800015d0 <test_memory+0x2d0>
    8000169c:	64f6                	ld	s1,344(sp)
    8000169e:	953a                	add	a0,a0,a4
    800016a0:	a066                	fsd	fs9,0(sp)
    800016a2:	d16cb79b          	0xd16cb79b
    800016a6:	793efef7          	0x793efef7
    800016aa:	fd1e                	sd	t2,184(sp)
    800016ac:	4795c3a3          	0x4795c3a3
    800016b0:	ee06                	sd	ra,280(sp)
    800016b2:	4f89bc1b          	0x4f89bc1b
    800016b6:	e595                	bnez	a1,800016e2 <test_memory+0x3e2>
    800016b8:	4118                	lw	a4,0(a0)
    800016ba:	f5d8                	sd	a4,168(a1)
    800016bc:	e175966f          	jal	a2,7ff5b4d2 <_start-0xa4b2e>
    800016c0:	93de                	add	t2,t2,s7
    800016c2:	af24                	fsd	fs1,88(a4)
    800016c4:	f506a07b          	0xf506a07b
    800016c8:	bb9d                	j	8000143e <test_memory+0x13e>
    800016ca:	ca6d                	beqz	a2,800017bc <_end+0xac>
    800016cc:	ece4                	sd	s1,216(s1)
    800016ce:	016e                	slli	sp,sp,0x1b
    800016d0:	4929                	li	s2,10
    800016d2:	7f1d                	lui	t5,0xfffe7
    800016d4:	fe45                	bnez	a2,8000168c <test_memory+0x38c>
    800016d6:	c081                	beqz	s1,800016d6 <test_memory+0x3d6>
    800016d8:	1c0edf77          	0x1c0edf77
    800016dc:	1d89                	addi	s11,s11,-30
    800016de:	5b304007          	flq	ft0,1459(zero) # 5b3 <_start-0x7ffffa4d>
    800016e2:	85ce                	mv	a1,s3
    800016e4:	7188a543          	fmadd.s	fa0,fa7,fs8,fa4,rdn
    800016e8:	bda8                	fsd	fa0,120(a1)
    800016ea:	a6bd                	j	80001a58 <_end+0x348>
    800016ec:	3072                	fld	ft0,312(sp)
    800016ee:	57eea557          	0x57eea557
    800016f2:	404c                	lw	a1,4(s0)
    800016f4:	52ee                	lw	t0,248(sp)
    800016f6:	e6ce7197          	auipc	gp,0xe6ce7
    800016fa:	3321                	addiw	t1,t1,-24
    800016fc:	df20                	sw	s0,120(a4)
    800016fe:	3ae2                	fld	fs5,56(sp)

0000000080001700 <loop_count>:
    80001700:	0040                	addi	s0,sp,4
	...

Disassembly of section .riscv.attributes:

0000000000000000 <.riscv.attributes>:
   0:	2d41                	addiw	s10,s10,16
   2:	0000                	unimp
   4:	7200                	ld	s0,32(a2)
   6:	7369                	lui	t1,0xffffa
   8:	01007663          	bgeu	zero,a6,14 <_start-0x7fffffec>
   c:	00000023          	sb	zero,0(zero) # 0 <_start-0x80000000>
  10:	7205                	lui	tp,0xfffe1
  12:	3676                	fld	fa2,376(sp)
  14:	6934                	ld	a3,80(a0)
  16:	7032                	0x7032
  18:	5f30                	lw	a2,120(a4)
  1a:	326d                	addiw	tp,tp,-5
  1c:	3070                	fld	fa2,224(s0)
  1e:	615f 7032 5f30      	0x5f307032615f
  24:	3266                	fld	ft4,120(sp)
  26:	3070                	fld	fa2,224(s0)
  28:	645f 7032 0030      	0x307032645f
