
test.elf:     file format elf64-littleriscv


Disassembly of section .text.init:

0000000080000000 <_start>:
    80000000:	0580006f          	j	80000058 <reset_vector>

0000000080000004 <trap_vector>:
    80000004:	34202f73          	csrr	t5,mcause
    80000008:	00800f93          	li	t6,8
    8000000c:	05ff0063          	beq	t5,t6,8000004c <write_tohost>
    80000010:	00900f93          	li	t6,9
    80000014:	03ff0c63          	beq	t5,t6,8000004c <write_tohost>
    80000018:	00b00f93          	li	t6,11
    8000001c:	03ff0863          	beq	t5,t6,8000004c <write_tohost>
    80000020:	00000f13          	li	t5,0
    80000024:	000f0463          	beqz	t5,8000002c <trap_vector+0x28>
    80000028:	000f0067          	jr	t5
    8000002c:	34202f73          	csrr	t5,mcause
    80000030:	000f5463          	bgez	t5,80000038 <handle_exception>
    80000034:	0140006f          	j	80000048 <other_exception>

0000000080000038 <handle_exception>:
    80000038:	34102e73          	csrr	t3,mepc
    8000003c:	004e0e13          	addi	t3,t3,4
    80000040:	341e1073          	csrw	mepc,t3
    80000044:	30200073          	mret

0000000080000048 <other_exception>:
    80000048:	5391e193          	ori	gp,gp,1337

000000008000004c <write_tohost>:
    8000004c:	00001f17          	auipc	t5,0x1
    80000050:	fa3f2a23          	sw	gp,-76(t5) # 80001000 <tohost>
    80000054:	ff9ff06f          	j	8000004c <write_tohost>

0000000080000058 <reset_vector>:
    80000058:	f1402573          	csrr	a0,mhartid
    8000005c:	00051063          	bnez	a0,8000005c <reset_vector+0x4>
    80000060:	00000297          	auipc	t0,0x0
    80000064:	01028293          	addi	t0,t0,16 # 80000070 <reset_vector+0x18>
    80000068:	30529073          	csrw	mtvec,t0
    8000006c:	18005073          	csrwi	satp,0
    80000070:	00000297          	auipc	t0,0x0
    80000074:	01c28293          	addi	t0,t0,28 # 8000008c <reset_vector+0x34>
    80000078:	30529073          	csrw	mtvec,t0
    8000007c:	fff00293          	li	t0,-1
    80000080:	3b029073          	csrw	pmpaddr0,t0
    80000084:	01f00293          	li	t0,31
    80000088:	3a029073          	csrw	pmpcfg0,t0
    8000008c:	00000297          	auipc	t0,0x0
    80000090:	01828293          	addi	t0,t0,24 # 800000a4 <reset_vector+0x4c>
    80000094:	30529073          	csrw	mtvec,t0
    80000098:	30205073          	csrwi	medeleg,0
    8000009c:	30305073          	csrwi	mideleg,0
    800000a0:	30405073          	csrwi	mie,0
    800000a4:	00000193          	li	gp,0
    800000a8:	00000297          	auipc	t0,0x0
    800000ac:	f5c28293          	addi	t0,t0,-164 # 80000004 <trap_vector>
    800000b0:	30529073          	csrw	mtvec,t0
    800000b4:	00100513          	li	a0,1
    800000b8:	01f51513          	slli	a0,a0,0x1f
    800000bc:	00055863          	bgez	a0,800000cc <reset_vector+0x74>
    800000c0:	0ff0000f          	fence
    800000c4:	00100193          	li	gp,1
    800000c8:	00000073          	ecall
    800000cc:	00000293          	li	t0,0
    800000d0:	00028e63          	beqz	t0,800000ec <reset_vector+0x94>
    800000d4:	10529073          	csrw	stvec,t0
    800000d8:	0000b2b7          	lui	t0,0xb
    800000dc:	1092829b          	addiw	t0,t0,265
    800000e0:	30229073          	csrw	medeleg,t0
    800000e4:	30202373          	csrr	t1,medeleg
    800000e8:	f66290e3          	bne	t0,t1,80000048 <other_exception>
    800000ec:	30005073          	csrwi	mstatus,0
    800000f0:	00000297          	auipc	t0,0x0
    800000f4:	01428293          	addi	t0,t0,20 # 80000104 <reset_vector+0xac>
    800000f8:	34129073          	csrw	mepc,t0
    800000fc:	f1402573          	csrr	a0,mhartid
    80000100:	30200073          	mret
    80000104:	0180006f          	j	8000011c <test_start>

0000000080000108 <crash_backward>:
    80000108:	0ff0000f          	fence
    8000010c:	00018063          	beqz	gp,8000010c <crash_backward+0x4>
    80000110:	00119193          	slli	gp,gp,0x1
    80000114:	0011e193          	ori	gp,gp,1
    80000118:	00000073          	ecall

000000008000011c <test_start>:
    8000011c:	00001f97          	auipc	t6,0x1
    80000120:	fe4f8f93          	addi	t6,t6,-28 # 80001100 <hidden_data>
    80000124:	000fb003          	ld	zero,0(t6)
    80000128:	008fb083          	ld	ra,8(t6)
    8000012c:	010fb103          	ld	sp,16(t6)
    80000130:	018fb183          	ld	gp,24(t6)
    80000134:	020fb203          	ld	tp,32(t6)
    80000138:	028fb283          	ld	t0,40(t6)
    8000013c:	030fb303          	ld	t1,48(t6)
    80000140:	038fb383          	ld	t2,56(t6)
    80000144:	040fb403          	ld	s0,64(t6)
    80000148:	048fb483          	ld	s1,72(t6)
    8000014c:	050fb503          	ld	a0,80(t6)
    80000150:	058fb583          	ld	a1,88(t6)
    80000154:	060fb603          	ld	a2,96(t6)
    80000158:	068fb683          	ld	a3,104(t6)
    8000015c:	070fb703          	ld	a4,112(t6)
    80000160:	078fb783          	ld	a5,120(t6)
    80000164:	080fb803          	ld	a6,128(t6)
    80000168:	088fb883          	ld	a7,136(t6)
    8000016c:	090fb903          	ld	s2,144(t6)
    80000170:	098fb983          	ld	s3,152(t6)
    80000174:	0a0fba03          	ld	s4,160(t6)
    80000178:	0a8fba83          	ld	s5,168(t6)
    8000017c:	0b0fbb03          	ld	s6,176(t6)
    80000180:	0b8fbb83          	ld	s7,184(t6)
    80000184:	0c0fbc03          	ld	s8,192(t6)
    80000188:	0c8fbc83          	ld	s9,200(t6)
    8000018c:	0d0fbd03          	ld	s10,208(t6)
    80000190:	0d8fbd83          	ld	s11,216(t6)
    80000194:	0e0fbe03          	ld	t3,224(t6)
    80000198:	0e8fbe83          	ld	t4,232(t6)
    8000019c:	0f0fbf03          	ld	t5,240(t6)
    800001a0:	0f8fbf83          	ld	t6,248(t6)
    800001a4:	0040006f          	j	800001a8 <pseg_0>

00000000800001a8 <pseg_0>:
    800001a8:	3af00813          	li	a6,943
    800001ac:	b1418193          	addi	gp,gp,-1260 # 80001a24 <_end+0x314>
    800001b0:	00000e93          	li	t4,0
    800001b4:	bb400c93          	li	s9,-1100
    800001b8:	00100413          	li	s0,1
    800001bc:	9f118d13          	addi	s10,gp,-1551 # 80001901 <_end+0x1f1>
    800001c0:	00100393          	li	t2,1
    800001c4:	03f39393          	slli	t2,t2,0x3f
    800001c8:	03086133          	rem	sp,a6,a6
    800001cc:	00001097          	auipc	ra,0x1
    800001d0:	f1108093          	addi	ra,ra,-239 # 800010dd <fromhost+0x9d>
    800001d4:	bdfd3b03          	ld	s6,-1057(s10)
    800001d8:	fff00a93          	li	s5,-1
    800001dc:	26700913          	li	s2,615
    800001e0:	400092a3          	sh	zero,1029(ra)
    800001e4:	012cda33          	srl	s4,s9,s2
    800001e8:	00001297          	auipc	t0,0x1
    800001ec:	25a28293          	addi	t0,t0,602 # 80001442 <test_memory+0x142>
    800001f0:	00000f93          	li	t6,0
    800001f4:	1ef00793          	li	a5,495
    800001f8:	00001597          	auipc	a1,0x1
    800001fc:	17d58593          	addi	a1,a1,381 # 80001375 <test_memory+0x75>
    80000200:	15128123          	sb	a7,322(t0)
    80000204:	023c94b3          	mulh	s1,s9,gp
    80000208:	cd019f03          	lh	t5,-816(gp) # 80001be0 <_end+0x4d0>
    8000020c:	03f41413          	slli	s0,s0,0x3f
    80000210:	09b5b883          	ld	a7,155(a1)
    80000214:	30900693          	li	a3,777
    80000218:	01e00713          	li	a4,30
    8000021c:	01770213          	addi	tp,a4,23
    80000220:	40d78db3          	sub	s11,a5,a3
    80000224:	fff00313          	li	t1,-1
    80000228:	51700693          	li	a3,1303
    8000022c:	00001297          	auipc	t0,0x1
    80000230:	1f228293          	addi	t0,t0,498 # 8000141e <test_memory+0x11e>
    80000234:	be918913          	addi	s2,gp,-1047 # 80001af9 <_end+0x3e9>
    80000238:	edfec8e3          	blt	t4,t6,80000108 <crash_backward>
    8000023c:	02b581bb          	mulw	gp,a1,a1
    80000240:	01ffb4b3          	sltu	s1,t6,t6
    80000244:	00001b97          	auipc	s7,0x1
    80000248:	f3cb8b93          	addi	s7,s7,-196 # 80001180 <reg_x16_init>
    8000024c:	a5392103          	lw	sp,-1453(s2)
    80000250:	d4c00c93          	li	s9,-692
    80000254:	73291863          	bne	s2,s2,80000984 <crash_forward>
    80000258:	00001197          	auipc	gp,0x1
    8000025c:	51618193          	addi	gp,gp,1302 # 8000176e <_end+0x5e>
    80000260:	0021513b          	srlw	sp,sp,sp
    80000264:	37eb8e23          	sb	t5,892(s7)
    80000268:	de918913          	addi	s2,gp,-535 # 80001cf9 <_end+0x5e9>
    8000026c:	0052b833          	sltu	a6,t0,t0
    80000270:	007acab3          	xor	s5,s5,t2
    80000274:	f9c29e23          	sh	t3,-100(t0)
    80000278:	0150fc33          	and	s8,ra,s5
    8000027c:	c1019823          	sh	a6,-1008(gp) # 80001b20 <_end+0x410>
    80000280:	0196cf33          	xor	t5,a3,s9
    80000284:	70a51063          	bne	a0,a0,80000984 <crash_forward>
    80000288:	00001d17          	auipc	s10,0x1
    8000028c:	fb6d0d13          	addi	s10,s10,-74 # 8000123e <reg_x7_output+0x6>
    80000290:	007be633          	or	a2,s7,t2
    80000294:	2fbd4783          	lbu	a5,763(s10)
    80000298:	96d18113          	addi	sp,gp,-1683 # 8000187d <_end+0x16d>
    8000029c:	42845f93          	srai	t6,s0,0x28
    800002a0:	00100193          	li	gp,1
    800002a4:	00001b97          	auipc	s7,0x1
    800002a8:	0dbb8b93          	addi	s7,s7,219 # 8000137f <test_memory+0x7f>
    800002ac:	8c395483          	lhu	s1,-1853(s2)
    800002b0:	a2400593          	li	a1,-1500
    800002b4:	af8118a3          	sh	s8,-1295(sp)
    800002b8:	03f19193          	slli	gp,gp,0x3f
    800002bc:	edc00293          	li	t0,-292
    800002c0:	b6918213          	addi	tp,gp,-1175 # 80001a79 <_end+0x369>
    800002c4:	02b5a8b3          	mulhsu	a7,a1,a1
    800002c8:	5e000793          	li	a5,1504
    800002cc:	0279e9b3          	rem	s3,s3,t2
    800002d0:	00834333          	xor	t1,t1,s0
    800002d4:	c7b80e9b          	addiw	t4,a6,-901
    800002d8:	40f28d3b          	subw	s10,t0,a5
    800002dc:	fff00c93          	li	s9,-1
    800002e0:	006efe33          	and	t3,t4,t1
    800002e4:	73300d93          	li	s11,1843
    800002e8:	003cccb3          	xor	s9,s9,gp
    800002ec:	05a00a13          	li	s4,90
    800002f0:	019176b3          	and	a3,sp,s9
    800002f4:	97a18b13          	addi	s6,gp,-1670 # 8000188a <_end+0x17a>
    800002f8:	b8eb1d23          	sh	a4,-1126(s6)
    800002fc:	93725703          	lhu	a4,-1737(tp) # fffffffffffff937 <__global_pointer$+0xffffffff7fffda27>
    80000300:	034df0b3          	remu	ra,s11,s4
    80000304:	003b6f33          	or	t5,s6,gp
    80000308:	0086e533          	or	a0,a3,s0
    8000030c:	fb6b8803          	lb	a6,-74(s7)
    80000310:	020e62bb          	remw	t0,t3,zero
    80000314:	00001f17          	auipc	t5,0x1
    80000318:	b31f0f13          	addi	t5,t5,-1231 # 80000e45 <test_end+0x4ad>
    8000031c:	01b91313          	slli	t1,s2,0x1b
    80000320:	daf00393          	li	t2,-593
    80000324:	00001817          	auipc	a6,0x1
    80000328:	c2680813          	addi	a6,a6,-986 # 80000f4a <test_end+0x5b2>
    8000032c:	00001a17          	auipc	s4,0x1
    80000330:	e2ea0a13          	addi	s4,s4,-466 # 8000115a <reg_x11_init+0x2>
    80000334:	00100d93          	li	s11,1
    80000338:	64006663          	bltu	zero,zero,80000984 <crash_forward>
    8000033c:	3e200713          	li	a4,994
    80000340:	39c00993          	li	s3,924
    80000344:	a0118c13          	addi	s8,gp,-1535 # 80001911 <_end+0x201>
    80000348:	e6400313          	li	t1,-412
    8000034c:	00001597          	auipc	a1,0x1
    80000350:	c0658593          	addi	a1,a1,-1018 # 80000f52 <test_end+0x5ba>
    80000354:	cbf18d13          	addi	s10,gp,-833 # 80001bcf <_end+0x4bf>
    80000358:	00001097          	auipc	ra,0x1
    8000035c:	ead08093          	addi	ra,ra,-339 # 80001205 <begin_signature+0x5>
    80000360:	40ce551b          	sraiw	a0,t3,0xc
    80000364:	03fd9d93          	slli	s11,s11,0x3f
    80000368:	45ea3683          	ld	a3,1118(s4)
    8000036c:	35f0bda3          	sd	t6,859(ra)
    80000370:	f1f00793          	li	a5,-225
    80000374:	02f79cb3          	mulh	s9,a5,a5
    80000378:	00f342b3          	xor	t0,t1,a5
    8000037c:	033381b3          	mul	gp,t2,s3
    80000380:	fff00113          	li	sp,-1
    80000384:	bb600b13          	li	s6,-1098
    80000388:	62e83203          	ld	tp,1582(a6)
    8000038c:	db5c0d23          	sb	s5,-582(s8)
    80000390:	00000e13          	li	t3,0
    80000394:	036b2bb3          	mulhsu	s7,s6,s6
    80000398:	01b14133          	xor	sp,sp,s11
    8000039c:	5fb59823          	sh	s11,1520(a1)
    800003a0:	fe100613          	li	a2,-31
    800003a4:	00000493          	li	s1,0
    800003a8:	0023ffb3          	and	t6,t2,sp
    800003ac:	6fbf5903          	lhu	s2,1787(t5)
    800003b0:	01b16ab3          	or	s5,sp,s11
    800003b4:	d49e4ae3          	blt	t3,s1,80000108 <crash_backward>
    800003b8:	000d8393          	mv	t2,s11
    800003bc:	00038b13          	mv	s6,t2
    800003c0:	a0dd1ba3          	sh	a3,-1513(s10)
    800003c4:	00001c97          	auipc	s9,0x1
    800003c8:	064c8c93          	addi	s9,s9,100 # 80001428 <test_memory+0x128>
    800003cc:	02c71eb3          	mulh	t4,a4,a2
    800003d0:	8f07cb93          	xori	s7,a5,-1808
    800003d4:	e7b00413          	li	s0,-389
    800003d8:	00001297          	auipc	t0,0x1
    800003dc:	d7e28293          	addi	t0,t0,-642 # 80001156 <reg_x10_init+0x6>
    800003e0:	00001597          	auipc	a1,0x1
    800003e4:	bf858593          	addi	a1,a1,-1032 # 80000fd8 <test_end+0x640>
    800003e8:	47c5aa23          	sw	t3,1140(a1)
    800003ec:	43629123          	sh	s6,1058(t0)
    800003f0:	93500513          	li	a0,-1739
    800003f4:	038af73b          	remuw	a4,s5,s8
    800003f8:	00001917          	auipc	s2,0x1
    800003fc:	a7990913          	addi	s2,s2,-1415 # 80000e71 <test_end+0x4d9>
    80000400:	00001d17          	auipc	s10,0x1
    80000404:	a3cd0d13          	addi	s10,s10,-1476 # 80000e3c <test_end+0x4a4>
    80000408:	57fade63          	bge	s5,t6,80000984 <crash_forward>
    8000040c:	4019581b          	sraiw	a6,s2,0x1
    80000410:	5ff96203          	lwu	tp,1535(s2)
    80000414:	00001297          	auipc	t0,0x1
    80000418:	93d28293          	addi	t0,t0,-1731 # 80000d51 <test_end+0x3b9>
    8000041c:	00001597          	auipc	a1,0x1
    80000420:	01358593          	addi	a1,a1,19 # 8000142f <test_memory+0x12f>
    80000424:	00001b97          	auipc	s7,0x1
    80000428:	ba2b8b93          	addi	s7,s7,-1118 # 80000fc6 <test_end+0x62e>
    8000042c:	02a576b3          	remu	a3,a0,a0
    80000430:	00001c17          	auipc	s8,0x1
    80000434:	ed2c0c13          	addi	s8,s8,-302 # 80001302 <test_memory+0x2>
    80000438:	5e3b9b23          	sh	gp,1526(s7)
    8000043c:	00000a93          	li	s5,0
    80000440:	6b8d2e83          	lw	t4,1720(s10)
    80000444:	bf300793          	li	a5,-1037
    80000448:	00000113          	li	sp,0
    8000044c:	00100f13          	li	t5,1
    80000450:	0e100693          	li	a3,225
    80000454:	00001917          	auipc	s2,0x1
    80000458:	ca090913          	addi	s2,s2,-864 # 800010f4 <fromhost+0xb4>
    8000045c:	00001217          	auipc	tp,0x1
    80000460:	f9620213          	addi	tp,tp,-106 # 800013f2 <test_memory+0xf2>
    80000464:	03ff1f13          	slli	t5,t5,0x3f
    80000468:	fff00493          	li	s1,-1
    8000046c:	fb8ca083          	lw	ra,-72(s9)
    80000470:	01d9883b          	addw	a6,s3,t4
    80000474:	02d68eb3          	mul	t4,a3,a3
    80000478:	7872b603          	ld	a2,1927(t0)
    8000047c:	55c95f83          	lhu	t6,1372(s2)
    80000480:	01e4c4b3          	xor	s1,s1,t5
    80000484:	3c900993          	li	s3,969
    80000488:	20626703          	lwu	a4,518(tp) # 206 <_start-0x7ffffdfa>
    8000048c:	033781b3          	mul	gp,a5,s3
    80000490:	e6740893          	addi	a7,s0,-409
    80000494:	0345753b          	remuw	a0,a0,s4
    80000498:	020ccdbb          	divw	s11,s9,zero
    8000049c:	0ad586a3          	sb	a3,173(a1)
    800004a0:	00311833          	sll	a6,sp,gp
    800004a4:	00001797          	auipc	a5,0x1
    800004a8:	9b678793          	addi	a5,a5,-1610 # 80000e5a <test_end+0x4c2>
    800004ac:	e3b00b93          	li	s7,-453
    800004b0:	88800513          	li	a0,-1912
    800004b4:	009cf333          	and	t1,s9,s1
    800004b8:	52279e83          	lh	t4,1314(a5)
    800004bc:	025dccb3          	div	s9,s11,t0
    800004c0:	f8400c93          	li	s9,-124
    800004c4:	417bd73b          	sraw	a4,s7,s7
    800004c8:	0344d193          	srli	gp,s1,0x34
    800004cc:	00001b17          	auipc	s6,0x1
    800004d0:	a81b0b13          	addi	s6,s6,-1407 # 80000f4d <test_end+0x5b5>
    800004d4:	40aa5213          	srai	tp,s4,0xa
    800004d8:	4a2ac663          	blt	s5,sp,80000984 <crash_forward>
    800004dc:	47fb6d83          	lwu	s11,1151(s6)
    800004e0:	d5218093          	addi	ra,gp,-686 # 80001c62 <_end+0x552>
    800004e4:	8bf50913          	addi	s2,a0,-1857
    800004e8:	4038d813          	srai	a6,a7,0x3
    800004ec:	3dec6e03          	lwu	t3,990(s8)
    800004f0:	01e36a33          	or	s4,t1,t5
    800004f4:	486a5863          	bge	s4,t1,80000984 <crash_forward>
    800004f8:	af700193          	li	gp,-1289
    800004fc:	00001997          	auipc	s3,0x1
    80000500:	ae398993          	addi	s3,s3,-1309 # 80000fdf <test_end+0x647>
    80000504:	1d700d93          	li	s11,471
    80000508:	40c60abb          	subw	s5,a2,a2
    8000050c:	91409283          	lh	t0,-1772(ra)
    80000510:	0118ae33          	slt	t3,a7,a7
    80000514:	5af9861b          	addiw	a2,s3,1455
    80000518:	00001a97          	auipc	s5,0x1
    8000051c:	e13a8a93          	addi	s5,s5,-493 # 8000132b <test_memory+0x2b>
    80000520:	34700f93          	li	t6,839
    80000524:	20b00e13          	li	t3,523
    80000528:	6fe00713          	li	a4,1790
    8000052c:	f9218b93          	addi	s7,gp,-110 # 80001ea2 <_end+0x792>
    80000530:	03bdca3b          	divw	s4,s11,s11
    80000534:	03fff6bb          	remuw	a3,t6,t6
    80000538:	00000493          	li	s1,0
    8000053c:	03ce70bb          	remuw	ra,t3,t3
    80000540:	00001d17          	auipc	s10,0x1
    80000544:	a9cd0d13          	addi	s10,s10,-1380 # 80000fdc <test_end+0x644>
    80000548:	039cf7b3          	remu	a5,s9,s9
    8000054c:	5719e403          	lwu	s0,1393(s3)
    80000550:	57dd1b23          	sh	t4,1398(s10)
    80000554:	00001117          	auipc	sp,0x1
    80000558:	ed610113          	addi	sp,sp,-298 # 8000142a <test_memory+0x12a>
    8000055c:	00001617          	auipc	a2,0x1
    80000560:	01760613          	addi	a2,a2,23 # 80001573 <test_memory+0x273>
    80000564:	00001697          	auipc	a3,0x1
    80000568:	2a068693          	addi	a3,a3,672 # 80001804 <_end+0xf4>
    8000056c:	299a95a3          	sh	s9,651(s5)
    80000570:	adb00b13          	li	s6,-1317
    80000574:	fd500d93          	li	s11,-43
    80000578:	01cd0a33          	add	s4,s10,t3
    8000057c:	03e11d23          	sh	t5,58(sp)
    80000580:	bac18f93          	addi	t6,gp,-1108 # 80001abc <_end+0x3ac>
    80000584:	b4df8c83          	lb	s9,-1203(t6)
    80000588:	c676a023          	sw	t2,-928(a3)
    8000058c:	00000c13          	li	s8,0
    80000590:	41bddd3b          	sraw	s10,s11,s11
    80000594:	ea1b0313          	addi	t1,s6,-351
    80000598:	47700993          	li	s3,1143
    8000059c:	e4d65283          	lhu	t0,-435(a2)
    800005a0:	b63bd4e3          	bge	s7,gp,80000108 <crash_backward>
    800005a4:	0139e433          	or	s0,s3,s3
    800005a8:	02e75eb3          	divu	t4,a4,a4
    800005ac:	1f800f13          	li	t5,504
    800005b0:	02037e33          	remu	t3,t1,zero
    800005b4:	90500813          	li	a6,-1787
    800005b8:	71f00993          	li	s3,1823
    800005bc:	7d800f93          	li	t6,2008
    800005c0:	4067dd1b          	sraiw	s10,a5,0x6
    800005c4:	cfa18093          	addi	ra,gp,-774 # 80001c0a <_end+0x4fa>
    800005c8:	81300a13          	li	s4,-2029
    800005cc:	010f1233          	sll	tp,t5,a6
    800005d0:	a0f18513          	addi	a0,gp,-1521 # 8000191f <_end+0x20f>
    800005d4:	c40534a3          	sd	zero,-951(a0)
    800005d8:	c8c00313          	li	t1,-884
    800005dc:	00000c93          	li	s9,0
    800005e0:	be900b13          	li	s6,-1047
    800005e4:	03398eb3          	mul	t4,s3,s3
    800005e8:	9260bf23          	sd	t1,-1730(ra)
    800005ec:	79200d13          	li	s10,1938
    800005f0:	a7518513          	addi	a0,gp,-1419 # 80001985 <_end+0x275>
    800005f4:	00001d97          	auipc	s11,0x1
    800005f8:	d97d8d93          	addi	s11,s11,-617 # 8000138b <test_memory+0x8b>
    800005fc:	6ced0793          	addi	a5,s10,1742
    80000600:	2a9de283          	lwu	t0,681(s11)
    80000604:	db110f13          	addi	t5,sp,-591
    80000608:	36004e63          	bltz	zero,80000984 <crash_forward>
    8000060c:	0d600893          	li	a7,214
    80000610:	00001117          	auipc	sp,0x1
    80000614:	08710113          	addi	sp,sp,135 # 80001697 <test_memory+0x397>
    80000618:	005611bb          	sllw	gp,a2,t0
    8000061c:	af8496e3          	bne	s1,s8,80000108 <crash_backward>
    80000620:	03ff8bbb          	mulw	s7,t6,t6
    80000624:	b9fa0a93          	addi	s5,s4,-1121
    80000628:	aa618693          	addi	a3,gp,-1370 # 800019b6 <_end+0x2a6>
    8000062c:	0363573b          	divuw	a4,t1,s6
    80000630:	00001d97          	auipc	s11,0x1
    80000634:	9abd8d93          	addi	s11,s11,-1621 # 80000fdb <test_end+0x643>
    80000638:	685d9e83          	lh	t4,1669(s11)
    8000063c:	00000613          	li	a2,0
    80000640:	000b8913          	mv	s2,s7
    80000644:	e4b00f13          	li	t5,-437
    80000648:	a76539a3          	sd	s6,-1421(a0)
    8000064c:	b426ee03          	lwu	t3,-1214(a3)
    80000650:	4eb00393          	li	t2,1259
    80000654:	045138a3          	sd	t0,81(sp)
    80000658:	027885bb          	mulw	a1,a7,t2
    8000065c:	f03f0293          	addi	t0,t5,-253
    80000660:	ab4af4e3          	bgeu	s5,s4,80000108 <crash_backward>
    80000664:	00090413          	mv	s0,s2
    80000668:	3f100993          	li	s3,1009
    8000066c:	ea400213          	li	tp,-348
    80000670:	55898093          	addi	ra,s3,1368
    80000674:	000b8b93          	mv	s7,s7
    80000678:	fd700313          	li	t1,-41
    8000067c:	02426833          	rem	a6,tp,tp
    80000680:	009f6db3          	or	s11,t5,s1
    80000684:	eac00f13          	li	t5,-340
    80000688:	022dfe3b          	remuw	t3,s11,sp
    8000068c:	78400a93          	li	s5,1924
    80000690:	d8718393          	addi	t2,gp,-633 # 80001c97 <_end+0x587>
    80000694:	0d4a8513          	addi	a0,s5,212
    80000698:	2eaa8663          	beq	s5,a0,80000984 <crash_forward>
    8000069c:	5d500a93          	li	s5,1493
    800006a0:	03ef1a33          	mulh	s4,t5,t5
    800006a4:	12500293          	li	t0,293
    800006a8:	03e126b3          	mulhsu	a3,sp,t5
    800006ac:	4053013b          	subw	sp,t1,t0
    800006b0:	93087993          	andi	s3,a6,-1744
    800006b4:	41900f93          	li	t6,1049
    800006b8:	4118d0b3          	sra	ra,a7,a7
    800006bc:	cee00d93          	li	s11,-786
    800006c0:	01399e33          	sll	t3,s3,s3
    800006c4:	00001c97          	auipc	s9,0x1
    800006c8:	851c8c93          	addi	s9,s9,-1967 # 80000f15 <test_end+0x57d>
    800006cc:	00000217          	auipc	tp,0x0
    800006d0:	68820213          	addi	tp,tp,1672 # 80000d54 <test_end+0x3bc>
    800006d4:	000b8613          	mv	a2,s7
    800006d8:	00001897          	auipc	a7,0x1
    800006dc:	13288893          	addi	a7,a7,306 # 8000180a <_end+0xfa>
    800006e0:	01ffbb33          	sltu	s6,t6,t6
    800006e4:	03ba8833          	mul	a6,s5,s11
    800006e8:	00100993          	li	s3,1
    800006ec:	03f99993          	slli	s3,s3,0x3f
    800006f0:	00000517          	auipc	a0,0x0
    800006f4:	4f250513          	addi	a0,a0,1266 # 80000be2 <test_end+0x24a>
    800006f8:	482cc783          	lbu	a5,1154(s9)
    800006fc:	c068bc03          	ld	s8,-1018(a7)
    80000700:	a303a0a3          	sw	a6,-1503(t2)
    80000704:	018e171b          	slliw	a4,t3,0x18
    80000708:	83600d93          	li	s11,-1994
    8000070c:	7d426f03          	lwu	t5,2004(tp) # 7d4 <_start-0x7ffff82c>
    80000710:	01bd8abb          	addw	s5,s11,s11
    80000714:	00000b13          	li	s6,0
    80000718:	00000f93          	li	t6,0
    8000071c:	00100313          	li	t1,1
    80000720:	03f31313          	slli	t1,t1,0x3f
    80000724:	fff00293          	li	t0,-1
    80000728:	03b871bb          	remuw	gp,a6,s11
    8000072c:	00100493          	li	s1,1
    80000730:	0132c2b3          	xor	t0,t0,s3
    80000734:	fff00e13          	li	t3,-1
    80000738:	76553323          	sd	t0,1894(a0)
    8000073c:	006e4e33          	xor	t3,t3,t1
    80000740:	005d7a33          	and	s4,s10,t0
    80000744:	01c8f0b3          	and	ra,a7,t3
    80000748:	0060e133          	or	sp,ra,t1
    8000074c:	03f49493          	slli	s1,s1,0x3f
    80000750:	9d300c93          	li	s9,-1581
    80000754:	a47c8413          	addi	s0,s9,-1465
    80000758:	00100613          	li	a2,1
    8000075c:	00100f93          	li	t6,1
    80000760:	c7200393          	li	t2,-910
    80000764:	00001917          	auipc	s2,0x1
    80000768:	d4a90913          	addi	s2,s2,-694 # 800014ae <test_memory+0x1ae>
    8000076c:	20115c63          	bge	sp,ra,80000984 <crash_forward>
    80000770:	05293b83          	ld	s7,82(s2)
    80000774:	00001c17          	auipc	s8,0x1
    80000778:	eb0c0c13          	addi	s8,s8,-336 # 80001624 <test_memory+0x324>
    8000077c:	80d00213          	li	tp,-2035
    80000780:	03ff9f93          	slli	t6,t6,0x3f
    80000784:	fff00893          	li	a7,-1
    80000788:	01f8c8b3          	xor	a7,a7,t6
    8000078c:	011d7f33          	and	t5,s10,a7
    80000790:	03f61613          	slli	a2,a2,0x3f
    80000794:	01fa67b3          	or	a5,s4,t6
    80000798:	018c7133          	and	sp,s8,s8
    8000079c:	fff00e93          	li	t4,-1
    800007a0:	00001e17          	auipc	t3,0x1
    800007a4:	903e0e13          	addi	t3,t3,-1789 # 800010a3 <fromhost+0x63>
    800007a8:	fff00813          	li	a6,-1
    800007ac:	00c84833          	xor	a6,a6,a2
    800007b0:	03ef2ab3          	mulhsu	s5,t5,t5
    800007b4:	52500513          	li	a0,1317
    800007b8:	02a50733          	mul	a4,a0,a0
    800007bc:	e8cc2223          	sw	a2,-380(s8)
    800007c0:	00001417          	auipc	s0,0x1
    800007c4:	ff140413          	addi	s0,s0,-15 # 800017b1 <_end+0xa1>
    800007c8:	b6b42903          	lw	s2,-1173(s0)
    800007cc:	0243ab33          	mulhsu	s6,t2,tp
    800007d0:	013d66b3          	or	a3,s10,s3
    800007d4:	ed400093          	li	ra,-300
    800007d8:	1e800b93          	li	s7,488
    800007dc:	009eceb3          	xor	t4,t4,s1
    800007e0:	010a7db3          	and	s11,s4,a6
    800007e4:	0273f33b          	remuw	t1,t2,t2
    800007e8:	0170acb3          	slt	s9,ra,s7
    800007ec:	000e0413          	mv	s0,t3
    800007f0:	01da75b3          	and	a1,s4,t4
    800007f4:	00cde1b3          	or	gp,s11,a2
    800007f8:	5c5e17a3          	sh	t0,1487(t3)
    800007fc:	01b0991b          	slliw	s2,ra,0x1b
    80000800:	00001797          	auipc	a5,0x1
    80000804:	8b378793          	addi	a5,a5,-1869 # 800010b3 <fromhost+0x73>
    80000808:	00c619b3          	sll	s3,a2,a2
    8000080c:	02c65a3b          	divuw	s4,a2,a2
    80000810:	6fd00213          	li	tp,1789
    80000814:	8dd00313          	li	t1,-1827
    80000818:	b2b18913          	addi	s2,gp,-1237 # 80001a3b <_end+0x32b>
    8000081c:	00001c97          	auipc	s9,0x1
    80000820:	f8ec8c93          	addi	s9,s9,-114 # 800017aa <_end+0x9a>
    80000824:	2597af83          	lw	t6,601(a5)
    80000828:	02427abb          	remuw	s5,tp,tp
    8000082c:	0095ed33          	or	s10,a1,s1
    80000830:	8c3dfce3          	bgeu	s11,gp,80000108 <crash_backward>
    80000834:	dacc9523          	sh	a2,-598(s9)
    80000838:	00001797          	auipc	a5,0x1
    8000083c:	e4f78793          	addi	a5,a5,-433 # 80001687 <test_memory+0x387>
    80000840:	3a800b93          	li	s7,936
    80000844:	01fd0b33          	add	s6,s10,t6
    80000848:	017310bb          	sllw	ra,t1,s7
    8000084c:	00100713          	li	a4,1
    80000850:	03f71713          	slli	a4,a4,0x3f
    80000854:	b1894983          	lbu	s3,-1256(s2)
    80000858:	90500a13          	li	s4,-1787
    8000085c:	ee278a83          	lb	s5,-286(a5)
    80000860:	b8700613          	li	a2,-1145
    80000864:	fff00c13          	li	s8,-1
    80000868:	014a2e33          	slt	t3,s4,s4
    8000086c:	68b00213          	li	tp,1675
    80000870:	005d6833          	or	a6,s10,t0
    80000874:	aff18693          	addi	a3,gp,-1281 # 80001a0f <_end+0x2ff>
    80000878:	00ec4c33          	xor	s8,s8,a4
    8000087c:	018ef3b3          	and	t2,t4,s8
    80000880:	00e3ef33          	or	t5,t2,a4
    80000884:	02c631b3          	mulhu	gp,a2,a2
    80000888:	52800113          	li	sp,1320
    8000088c:	02420db3          	mul	s11,tp,tp
    80000890:	bb600d13          	li	s10,-1098
    80000894:	00100b13          	li	s6,1
    80000898:	00001817          	auipc	a6,0x1
    8000089c:	be280813          	addi	a6,a6,-1054 # 8000147a <test_memory+0x17a>
    800008a0:	94b68423          	sb	a1,-1720(a3)
    800008a4:	03fb1b13          	slli	s6,s6,0x3f
    800008a8:	00000b97          	auipc	s7,0x0
    800008ac:	683b8b93          	addi	s7,s7,1667 # 80000f2b <test_end+0x593>
    800008b0:	66dbb903          	ld	s2,1645(s7)
    800008b4:	0a485e03          	lhu	t3,164(a6)
    800008b8:	a74d0713          	addi	a4,s10,-1420
    800008bc:	21f00093          	li	ra,543
    800008c0:	fff00213          	li	tp,-1
    800008c4:	0fd00a13          	li	s4,253
    800008c8:	00001e97          	auipc	t4,0x1
    800008cc:	a9ee8e93          	addi	t4,t4,-1378 # 80001366 <test_memory+0x66>
    800008d0:	0021553b          	srlw	a0,sp,sp
    800008d4:	82ed0ae3          	beq	s10,a4,80000108 <crash_backward>
    800008d8:	0340d9b3          	divu	s3,ra,s4
    800008dc:	01624233          	xor	tp,tp,s6
    800008e0:	00040293          	mv	t0,s0
    800008e4:	004e74b3          	and	s1,t3,tp
    800008e8:	0164ec33          	or	s8,s1,s6
    800008ec:	b7118893          	addi	a7,gp,-1167 # 80001a81 <_end+0x371>
    800008f0:	08544a63          	blt	s0,t0,80000984 <crash_forward>
    800008f4:	906890a3          	sh	t1,-1791(a7)
    800008f8:	2e4e9e23          	sh	tp,764(t4)
    800008fc:	0040006f          	j	80000900 <reg_dump>

0000000080000900 <reg_dump>:
    80000900:	00001097          	auipc	ra,0x1
    80000904:	e0008093          	addi	ra,ra,-512 # 80001700 <loop_count>
    80000908:	0000a103          	lw	sp,0(ra)
    8000090c:	fff10193          	addi	gp,sp,-1
    80000910:	0030a023          	sw	gp,0(ra)
    80000914:	88011ae3          	bnez	sp,800001a8 <pseg_0>
    80000918:	00001097          	auipc	ra,0x1
    8000091c:	8e808093          	addi	ra,ra,-1816 # 80001200 <begin_signature>
    80000920:	0000b023          	sd	zero,0(ra)
    80000924:	0020b823          	sd	sp,16(ra)
    80000928:	0030bc23          	sd	gp,24(ra)
    8000092c:	0240b023          	sd	tp,32(ra)
    80000930:	0250b423          	sd	t0,40(ra)
    80000934:	0260b823          	sd	t1,48(ra)
    80000938:	0270bc23          	sd	t2,56(ra)
    8000093c:	0480b023          	sd	s0,64(ra)
    80000940:	0490b423          	sd	s1,72(ra)
    80000944:	04a0b823          	sd	a0,80(ra)
    80000948:	04b0bc23          	sd	a1,88(ra)
    8000094c:	06c0b023          	sd	a2,96(ra)
    80000950:	06e0b823          	sd	a4,112(ra)
    80000954:	0920b823          	sd	s2,144(ra)
    80000958:	0930bc23          	sd	s3,152(ra)
    8000095c:	0b40b023          	sd	s4,160(ra)
    80000960:	0b50b423          	sd	s5,168(ra)
    80000964:	0b60b823          	sd	s6,176(ra)
    80000968:	0d80b023          	sd	s8,192(ra)
    8000096c:	0da0b823          	sd	s10,208(ra)
    80000970:	0db0bc23          	sd	s11,216(ra)
    80000974:	0fc0b023          	sd	t3,224(ra)
    80000978:	0fe0b823          	sd	t5,240(ra)
    8000097c:	0ff0bc23          	sd	t6,248(ra)
    80000980:	0180006f          	j	80000998 <test_end>

0000000080000984 <crash_forward>:
    80000984:	0ff0000f          	fence
    80000988:	00018063          	beqz	gp,80000988 <crash_forward+0x4>
    8000098c:	00119193          	slli	gp,gp,0x1
    80000990:	0011e193          	ori	gp,gp,1
    80000994:	00000073          	ecall

0000000080000998 <test_end>:
    80000998:	0ff0000f          	fence
    8000099c:	00100193          	li	gp,1
    800009a0:	00000073          	ecall
    800009a4:	c0001073          	unimp
	...

Disassembly of section .tohost:

0000000080001000 <tohost>:
	...

0000000080001040 <fromhost>:
	...
