
test.elf:     file format elf64-littleriscv


Disassembly of section .text.init:

0000000080000000 <_start>:
    80000000:	0580006f          	j	80000058 <reset_vector>

0000000080000004 <trap_vector>:
    80000004:	34202f73          	csrr	t5,mcause
    80000008:	00800f93          	li	t6,8
    8000000c:	05ff0063          	beq	t5,t6,8000004c <write_tohost>
    80000010:	00900f93          	li	t6,9
    80000014:	03ff0c63          	beq	t5,t6,8000004c <write_tohost>
    80000018:	00b00f93          	li	t6,11
    8000001c:	03ff0863          	beq	t5,t6,8000004c <write_tohost>
    80000020:	00000f13          	li	t5,0
    80000024:	000f0463          	beqz	t5,8000002c <trap_vector+0x28>
    80000028:	000f0067          	jr	t5
    8000002c:	34202f73          	csrr	t5,mcause
    80000030:	000f5463          	bgez	t5,80000038 <handle_exception>
    80000034:	0140006f          	j	80000048 <other_exception>

0000000080000038 <handle_exception>:
    80000038:	34102e73          	csrr	t3,mepc
    8000003c:	004e0e13          	addi	t3,t3,4
    80000040:	341e1073          	csrw	mepc,t3
    80000044:	30200073          	mret

0000000080000048 <other_exception>:
    80000048:	5391e193          	ori	gp,gp,1337

000000008000004c <write_tohost>:
    8000004c:	00001f17          	auipc	t5,0x1
    80000050:	fa3f2a23          	sw	gp,-76(t5) # 80001000 <tohost>
    80000054:	ff9ff06f          	j	8000004c <write_tohost>

0000000080000058 <reset_vector>:
    80000058:	f1402573          	csrr	a0,mhartid
    8000005c:	00051063          	bnez	a0,8000005c <reset_vector+0x4>
    80000060:	00000297          	auipc	t0,0x0
    80000064:	01028293          	addi	t0,t0,16 # 80000070 <reset_vector+0x18>
    80000068:	30529073          	csrw	mtvec,t0
    8000006c:	18005073          	csrwi	satp,0
    80000070:	00000297          	auipc	t0,0x0
    80000074:	01c28293          	addi	t0,t0,28 # 8000008c <reset_vector+0x34>
    80000078:	30529073          	csrw	mtvec,t0
    8000007c:	fff00293          	li	t0,-1
    80000080:	3b029073          	csrw	pmpaddr0,t0
    80000084:	01f00293          	li	t0,31
    80000088:	3a029073          	csrw	pmpcfg0,t0
    8000008c:	00000297          	auipc	t0,0x0
    80000090:	01828293          	addi	t0,t0,24 # 800000a4 <reset_vector+0x4c>
    80000094:	30529073          	csrw	mtvec,t0
    80000098:	30205073          	csrwi	medeleg,0
    8000009c:	30305073          	csrwi	mideleg,0
    800000a0:	30405073          	csrwi	mie,0
    800000a4:	00000193          	li	gp,0
    800000a8:	00000297          	auipc	t0,0x0
    800000ac:	f5c28293          	addi	t0,t0,-164 # 80000004 <trap_vector>
    800000b0:	30529073          	csrw	mtvec,t0
    800000b4:	00100513          	li	a0,1
    800000b8:	01f51513          	slli	a0,a0,0x1f
    800000bc:	00055863          	bgez	a0,800000cc <reset_vector+0x74>
    800000c0:	0ff0000f          	fence
    800000c4:	00100193          	li	gp,1
    800000c8:	00000073          	ecall
    800000cc:	00000293          	li	t0,0
    800000d0:	00028e63          	beqz	t0,800000ec <reset_vector+0x94>
    800000d4:	10529073          	csrw	stvec,t0
    800000d8:	0000b2b7          	lui	t0,0xb
    800000dc:	1092829b          	addiw	t0,t0,265
    800000e0:	30229073          	csrw	medeleg,t0
    800000e4:	30202373          	csrr	t1,medeleg
    800000e8:	f66290e3          	bne	t0,t1,80000048 <other_exception>
    800000ec:	30005073          	csrwi	mstatus,0
    800000f0:	00000297          	auipc	t0,0x0
    800000f4:	01428293          	addi	t0,t0,20 # 80000104 <reset_vector+0xac>
    800000f8:	34129073          	csrw	mepc,t0
    800000fc:	f1402573          	csrr	a0,mhartid
    80000100:	30200073          	mret
    80000104:	0180006f          	j	8000011c <test_start>

0000000080000108 <crash_backward>:
    80000108:	0ff0000f          	fence
    8000010c:	00018063          	beqz	gp,8000010c <crash_backward+0x4>
    80000110:	00119193          	slli	gp,gp,0x1
    80000114:	0011e193          	ori	gp,gp,1
    80000118:	00000073          	ecall

000000008000011c <test_start>:
    8000011c:	00001f97          	auipc	t6,0x1
    80000120:	fe4f8f93          	addi	t6,t6,-28 # 80001100 <hidden_data>
    80000124:	000fb003          	ld	zero,0(t6)
    80000128:	008fb083          	ld	ra,8(t6)
    8000012c:	010fb103          	ld	sp,16(t6)
    80000130:	018fb183          	ld	gp,24(t6)
    80000134:	020fb203          	ld	tp,32(t6)
    80000138:	028fb283          	ld	t0,40(t6)
    8000013c:	030fb303          	ld	t1,48(t6)
    80000140:	038fb383          	ld	t2,56(t6)
    80000144:	040fb403          	ld	s0,64(t6)
    80000148:	048fb483          	ld	s1,72(t6)
    8000014c:	050fb503          	ld	a0,80(t6)
    80000150:	058fb583          	ld	a1,88(t6)
    80000154:	060fb603          	ld	a2,96(t6)
    80000158:	068fb683          	ld	a3,104(t6)
    8000015c:	070fb703          	ld	a4,112(t6)
    80000160:	078fb783          	ld	a5,120(t6)
    80000164:	080fb803          	ld	a6,128(t6)
    80000168:	088fb883          	ld	a7,136(t6)
    8000016c:	090fb903          	ld	s2,144(t6)
    80000170:	098fb983          	ld	s3,152(t6)
    80000174:	0a0fba03          	ld	s4,160(t6)
    80000178:	0a8fba83          	ld	s5,168(t6)
    8000017c:	0b0fbb03          	ld	s6,176(t6)
    80000180:	0b8fbb83          	ld	s7,184(t6)
    80000184:	0c0fbc03          	ld	s8,192(t6)
    80000188:	0c8fbc83          	ld	s9,200(t6)
    8000018c:	0d0fbd03          	ld	s10,208(t6)
    80000190:	0d8fbd83          	ld	s11,216(t6)
    80000194:	0e0fbe03          	ld	t3,224(t6)
    80000198:	0e8fbe83          	ld	t4,232(t6)
    8000019c:	0f0fbf03          	ld	t5,240(t6)
    800001a0:	0f8fbf83          	ld	t6,248(t6)
    800001a4:	0040006f          	j	800001a8 <pseg_0>

00000000800001a8 <pseg_0>:
    800001a8:	03ebadb3          	mulhsu	s11,s7,t5
    800001ac:	032b453b          	divw	a0,s6,s2
    800001b0:	96618613          	addi	a2,gp,-1690 # 80001876 <_end+0x166>
    800001b4:	0379043b          	mulw	s0,s2,s7
    800001b8:	00001517          	auipc	a0,0x1
    800001bc:	e3d50513          	addi	a0,a0,-451 # 80000ff5 <test_end+0x655>
    800001c0:	44752903          	lw	s2,1095(a0)
    800001c4:	00001317          	auipc	t1,0x1
    800001c8:	27d30313          	addi	t1,t1,637 # 80001441 <test_memory+0x141>
    800001cc:	35d00113          	li	sp,861
    800001d0:	00001e17          	auipc	t3,0x1
    800001d4:	574e0e13          	addi	t3,t3,1396 # 80001744 <_end+0x34>
    800001d8:	03fe92b3          	mulh	t0,t4,t6
    800001dc:	00001217          	auipc	tp,0x1
    800001e0:	b7b20213          	addi	tp,tp,-1157 # 80000d57 <test_end+0x3b7>
    800001e4:	e3600f93          	li	t6,-458
    800001e8:	e7c00193          	li	gp,-388
    800001ec:	00001597          	auipc	a1,0x1
    800001f0:	35f58593          	addi	a1,a1,863 # 8000154b <test_memory+0x24b>
    800001f4:	01ffeb33          	or	s6,t6,t6
    800001f8:	01f15d33          	srl	s10,sp,t6
    800001fc:	b2262083          	lw	ra,-1246(a2)
    80000200:	00b85a13          	srli	s4,a6,0xb
    80000204:	aa600993          	li	s3,-1370
    80000208:	25d300a3          	sb	t4,577(t1)
    8000020c:	3b300f13          	li	t5,947
    80000210:	e265ce83          	lbu	t4,-474(a1)
    80000214:	00100813          	li	a6,1
    80000218:	64f20123          	sb	a5,1602(tp) # 642 <_start-0x7ffff9be>
    8000021c:	000f0793          	mv	a5,t5
    80000220:	03e1e4bb          	remw	s1,gp,t5
    80000224:	03f81813          	slli	a6,a6,0x3f
    80000228:	e7818a13          	addi	s4,gp,-392 # 80001d88 <_end+0x678>
    8000022c:	93c18f93          	addi	t6,gp,-1732 # 8000184c <_end+0x13c>
    80000230:	ceb18c13          	addi	s8,gp,-789 # 80001bfb <_end+0x4eb>
    80000234:	d75fa223          	sw	s5,-668(t6)
    80000238:	a3600c93          	li	s9,-1482
    8000023c:	00078a93          	mv	s5,a5
    80000240:	039ce73b          	remw	a4,s9,s9
    80000244:	42b2d213          	srai	tp,t0,0x2b
    80000248:	41398bbb          	subw	s7,s3,s3
    8000024c:	fff00913          	li	s2,-1
    80000250:	00001d97          	auipc	s11,0x1
    80000254:	c1ad8d93          	addi	s11,s11,-998 # 80000e6a <test_end+0x4ca>
    80000258:	0294e4bb          	remw	s1,s1,s1
    8000025c:	00001197          	auipc	gp,0x1
    80000260:	ad918193          	addi	gp,gp,-1319 # 80000d35 <test_end+0x395>
    80000264:	6eed9923          	sh	a4,1778(s11)
    80000268:	82ca6b03          	lwu	s6,-2004(s4)
    8000026c:	9de18413          	addi	s0,gp,-1570 # 800018ee <_end+0x1de>
    80000270:	e08e6683          	lwu	a3,-504(t3)
    80000274:	00001117          	auipc	sp,0x1
    80000278:	ea210113          	addi	sp,sp,-350 # 80001116 <reg_x2_init+0x6>
    8000027c:	00001397          	auipc	t2,0x1
    80000280:	2cd38393          	addi	t2,t2,717 # 80001549 <test_memory+0x249>
    80000284:	00001e97          	auipc	t4,0x1
    80000288:	beae8e93          	addi	t4,t4,-1046 # 80000e6e <test_end+0x4ce>
    8000028c:	0833a883          	lw	a7,131(t2)
    80000290:	7af00613          	li	a2,1967
    80000294:	ceb18593          	addi	a1,gp,-789 # 80001bfb <_end+0x4eb>
    80000298:	d1540123          	sb	s5,-766(s0)
    8000029c:	00100f93          	li	t6,1
    800002a0:	7a3ec083          	lbu	ra,1955(t4)
    800002a4:	85758323          	sb	s7,-1978(a1)
    800002a8:	00001d97          	auipc	s11,0x1
    800002ac:	ea3d8d93          	addi	s11,s11,-349 # 8000114b <reg_x9_init+0x3>
    800002b0:	32212d03          	lw	s10,802(sp)
    800002b4:	7a1190a3          	sh	ra,1953(gp) # 800026b1 <__global_pointer$+0x7a1>
    800002b8:	70d00993          	li	s3,1805
    800002bc:	a3718b13          	addi	s6,gp,-1481 # 80001947 <_end+0x237>
    800002c0:	03ff9f93          	slli	t6,t6,0x3f
    800002c4:	fff00213          	li	tp,-1
    800002c8:	01094933          	xor	s2,s2,a6
    800002cc:	012bf2b3          	and	t0,s7,s2
    800002d0:	001e0cb3          	add	s9,t3,ra
    800002d4:	01f24233          	xor	tp,tp,t6
    800002d8:	63f98f13          	addi	t5,s3,1599
    800002dc:	950c36a3          	sd	a6,-1715(s8)
    800002e0:	01c55b93          	srli	s7,a0,0x1c
    800002e4:	e3e9f2e3          	bgeu	s3,t5,80000108 <crash_backward>
    800002e8:	0102e533          	or	a0,t0,a6
    800002ec:	e0556ee3          	bltu	a0,t0,80000108 <crash_backward>
    800002f0:	00c604bb          	addw	s1,a2,a2
    800002f4:	512d97a3          	sh	s2,1295(s11)
    800002f8:	0339d3bb          	divuw	t2,s3,s3
    800002fc:	3c000a93          	li	s5,960
    80000300:	9f0b1da3          	sh	a6,-1541(s6)
    80000304:	dc318d93          	addi	s11,gp,-573 # 80001cd3 <_end+0x5c3>
    80000308:	30e00c13          	li	s8,782
    8000030c:	00100313          	li	t1,1
    80000310:	d0018113          	addi	sp,gp,-768 # 80001c10 <_end+0x500>
    80000314:	035ae1bb          	remw	gp,s5,s5
    80000318:	03f31313          	slli	t1,t1,0x3f
    8000031c:	e6818093          	addi	ra,gp,-408 # 80001d78 <_end+0x668>
    80000320:	81f00513          	li	a0,-2017
    80000324:	6b800413          	li	s0,1720
    80000328:	8d80b783          	ld	a5,-1832(ra)
    8000032c:	690c0293          	addi	t0,s8,1680
    80000330:	b5f00593          	li	a1,-1185
    80000334:	ab718b13          	addi	s6,gp,-1353 # 800019c7 <_end+0x2b7>
    80000338:	fff00493          	li	s1,-1
    8000033c:	0064c4b3          	xor	s1,s1,t1
    80000340:	c1d18a93          	addi	s5,gp,-995 # 80001b2d <_end+0x41d>
    80000344:	9a510aa3          	sb	t0,-1611(sp)
    80000348:	03bdc9b3          	div	s3,s11,s11
    8000034c:	00417733          	and	a4,sp,tp
    80000350:	0231c133          	div	sp,gp,gp
    80000354:	0099f6b3          	and	a3,s3,s1
    80000358:	00626bb3          	or	s7,tp,t1
    8000035c:	85a00f13          	li	t5,-1958
    80000360:	925dbe83          	ld	t4,-1755(s11)
    80000364:	03484893          	xori	a7,a6,52
    80000368:	ba0b0123          	sb	zero,-1118(s6)
    8000036c:	0093de1b          	srliw	t3,t2,0x9
    80000370:	0e500c93          	li	s9,229
    80000374:	01f76a33          	or	s4,a4,t6
    80000378:	0178cd33          	xor	s10,a7,s7
    8000037c:	afea99a3          	sh	t5,-1293(s5)
    80000380:	a2a18093          	addi	ra,gp,-1494 # 8000193a <_end+0x22a>
    80000384:	d5a0a323          	sw	s10,-698(ra)
    80000388:	d85c50e3          	bge	s8,t0,80000108 <crash_backward>
    8000038c:	01944833          	xor	a6,s0,s9
    80000390:	00001197          	auipc	gp,0x1
    80000394:	e9618193          	addi	gp,gp,-362 # 80001226 <reg_x4_output+0x6>
    80000398:	45319f23          	sh	s3,1118(gp) # 8000236e <__global_pointer$+0x45e>
    8000039c:	f6f00e13          	li	t3,-145
    800003a0:	19800213          	li	tp,408
    800003a4:	00001f97          	auipc	t6,0x1
    800003a8:	df0f8f93          	addi	t6,t6,-528 # 80001194 <reg_x18_init+0x4>
    800003ac:	0073d6bb          	srlw	a3,t2,t2
    800003b0:	bf300b13          	li	s6,-1037
    800003b4:	00001297          	auipc	t0,0x1
    800003b8:	c6128293          	addi	t0,t0,-927 # 80001015 <tohost+0x15>
    800003bc:	025e6a33          	rem	s4,t3,t0
    800003c0:	00001e97          	auipc	t4,0x1
    800003c4:	990e8e93          	addi	t4,t4,-1648 # 80000d50 <test_end+0x3b0>
    800003c8:	c3c00c13          	li	s8,-964
    800003cc:	00a00b93          	li	s7,10
    800003d0:	038c54b3          	divu	s1,s8,s8
    800003d4:	00001c97          	auipc	s9,0x1
    800003d8:	0fec8c93          	addi	s9,s9,254 # 800014d2 <test_memory+0x1d2>
    800003dc:	6a8eea83          	lwu	s5,1704(t4)
    800003e0:	01527433          	and	s0,tp,s5
    800003e4:	00c090b3          	sll	ra,ra,a2
    800003e8:	03e5093b          	mulw	s2,a0,t5
    800003ec:	35b2bd83          	ld	s11,859(t0)
    800003f0:	016218b3          	sll	a7,tp,s6
    800003f4:	4f4fa803          	lw	a6,1268(t6)
    800003f8:	54000713          	li	a4,1344
    800003fc:	01ad113b          	sllw	sp,s10,s10
    80000400:	000e0393          	mv	t2,t3
    80000404:	00038793          	mv	a5,t2
    80000408:	037bcd33          	div	s10,s7,s7
    8000040c:	02b5f633          	remu	a2,a1,a1
    80000410:	ec000293          	li	t0,-320
    80000414:	02632d33          	mulhsu	s10,t1,t1
    80000418:	56f3ea63          	bltu	t2,a5,8000098c <crash_forward>
    8000041c:	01ce09bb          	addw	s3,t3,t3
    80000420:	02e7433b          	divw	t1,a4,a4
    80000424:	03c55693          	srli	a3,a0,0x3c
    80000428:	8af00c13          	li	s8,-1873
    8000042c:	0382e63b          	remw	a2,t0,s8
    80000430:	90718e93          	addi	t4,gp,-1785 # 80001817 <_end+0x107>
    80000434:	aebe9403          	lh	s0,-1301(t4)
    80000438:	f8fcb323          	sd	a5,-122(s9)
    8000043c:	00100513          	li	a0,1
    80000440:	03f51513          	slli	a0,a0,0x3f
    80000444:	fff00093          	li	ra,-1
    80000448:	00a0c0b3          	xor	ra,ra,a0
    8000044c:	001374b3          	and	s1,t1,ra
    80000450:	00a4eb33          	or	s6,s1,a0
    80000454:	e3f00993          	li	s3,-449
    80000458:	00100e93          	li	t4,1
    8000045c:	b2d00193          	li	gp,-1235
    80000460:	7cb00e13          	li	t3,1995
    80000464:	57000a93          	li	s5,1392
    80000468:	dff00213          	li	tp,-513
    8000046c:	03fe9e93          	slli	t4,t4,0x3f
    80000470:	fff00413          	li	s0,-1
    80000474:	024202bb          	mulw	t0,tp,tp
    80000478:	0339c8b3          	div	a7,s3,s3
    8000047c:	d60c7c93          	andi	s9,s8,-672
    80000480:	008476b3          	and	a3,s0,s0
    80000484:	01c1ad33          	slt	s10,gp,t3
    80000488:	00001c17          	auipc	s8,0x1
    8000048c:	103c0c13          	addi	s8,s8,259 # 8000158b <test_memory+0x28b>
    80000490:	00001497          	auipc	s1,0x1
    80000494:	2a848493          	addi	s1,s1,680 # 80001738 <_end+0x28>
    80000498:	2d900713          	li	a4,729
    8000049c:	00001917          	auipc	s2,0x1
    800004a0:	c2a90913          	addi	s2,s2,-982 # 800010c6 <fromhost+0x86>
    800004a4:	00e1ebb3          	or	s7,gp,a4
    800004a8:	f19c5383          	lhu	t2,-231(s8)
    800004ac:	98018d93          	addi	s11,gp,-1664 # 80001890 <_end+0x180>
    800004b0:	00e715bb          	sllw	a1,a4,a4
    800004b4:	00c17833          	and	a6,sp,a2
    800004b8:	f1e4b823          	sd	t5,-240(s1)
    800004bc:	00000113          	li	sp,0
    800004c0:	00000a13          	li	s4,0
    800004c4:	4d411463          	bne	sp,s4,8000098c <crash_forward>
    800004c8:	7e800513          	li	a0,2024
    800004cc:	4b550793          	addi	a5,a0,1205
    800004d0:	dcbda823          	sw	a1,-560(s11)
    800004d4:	c2f57ae3          	bgeu	a0,a5,80000108 <crash_backward>
    800004d8:	59a96603          	lwu	a2,1434(s2)
    800004dc:	035abfb3          	mulhu	t6,s5,s5
    800004e0:	01d44433          	xor	s0,s0,t4
    800004e4:	0088ff33          	and	t5,a7,s0
    800004e8:	01df6b33          	or	s6,t5,t4
    800004ec:	028403b3          	mul	t2,s0,s0
    800004f0:	00001617          	auipc	a2,0x1
    800004f4:	f5460613          	addi	a2,a2,-172 # 80001444 <test_memory+0x144>
    800004f8:	1c800e13          	li	t3,456
    800004fc:	41ffddbb          	sraw	s11,t6,t6
    80000500:	6f500893          	li	a7,1781
    80000504:	00100a13          	li	s4,1
    80000508:	0118f2b3          	and	t0,a7,a7
    8000050c:	00080513          	mv	a0,a6
    80000510:	00109c33          	sll	s8,ra,ra
    80000514:	518e0093          	addi	ra,t3,1304
    80000518:	00001817          	auipc	a6,0x1
    8000051c:	02f80813          	addi	a6,a6,47 # 80001547 <test_memory+0x247>
    80000520:	03fa1a13          	slli	s4,s4,0x3f
    80000524:	ea381c83          	lh	s9,-349(a6)
    80000528:	00001917          	auipc	s2,0x1
    8000052c:	e7390913          	addi	s2,s2,-397 # 8000139b <test_memory+0x9b>
    80000530:	fff00493          	li	s1,-1
    80000534:	00050b93          	mv	s7,a0
    80000538:	456f7a63          	bgeu	t5,s6,8000098c <crash_forward>
    8000053c:	0144c4b3          	xor	s1,s1,s4
    80000540:	0339c8bb          	divw	a7,s3,s3
    80000544:	f5918293          	addi	t0,gp,-167 # 80001e69 <_end+0x759>
    80000548:	40e106b3          	sub	a3,sp,a4
    8000054c:	009d7ab3          	and	s5,s10,s1
    80000550:	27e63e23          	sd	t5,636(a2)
    80000554:	00001997          	auipc	s3,0x1
    80000558:	f7098993          	addi	s3,s3,-144 # 800014c4 <test_memory+0x1c4>
    8000055c:	00001797          	auipc	a5,0x1
    80000560:	d7078793          	addi	a5,a5,-656 # 800012cc <reg_x25_output+0x4>
    80000564:	30593f83          	ld	t6,773(s2)
    80000568:	014be233          	or	tp,s7,s4
    8000056c:	00001317          	auipc	t1,0x1
    80000570:	20f30313          	addi	t1,t1,527 # 8000177b <_end+0x6b>
    80000574:	3c07a823          	sw	zero,976(a5)
    80000578:	00001d97          	auipc	s11,0x1
    8000057c:	a30d8d93          	addi	s11,s11,-1488 # 80000fa8 <test_end+0x608>
    80000580:	c8318193          	addi	gp,gp,-893 # 80001b93 <_end+0x483>
    80000584:	e919a823          	sw	a7,-368(s3)
    80000588:	751d8023          	sb	a7,1856(s11)
    8000058c:	d2d33583          	ld	a1,-723(t1)
    80000590:	0252af33          	mulhsu	t5,t0,t0
    80000594:	65e00093          	li	ra,1630
    80000598:	01295c33          	srl	s8,s2,s2
    8000059c:	00001f97          	auipc	t6,0x1
    800005a0:	21ff8f93          	addi	t6,t6,543 # 800017bb <_end+0xab>
    800005a4:	83300313          	li	t1,-1997
    800005a8:	00001997          	auipc	s3,0x1
    800005ac:	aeb98993          	addi	s3,s3,-1301 # 80001093 <fromhost+0x53>
    800005b0:	00001797          	auipc	a5,0x1
    800005b4:	d0c78793          	addi	a5,a5,-756 # 800012bc <reg_x23_output+0x4>
    800005b8:	8f11d103          	lhu	sp,-1807(gp) # 80001801 <_end+0xf1>
    800005bc:	00001e97          	auipc	t4,0x1
    800005c0:	d5be8e93          	addi	t4,t4,-677 # 80001317 <test_memory+0x17>
    800005c4:	000c0913          	mv	s2,s8
    800005c8:	11bec603          	lbu	a2,283(t4)
    800005cc:	8f300e13          	li	t3,-1805
    800005d0:	87f2b703          	ld	a4,-1921(t0)
    800005d4:	37198883          	lb	a7,881(s3)
    800005d8:	40b4d5bb          	sraw	a1,s1,a1
    800005dc:	3aa00d13          	li	s10,938
    800005e0:	00001497          	auipc	s1,0x1
    800005e4:	a0f48493          	addi	s1,s1,-1521 # 80000fef <test_end+0x64f>
    800005e8:	e49faa83          	lw	s5,-439(t6)
    800005ec:	00001297          	auipc	t0,0x1
    800005f0:	a0b28293          	addi	t0,t0,-1525 # 80000ff7 <test_end+0x657>
    800005f4:	1597a223          	sw	s9,324(a5)
    800005f8:	a5f00813          	li	a6,-1441
    800005fc:	030d6cbb          	remw	s9,s10,a6
    80000600:	6d500d93          	li	s11,1749
    80000604:	32608a13          	addi	s4,ra,806
    80000608:	00001117          	auipc	sp,0x1
    8000060c:	04710113          	addi	sp,sp,71 # 8000164f <test_memory+0x34f>
    80000610:	00000b97          	auipc	s7,0x0
    80000614:	6dcb8b93          	addi	s7,s7,1756 # 80000cec <test_end+0x34c>
    80000618:	ae1a48e3          	blt	s4,ra,80000108 <crash_backward>
    8000061c:	02cb453b          	divw	a0,s6,a2
    80000620:	67cb9c03          	lh	s8,1660(s7)
    80000624:	fe916183          	lwu	gp,-23(sp)
    80000628:	03c31f33          	mulh	t5,t1,t3
    8000062c:	00001e97          	auipc	t4,0x1
    80000630:	ce0e8e93          	addi	t4,t4,-800 # 8000130c <test_memory+0xc>
    80000634:	2faed603          	lhu	a2,762(t4)
    80000638:	030e23b3          	mulhsu	t2,t3,a6
    8000063c:	5894e203          	lwu	tp,1417(s1)
    80000640:	00001a17          	auipc	s4,0x1
    80000644:	b51a0a13          	addi	s4,s4,-1199 # 80001191 <reg_x18_init+0x1>
    80000648:	2c200813          	li	a6,706
    8000064c:	018d59bb          	srlw	s3,s10,s8
    80000650:	00001e97          	auipc	t4,0x1
    80000654:	fe1e8e93          	addi	t4,t4,-31 # 80001631 <test_memory+0x331>
    80000658:	03bdd5b3          	divu	a1,s11,s11
    8000065c:	00100f93          	li	t6,1
    80000660:	03ff9f93          	slli	t6,t6,0x3f
    80000664:	00090b13          	mv	s6,s2
    80000668:	00001417          	auipc	s0,0x1
    8000066c:	a1c40413          	addi	s0,s0,-1508 # 80001084 <fromhost+0x44>
    80000670:	31696e63          	bltu	s2,s6,8000098c <crash_forward>
    80000674:	2aaa37a3          	sd	a0,687(s4)
    80000678:	49800c93          	li	s9,1176
    8000067c:	43445683          	lhu	a3,1076(s0)
    80000680:	fff00113          	li	sp,-1
    80000684:	0c0ecb83          	lbu	s7,192(t4)
    80000688:	01f14133          	xor	sp,sp,t6
    8000068c:	00000793          	li	a5,0
    80000690:	00070313          	mv	t1,a4
    80000694:	00030613          	mv	a2,t1
    80000698:	00000e97          	auipc	t4,0x0
    8000069c:	762e8e93          	addi	t4,t4,1890 # 80000dfa <test_end+0x45a>
    800006a0:	4c92d703          	lhu	a4,1225(t0)
    800006a4:	ebf00413          	li	s0,-321
    800006a8:	00001e17          	auipc	t3,0x1
    800006ac:	93ce0e13          	addi	t3,t3,-1732 # 80000fe4 <test_end+0x644>
    800006b0:	d3f18913          	addi	s2,gp,-705 # 80001c4f <_end+0x53f>
    800006b4:	2d6b6c63          	bltu	s6,s6,8000098c <crash_forward>
    800006b8:	9d418493          	addi	s1,gp,-1580 # 800018e4 <_end+0x1d4>
    800006bc:	88992a03          	lw	s4,-1911(s2)
    800006c0:	a4c344e3          	blt	t1,a2,80000108 <crash_backward>
    800006c4:	a1900213          	li	tp,-1511
    800006c8:	02528ab3          	mul	s5,t0,t0
    800006cc:	a9d00693          	li	a3,-1379
    800006d0:	89700093          	li	ra,-1897
    800006d4:	e1b20393          	addi	t2,tp,-485 # fffffffffffffe1b <__global_pointer$+0xffffffff7fffdf0b>
    800006d8:	00000197          	auipc	gp,0x0
    800006dc:	7b818193          	addi	gp,gp,1976 # 80000e90 <test_end+0x4f0>
    800006e0:	0022fd33          	and	s10,t0,sp
    800006e4:	a243f2e3          	bgeu	t2,tp,80000108 <crash_backward>
    800006e8:	613ecc83          	lbu	s9,1555(t4)
    800006ec:	02d46dbb          	remw	s11,s0,a3
    800006f0:	02182533          	mulhsu	a0,a6,ra
    800006f4:	5fce3f03          	ld	t5,1532(t3)
    800006f8:	01fd68b3          	or	a7,s10,t6
    800006fc:	66b18923          	sb	a1,1650(gp) # 80002582 <__global_pointer$+0x672>
    80000700:	ce049f23          	sh	zero,-770(s1)
    80000704:	3a600593          	li	a1,934
    80000708:	c9f00b93          	li	s7,-865
    8000070c:	0175d9bb          	srlw	s3,a1,s7
    80000710:	00000c13          	li	s8,0
    80000714:	aff18f13          	addi	t5,gp,-1281 # 80001a0f <_end+0x2ff>
    80000718:	3d900213          	li	tp,985
    8000071c:	0223c0bb          	divw	ra,t2,sp
    80000720:	00001f97          	auipc	t6,0x1
    80000724:	f9cf8f93          	addi	t6,t6,-100 # 800016bc <test_memory+0x3bc>
    80000728:	dac00e93          	li	t4,-596
    8000072c:	56200913          	li	s2,1378
    80000730:	b4900d93          	li	s11,-1207
    80000734:	000b0d13          	mv	s10,s6
    80000738:	03bd88bb          	mulw	a7,s11,s11
    8000073c:	03311e13          	slli	t3,sp,0x33
    80000740:	000d0613          	mv	a2,s10
    80000744:	afa18813          	addi	a6,gp,-1286 # 80001a0a <_end+0x2fa>
    80000748:	024263bb          	remw	t2,tp,tp
    8000074c:	f0ef9403          	lh	s0,-242(t6)
    80000750:	98ff5c83          	lhu	s9,-1649(t5)
    80000754:	99a80723          	sb	s10,-1650(a6)
    80000758:	75220713          	addi	a4,tp,1874 # 752 <_start-0x7ffff8ae>
    8000075c:	00000c13          	li	s8,0
    80000760:	01bdd4bb          	srlw	s1,s11,s11
    80000764:	d3300113          	li	sp,-717
    80000768:	00000997          	auipc	s3,0x0
    8000076c:	49298993          	addi	s3,s3,1170 # 80000bfa <test_end+0x25a>
    80000770:	0252ce33          	div	t3,t0,t0
    80000774:	7d499d23          	sh	s4,2010(s3)
    80000778:	400d80b3          	sub	ra,s11,zero
    8000077c:	008196bb          	sllw	a3,gp,s0
    80000780:	02bc7bb3          	remu	s7,s8,a1
    80000784:	20476463          	bltu	a4,tp,8000098c <crash_forward>
    80000788:	980040e3          	bltz	zero,80000108 <crash_backward>
    8000078c:	00001297          	auipc	t0,0x1
    80000790:	89c28293          	addi	t0,t0,-1892 # 80001028 <tohost+0x28>
    80000794:	b4e00393          	li	t2,-1202
    80000798:	d5f18f13          	addi	t5,gp,-673 # 80001c6f <_end+0x55f>
    8000079c:	03c48cbb          	mulw	s9,s1,t3
    800007a0:	0221633b          	remw	t1,sp,sp
    800007a4:	3f200693          	li	a3,1010
    800007a8:	0ec00d93          	li	s11,236
    800007ac:	69200613          	li	a2,1682
    800007b0:	00001097          	auipc	ra,0x1
    800007b4:	cc908093          	addi	ra,ra,-823 # 80001479 <test_memory+0x179>
    800007b8:	82d00713          	li	a4,-2003
    800007bc:	00e6d23b          	srlw	tp,a3,a4
    800007c0:	00000997          	auipc	s3,0x0
    800007c4:	7f098993          	addi	s3,s3,2032 # 80000fb0 <test_end+0x610>
    800007c8:	01b3b4b3          	sltu	s1,t2,s11
    800007cc:	012edabb          	srlw	s5,t4,s2
    800007d0:	00048413          	mv	s0,s1
    800007d4:	14e0ada3          	sw	a4,347(ra)
    800007d8:	0273d8bb          	divuw	a7,t2,t2
    800007dc:	00040b93          	mv	s7,s0
    800007e0:	6e79ac23          	sw	t2,1784(s3)
    800007e4:	937462e3          	bltu	s0,s7,80000108 <crash_backward>
    800007e8:	00c61e33          	sll	t3,a2,a2
    800007ec:	00001d17          	auipc	s10,0x1
    800007f0:	980d0d13          	addi	s10,s10,-1664 # 8000116c <reg_x13_init+0x4>
    800007f4:	3952c503          	lbu	a0,917(t0)
    800007f8:	2ccd2e23          	sw	a2,732(s10)
    800007fc:	00001f97          	auipc	t6,0x1
    80000800:	da8f8f93          	addi	t6,t6,-600 # 800015a4 <test_memory+0x2a4>
    80000804:	00000793          	li	a5,0
    80000808:	facfb803          	ld	a6,-84(t6)
    8000080c:	00001617          	auipc	a2,0x1
    80000810:	eb560613          	addi	a2,a2,-331 # 800016c1 <test_memory+0x3c1>
    80000814:	16fc4c63          	blt	s8,a5,8000098c <crash_forward>
    80000818:	00001817          	auipc	a6,0x1
    8000081c:	f9b80813          	addi	a6,a6,-101 # 800017b3 <_end+0xa3>
    80000820:	c8b00913          	li	s2,-885
    80000824:	a4a00a93          	li	s5,-1462
    80000828:	7a900413          	li	s0,1961
    8000082c:	014a9093          	slli	ra,s5,0x14
    80000830:	c6218c13          	addi	s8,gp,-926 # 80001b72 <_end+0x462>
    80000834:	c8d637a3          	sd	a3,-881(a2)
    80000838:	c0986e83          	lwu	t4,-1015(a6)
    8000083c:	026dd7b3          	divu	a5,s11,t1
    80000840:	028974b3          	remu	s1,s2,s0
    80000844:	67600d93          	li	s11,1654
    80000848:	a3dc1823          	sh	t4,-1488(s8)
    8000084c:	03ffbe33          	mulhu	t3,t6,t6
    80000850:	40c609b3          	sub	s3,a2,a2
    80000854:	a02f10a3          	sh	sp,-1535(t5)
    80000858:	41ad50bb          	sraw	ra,s10,s10
    8000085c:	e4c00793          	li	a5,-436
    80000860:	65d00113          	li	sp,1629
    80000864:	41bad53b          	sraw	a0,s5,s11
    80000868:	00100a13          	li	s4,1
    8000086c:	18800313          	li	t1,392
    80000870:	a3d18993          	addi	s3,gp,-1475 # 8000194d <_end+0x23d>
    80000874:	03fa1a13          	slli	s4,s4,0x3f
    80000878:	c4b9ee83          	lwu	t4,-949(s3)
    8000087c:	70100813          	li	a6,1793
    80000880:	02615cbb          	divuw	s9,sp,t1
    80000884:	fff00b13          	li	s6,-1
    80000888:	00100413          	li	s0,1
    8000088c:	06400e13          	li	t3,100
    80000890:	010784b3          	add	s1,a5,a6
    80000894:	02b5a2b3          	mulhsu	t0,a1,a1
    80000898:	97918313          	addi	t1,gp,-1671 # 80001889 <_end+0x179>
    8000089c:	0c600693          	li	a3,198
    800008a0:	57a00713          	li	a4,1402
    800008a4:	cc931c03          	lh	s8,-823(t1)
    800008a8:	03f41413          	slli	s0,s0,0x3f
    800008ac:	63200913          	li	s2,1586
    800008b0:	00000393          	li	t2,0
    800008b4:	02e6cfbb          	divw	t6,a3,a4
    800008b8:	fff00e93          	li	t4,-1
    800008bc:	38a00b93          	li	s7,906
    800008c0:	014b4b33          	xor	s6,s6,s4
    800008c4:	4a500213          	li	tp,1189
    800008c8:	012e7633          	and	a2,t3,s2
    800008cc:	00000893          	li	a7,0
    800008d0:	008eceb3          	xor	t4,t4,s0
    800008d4:	016271b3          	and	gp,tp,s6
    800008d8:	01d970b3          	and	ra,s2,t4
    800008dc:	0141e5b3          	or	a1,gp,s4
    800008e0:	0b13e663          	bltu	t2,a7,8000098c <crash_forward>
    800008e4:	0080ef33          	or	t5,ra,s0
    800008e8:	0be0c263          	blt	ra,t5,8000098c <crash_forward>
    800008ec:	024bdd33          	divu	s10,s7,tp
    800008f0:	0040006f          	j	800008f4 <reg_dump>

00000000800008f4 <reg_dump>:
    800008f4:	00001097          	auipc	ra,0x1
    800008f8:	e0c08093          	addi	ra,ra,-500 # 80001700 <loop_count>
    800008fc:	0000a103          	lw	sp,0(ra)
    80000900:	fff10193          	addi	gp,sp,-1
    80000904:	0030a023          	sw	gp,0(ra)
    80000908:	8a0110e3          	bnez	sp,800001a8 <pseg_0>
    8000090c:	00001097          	auipc	ra,0x1
    80000910:	8f408093          	addi	ra,ra,-1804 # 80001200 <begin_signature>
    80000914:	0000b023          	sd	zero,0(ra)
    80000918:	0020b823          	sd	sp,16(ra)
    8000091c:	0030bc23          	sd	gp,24(ra)
    80000920:	0240b023          	sd	tp,32(ra)
    80000924:	0250b423          	sd	t0,40(ra)
    80000928:	0270bc23          	sd	t2,56(ra)
    8000092c:	0480b023          	sd	s0,64(ra)
    80000930:	0490b423          	sd	s1,72(ra)
    80000934:	04a0b823          	sd	a0,80(ra)
    80000938:	04b0bc23          	sd	a1,88(ra)
    8000093c:	06c0b023          	sd	a2,96(ra)
    80000940:	06d0b423          	sd	a3,104(ra)
    80000944:	06e0b823          	sd	a4,112(ra)
    80000948:	06f0bc23          	sd	a5,120(ra)
    8000094c:	0900b023          	sd	a6,128(ra)
    80000950:	0910b423          	sd	a7,136(ra)
    80000954:	0920b823          	sd	s2,144(ra)
    80000958:	0b40b023          	sd	s4,160(ra)
    8000095c:	0b50b423          	sd	s5,168(ra)
    80000960:	0b60b823          	sd	s6,176(ra)
    80000964:	0b70bc23          	sd	s7,184(ra)
    80000968:	0d80b023          	sd	s8,192(ra)
    8000096c:	0d90b423          	sd	s9,200(ra)
    80000970:	0da0b823          	sd	s10,208(ra)
    80000974:	0db0bc23          	sd	s11,216(ra)
    80000978:	0fc0b023          	sd	t3,224(ra)
    8000097c:	0fd0b423          	sd	t4,232(ra)
    80000980:	0fe0b823          	sd	t5,240(ra)
    80000984:	0ff0bc23          	sd	t6,248(ra)
    80000988:	0180006f          	j	800009a0 <test_end>

000000008000098c <crash_forward>:
    8000098c:	0ff0000f          	fence
    80000990:	00018063          	beqz	gp,80000990 <crash_forward+0x4>
    80000994:	00119193          	slli	gp,gp,0x1
    80000998:	0011e193          	ori	gp,gp,1
    8000099c:	00000073          	ecall

00000000800009a0 <test_end>:
    800009a0:	0ff0000f          	fence
    800009a4:	00100193          	li	gp,1
    800009a8:	00000073          	ecall
    800009ac:	c0001073          	unimp
	...

Disassembly of section .tohost:

0000000080001000 <tohost>:
	...

0000000080001040 <fromhost>:
	...
