
test.elf:     file format elf64-littleriscv


Disassembly of section .text.init:

0000000080000000 <_start>:
    80000000:	0580006f          	j	80000058 <reset_vector>

0000000080000004 <trap_vector>:
    80000004:	34202f73          	csrr	t5,mcause
    80000008:	00800f93          	li	t6,8
    8000000c:	05ff0063          	beq	t5,t6,8000004c <write_tohost>
    80000010:	00900f93          	li	t6,9
    80000014:	03ff0c63          	beq	t5,t6,8000004c <write_tohost>
    80000018:	00b00f93          	li	t6,11
    8000001c:	03ff0863          	beq	t5,t6,8000004c <write_tohost>
    80000020:	00000f13          	li	t5,0
    80000024:	000f0463          	beqz	t5,8000002c <trap_vector+0x28>
    80000028:	000f0067          	jr	t5
    8000002c:	34202f73          	csrr	t5,mcause
    80000030:	000f5463          	bgez	t5,80000038 <handle_exception>
    80000034:	0140006f          	j	80000048 <other_exception>

0000000080000038 <handle_exception>:
    80000038:	34102e73          	csrr	t3,mepc
    8000003c:	004e0e13          	addi	t3,t3,4
    80000040:	341e1073          	csrw	mepc,t3
    80000044:	30200073          	mret

0000000080000048 <other_exception>:
    80000048:	5391e193          	ori	gp,gp,1337

000000008000004c <write_tohost>:
    8000004c:	00001f17          	auipc	t5,0x1
    80000050:	fa3f2a23          	sw	gp,-76(t5) # 80001000 <tohost>
    80000054:	ff9ff06f          	j	8000004c <write_tohost>

0000000080000058 <reset_vector>:
    80000058:	f1402573          	csrr	a0,mhartid
    8000005c:	00051063          	bnez	a0,8000005c <reset_vector+0x4>
    80000060:	00000297          	auipc	t0,0x0
    80000064:	01028293          	addi	t0,t0,16 # 80000070 <reset_vector+0x18>
    80000068:	30529073          	csrw	mtvec,t0
    8000006c:	18005073          	csrwi	satp,0
    80000070:	00000297          	auipc	t0,0x0
    80000074:	01c28293          	addi	t0,t0,28 # 8000008c <reset_vector+0x34>
    80000078:	30529073          	csrw	mtvec,t0
    8000007c:	fff00293          	li	t0,-1
    80000080:	3b029073          	csrw	pmpaddr0,t0
    80000084:	01f00293          	li	t0,31
    80000088:	3a029073          	csrw	pmpcfg0,t0
    8000008c:	00000297          	auipc	t0,0x0
    80000090:	01828293          	addi	t0,t0,24 # 800000a4 <reset_vector+0x4c>
    80000094:	30529073          	csrw	mtvec,t0
    80000098:	30205073          	csrwi	medeleg,0
    8000009c:	30305073          	csrwi	mideleg,0
    800000a0:	30405073          	csrwi	mie,0
    800000a4:	00000193          	li	gp,0
    800000a8:	00000297          	auipc	t0,0x0
    800000ac:	f5c28293          	addi	t0,t0,-164 # 80000004 <trap_vector>
    800000b0:	30529073          	csrw	mtvec,t0
    800000b4:	00100513          	li	a0,1
    800000b8:	01f51513          	slli	a0,a0,0x1f
    800000bc:	00055863          	bgez	a0,800000cc <reset_vector+0x74>
    800000c0:	0ff0000f          	fence
    800000c4:	00100193          	li	gp,1
    800000c8:	00000073          	ecall
    800000cc:	00000293          	li	t0,0
    800000d0:	00028e63          	beqz	t0,800000ec <reset_vector+0x94>
    800000d4:	10529073          	csrw	stvec,t0
    800000d8:	0000b2b7          	lui	t0,0xb
    800000dc:	1092829b          	addiw	t0,t0,265
    800000e0:	30229073          	csrw	medeleg,t0
    800000e4:	30202373          	csrr	t1,medeleg
    800000e8:	f66290e3          	bne	t0,t1,80000048 <other_exception>
    800000ec:	30005073          	csrwi	mstatus,0
    800000f0:	00000297          	auipc	t0,0x0
    800000f4:	01428293          	addi	t0,t0,20 # 80000104 <reset_vector+0xac>
    800000f8:	34129073          	csrw	mepc,t0
    800000fc:	f1402573          	csrr	a0,mhartid
    80000100:	30200073          	mret
    80000104:	0180006f          	j	8000011c <test_start>

0000000080000108 <crash_backward>:
    80000108:	0ff0000f          	fence
    8000010c:	00018063          	beqz	gp,8000010c <crash_backward+0x4>
    80000110:	00119193          	slli	gp,gp,0x1
    80000114:	0011e193          	ori	gp,gp,1
    80000118:	00000073          	ecall

000000008000011c <test_start>:
    8000011c:	00001f97          	auipc	t6,0x1
    80000120:	fe4f8f93          	addi	t6,t6,-28 # 80001100 <hidden_data>
    80000124:	000fb003          	ld	zero,0(t6)
    80000128:	008fb083          	ld	ra,8(t6)
    8000012c:	010fb103          	ld	sp,16(t6)
    80000130:	018fb183          	ld	gp,24(t6)
    80000134:	020fb203          	ld	tp,32(t6)
    80000138:	028fb283          	ld	t0,40(t6)
    8000013c:	030fb303          	ld	t1,48(t6)
    80000140:	038fb383          	ld	t2,56(t6)
    80000144:	040fb403          	ld	s0,64(t6)
    80000148:	048fb483          	ld	s1,72(t6)
    8000014c:	050fb503          	ld	a0,80(t6)
    80000150:	058fb583          	ld	a1,88(t6)
    80000154:	060fb603          	ld	a2,96(t6)
    80000158:	068fb683          	ld	a3,104(t6)
    8000015c:	070fb703          	ld	a4,112(t6)
    80000160:	078fb783          	ld	a5,120(t6)
    80000164:	080fb803          	ld	a6,128(t6)
    80000168:	088fb883          	ld	a7,136(t6)
    8000016c:	090fb903          	ld	s2,144(t6)
    80000170:	098fb983          	ld	s3,152(t6)
    80000174:	0a0fba03          	ld	s4,160(t6)
    80000178:	0a8fba83          	ld	s5,168(t6)
    8000017c:	0b0fbb03          	ld	s6,176(t6)
    80000180:	0b8fbb83          	ld	s7,184(t6)
    80000184:	0c0fbc03          	ld	s8,192(t6)
    80000188:	0c8fbc83          	ld	s9,200(t6)
    8000018c:	0d0fbd03          	ld	s10,208(t6)
    80000190:	0d8fbd83          	ld	s11,216(t6)
    80000194:	0e0fbe03          	ld	t3,224(t6)
    80000198:	0e8fbe83          	ld	t4,232(t6)
    8000019c:	0f0fbf03          	ld	t5,240(t6)
    800001a0:	0f8fbf83          	ld	t6,248(t6)
    800001a4:	0040006f          	j	800001a8 <pseg_0>

00000000800001a8 <pseg_0>:
    800001a8:	00001617          	auipc	a2,0x1
    800001ac:	24d60613          	addi	a2,a2,589 # 800013f5 <test_memory+0xf5>
    800001b0:	d8e00f13          	li	t5,-626
    800001b4:	00088513          	mv	a0,a7
    800001b8:	00001317          	auipc	t1,0x1
    800001bc:	a5f30313          	addi	t1,t1,-1441 # 80000c17 <test_end+0x1cf>
    800001c0:	d0f18993          	addi	s3,gp,-753 # 80001c1f <_end+0x50f>
    800001c4:	00001797          	auipc	a5,0x1
    800001c8:	ec678793          	addi	a5,a5,-314 # 8000108a <fromhost+0x4a>
    800001cc:	e5ab2e93          	slti	t4,s6,-422
    800001d0:	00001717          	auipc	a4,0x1
    800001d4:	cfb70713          	addi	a4,a4,-773 # 80000ecb <test_end+0x483>
    800001d8:	56e00113          	li	sp,1390
    800001dc:	b4518d13          	addi	s10,gp,-1211 # 80001a55 <_end+0x345>
    800001e0:	9919a6a3          	sw	a7,-1651(s3)
    800001e4:	72f71283          	lh	t0,1839(a4)
    800001e8:	ce018a13          	addi	s4,gp,-800 # 80001bf0 <_end+0x4e0>
    800001ec:	5f400f93          	li	t6,1524
    800001f0:	021083b3          	mul	t2,ra,ra
    800001f4:	c8518e93          	addi	t4,gp,-891 # 80001b95 <_end+0x485>
    800001f8:	00050693          	mv	a3,a0
    800001fc:	02d51ce3          	bne	a0,a3,80000a34 <crash_forward>
    80000200:	03ff74bb          	remuw	s1,t5,t6
    80000204:	70d36083          	lwu	ra,1805(t1)
    80000208:	f8c00c13          	li	s8,-116
    8000020c:	00565abb          	srlw	s5,a2,t0
    80000210:	c4800213          	li	tp,-952
    80000214:	98be9aa3          	sh	a1,-1643(t4)
    80000218:	f2361d83          	lh	s11,-221(a2)
    8000021c:	9fbd2403          	lw	s0,-1541(s10)
    80000220:	960a6583          	lwu	a1,-1696(s4)
    80000224:	96600b13          	li	s6,-1690
    80000228:	bbe20193          	addi	gp,tp,-1090 # fffffffffffffbbe <__global_pointer$+0xffffffff7fffdcae>
    8000022c:	ec41dee3          	bge	gp,tp,80000108 <crash_backward>
    80000230:	12100e13          	li	t3,289
    80000234:	2dc00913          	li	s2,732
    80000238:	41cb5833          	sra	a6,s6,t3
    8000023c:	412c0bb3          	sub	s7,s8,s2
    80000240:	72700713          	li	a4,1831
    80000244:	03082db3          	mulhsu	s11,a6,a6
    80000248:	00100513          	li	a0,1
    8000024c:	f3e00f93          	li	t6,-194
    80000250:	022c66b3          	rem	a3,s8,sp
    80000254:	9f518213          	addi	tp,gp,-1547 # 80001905 <_end+0x1f5>
    80000258:	00001317          	auipc	t1,0x1
    8000025c:	1ab30313          	addi	t1,t1,427 # 80001403 <test_memory+0x103>
    80000260:	13f31403          	lh	s0,319(t1)
    80000264:	64d00913          	li	s2,1613
    80000268:	002158b3          	srl	a7,sp,sp
    8000026c:	d2824f03          	lbu	t5,-728(tp) # fffffffffffffd28 <__global_pointer$+0xffffffff7fffde18>
    80000270:	66b7a323          	sw	a1,1638(a5)
    80000274:	7aa48c9b          	addiw	s9,s1,1962
    80000278:	027f42bb          	divw	t0,t5,t2
    8000027c:	00080b93          	mv	s7,a6
    80000280:	0ef00c13          	li	s8,239
    80000284:	00001797          	auipc	a5,0x1
    80000288:	4f678793          	addi	a5,a5,1270 # 8000177a <_end+0x6a>
    8000028c:	00001697          	auipc	a3,0x1
    80000290:	06668693          	addi	a3,a3,102 # 800012f2 <reg_x30_output+0x2>
    80000294:	00001a97          	auipc	s5,0x1
    80000298:	b83a8a93          	addi	s5,s5,-1149 # 80000e17 <test_end+0x3cf>
    8000029c:	0dc68223          	sb	t3,196(a3)
    800002a0:	6d7a9183          	lh	gp,1751(s5)
    800002a4:	00100f13          	li	t5,1
    800002a8:	033c3133          	mulhu	sp,s8,s3
    800002ac:	00001617          	auipc	a2,0x1
    800002b0:	e5e60613          	addi	a2,a2,-418 # 8000110a <reg_x1_init+0x2>
    800002b4:	032ffa3b          	remuw	s4,t6,s2
    800002b8:	02e769bb          	remw	s3,a4,a4
    800002bc:	2466b693          	sltiu	a3,a3,582
    800002c0:	00001d17          	auipc	s10,0x1
    800002c4:	b5ad0d13          	addi	s10,s10,-1190 # 80000e1a <test_end+0x3d2>
    800002c8:	db47d203          	lhu	tp,-588(a5)
    800002cc:	4fed6583          	lwu	a1,1278(s10)
    800002d0:	038c43bb          	divw	t2,s8,s8
    800002d4:	000b8e13          	mv	t3,s7
    800002d8:	de918893          	addi	a7,gp,-535 # 80001cf9 <_end+0x5e9>
    800002dc:	03ff1f13          	slli	t5,t5,0x3f
    800002e0:	03f51513          	slli	a0,a0,0x3f
    800002e4:	fff00a93          	li	s5,-1
    800002e8:	e3cbc0e3          	blt	s7,t3,80000108 <crash_backward>
    800002ec:	2f663803          	ld	a6,758(a2)
    800002f0:	fff00093          	li	ra,-1
    800002f4:	01eacab3          	xor	s5,s5,t5
    800002f8:	ac718313          	addi	t1,gp,-1337 # 800019d7 <_end+0x2c7>
    800002fc:	b0500493          	li	s1,-1275
    80000300:	4094ddbb          	sraw	s11,s1,s1
    80000304:	015ef2b3          	and	t0,t4,s5
    80000308:	00a0c0b3          	xor	ra,ra,a0
    8000030c:	bf735403          	lhu	s0,-1033(t1)
    80000310:	01e2e1b3          	or	gp,t0,t5
    80000314:	00107b33          	and	s6,zero,ra
    80000318:	7032ce63          	blt	t0,gp,80000a34 <crash_forward>
    8000031c:	00a2eeb3          	or	t4,t0,a0
    80000320:	716eea63          	bltu	t4,s6,80000a34 <crash_forward>
    80000324:	98b8dc83          	lhu	s9,-1653(a7)
    80000328:	8c800493          	li	s1,-1848
    8000032c:	00100193          	li	gp,1
    80000330:	01bde333          	or	t1,s11,s11
    80000334:	00048713          	mv	a4,s1
    80000338:	d1418813          	addi	a6,gp,-748 # 80001c24 <_end+0x514>
    8000033c:	03263e33          	mulhu	t3,a2,s2
    80000340:	0339ceb3          	div	t4,s3,s3
    80000344:	03f19193          	slli	gp,gp,0x3f
    80000348:	00100f13          	li	t5,1
    8000034c:	03ff1f13          	slli	t5,t5,0x3f
    80000350:	00949bb3          	sll	s7,s1,s1
    80000354:	5c6d8913          	addi	s2,s11,1478
    80000358:	cf918f93          	addi	t6,gp,-775 # 80001c09 <_end+0x4f9>
    8000035c:	ef200393          	li	t2,-270
    80000360:	fff00b13          	li	s6,-1
    80000364:	a2918913          	addi	s2,gp,-1495 # 80001939 <_end+0x229>
    80000368:	019cf7b3          	and	a5,s9,s9
    8000036c:	d48925a3          	sw	s0,-693(s2)
    80000370:	00100413          	li	s0,1
    80000374:	fff00893          	li	a7,-1
    80000378:	9c318113          	addi	sp,gp,-1597 # 800018d3 <_end+0x1c3>
    8000037c:	3c600493          	li	s1,966
    80000380:	00070993          	mv	s3,a4
    80000384:	0273d6b3          	divu	a3,t2,t2
    80000388:	ac710ea3          	sb	t2,-1315(sp)
    8000038c:	9a486c83          	lwu	s9,-1628(a6)
    80000390:	cc900093          	li	ra,-823
    80000394:	00001e97          	auipc	t4,0x1
    80000398:	e10e8e93          	addi	t4,t4,-496 # 800011a4 <reg_x20_init+0x4>
    8000039c:	00001a97          	auipc	s5,0x1
    800003a0:	f7ea8a93          	addi	s5,s5,-130 # 8000131a <test_memory+0x1a>
    800003a4:	01eb4b33          	xor	s6,s6,t5
    800003a8:	480e9623          	sh	zero,1164(t4)
    800003ac:	03f41413          	slli	s0,s0,0x3f
    800003b0:	016dfa33          	and	s4,s11,s6
    800003b4:	a6b00c93          	li	s9,-1429
    800003b8:	00001817          	auipc	a6,0x1
    800003bc:	cf980813          	addi	a6,a6,-775 # 800010b1 <fromhost+0x71>
    800003c0:	0038c8b3          	xor	a7,a7,gp
    800003c4:	01e36db3          	or	s11,t1,t5
    800003c8:	0094d333          	srl	t1,s1,s1
    800003cc:	00001117          	auipc	sp,0x1
    800003d0:	05110113          	addi	sp,sp,81 # 8000141d <test_memory+0x11d>
    800003d4:	026a36b3          	mulhu	a3,s4,t1
    800003d8:	00001e17          	auipc	t3,0x1
    800003dc:	07be0e13          	addi	t3,t3,123 # 80001453 <test_memory+0x153>
    800003e0:	207e2aa3          	sw	t2,533(t3)
    800003e4:	65371863          	bne	a4,s3,80000a34 <crash_forward>
    800003e8:	2fe00693          	li	a3,766
    800003ec:	4b980d23          	sb	s9,1210(a6)
    800003f0:	241aa723          	sw	ra,590(s5)
    800003f4:	97408513          	addi	a0,ra,-1676
    800003f8:	011dfc33          	and	s8,s11,a7
    800003fc:	a5318e13          	addi	t3,gp,-1453 # 80001963 <_end+0x253>
    80000400:	00001917          	auipc	s2,0x1
    80000404:	b9290913          	addi	s2,s2,-1134 # 80000f92 <test_end+0x54a>
    80000408:	02d6a4b3          	mulhsu	s1,a3,a3
    8000040c:	00e76333          	or	t1,a4,a4
    80000410:	c14e24a3          	sw	s4,-1015(t3)
    80000414:	419c87bb          	subw	a5,s9,s9
    80000418:	03316383          	lwu	t2,51(sp)
    8000041c:	3d094e83          	lbu	t4,976(s2)
    80000420:	fff00593          	li	a1,-1
    80000424:	0085c5b3          	xor	a1,a1,s0
    80000428:	00b0f633          	and	a2,ra,a1
    8000042c:	00866233          	or	tp,a2,s0
    80000430:	418d8bbb          	subw	s7,s11,s8
    80000434:	00ff23b3          	slt	t2,t5,a5
    80000438:	414a0e3b          	subw	t3,s4,s4
    8000043c:	ccc256e3          	bge	tp,a2,80000108 <crash_backward>
    80000440:	bff18693          	addi	a3,gp,-1025 # 80001b0f <_end+0x3ff>
    80000444:	95ffbd03          	ld	s10,-1697(t6)
    80000448:	4ad00993          	li	s3,1197
    8000044c:	bf400e93          	li	t4,-1036
    80000450:	1e300793          	li	a5,483
    80000454:	00001717          	auipc	a4,0x1
    80000458:	fb370713          	addi	a4,a4,-77 # 80001407 <test_memory+0x107>
    8000045c:	46c00113          	li	sp,1132
    80000460:	0029db3b          	srlw	s6,s3,sp
    80000464:	00001617          	auipc	a2,0x1
    80000468:	93560613          	addi	a2,a2,-1739 # 80000d99 <test_end+0x351>
    8000046c:	00100d93          	li	s11,1
    80000470:	00000913          	li	s2,0
    80000474:	8916b303          	ld	t1,-1903(a3)
    80000478:	93d18813          	addi	a6,gp,-1731 # 8000184d <_end+0x13d>
    8000047c:	03fd9d93          	slli	s11,s11,0x3f
    80000480:	003c62b3          	or	t0,s8,gp
    80000484:	00001597          	auipc	a1,0x1
    80000488:	22358593          	addi	a1,a1,547 # 800016a7 <test_memory+0x3a7>
    8000048c:	b5782b83          	lw	s7,-1193(a6)
    80000490:	016b44b3          	xor	s1,s6,s6
    80000494:	4219b213          	sltiu	tp,s3,1057
    80000498:	cc75a6a3          	sw	t2,-819(a1)
    8000049c:	fff00993          	li	s3,-1
    800004a0:	01b9c9b3          	xor	s3,s3,s11
    800004a4:	02fee533          	rem	a0,t4,a5
    800004a8:	036c26b3          	mulhsu	a3,s8,s6
    800004ac:	5e964a03          	lbu	s4,1513(a2)
    800004b0:	f3172f03          	lw	t5,-207(a4)
    800004b4:	0139ffb3          	and	t6,s3,s3
    800004b8:	00000c93          	li	s9,0
    800004bc:	e4e00813          	li	a6,-434
    800004c0:	00100093          	li	ra,1
    800004c4:	01bfeab3          	or	s5,t6,s11
    800004c8:	95700b13          	li	s6,-1705
    800004cc:	03f09093          	slli	ra,ra,0x3f
    800004d0:	00001317          	auipc	t1,0x1
    800004d4:	be930313          	addi	t1,t1,-1047 # 800010b9 <fromhost+0x79>
    800004d8:	fff00d13          	li	s10,-1
    800004dc:	001d4d33          	xor	s10,s10,ra
    800004e0:	2f534b83          	lbu	s7,757(t1)
    800004e4:	41080233          	sub	tp,a6,a6
    800004e8:	01ab7433          	and	s0,s6,s10
    800004ec:	53700113          	li	sp,1335
    800004f0:	00001497          	auipc	s1,0x1
    800004f4:	9cc48493          	addi	s1,s1,-1588 # 80000ebc <test_end+0x474>
    800004f8:	022b73bb          	remuw	t2,s6,sp
    800004fc:	00146e33          	or	t3,s0,ra
    80000500:	528e6a63          	bltu	t3,s0,80000a34 <crash_forward>
    80000504:	7c84e583          	lwu	a1,1992(s1)
    80000508:	037bfb33          	remu	s6,s7,s7
    8000050c:	00001917          	auipc	s2,0x1
    80000510:	0ea90913          	addi	s2,s2,234 # 800015f6 <test_memory+0x2f6>
    80000514:	d4190d03          	lb	s10,-703(s2)
    80000518:	c2c26713          	ori	a4,tp,-980
    8000051c:	00001e97          	auipc	t4,0x1
    80000520:	e52e8e93          	addi	t4,t4,-430 # 8000136e <test_memory+0x6e>
    80000524:	03cea523          	sw	t3,42(t4)
    80000528:	ee800493          	li	s1,-280
    8000052c:	00001897          	auipc	a7,0x1
    80000530:	bb588893          	addi	a7,a7,-1099 # 800010e1 <fromhost+0xa1>
    80000534:	409480bb          	subw	ra,s1,s1
    80000538:	5d0896a3          	sh	a6,1485(a7)
    8000053c:	4052573b          	sraw	a4,tp,t0
    80000540:	00100c93          	li	s9,1
    80000544:	034ad83b          	divuw	a6,s5,s4
    80000548:	010802bb          	addw	t0,a6,a6
    8000054c:	fac00b13          	li	s6,-84
    80000550:	56f4ed13          	ori	s10,s1,1391
    80000554:	b2418213          	addi	tp,gp,-1244 # 80001a34 <_end+0x324>
    80000558:	41ded3bb          	sraw	t2,t4,t4
    8000055c:	37a00693          	li	a3,890
    80000560:	ba31e4e3          	bltu	gp,gp,80000108 <crash_backward>
    80000564:	00db4bb3          	xor	s7,s6,a3
    80000568:	03fc9c93          	slli	s9,s9,0x3f
    8000056c:	9b825f03          	lhu	t5,-1608(tp) # fffffffffffff9b8 <__global_pointer$+0xffffffff7fffdaa8>
    80000570:	b6600613          	li	a2,-1178
    80000574:	4f300c13          	li	s8,1267
    80000578:	00001117          	auipc	sp,0x1
    8000057c:	00d10113          	addi	sp,sp,13 # 80001585 <test_memory+0x285>
    80000580:	fff00413          	li	s0,-1
    80000584:	0361f7bb          	remuw	a5,gp,s6
    80000588:	01ce48b3          	xor	a7,t3,t3
    8000058c:	01944433          	xor	s0,s0,s9
    80000590:	018661b3          	or	gp,a2,s8
    80000594:	008e7e33          	and	t3,t3,s0
    80000598:	48b5ce63          	blt	a1,a1,80000a34 <crash_forward>
    8000059c:	03acc4bb          	divw	s1,s9,s10
    800005a0:	00001517          	auipc	a0,0x1
    800005a4:	93650513          	addi	a0,a0,-1738 # 80000ed6 <test_end+0x48e>
    800005a8:	0198ea33          	or	s4,a7,s9
    800005ac:	02e74333          	div	t1,a4,a4
    800005b0:	8e900f93          	li	t6,-1815
    800005b4:	00f69e9b          	slliw	t4,a3,0xf
    800005b8:	74a56983          	lwu	s3,1866(a0)
    800005bc:	a1818b93          	addi	s7,gp,-1512 # 80001928 <_end+0x218>
    800005c0:	25c00f13          	li	t5,604
    800005c4:	2cc00793          	li	a5,716
    800005c8:	00ff76b3          	and	a3,t5,a5
    800005cc:	b2006ee3          	bltu	zero,zero,80000108 <crash_backward>
    800005d0:	03ff85bb          	mulw	a1,t6,t6
    800005d4:	00100213          	li	tp,1
    800005d8:	d0200393          	li	t2,-766
    800005dc:	00001e17          	auipc	t3,0x1
    800005e0:	fe3e0e13          	addi	t3,t3,-29 # 800015bf <test_memory+0x2bf>
    800005e4:	fb0e16a3          	sh	a6,-83(t3)
    800005e8:	00001517          	auipc	a0,0x1
    800005ec:	f7050513          	addi	a0,a0,-144 # 80001558 <test_memory+0x258>
    800005f0:	7b700313          	li	t1,1975
    800005f4:	aeb18b13          	addi	s6,gp,-1301 # 800019fb <_end+0x2eb>
    800005f8:	fc400613          	li	a2,-60
    800005fc:	00001917          	auipc	s2,0x1
    80000600:	1b190913          	addi	s2,s2,433 # 800017ad <_end+0x9d>
    80000604:	00001897          	auipc	a7,0x1
    80000608:	e5888893          	addi	a7,a7,-424 # 8000145c <test_memory+0x15c>
    8000060c:	a0db1983          	lh	s3,-1523(s6)
    80000610:	51900d13          	li	s10,1305
    80000614:	d7318093          	addi	ra,gp,-653 # 80001c83 <_end+0x573>
    80000618:	0b714d83          	lbu	s11,183(sp)
    8000061c:	00000293          	li	t0,0
    80000620:	9f4088a3          	sb	s4,-1551(ra)
    80000624:	00100693          	li	a3,1
    80000628:	00000813          	li	a6,0
    8000062c:	018e5a33          	srl	s4,t3,s8
    80000630:	03f21213          	slli	tp,tp,0x3f
    80000634:	00001997          	auipc	s3,0x1
    80000638:	a1398993          	addi	s3,s3,-1517 # 80001047 <fromhost+0x7>
    8000063c:	00001797          	auipc	a5,0x1
    80000640:	b3078793          	addi	a5,a5,-1232 # 8000116c <reg_x13_init+0x4>
    80000644:	0c950323          	sb	s1,198(a0)
    80000648:	00001a97          	auipc	s5,0x1
    8000064c:	caba8a93          	addi	s5,s5,-853 # 800012f3 <reg_x30_output+0x3>
    80000650:	0263b1b3          	mulhu	gp,t2,t1
    80000654:	fff00413          	li	s0,-1
    80000658:	6279b0a3          	sd	t2,1569(s3)
    8000065c:	03f69693          	slli	a3,a3,0x3f
    80000660:	1c500a13          	li	s4,453
    80000664:	e9890723          	sb	s8,-370(s2)
    80000668:	fff00f93          	li	t6,-1
    8000066c:	00100393          	li	t2,1
    80000670:	0118fb33          	and	s6,a7,a7
    80000674:	03f39393          	slli	t2,t2,0x3f
    80000678:	00dfcfb3          	xor	t6,t6,a3
    8000067c:	01f1fe33          	and	t3,gp,t6
    80000680:	01a654b3          	srl	s1,a2,s10
    80000684:	0277d4bb          	divuw	s1,a5,t2
    80000688:	00444433          	xor	s0,s0,tp
    8000068c:	5887e583          	lwu	a1,1416(a5)
    80000690:	fff00d93          	li	s11,-1
    80000694:	3c5a9ba3          	sh	t0,983(s5)
    80000698:	0273e533          	rem	a0,t2,t2
    8000069c:	00d46f33          	or	t5,s0,a3
    800006a0:	038b4333          	div	t1,s6,s8
    800006a4:	d4cba703          	lw	a4,-692(s7)
    800006a8:	007dcdb3          	xor	s11,s11,t2
    800006ac:	53300293          	li	t0,1331
    800006b0:	26c8bc03          	ld	s8,620(a7)
    800006b4:	008b7cb3          	and	s9,s6,s0
    800006b8:	f5118613          	addi	a2,gp,-175 # 80001e61 <_end+0x751>
    800006bc:	004ceeb3          	or	t4,s9,tp
    800006c0:	01bb7133          	and	sp,s6,s11
    800006c4:	00100913          	li	s2,1
    800006c8:	025a0833          	mul	a6,s4,t0
    800006cc:	007361b3          	or	gp,t1,t2
    800006d0:	a0c18d13          	addi	s10,gp,-1524 # 8000191c <_end+0x20c>
    800006d4:	03f91913          	slli	s2,s2,0x3f
    800006d8:	ddbd3223          	sd	s11,-572(s10)
    800006dc:	fff00513          	li	a0,-1
    800006e0:	01254533          	xor	a0,a0,s2
    800006e4:	88362b03          	lw	s6,-1917(a2)
    800006e8:	00001e17          	auipc	t3,0x1
    800006ec:	f10e0e13          	addi	t3,t3,-240 # 800015f8 <test_memory+0x2f8>
    800006f0:	02b00793          	li	a5,43
    800006f4:	0073883b          	addw	a6,t2,t2
    800006f8:	00001f17          	auipc	t5,0x1
    800006fc:	9baf0f13          	addi	t5,t5,-1606 # 800010b2 <fromhost+0x72>
    80000700:	aa500693          	li	a3,-1371
    80000704:	00000a13          	li	s4,0
    80000708:	00001217          	auipc	tp,0x1
    8000070c:	9d520213          	addi	tp,tp,-1579 # 800010dd <fromhost+0x9d>
    80000710:	f6ae1183          	lh	gp,-150(t3)
    80000714:	03796dbb          	remw	s11,s2,s7
    80000718:	00a5f9b3          	and	s3,a1,a0
    8000071c:	00100e13          	li	t3,1
    80000720:	d5018b13          	addi	s6,gp,-688 # 80001c60 <_end+0x550>
    80000724:	00000c93          	li	s9,0
    80000728:	94718713          	addi	a4,gp,-1721 # 80001857 <_end+0x147>
    8000072c:	c28717a3          	sh	s0,-977(a4)
    80000730:	00c3beb3          	sltu	t4,t2,a2
    80000734:	00001897          	auipc	a7,0x1
    80000738:	bc588893          	addi	a7,a7,-1083 # 800012f9 <reg_x31_output+0x1>
    8000073c:	012464b3          	or	s1,s0,s2
    80000740:	00d6b433          	sltu	s0,a3,a3
    80000744:	03fe1e13          	slli	t3,t3,0x3f
    80000748:	0198b3a3          	sd	s9,7(a7)
    8000074c:	00100393          	li	t2,1
    80000750:	00001a97          	auipc	s5,0x1
    80000754:	a2ca8a93          	addi	s5,s5,-1492 # 8000117c <reg_x15_init+0x4>
    80000758:	fff00813          	li	a6,-1
    8000075c:	820b0083          	lb	ra,-2016(s6)
    80000760:	01c84833          	xor	a6,a6,t3
    80000764:	03f39393          	slli	t2,t2,0x3f
    80000768:	033e42b3          	div	t0,t3,s3
    8000076c:	fff00c93          	li	s9,-1
    80000770:	2c99f263          	bgeu	s3,s1,80000a34 <crash_forward>
    80000774:	37800613          	li	a2,888
    80000778:	41ad09b3          	sub	s3,s10,s10
    8000077c:	00001297          	auipc	t0,0x1
    80000780:	ef028293          	addi	t0,t0,-272 # 8000166c <test_memory+0x36c>
    80000784:	32daaa23          	sw	a3,820(s5)
    80000788:	0273ea33          	rem	s4,t2,t2
    8000078c:	00000097          	auipc	ra,0x0
    80000790:	7e408093          	addi	ra,ra,2020 # 80000f70 <test_end+0x528>
    80000794:	0103fdb3          	and	s11,t2,a6
    80000798:	00100413          	li	s0,1
    8000079c:	05a2d483          	lhu	s1,90(t0)
    800007a0:	007cccb3          	xor	s9,s9,t2
    800007a4:	01c36fb3          	or	t6,t1,t3
    800007a8:	03f41413          	slli	s0,s0,0x3f
    800007ac:	29bfd463          	bge	t6,s11,80000a34 <crash_forward>
    800007b0:	fff00693          	li	a3,-1
    800007b4:	0086c6b3          	xor	a3,a3,s0
    800007b8:	3fef2583          	lw	a1,1022(t5)
    800007bc:	019efeb3          	and	t4,t4,s9
    800007c0:	01960933          	add	s2,a2,s9
    800007c4:	5d00b503          	ld	a0,1488(ra)
    800007c8:	007661b3          	or	gp,a2,t2
    800007cc:	923ecee3          	blt	t4,gp,80000108 <crash_backward>
    800007d0:	29600113          	li	sp,662
    800007d4:	00de7733          	and	a4,t3,a3
    800007d8:	00001817          	auipc	a6,0x1
    800007dc:	f3080813          	addi	a6,a6,-208 # 80001708 <loop_count+0x8>
    800007e0:	00100293          	li	t0,1
    800007e4:	00836b33          	or	s6,t1,s0
    800007e8:	22820c03          	lb	s8,552(tp) # 228 <_start-0x7ffffdd8>
    800007ec:	02007ebb          	remuw	t4,zero,zero
    800007f0:	00100213          	li	tp,1
    800007f4:	f1280e03          	lb	t3,-238(a6)
    800007f8:	00261d33          	sll	s10,a2,sp
    800007fc:	25e00513          	li	a0,606
    80000800:	aca00913          	li	s2,-1334
    80000804:	27200313          	li	t1,626
    80000808:	00000f97          	auipc	t6,0x0
    8000080c:	375f8f93          	addi	t6,t6,885 # 80000b7d <test_end+0x135>
    80000810:	cfb00d93          	li	s11,-773
    80000814:	03f29293          	slli	t0,t0,0x3f
    80000818:	03f21213          	slli	tp,tp,0x3f
    8000081c:	7b5fd083          	lhu	ra,1973(t6)
    80000820:	97a18a93          	addi	s5,gp,-1670 # 8000188a <_end+0x17a>
    80000824:	015aa8b3          	slt	a7,s5,s5
    80000828:	20eb6663          	bltu	s6,a4,80000a34 <crash_forward>
    8000082c:	a7aaa383          	lw	t2,-1414(s5)
    80000830:	fff00a13          	li	s4,-1
    80000834:	0267bbb3          	mulhu	s7,a5,t1
    80000838:	005a4a33          	xor	s4,s4,t0
    8000083c:	fff00c13          	li	s8,-1
    80000840:	00a57cb3          	and	s9,a0,a0
    80000844:	004c4c33          	xor	s8,s8,tp
    80000848:	014ef4b3          	and	s1,t4,s4
    8000084c:	00100793          	li	a5,1
    80000850:	00100513          	li	a0,1
    80000854:	0054e9b3          	or	s3,s1,t0
    80000858:	0031e0b3          	or	ra,gp,gp
    8000085c:	72000713          	li	a4,1824
    80000860:	f9d28693          	addi	a3,t0,-99
    80000864:	c1c18c93          	addi	s9,gp,-996 # 80001b2c <_end+0x41c>
    80000868:	0252f33b          	remuw	t1,t0,t0
    8000086c:	6a700b93          	li	s7,1703
    80000870:	172b8f93          	addi	t6,s7,370
    80000874:	01b965b3          	or	a1,s2,s11
    80000878:	3bb00813          	li	a6,955
    8000087c:	03f51513          	slli	a0,a0,0x3f
    80000880:	03f79793          	slli	a5,a5,0x3f
    80000884:	a8ac9e03          	lh	t3,-1398(s9)
    80000888:	89fbd0e3          	bge	s7,t6,80000108 <crash_backward>
    8000088c:	87600d13          	li	s10,-1930
    80000890:	eab00993          	li	s3,-341
    80000894:	0010d6bb          	srlw	a3,ra,ra
    80000898:	cc400593          	li	a1,-828
    8000089c:	018371b3          	and	gp,t1,s8
    800008a0:	00466f33          	or	t5,a2,tp
    800008a4:	fff00413          	li	s0,-1
    800008a8:	0139f2b3          	and	t0,s3,s3
    800008ac:	fff00b13          	li	s6,-1
    800008b0:	03071eb3          	mulh	t4,a4,a6
    800008b4:	00f44433          	xor	s0,s0,a5
    800008b8:	00000a17          	auipc	s4,0x0
    800008bc:	5d0a0a13          	addi	s4,s4,1488 # 80000e88 <test_end+0x440>
    800008c0:	fc7d0a93          	addi	s5,s10,-57
    800008c4:	0088f3b3          	and	t2,a7,s0
    800008c8:	855d40e3          	blt	s10,s5,80000108 <crash_backward>
    800008cc:	00f3e133          	or	sp,t2,a5
    800008d0:	16715263          	bge	sp,t2,80000a34 <crash_forward>
    800008d4:	00ab4b33          	xor	s6,s6,a0
    800008d8:	0162f8b3          	and	a7,t0,s6
    800008dc:	d3058493          	addi	s1,a1,-720
    800008e0:	82b4f4e3          	bgeu	s1,a1,80000108 <crash_backward>
    800008e4:	00a4e633          	or	a2,s1,a0
    800008e8:	5c6a1d83          	lh	s11,1478(s4)
    800008ec:	81165ee3          	bge	a2,a7,80000108 <crash_backward>
    800008f0:	012fd73b          	srlw	a4,t6,s2
    800008f4:	017b1db3          	sll	s11,s6,s7
    800008f8:	1c300693          	li	a3,451
    800008fc:	00000317          	auipc	t1,0x0
    80000900:	55630313          	addi	t1,t1,1366 # 80000e52 <test_end+0x40a>
    80000904:	58300513          	li	a0,1411
    80000908:	00001a97          	auipc	s5,0x1
    8000090c:	e9fa8a93          	addi	s5,s5,-353 # 800017a7 <_end+0x97>
    80000910:	8a800093          	li	ra,-1880
    80000914:	05d00193          	li	gp,93
    80000918:	69635903          	lhu	s2,1686(t1)
    8000091c:	d83a8203          	lb	tp,-637(s5)
    80000920:	df318f13          	addi	t5,gp,-525 # 80001d03 <_end+0x5f3>
    80000924:	fb000493          	li	s1,-80
    80000928:	00001c17          	auipc	s8,0x1
    8000092c:	a1ec0c13          	addi	s8,s8,-1506 # 80001346 <test_memory+0x46>
    80000930:	cf000993          	li	s3,-784
    80000934:	02d68e33          	mul	t3,a3,a3
    80000938:	04ac2103          	lw	sp,74(s8)
    8000093c:	009482bb          	addw	t0,s1,s1
    80000940:	413557bb          	sraw	a5,a0,s3
    80000944:	02de65b3          	rem	a1,t3,a3
    80000948:	00100a13          	li	s4,1
    8000094c:	03fa1a13          	slli	s4,s4,0x3f
    80000950:	034a0fb3          	mul	t6,s4,s4
    80000954:	17a00d13          	li	s10,378
    80000958:	9d000613          	li	a2,-1584
    8000095c:	41a08b3b          	subw	s6,ra,s10
    80000960:	6a900993          	li	s3,1705
    80000964:	9f9f6e83          	lwu	t4,-1543(t5)
    80000968:	765c6b93          	ori	s7,s8,1893
    8000096c:	0308673b          	remw	a4,a6,a6
    80000970:	035cbdb3          	mulhu	s11,s9,s5
    80000974:	00001917          	auipc	s2,0x1
    80000978:	97c90913          	addi	s2,s2,-1668 # 800012f0 <reg_x30_output>
    8000097c:	fff00893          	li	a7,-1
    80000980:	36291203          	lh	tp,866(s2)
    80000984:	00c1b433          	sltu	s0,gp,a2
    80000988:	0148c8b3          	xor	a7,a7,s4
    8000098c:	7c398793          	addi	a5,s3,1987
    80000990:	ec000f93          	li	t6,-320
    80000994:	81300693          	li	a3,-2029
    80000998:	011ff833          	and	a6,t6,a7
    8000099c:	01456cb3          	or	s9,a0,s4
    800009a0:	02dff2b3          	remu	t0,t6,a3
    800009a4:	0040006f          	j	800009a8 <reg_dump>

00000000800009a8 <reg_dump>:
    800009a8:	00001097          	auipc	ra,0x1
    800009ac:	d5808093          	addi	ra,ra,-680 # 80001700 <loop_count>
    800009b0:	0000a103          	lw	sp,0(ra)
    800009b4:	fff10193          	addi	gp,sp,-1
    800009b8:	0030a023          	sw	gp,0(ra)
    800009bc:	fe011663          	bnez	sp,800001a8 <pseg_0>
    800009c0:	00001097          	auipc	ra,0x1
    800009c4:	84008093          	addi	ra,ra,-1984 # 80001200 <begin_signature>
    800009c8:	0000b023          	sd	zero,0(ra)
    800009cc:	0020b823          	sd	sp,16(ra)
    800009d0:	0030bc23          	sd	gp,24(ra)
    800009d4:	0240b023          	sd	tp,32(ra)
    800009d8:	0250b423          	sd	t0,40(ra)
    800009dc:	0270bc23          	sd	t2,56(ra)
    800009e0:	0480b023          	sd	s0,64(ra)
    800009e4:	0490b423          	sd	s1,72(ra)
    800009e8:	04a0b823          	sd	a0,80(ra)
    800009ec:	04b0bc23          	sd	a1,88(ra)
    800009f0:	06c0b023          	sd	a2,96(ra)
    800009f4:	06d0b423          	sd	a3,104(ra)
    800009f8:	06e0b823          	sd	a4,112(ra)
    800009fc:	06f0bc23          	sd	a5,120(ra)
    80000a00:	0900b023          	sd	a6,128(ra)
    80000a04:	0910b423          	sd	a7,136(ra)
    80000a08:	0930bc23          	sd	s3,152(ra)
    80000a0c:	0b40b023          	sd	s4,160(ra)
    80000a10:	0b60b823          	sd	s6,176(ra)
    80000a14:	0b70bc23          	sd	s7,184(ra)
    80000a18:	0d90b423          	sd	s9,200(ra)
    80000a1c:	0da0b823          	sd	s10,208(ra)
    80000a20:	0db0bc23          	sd	s11,216(ra)
    80000a24:	0fc0b023          	sd	t3,224(ra)
    80000a28:	0fd0b423          	sd	t4,232(ra)
    80000a2c:	0ff0bc23          	sd	t6,248(ra)
    80000a30:	0180006f          	j	80000a48 <test_end>

0000000080000a34 <crash_forward>:
    80000a34:	0ff0000f          	fence
    80000a38:	00018063          	beqz	gp,80000a38 <crash_forward+0x4>
    80000a3c:	00119193          	slli	gp,gp,0x1
    80000a40:	0011e193          	ori	gp,gp,1
    80000a44:	00000073          	ecall

0000000080000a48 <test_end>:
    80000a48:	0ff0000f          	fence
    80000a4c:	00100193          	li	gp,1
    80000a50:	00000073          	ecall
    80000a54:	c0001073          	unimp

Disassembly of section .tohost:

0000000080001000 <tohost>:
	...

0000000080001040 <fromhost>:
	...
