
test.elf:     file format elf64-littleriscv


Disassembly of section .text:

0000000080000000 <_start>:
    80000000:	00000097          	auipc	ra,0x0
    80000004:	18008093          	addi	ra,ra,384 # 80000180 <data>
    80000008:	00112537          	lui	a0,0x112
    8000000c:	2335051b          	addiw	a0,a0,563
    80000010:	00a0a023          	sw	a0,0(ra)
    80000014:	44556537          	lui	a0,0x44556
    80000018:	6775051b          	addiw	a0,a0,1655
    8000001c:	00a0a223          	sw	a0,4(ra)
    80000020:	00089537          	lui	a0,0x89
    80000024:	99b5051b          	addiw	a0,a0,-1637
    80000028:	00c51513          	slli	a0,a0,0xc
    8000002c:	abb50513          	addi	a0,a0,-1349 # 88abb <_start-0x7ff77545>
    80000030:	00a0a423          	sw	a0,8(ra)
    80000034:	000cd537          	lui	a0,0xcd
    80000038:	ddf5051b          	addiw	a0,a0,-545
    8000003c:	00c51513          	slli	a0,a0,0xc
    80000040:	eff50513          	addi	a0,a0,-257 # cceff <_start-0x7ff33101>
    80000044:	00a0a623          	sw	a0,12(ra)
    80000048:	01234537          	lui	a0,0x1234
    8000004c:	5675051b          	addiw	a0,a0,1383
    80000050:	00a0a823          	sw	a0,16(ra)
    80000054:	0008a537          	lui	a0,0x8a
    80000058:	abd5051b          	addiw	a0,a0,-1347
    8000005c:	00c51513          	slli	a0,a0,0xc
    80000060:	def50513          	addi	a0,a0,-529 # 89def <_start-0x7ff76211>
    80000064:	00a0aa23          	sw	a0,20(ra)
    80000068:	01010537          	lui	a0,0x1010
    8000006c:	1015051b          	addiw	a0,a0,257
    80000070:	00a0ac23          	sw	a0,24(ra)
    80000074:	23232537          	lui	a0,0x23232
    80000078:	3235051b          	addiw	a0,a0,803
    8000007c:	00a0ae23          	sw	a0,28(ra)
    80000080:	45454537          	lui	a0,0x45454
    80000084:	5455051b          	addiw	a0,a0,1349
    80000088:	02a0a023          	sw	a0,32(ra)
    8000008c:	66667537          	lui	a0,0x66667
    80000090:	7775051b          	addiw	a0,a0,1911
    80000094:	02a0a223          	sw	a0,36(ra)
    80000098:	0008a537          	lui	a0,0x8a
    8000009c:	8995051b          	addiw	a0,a0,-1895
    800000a0:	00c51513          	slli	a0,a0,0xc
    800000a4:	98950513          	addi	a0,a0,-1655 # 89989 <_start-0x7ff76677>
    800000a8:	02a0a423          	sw	a0,40(ra)
    800000ac:	000ac537          	lui	a0,0xac
    800000b0:	abb5051b          	addiw	a0,a0,-1349
    800000b4:	00c51513          	slli	a0,a0,0xc
    800000b8:	bab50513          	addi	a0,a0,-1109 # abbab <_start-0x7ff54455>
    800000bc:	02a0a623          	sw	a0,44(ra)
    800000c0:	000ce537          	lui	a0,0xce
    800000c4:	cdd5051b          	addiw	a0,a0,-803
    800000c8:	00c51513          	slli	a0,a0,0xc
    800000cc:	dcd50513          	addi	a0,a0,-563 # cddcd <_start-0x7ff32233>
    800000d0:	02a0a823          	sw	a0,48(ra)
    800000d4:	000f0537          	lui	a0,0xf0
    800000d8:	eff5051b          	addiw	a0,a0,-257
    800000dc:	00c51513          	slli	a0,a0,0xc
    800000e0:	fef50513          	addi	a0,a0,-17 # effef <_start-0x7ff10011>
    800000e4:	02a0aa23          	sw	a0,52(ra)
    800000e8:	02020537          	lui	a0,0x2020
    800000ec:	2025051b          	addiw	a0,a0,514
    800000f0:	02a0ac23          	sw	a0,56(ra)
    800000f4:	46464537          	lui	a0,0x46464
    800000f8:	6465051b          	addiw	a0,a0,1606
    800000fc:	02a0ae23          	sw	a0,60(ra)
    80000100:	0000b803          	ld	a6,0(ra)
    80000104:	0080b883          	ld	a7,8(ra)
    80000108:	0100b903          	ld	s2,16(ra)
    8000010c:	0180b983          	ld	s3,24(ra)
    80000110:	0200b803          	ld	a6,32(ra)
    80000114:	0280b883          	ld	a7,40(ra)
    80000118:	0300b903          	ld	s2,48(ra)
    8000011c:	0380b983          	ld	s3,56(ra)
    80000120:	00000013          	nop
    80000124:	00000013          	nop
    80000128:	00000013          	nop
    8000012c:	00100513          	li	a0,1
    80000130:	000805b7          	lui	a1,0x80
    80000134:	0015859b          	addiw	a1,a1,1
    80000138:	00c59593          	slli	a1,a1,0xc

000000008000013c <_finish_loop>:
    8000013c:	00a5a023          	sw	a0,0(a1) # 80000 <_start-0x7ff80000>
    80000140:	ffdff06f          	j	8000013c <_finish_loop>
