
test.elf:     file format elf64-littleriscv


Disassembly of section .text.init:

0000000080000000 <_start>:
    80000000:	0580006f          	j	80000058 <reset_vector>

0000000080000004 <trap_vector>:
    80000004:	34202f73          	csrr	t5,mcause
    80000008:	00800f93          	li	t6,8
    8000000c:	05ff0063          	beq	t5,t6,8000004c <write_tohost>
    80000010:	00900f93          	li	t6,9
    80000014:	03ff0c63          	beq	t5,t6,8000004c <write_tohost>
    80000018:	00b00f93          	li	t6,11
    8000001c:	03ff0863          	beq	t5,t6,8000004c <write_tohost>
    80000020:	00000f13          	li	t5,0
    80000024:	000f0463          	beqz	t5,8000002c <trap_vector+0x28>
    80000028:	000f0067          	jr	t5
    8000002c:	34202f73          	csrr	t5,mcause
    80000030:	000f5463          	bgez	t5,80000038 <handle_exception>
    80000034:	0140006f          	j	80000048 <other_exception>

0000000080000038 <handle_exception>:
    80000038:	34102e73          	csrr	t3,mepc
    8000003c:	004e0e13          	addi	t3,t3,4
    80000040:	341e1073          	csrw	mepc,t3
    80000044:	30200073          	mret

0000000080000048 <other_exception>:
    80000048:	5391e193          	ori	gp,gp,1337

000000008000004c <write_tohost>:
    8000004c:	00001f17          	auipc	t5,0x1
    80000050:	fa3f2a23          	sw	gp,-76(t5) # 80001000 <tohost>
    80000054:	ff9ff06f          	j	8000004c <write_tohost>

0000000080000058 <reset_vector>:
    80000058:	f1402573          	csrr	a0,mhartid
    8000005c:	00051063          	bnez	a0,8000005c <reset_vector+0x4>
    80000060:	00000297          	auipc	t0,0x0
    80000064:	01028293          	addi	t0,t0,16 # 80000070 <reset_vector+0x18>
    80000068:	30529073          	csrw	mtvec,t0
    8000006c:	18005073          	csrwi	satp,0
    80000070:	00000297          	auipc	t0,0x0
    80000074:	01c28293          	addi	t0,t0,28 # 8000008c <reset_vector+0x34>
    80000078:	30529073          	csrw	mtvec,t0
    8000007c:	fff00293          	li	t0,-1
    80000080:	3b029073          	csrw	pmpaddr0,t0
    80000084:	01f00293          	li	t0,31
    80000088:	3a029073          	csrw	pmpcfg0,t0
    8000008c:	00000297          	auipc	t0,0x0
    80000090:	01828293          	addi	t0,t0,24 # 800000a4 <reset_vector+0x4c>
    80000094:	30529073          	csrw	mtvec,t0
    80000098:	30205073          	csrwi	medeleg,0
    8000009c:	30305073          	csrwi	mideleg,0
    800000a0:	30405073          	csrwi	mie,0
    800000a4:	00000193          	li	gp,0
    800000a8:	00000297          	auipc	t0,0x0
    800000ac:	f5c28293          	addi	t0,t0,-164 # 80000004 <trap_vector>
    800000b0:	30529073          	csrw	mtvec,t0
    800000b4:	00100513          	li	a0,1
    800000b8:	01f51513          	slli	a0,a0,0x1f
    800000bc:	00055863          	bgez	a0,800000cc <reset_vector+0x74>
    800000c0:	0ff0000f          	fence
    800000c4:	00100193          	li	gp,1
    800000c8:	00000073          	ecall
    800000cc:	00000293          	li	t0,0
    800000d0:	00028e63          	beqz	t0,800000ec <reset_vector+0x94>
    800000d4:	10529073          	csrw	stvec,t0
    800000d8:	0000b2b7          	lui	t0,0xb
    800000dc:	1092829b          	addiw	t0,t0,265
    800000e0:	30229073          	csrw	medeleg,t0
    800000e4:	30202373          	csrr	t1,medeleg
    800000e8:	f66290e3          	bne	t0,t1,80000048 <other_exception>
    800000ec:	30005073          	csrwi	mstatus,0
    800000f0:	00000297          	auipc	t0,0x0
    800000f4:	01428293          	addi	t0,t0,20 # 80000104 <reset_vector+0xac>
    800000f8:	34129073          	csrw	mepc,t0
    800000fc:	f1402573          	csrr	a0,mhartid
    80000100:	30200073          	mret
    80000104:	0180006f          	j	8000011c <test_start>

0000000080000108 <crash_backward>:
    80000108:	0ff0000f          	fence
    8000010c:	00018063          	beqz	gp,8000010c <crash_backward+0x4>
    80000110:	00119193          	slli	gp,gp,0x1
    80000114:	0011e193          	ori	gp,gp,1
    80000118:	00000073          	ecall

000000008000011c <test_start>:
    8000011c:	00001f97          	auipc	t6,0x1
    80000120:	fe4f8f93          	addi	t6,t6,-28 # 80001100 <hidden_data>
    80000124:	000fb003          	ld	zero,0(t6)
    80000128:	008fb083          	ld	ra,8(t6)
    8000012c:	010fb103          	ld	sp,16(t6)
    80000130:	018fb183          	ld	gp,24(t6)
    80000134:	020fb203          	ld	tp,32(t6)
    80000138:	028fb283          	ld	t0,40(t6)
    8000013c:	030fb303          	ld	t1,48(t6)
    80000140:	038fb383          	ld	t2,56(t6)
    80000144:	040fb403          	ld	s0,64(t6)
    80000148:	048fb483          	ld	s1,72(t6)
    8000014c:	050fb503          	ld	a0,80(t6)
    80000150:	058fb583          	ld	a1,88(t6)
    80000154:	060fb603          	ld	a2,96(t6)
    80000158:	068fb683          	ld	a3,104(t6)
    8000015c:	070fb703          	ld	a4,112(t6)
    80000160:	078fb783          	ld	a5,120(t6)
    80000164:	080fb803          	ld	a6,128(t6)
    80000168:	088fb883          	ld	a7,136(t6)
    8000016c:	090fb903          	ld	s2,144(t6)
    80000170:	098fb983          	ld	s3,152(t6)
    80000174:	0a0fba03          	ld	s4,160(t6)
    80000178:	0a8fba83          	ld	s5,168(t6)
    8000017c:	0b0fbb03          	ld	s6,176(t6)
    80000180:	0b8fbb83          	ld	s7,184(t6)
    80000184:	0c0fbc03          	ld	s8,192(t6)
    80000188:	0c8fbc83          	ld	s9,200(t6)
    8000018c:	0d0fbd03          	ld	s10,208(t6)
    80000190:	0d8fbd83          	ld	s11,216(t6)
    80000194:	0e0fbe03          	ld	t3,224(t6)
    80000198:	0e8fbe83          	ld	t4,232(t6)
    8000019c:	0f0fbf03          	ld	t5,240(t6)
    800001a0:	0f8fbf83          	ld	t6,248(t6)
    800001a4:	0040006f          	j	800001a8 <pseg_0>

00000000800001a8 <pseg_0>:
    800001a8:	00001217          	auipc	tp,0x1
    800001ac:	15220213          	addi	tp,tp,338 # 800012fa <reg_x31_output+0x2>
    800001b0:	cf418813          	addi	a6,gp,-780 # 80001c04 <_end+0x4f4>
    800001b4:	3e025403          	lhu	s0,992(tp) # 3e0 <_start-0x7ffffc20>
    800001b8:	78600113          	li	sp,1926
    800001bc:	00001297          	auipc	t0,0x1
    800001c0:	64a28293          	addi	t0,t0,1610 # 80001806 <_end+0xf6>
    800001c4:	4c700f93          	li	t6,1223
    800001c8:	01b00f13          	li	t5,27
    800001cc:	0054bb33          	sltu	s6,s1,t0
    800001d0:	00001b97          	auipc	s7,0x1
    800001d4:	c24b8b93          	addi	s7,s7,-988 # 80000df4 <test_end+0x420>
    800001d8:	00100693          	li	a3,1
    800001dc:	00001797          	auipc	a5,0x1
    800001e0:	1b678793          	addi	a5,a5,438 # 80001392 <test_memory+0x92>
    800001e4:	85800193          	li	gp,-1960
    800001e8:	81c85503          	lhu	a0,-2020(a6)
    800001ec:	d4700b13          	li	s6,-697
    800001f0:	01ff8e3b          	addw	t3,t6,t6
    800001f4:	0e800393          	li	t2,232
    800001f8:	027f35b3          	mulhu	a1,t5,t2
    800001fc:	54e00d93          	li	s11,1358
    80000200:	016b4233          	xor	tp,s6,s6
    80000204:	6cdbb623          	sd	a3,1740(s7)
    80000208:	57e00493          	li	s1,1406
    8000020c:	01b1debb          	srlw	t4,gp,s11
    80000210:	0312fa3b          	remuw	s4,t0,a7
    80000214:	1ce7a523          	sw	a4,458(a5)
    80000218:	0088989b          	slliw	a7,a7,0x8
    8000021c:	00001917          	auipc	s2,0x1
    80000220:	1bb90913          	addi	s2,s2,443 # 800013d7 <test_memory+0xd7>
    80000224:	8d800093          	li	ra,-1832
    80000228:	01ce6633          	or	a2,t3,t3
    8000022c:	075920a3          	sw	s5,97(s2)
    80000230:	25648d13          	addi	s10,s1,598
    80000234:	00001c97          	auipc	s9,0x1
    80000238:	0c0c8c93          	addi	s9,s9,192 # 800012f4 <reg_x30_output+0x4>
    8000023c:	03f69693          	slli	a3,a3,0x3f
    80000240:	0011033b          	addw	t1,sp,ra
    80000244:	bde29703          	lh	a4,-1058(t0)
    80000248:	0ebcb623          	sd	a1,236(s9)
    8000024c:	7bd00413          	li	s0,1981
    80000250:	fff00a93          	li	s5,-1
    80000254:	4a100893          	li	a7,1185
    80000258:	d4800f93          	li	t6,-696
    8000025c:	ea0046e3          	bltz	zero,80000108 <crash_backward>
    80000260:	5237ca13          	xori	s4,a5,1315
    80000264:	93e6e193          	ori	gp,a3,-1730
    80000268:	00000b93          	li	s7,0
    8000026c:	c4418093          	addi	ra,gp,-956 # 80001b54 <_end+0x444>
    80000270:	00dacab3          	xor	s5,s5,a3
    80000274:	015efc33          	and	s8,t4,s5
    80000278:	038c6e33          	rem	t3,s8,s8
    8000027c:	0118b4b3          	sltu	s1,a7,a7
    80000280:	b0718c93          	addi	s9,gp,-1273 # 80001a17 <_end+0x307>
    80000284:	03937b3b          	remuw	s6,t1,s9
    80000288:	010475b3          	and	a1,s0,a6
    8000028c:	ae808a23          	sb	s0,-1292(ra)
    80000290:	00001597          	auipc	a1,0x1
    80000294:	f7b58593          	addi	a1,a1,-133 # 8000120b <reg_x1_output+0x3>
    80000298:	00dd69b3          	or	s3,s10,a3
    8000029c:	01de97bb          	sllw	a5,t4,t4
    800002a0:	ab8ca6a3          	sw	s8,-1363(s9)
    800002a4:	7189ee63          	bltu	s3,s8,800009c0 <crash_forward>
    800002a8:	ddd00d13          	li	s10,-547
    800002ac:	03008333          	mul	t1,ra,a6
    800002b0:	de600b13          	li	s6,-538
    800002b4:	92338393          	addi	t2,t2,-1757
    800002b8:	016b58b3          	srl	a7,s6,s6
    800002bc:	00001d97          	auipc	s11,0x1
    800002c0:	1c5d8d93          	addi	s11,s11,453 # 80001481 <test_memory+0x181>
    800002c4:	011364b3          	or	s1,t1,a7
    800002c8:	26d59a03          	lh	s4,621(a1)
    800002cc:	029c91b3          	mulh	gp,s9,s1
    800002d0:	eaeda5a3          	sw	a4,-341(s11)
    800002d4:	00100613          	li	a2,1
    800002d8:	f8300913          	li	s2,-125
    800002dc:	00000813          	li	a6,0
    800002e0:	31c00e93          	li	t4,796
    800002e4:	01243733          	sltu	a4,s0,s2
    800002e8:	03afd13b          	divuw	sp,t6,s10
    800002ec:	03f61613          	slli	a2,a2,0x3f
    800002f0:	fff00293          	li	t0,-1
    800002f4:	01decf33          	xor	t5,t4,t4
    800002f8:	00c2c2b3          	xor	t0,t0,a2
    800002fc:	0051f533          	and	a0,gp,t0
    80000300:	00c56233          	or	tp,a0,a2
    80000304:	40200813          	li	a6,1026
    80000308:	00100593          	li	a1,1
    8000030c:	00100513          	li	a0,1
    80000310:	00001f97          	auipc	t6,0x1
    80000314:	0eff8f93          	addi	t6,t6,239 # 800013ff <test_memory+0xff>
    80000318:	030849bb          	divw	s3,a6,a6
    8000031c:	00004933          	xor	s2,zero,zero
    80000320:	145fa8a3          	sw	t0,337(t6)
    80000324:	0148b7b3          	sltu	a5,a7,s4
    80000328:	bed92f13          	slti	t5,s2,-1043
    8000032c:	038c13b3          	mulh	t2,s8,s8
    80000330:	dc006ce3          	bltu	zero,zero,80000108 <crash_backward>
    80000334:	00001617          	auipc	a2,0x1
    80000338:	db160613          	addi	a2,a2,-591 # 800010e5 <fromhost+0xa5>
    8000033c:	dcc00b93          	li	s7,-564
    80000340:	91300c13          	li	s8,-1773
    80000344:	30f62ba3          	sw	a5,791(a2)
    80000348:	03f59593          	slli	a1,a1,0x3f
    8000034c:	038c2cb3          	mulhsu	s9,s8,s8
    80000350:	be300693          	li	a3,-1053
    80000354:	63d00e93          	li	t4,1597
    80000358:	66004463          	bltz	zero,800009c0 <crash_forward>
    8000035c:	32000193          	li	gp,800
    80000360:	035ce233          	rem	tp,s9,s5
    80000364:	005b92b3          	sll	t0,s7,t0
    80000368:	03f51513          	slli	a0,a0,0x3f
    8000036c:	b5400093          	li	ra,-1196
    80000370:	66a00f93          	li	t6,1642
    80000374:	fff00713          	li	a4,-1
    80000378:	001edb3b          	srlw	s6,t4,ra
    8000037c:	40dbd43b          	sraw	s0,s7,a3
    80000380:	b1c00f13          	li	t5,-1252
    80000384:	00001c97          	auipc	s9,0x1
    80000388:	199c8c93          	addi	s9,s9,409 # 8000151d <test_memory+0x21d>
    8000038c:	00318dbb          	addw	s11,gp,gp
    80000390:	00001897          	auipc	a7,0x1
    80000394:	ba188893          	addi	a7,a7,-1119 # 80000f31 <test_end+0x55d>
    80000398:	035c9383          	lh	t2,53(s9)
    8000039c:	03ef7633          	remu	a2,t5,t5
    800003a0:	00001197          	auipc	gp,0x1
    800003a4:	16f18193          	addi	gp,gp,367 # 8000150f <test_memory+0x20f>
    800003a8:	af400813          	li	a6,-1292
    800003ac:	00001497          	auipc	s1,0x1
    800003b0:	b3748493          	addi	s1,s1,-1225 # 80000ee3 <test_end+0x50f>
    800003b4:	51d4a0a3          	sw	t4,1281(s1)
    800003b8:	00001217          	auipc	tp,0x1
    800003bc:	ae120213          	addi	tp,tp,-1311 # 80000e99 <test_end+0x4c5>
    800003c0:	e891ec03          	lwu	s8,-375(gp) # 80001d99 <_end+0x689>
    800003c4:	fff00113          	li	sp,-1
    800003c8:	31000393          	li	t2,784
    800003cc:	0359f43b          	remuw	s0,s3,s5
    800003d0:	dc400f13          	li	t5,-572
    800003d4:	00001097          	auipc	ra,0x1
    800003d8:	f8208093          	addi	ra,ra,-126 # 80001356 <test_memory+0x56>
    800003dc:	00b14133          	xor	sp,sp,a1
    800003e0:	00001197          	auipc	gp,0x1
    800003e4:	d3518193          	addi	gp,gp,-715 # 80001115 <reg_x2_init+0x5>
    800003e8:	2be38d93          	addi	s11,t2,702
    800003ec:	0040c683          	lbu	a3,4(ra)
    800003f0:	035b02bb          	mulw	t0,s6,s5
    800003f4:	00e74b33          	xor	s6,a4,a4
    800003f8:	038c0c33          	mul	s8,s8,s8
    800003fc:	00080693          	mv	a3,a6
    80000400:	41f754bb          	sraw	s1,a4,t6
    80000404:	bd018993          	addi	s3,gp,-1072 # 80001ae0 <_end+0x3d0>
    80000408:	d1b3f0e3          	bgeu	t2,s11,80000108 <crash_backward>
    8000040c:	b06980a3          	sb	t1,-1279(s3)
    80000410:	00001417          	auipc	s0,0x1
    80000414:	14840413          	addi	s0,s0,328 # 80001558 <test_memory+0x258>
    80000418:	030fa933          	mulhsu	s2,t6,a6
    8000041c:	0ac40c23          	sb	a2,184(s0)
    80000420:	00c38ab3          	add	s5,t2,a2
    80000424:	597bee63          	bltu	s7,s7,800009c0 <crash_forward>
    80000428:	51021aa3          	sh	a6,1301(tp) # 515 <_start-0x7ffffaeb>
    8000042c:	00068093          	mv	ra,a3
    80000430:	5816e863          	bltu	a3,ra,800009c0 <crash_forward>
    80000434:	00100393          	li	t2,1
    80000438:	00a74733          	xor	a4,a4,a0
    8000043c:	03f39393          	slli	t2,t2,0x3f
    80000440:	002efa33          	and	s4,t4,sp
    80000444:	6b488783          	lb	a5,1716(a7)
    80000448:	01c0de9b          	srliw	t4,ra,0x1c
    8000044c:	00001a97          	auipc	s5,0x1
    80000450:	bbfa8a93          	addi	s5,s5,-1089 # 8000100b <tohost+0xb>
    80000454:	00bb6333          	or	t1,s6,a1
    80000458:	9daff213          	andi	tp,t6,-1574
    8000045c:	00001497          	auipc	s1,0x1
    80000460:	06448493          	addi	s1,s1,100 # 800014c0 <test_memory+0x1c0>
    80000464:	18649283          	lh	t0,390(s1)
    80000468:	45fa8f83          	lb	t6,1119(s5)
    8000046c:	5011d603          	lhu	a2,1281(gp) # 80002411 <__global_pointer$+0x501>
    80000470:	00001217          	auipc	tp,0x1
    80000474:	28b20213          	addi	tp,tp,651 # 800016fb <test_memory+0x3fb>
    80000478:	e0f25983          	lhu	s3,-497(tp) # fffffffffffffe0f <__global_pointer$+0xffffffff7fffdeff>
    8000047c:	f3800b13          	li	s6,-200
    80000480:	f2f18613          	addi	a2,gp,-209 # 80001e3f <_end+0x72f>
    80000484:	00001a97          	auipc	s5,0x1
    80000488:	98ca8a93          	addi	s5,s5,-1652 # 80000e10 <test_end+0x43c>
    8000048c:	016b7db3          	and	s11,s6,s6
    80000490:	9eb00b93          	li	s7,-1557
    80000494:	6a600793          	li	a5,1702
    80000498:	80000f93          	li	t6,-2048
    8000049c:	00e2fd33          	and	s10,t0,a4
    800004a0:	417f5cb3          	sra	s9,t5,s7
    800004a4:	00ad6e33          	or	t3,s10,a0
    800004a8:	0357633b          	remw	t1,a4,s5
    800004ac:	014a52bb          	srlw	t0,s4,s4
    800004b0:	00001417          	auipc	s0,0x1
    800004b4:	96840413          	addi	s0,s0,-1688 # 80000e18 <test_end+0x444>
    800004b8:	00000c13          	li	s8,0
    800004bc:	00001317          	auipc	t1,0x1
    800004c0:	34430313          	addi	t1,t1,836 # 80001800 <_end+0xf0>
    800004c4:	86d60223          	sb	a3,-1948(a2)
    800004c8:	00001217          	auipc	tp,0x1
    800004cc:	0ff20213          	addi	tp,tp,255 # 800015c7 <test_memory+0x2c7>
    800004d0:	f0218193          	addi	gp,gp,-254 # 80001e12 <_end+0x702>
    800004d4:	fbb00b93          	li	s7,-69
    800004d8:	d7918493          	addi	s1,gp,-647 # 80001c89 <_end+0x579>
    800004dc:	01f7eeb3          	or	t4,a5,t6
    800004e0:	00d6ddbb          	srlw	s11,a3,a3
    800004e4:	00001c97          	auipc	s9,0x1
    800004e8:	ca9c8c93          	addi	s9,s9,-855 # 8000118d <reg_x17_init+0x5>
    800004ec:	00000913          	li	s2,0
    800004f0:	83d1b723          	sd	t4,-2002(gp) # 8000173e <_end+0x2e>
    800004f4:	dec18613          	addi	a2,gp,-532 # 80001cfc <_end+0x5ec>
    800004f8:	52e43c23          	sd	a4,1336(s0)
    800004fc:	580aa883          	lw	a7,1408(s5)
    80000500:	93600593          	li	a1,-1738
    80000504:	00001997          	auipc	s3,0x1
    80000508:	b3398993          	addi	s3,s3,-1229 # 80001037 <tohost+0x37>
    8000050c:	dd121103          	lh	sp,-559(tp) # fffffffffffffdd1 <__global_pointer$+0xffffffff7fffdec1>
    80000510:	2efceb03          	lwu	s6,751(s9)
    80000514:	bfae5ae3          	bge	t3,s10,80000108 <crash_backward>
    80000518:	c1934283          	lbu	t0,-999(t1)
    8000051c:	4c400c93          	li	s9,1220
    80000520:	e2d00a93          	li	s5,-467
    80000524:	00000b13          	li	s6,0
    80000528:	80866f83          	lwu	t6,-2040(a2)
    8000052c:	35f00893          	li	a7,863
    80000530:	fc500c13          	li	s8,-59
    80000534:	7cb00e93          	li	t4,1995
    80000538:	02ec4e3b          	divw	t3,s8,a4
    8000053c:	038ad1b3          	divu	gp,s5,s8
    80000540:	12900913          	li	s2,297
    80000544:	0331bd33          	mulhu	s10,gp,s3
    80000548:	00001c17          	auipc	s8,0x1
    8000054c:	8b3c0c13          	addi	s8,s8,-1869 # 80000dfb <test_end+0x427>
    80000550:	8544a5a3          	sw	s4,-1973(s1)
    80000554:	00001617          	auipc	a2,0x1
    80000558:	a5860613          	addi	a2,a2,-1448 # 80000fac <test_end+0x5d8>
    8000055c:	4a498a03          	lb	s4,1188(s3)
    80000560:	000e0313          	mv	t1,t3
    80000564:	67ce8793          	addi	a5,t4,1660
    80000568:	02bbef3b          	remw	t5,s7,a1
    8000056c:	0c600113          	li	sp,198
    80000570:	00000513          	li	a0,0
    80000574:	039cd733          	divu	a4,s9,s9
    80000578:	0128fdb3          	and	s11,a7,s2
    8000057c:	00100493          	li	s1,1
    80000580:	0073dabb          	srlw	s5,t2,t2
    80000584:	0191d913          	srli	s2,gp,0x19
    80000588:	fff00093          	li	ra,-1
    8000058c:	9cb00f93          	li	t6,-1589
    80000590:	85f00f13          	li	t5,-1953
    80000594:	029658bb          	divuw	a7,a2,s1
    80000598:	a0e00a13          	li	s4,-1522
    8000059c:	e5718b13          	addi	s6,gp,-425 # 80001d67 <_end+0x657>
    800005a0:	ee1f8293          	addi	t0,t6,-287
    800005a4:	63d601a3          	sb	t4,1571(a2)
    800005a8:	014f5cb3          	srl	s9,t5,s4
    800005ac:	ccd00213          	li	tp,-819
    800005b0:	611c0183          	lb	gp,1553(s8)
    800005b4:	00001717          	auipc	a4,0x1
    800005b8:	e5870713          	addi	a4,a4,-424 # 8000140c <test_memory+0x10c>
    800005bc:	00000d17          	auipc	s10,0x0
    800005c0:	5e8d0d13          	addi	s10,s10,1512 # 80000ba4 <test_end+0x1d0>
    800005c4:	7a2d4e83          	lbu	t4,1954(s10)
    800005c8:	f1570b83          	lb	s7,-235(a4)
    800005cc:	4041543b          	sraw	s0,sp,tp
    800005d0:	00001617          	auipc	a2,0x1
    800005d4:	fbe60613          	addi	a2,a2,-66 # 8000158e <test_memory+0x28e>
    800005d8:	0bd60883          	lb	a7,189(a2)
    800005dc:	00048413          	mv	s0,s1
    800005e0:	00001e97          	auipc	t4,0x1
    800005e4:	051e8e93          	addi	t4,t4,81 # 80001631 <test_memory+0x331>
    800005e8:	019c971b          	slliw	a4,s9,0x19
    800005ec:	e85edd03          	lhu	s10,-379(t4)
    800005f0:	00100f13          	li	t5,1
    800005f4:	03f49493          	slli	s1,s1,0x3f
    800005f8:	00001897          	auipc	a7,0x1
    800005fc:	fc788893          	addi	a7,a7,-57 # 800015bf <test_memory+0x2bf>
    80000600:	2c700113          	li	sp,711
    80000604:	0070c0b3          	xor	ra,ra,t2
    80000608:	00000a97          	auipc	s5,0x0
    8000060c:	70fa8a93          	addi	s5,s5,1807 # 80000d17 <test_end+0x343>
    80000610:	00030e13          	mv	t3,t1
    80000614:	fff00793          	li	a5,-1
    80000618:	0097c7b3          	xor	a5,a5,s1
    8000061c:	00040b93          	mv	s7,s0
    80000620:	001ff833          	and	a6,t6,ra
    80000624:	b9618c13          	addi	s8,gp,-1130 # 80001aa6 <_end+0x396>
    80000628:	007a66b3          	or	a3,s4,t2
    8000062c:	03ff1f13          	slli	t5,t5,0x3f
    80000630:	911b2583          	lw	a1,-1775(s6)
    80000634:	00002db3          	sltz	s11,zero
    80000638:	39c34463          	blt	t1,t3,800009c0 <crash_forward>
    8000063c:	d8589603          	lh	a2,-635(a7)
    80000640:	00f67533          	and	a0,a2,a5
    80000644:	fff00a13          	li	s4,-1
    80000648:	86ac3d23          	sd	a0,-1926(s8)
    8000064c:	60ea8183          	lb	gp,1550(s5)
    80000650:	01ea4a33          	xor	s4,s4,t5
    80000654:	009f69b3          	or	s3,t5,s1
    80000658:	ab3578e3          	bgeu	a0,s3,80000108 <crash_backward>
    8000065c:	d8618713          	addi	a4,gp,-634 # 80001c96 <_end+0x586>
    80000660:	0146fcb3          	and	s9,a3,s4
    80000664:	01ee6933          	or	s2,t3,t5
    80000668:	9f071d03          	lh	s10,-1552(a4)
    8000066c:	a92c8ee3          	beq	s9,s2,80000108 <crash_backward>
    80000670:	02216233          	rem	tp,sp,sp
    80000674:	57e00c93          	li	s9,1406
    80000678:	00100d13          	li	s10,1
    8000067c:	00100313          	li	t1,1
    80000680:	03fd1d13          	slli	s10,s10,0x3f
    80000684:	00098113          	mv	sp,s3
    80000688:	00001f17          	auipc	t5,0x1
    8000068c:	f85f0f13          	addi	t5,t5,-123 # 8000160d <test_memory+0x30d>
    80000690:	00001817          	auipc	a6,0x1
    80000694:	89f80813          	addi	a6,a6,-1889 # 80000f2f <test_end+0x55b>
    80000698:	e23f0983          	lb	s3,-477(t5)
    8000069c:	06f00493          	li	s1,111
    800006a0:	039cdc3b          	divuw	s8,s9,s9
    800006a4:	efac0a93          	addi	s5,s8,-262
    800006a8:	00010d93          	mv	s11,sp
    800006ac:	dca00293          	li	t0,-566
    800006b0:	784830a3          	sd	tp,1921(a6)
    800006b4:	fff00613          	li	a2,-1
    800006b8:	0f300913          	li	s2,243
    800006bc:	5b190213          	addi	tp,s2,1457
    800006c0:	25e00e13          	li	t3,606
    800006c4:	01f1e733          	or	a4,gp,t6
    800006c8:	0c3e0a13          	addi	s4,t3,195
    800006cc:	01a64633          	xor	a2,a2,s10
    800006d0:	00001097          	auipc	ra,0x1
    800006d4:	83f08093          	addi	ra,ra,-1985 # 80000f0f <test_end+0x53b>
    800006d8:	5f909503          	lh	a0,1529(ra)
    800006dc:	00cafbb3          	and	s7,s5,a2
    800006e0:	0254c1bb          	divw	gp,s1,t0
    800006e4:	01abe7b3          	or	a5,s7,s10
    800006e8:	03f31313          	slli	t1,t1,0x3f
    800006ec:	fff00593          	li	a1,-1
    800006f0:	0065c5b3          	xor	a1,a1,t1
    800006f4:	2d4e5663          	bge	t3,s4,800009c0 <crash_forward>
    800006f8:	00b47fb3          	and	t6,s0,a1
    800006fc:	006c66b3          	or	a3,s8,t1
    80000700:	a1f6e4e3          	bltu	a3,t6,80000108 <crash_backward>
    80000704:	03de0433          	mul	s0,t3,t4
    80000708:	9e918593          	addi	a1,gp,-1559 # 800018f9 <_end+0x1e9>
    8000070c:	40e701bb          	subw	gp,a4,a4
    80000710:	035adb3b          	divuw	s6,s5,s5
    80000714:	00000117          	auipc	sp,0x0
    80000718:	4d210113          	addi	sp,sp,1234 # 80000be6 <test_end+0x212>
    8000071c:	00100313          	li	t1,1
    80000720:	0317d6bb          	divuw	a3,a5,a7
    80000724:	030807bb          	mulw	a5,a6,a6
    80000728:	00001e17          	auipc	t3,0x1
    8000072c:	90de0e13          	addi	t3,t3,-1779 # 80001035 <tohost+0x35>
    80000730:	bdf18213          	addi	tp,gp,-1057 # 80001aef <_end+0x3df>
    80000734:	00000993          	li	s3,0
    80000738:	82c21fa3          	sh	a2,-1985(tp) # fffffffffffff83f <__global_pointer$+0xffffffff7fffd92f>
    8000073c:	00100513          	li	a0,1
    80000740:	bbe58283          	lb	t0,-1090(a1)
    80000744:	030f60b3          	rem	ra,t5,a6
    80000748:	2f9e5a03          	lhu	s4,761(t3)
    8000074c:	eb500a93          	li	s5,-331
    80000750:	035a8f33          	mul	t5,s5,s5
    80000754:	028417b3          	mulh	a5,s0,s0
    80000758:	0273c5b3          	div	a1,t2,t2
    8000075c:	03f51513          	slli	a0,a0,0x3f
    80000760:	00000493          	li	s1,0
    80000764:	24999e63          	bne	s3,s1,800009c0 <crash_forward>
    80000768:	034daa33          	mulhsu	s4,s11,s4
    8000076c:	01f146b3          	xor	a3,sp,t6
    80000770:	030875b3          	remu	a1,a6,a6
    80000774:	00001e17          	auipc	t3,0x1
    80000778:	bfce0e13          	addi	t3,t3,-1028 # 80001370 <test_memory+0x70>
    8000077c:	02f3e7b3          	rem	a5,t2,a5
    80000780:	c4918f13          	addi	t5,gp,-951 # 80001b59 <_end+0x449>
    80000784:	73511b23          	sh	s5,1846(sp)
    80000788:	00100e93          	li	t4,1
    8000078c:	9cff17a3          	sh	a5,-1585(t5)
    80000790:	9e918093          	addi	ra,gp,-1559 # 800018f9 <_end+0x1e9>
    80000794:	01ce0b33          	add	s6,t3,t3
    80000798:	ad90afa3          	sw	s9,-1313(ra)
    8000079c:	00000c17          	auipc	s8,0x0
    800007a0:	5c9c0c13          	addi	s8,s8,1481 # 80000d65 <test_end+0x391>
    800007a4:	bb900213          	li	tp,-1095
    800007a8:	00000397          	auipc	t2,0x0
    800007ac:	77838393          	addi	t2,t2,1912 # 80000f20 <test_end+0x54c>
    800007b0:	face5a83          	lhu	s5,-84(t3)
    800007b4:	00001f97          	auipc	t6,0x1
    800007b8:	81df8f93          	addi	t6,t6,-2019 # 80000fd1 <test_end+0x5fd>
    800007bc:	7c638883          	lb	a7,1990(t2)
    800007c0:	004202bb          	addw	t0,tp,tp
    800007c4:	fff00813          	li	a6,-1
    800007c8:	457f88a3          	sb	s7,1105(t6)
    800007cc:	03f31313          	slli	t1,t1,0x3f
    800007d0:	03fe9e93          	slli	t4,t4,0x3f
    800007d4:	fff00613          	li	a2,-1
    800007d8:	01d64633          	xor	a2,a2,t4
    800007dc:	00c17cb3          	and	s9,sp,a2
    800007e0:	00a84833          	xor	a6,a6,a0
    800007e4:	fff00193          	li	gp,-1
    800007e8:	6bdc5d03          	lhu	s10,1725(s8)
    800007ec:	01dce933          	or	s2,s9,t4
    800007f0:	0102fdb3          	and	s11,t0,a6
    800007f4:	00adebb3          	or	s7,s11,a0
    800007f8:	fda00213          	li	tp,-38
    800007fc:	cc618893          	addi	a7,gp,-826 # 80001bd6 <_end+0x4c6>
    80000800:	0061c1b3          	xor	gp,gp,t1
    80000804:	003ff733          	and	a4,t6,gp
    80000808:	8fb00c13          	li	s8,-1797
    8000080c:	58200793          	li	a5,1410
    80000810:	1b2cc863          	blt	s9,s2,800009c0 <crash_forward>
    80000814:	00001497          	auipc	s1,0x1
    80000818:	c3d48493          	addi	s1,s1,-963 # 80001451 <test_memory+0x151>
    8000081c:	75700113          	li	sp,1879
    80000820:	022245b3          	div	a1,tp,sp
    80000824:	06d00293          	li	t0,109
    80000828:	1434eb03          	lwu	s6,323(s1)
    8000082c:	1b300a13          	li	s4,435
    80000830:	005c39b3          	sltu	s3,s8,t0
    80000834:	8d7bcae3          	blt	s7,s7,80000108 <crash_backward>
    80000838:	9c589f23          	sh	t0,-1570(a7)
    8000083c:	6f200393          	li	t2,1778
    80000840:	00676433          	or	s0,a4,t1
    80000844:	0277ee3b          	remw	t3,a5,t2
    80000848:	038ee0bb          	remw	ra,t4,s8
    8000084c:	00000d17          	auipc	s10,0x0
    80000850:	3f1d0d13          	addi	s10,s10,1009 # 80000c3d <test_end+0x269>
    80000854:	40528ab3          	sub	s5,t0,t0
    80000858:	00001697          	auipc	a3,0x1
    8000085c:	ee868693          	addi	a3,a3,-280 # 80001740 <_end+0x30>
    80000860:	414a0f3b          	subw	t5,s4,s4
    80000864:	cdb18113          	addi	sp,gp,-805 # 80001beb <_end+0x4db>
    80000868:	beb69423          	sh	a1,-1048(a3)
    8000086c:	00100393          	li	t2,1
    80000870:	6ebd1f83          	lh	t6,1771(s10)
    80000874:	00098213          	mv	tp,s3
    80000878:	0210833b          	mulw	t1,ra,ra
    8000087c:	b9600713          	li	a4,-1130
    80000880:	c6818613          	addi	a2,gp,-920 # 80001b78 <_end+0x468>
    80000884:	00001197          	auipc	gp,0x1
    80000888:	cac18193          	addi	gp,gp,-852 # 80001530 <test_memory+0x230>
    8000088c:	00001a17          	auipc	s4,0x1
    80000890:	d46a0a13          	addi	s4,s4,-698 # 800015d2 <test_memory+0x2d2>
    80000894:	00020493          	mv	s1,tp
    80000898:	010810b3          	sll	ra,a6,a6
    8000089c:	a4914c83          	lbu	s9,-1463(sp)
    800008a0:	03ff433b          	divw	t1,t5,t6
    800008a4:	02e73833          	mulhu	a6,a4,a4
    800008a8:	00000517          	auipc	a0,0x0
    800008ac:	5d050513          	addi	a0,a0,1488 # 80000e78 <test_end+0x4a4>
    800008b0:	19600993          	li	s3,406
    800008b4:	4139d7b3          	sra	a5,s3,s3
    800008b8:	02fbc2bb          	divw	t0,s7,a5
    800008bc:	7cc50403          	lb	s0,1996(a0)
    800008c0:	00ef8d3b          	addw	s10,t6,a4
    800008c4:	00aadc33          	srl	s8,s5,a0
    800008c8:	00000697          	auipc	a3,0x0
    800008cc:	6c068693          	addi	a3,a3,1728 # 80000f88 <test_end+0x5b4>
    800008d0:	99718f93          	addi	t6,gp,-1641 # 800018a7 <_end+0x197>
    800008d4:	8b066583          	lwu	a1,-1872(a2)
    800008d8:	03f39393          	slli	t2,t2,0x3f
    800008dc:	037bf933          	remu	s2,s7,s7
    800008e0:	ee619d23          	sh	t1,-262(gp) # 80001e0a <_end+0x6fa>
    800008e4:	fff00d93          	li	s11,-1
    800008e8:	e62a1e03          	lh	t3,-414(s4)
    800008ec:	03d0c133          	div	sp,ra,t4
    800008f0:	00100513          	li	a0,1
    800008f4:	cfdfa0a3          	sw	t4,-799(t6)
    800008f8:	002179b3          	and	s3,sp,sp
    800008fc:	12900f13          	li	t5,297
    80000900:	5a500893          	li	a7,1445
    80000904:	03f51513          	slli	a0,a0,0x3f
    80000908:	6066db83          	lhu	s7,1542(a3)
    8000090c:	007dcdb3          	xor	s11,s11,t2
    80000910:	fff00413          	li	s0,-1
    80000914:	011f6eb3          	or	t4,t5,a7
    80000918:	00a44433          	xor	s0,s0,a0
    8000091c:	0080f833          	and	a6,ra,s0
    80000920:	01bdfb33          	and	s6,s11,s11
    80000924:	00a660b3          	or	ra,a2,a0
    80000928:	007eeab3          	or	s5,t4,t2
    8000092c:	095b4a63          	blt	s6,s5,800009c0 <crash_forward>
    80000930:	0040006f          	j	80000934 <reg_dump>

0000000080000934 <reg_dump>:
    80000934:	00001097          	auipc	ra,0x1
    80000938:	dcc08093          	addi	ra,ra,-564 # 80001700 <loop_count>
    8000093c:	0000a103          	lw	sp,0(ra)
    80000940:	fff10193          	addi	gp,sp,-1
    80000944:	0030a023          	sw	gp,0(ra)
    80000948:	860110e3          	bnez	sp,800001a8 <pseg_0>
    8000094c:	00001097          	auipc	ra,0x1
    80000950:	8b408093          	addi	ra,ra,-1868 # 80001200 <begin_signature>
    80000954:	0000b023          	sd	zero,0(ra)
    80000958:	0020b823          	sd	sp,16(ra)
    8000095c:	0240b023          	sd	tp,32(ra)
    80000960:	0250b423          	sd	t0,40(ra)
    80000964:	0260b823          	sd	t1,48(ra)
    80000968:	0270bc23          	sd	t2,56(ra)
    8000096c:	0480b023          	sd	s0,64(ra)
    80000970:	0490b423          	sd	s1,72(ra)
    80000974:	04a0b823          	sd	a0,80(ra)
    80000978:	04b0bc23          	sd	a1,88(ra)
    8000097c:	06e0b823          	sd	a4,112(ra)
    80000980:	06f0bc23          	sd	a5,120(ra)
    80000984:	0900b023          	sd	a6,128(ra)
    80000988:	0910b423          	sd	a7,136(ra)
    8000098c:	0920b823          	sd	s2,144(ra)
    80000990:	0930bc23          	sd	s3,152(ra)
    80000994:	0b50b423          	sd	s5,168(ra)
    80000998:	0b60b823          	sd	s6,176(ra)
    8000099c:	0b70bc23          	sd	s7,184(ra)
    800009a0:	0d80b023          	sd	s8,192(ra)
    800009a4:	0d90b423          	sd	s9,200(ra)
    800009a8:	0da0b823          	sd	s10,208(ra)
    800009ac:	0db0bc23          	sd	s11,216(ra)
    800009b0:	0fc0b023          	sd	t3,224(ra)
    800009b4:	0fd0b423          	sd	t4,232(ra)
    800009b8:	0fe0b823          	sd	t5,240(ra)
    800009bc:	0180006f          	j	800009d4 <test_end>

00000000800009c0 <crash_forward>:
    800009c0:	0ff0000f          	fence
    800009c4:	00018063          	beqz	gp,800009c4 <crash_forward+0x4>
    800009c8:	00119193          	slli	gp,gp,0x1
    800009cc:	0011e193          	ori	gp,gp,1
    800009d0:	00000073          	ecall

00000000800009d4 <test_end>:
    800009d4:	0ff0000f          	fence
    800009d8:	00100193          	li	gp,1
    800009dc:	00000073          	ecall
    800009e0:	c0001073          	unimp
	...

Disassembly of section .tohost:

0000000080001000 <tohost>:
	...

0000000080001040 <fromhost>:
	...
