
test.elf:     file format elf64-littleriscv


Disassembly of section .text.init:

0000000080000000 <_start>:
    80000000:	0580006f          	j	80000058 <reset_vector>

0000000080000004 <trap_vector>:
    80000004:	34202f73          	csrr	t5,mcause
    80000008:	00800f93          	li	t6,8
    8000000c:	05ff0063          	beq	t5,t6,8000004c <write_tohost>
    80000010:	00900f93          	li	t6,9
    80000014:	03ff0c63          	beq	t5,t6,8000004c <write_tohost>
    80000018:	00b00f93          	li	t6,11
    8000001c:	03ff0863          	beq	t5,t6,8000004c <write_tohost>
    80000020:	00000f13          	li	t5,0
    80000024:	000f0463          	beqz	t5,8000002c <trap_vector+0x28>
    80000028:	000f0067          	jr	t5
    8000002c:	34202f73          	csrr	t5,mcause
    80000030:	000f5463          	bgez	t5,80000038 <handle_exception>
    80000034:	0140006f          	j	80000048 <other_exception>

0000000080000038 <handle_exception>:
    80000038:	34102e73          	csrr	t3,mepc
    8000003c:	004e0e13          	addi	t3,t3,4
    80000040:	341e1073          	csrw	mepc,t3
    80000044:	30200073          	mret

0000000080000048 <other_exception>:
    80000048:	5391e193          	ori	gp,gp,1337

000000008000004c <write_tohost>:
    8000004c:	00001f17          	auipc	t5,0x1
    80000050:	fa3f2a23          	sw	gp,-76(t5) # 80001000 <tohost>
    80000054:	ff9ff06f          	j	8000004c <write_tohost>

0000000080000058 <reset_vector>:
    80000058:	f1402573          	csrr	a0,mhartid
    8000005c:	00051063          	bnez	a0,8000005c <reset_vector+0x4>
    80000060:	00000297          	auipc	t0,0x0
    80000064:	01028293          	addi	t0,t0,16 # 80000070 <reset_vector+0x18>
    80000068:	30529073          	csrw	mtvec,t0
    8000006c:	18005073          	csrwi	satp,0
    80000070:	00000297          	auipc	t0,0x0
    80000074:	01c28293          	addi	t0,t0,28 # 8000008c <reset_vector+0x34>
    80000078:	30529073          	csrw	mtvec,t0
    8000007c:	fff00293          	li	t0,-1
    80000080:	3b029073          	csrw	pmpaddr0,t0
    80000084:	01f00293          	li	t0,31
    80000088:	3a029073          	csrw	pmpcfg0,t0
    8000008c:	00000297          	auipc	t0,0x0
    80000090:	01828293          	addi	t0,t0,24 # 800000a4 <reset_vector+0x4c>
    80000094:	30529073          	csrw	mtvec,t0
    80000098:	30205073          	csrwi	medeleg,0
    8000009c:	30305073          	csrwi	mideleg,0
    800000a0:	30405073          	csrwi	mie,0
    800000a4:	00000193          	li	gp,0
    800000a8:	00000297          	auipc	t0,0x0
    800000ac:	f5c28293          	addi	t0,t0,-164 # 80000004 <trap_vector>
    800000b0:	30529073          	csrw	mtvec,t0
    800000b4:	00100513          	li	a0,1
    800000b8:	01f51513          	slli	a0,a0,0x1f
    800000bc:	00055863          	bgez	a0,800000cc <reset_vector+0x74>
    800000c0:	0ff0000f          	fence
    800000c4:	00100193          	li	gp,1
    800000c8:	00000073          	ecall
    800000cc:	00000293          	li	t0,0
    800000d0:	00028e63          	beqz	t0,800000ec <reset_vector+0x94>
    800000d4:	10529073          	csrw	stvec,t0
    800000d8:	0000b2b7          	lui	t0,0xb
    800000dc:	1092829b          	addiw	t0,t0,265
    800000e0:	30229073          	csrw	medeleg,t0
    800000e4:	30202373          	csrr	t1,medeleg
    800000e8:	f66290e3          	bne	t0,t1,80000048 <other_exception>
    800000ec:	30005073          	csrwi	mstatus,0
    800000f0:	00000297          	auipc	t0,0x0
    800000f4:	01428293          	addi	t0,t0,20 # 80000104 <reset_vector+0xac>
    800000f8:	34129073          	csrw	mepc,t0
    800000fc:	f1402573          	csrr	a0,mhartid
    80000100:	30200073          	mret
    80000104:	0180006f          	j	8000011c <test_start>

0000000080000108 <crash_backward>:
    80000108:	0ff0000f          	fence
    8000010c:	00018063          	beqz	gp,8000010c <crash_backward+0x4>
    80000110:	00119193          	slli	gp,gp,0x1
    80000114:	0011e193          	ori	gp,gp,1
    80000118:	00000073          	ecall

000000008000011c <test_start>:
    8000011c:	00001f97          	auipc	t6,0x1
    80000120:	fe4f8f93          	addi	t6,t6,-28 # 80001100 <hidden_data>
    80000124:	000fb003          	ld	zero,0(t6)
    80000128:	008fb083          	ld	ra,8(t6)
    8000012c:	010fb103          	ld	sp,16(t6)
    80000130:	018fb183          	ld	gp,24(t6)
    80000134:	020fb203          	ld	tp,32(t6)
    80000138:	028fb283          	ld	t0,40(t6)
    8000013c:	030fb303          	ld	t1,48(t6)
    80000140:	038fb383          	ld	t2,56(t6)
    80000144:	040fb403          	ld	s0,64(t6)
    80000148:	048fb483          	ld	s1,72(t6)
    8000014c:	050fb503          	ld	a0,80(t6)
    80000150:	058fb583          	ld	a1,88(t6)
    80000154:	060fb603          	ld	a2,96(t6)
    80000158:	068fb683          	ld	a3,104(t6)
    8000015c:	070fb703          	ld	a4,112(t6)
    80000160:	078fb783          	ld	a5,120(t6)
    80000164:	080fb803          	ld	a6,128(t6)
    80000168:	088fb883          	ld	a7,136(t6)
    8000016c:	090fb903          	ld	s2,144(t6)
    80000170:	098fb983          	ld	s3,152(t6)
    80000174:	0a0fba03          	ld	s4,160(t6)
    80000178:	0a8fba83          	ld	s5,168(t6)
    8000017c:	0b0fbb03          	ld	s6,176(t6)
    80000180:	0b8fbb83          	ld	s7,184(t6)
    80000184:	0c0fbc03          	ld	s8,192(t6)
    80000188:	0c8fbc83          	ld	s9,200(t6)
    8000018c:	0d0fbd03          	ld	s10,208(t6)
    80000190:	0d8fbd83          	ld	s11,216(t6)
    80000194:	0e0fbe03          	ld	t3,224(t6)
    80000198:	0e8fbe83          	ld	t4,232(t6)
    8000019c:	0f0fbf03          	ld	t5,240(t6)
    800001a0:	0f8fbf83          	ld	t6,248(t6)
    800001a4:	0040006f          	j	800001a8 <pseg_0>

00000000800001a8 <pseg_0>:
    800001a8:	03bdddbb          	divuw	s11,s11,s11
    800001ac:	00001617          	auipc	a2,0x1
    800001b0:	f7660613          	addi	a2,a2,-138 # 80001122 <reg_x4_init+0x2>
    800001b4:	000c0313          	mv	t1,s8
    800001b8:	018c4133          	xor	sp,s8,s8
    800001bc:	ac000213          	li	tp,-1344
    800001c0:	00001997          	auipc	s3,0x1
    800001c4:	3ee98993          	addi	s3,s3,1006 # 800015ae <test_memory+0x2ae>
    800001c8:	00030393          	mv	t2,t1
    800001cc:	02380f3b          	mulw	t5,a6,gp
    800001d0:	03ffb1b3          	mulhu	gp,t6,t6
    800001d4:	412950bb          	sraw	ra,s2,s2
    800001d8:	00001d17          	auipc	s10,0x1
    800001dc:	156d0d13          	addi	s10,s10,342 # 8000132e <test_memory+0x2e>
    800001e0:	aa318293          	addi	t0,gp,-1373 # 800019b3 <_end+0x2a3>
    800001e4:	b4b18a13          	addi	s4,gp,-1205 # 80001a5b <_end+0x34b>
    800001e8:	e0898fa3          	sb	s0,-481(s3)
    800001ec:	0fbd0823          	sb	s11,240(s10)
    800001f0:	2fa66803          	lwu	a6,762(a2)
    800001f4:	de720713          	addi	a4,tp,-537 # fffffffffffffde7 <__global_pointer$+0xffffffff7fffded7>
    800001f8:	00001697          	auipc	a3,0x1
    800001fc:	b5f68693          	addi	a3,a3,-1185 # 80000d57 <test_end+0x3af>
    80000200:	38f00793          	li	a5,911
    80000204:	d152e583          	lwu	a1,-747(t0)
    80000208:	6ac00e13          	li	t3,1708
    8000020c:	00001d17          	auipc	s10,0x1
    80000210:	030d0d13          	addi	s10,s10,48 # 8000123c <reg_x7_output+0x4>
    80000214:	64fe0413          	addi	s0,t3,1615
    80000218:	00001f17          	auipc	t5,0x1
    8000021c:	4c4f0f13          	addi	t5,t5,1220 # 800016dc <test_memory+0x3dc>
    80000220:	00001c17          	auipc	s8,0x1
    80000224:	b97c0c13          	addi	s8,s8,-1129 # 80000db7 <test_end+0x40f>
    80000228:	0133a633          	slt	a2,t2,s3
    8000022c:	757c5c83          	lhu	s9,1879(s8)
    80000230:	00001b97          	auipc	s7,0x1
    80000234:	26cb8b93          	addi	s7,s7,620 # 8000149c <test_memory+0x19c>
    80000238:	4b8d6583          	lwu	a1,1208(s10)
    8000023c:	56c00193          	li	gp,1388
    80000240:	10e00893          	li	a7,270
    80000244:	0f400d93          	li	s11,244
    80000248:	0a4b9483          	lh	s1,164(s7)
    8000024c:	eae26ee3          	bltu	tp,a4,80000108 <crash_backward>
    80000250:	02f799b3          	mulh	s3,a5,a5
    80000254:	7f66c903          	lbu	s2,2038(a3)
    80000258:	74c00293          	li	t0,1868
    8000025c:	00519833          	sll	a6,gp,t0
    80000260:	03178fb3          	mul	t6,a5,a7
    80000264:	006f5083          	lhu	ra,6(t5)
    80000268:	fec00513          	li	a0,-20
    8000026c:	00adb133          	sltu	sp,s11,a0
    80000270:	c15a1a83          	lh	s5,-1003(s4)
    80000274:	00001e97          	auipc	t4,0x1
    80000278:	8efe8e93          	addi	t4,t4,-1809 # 80000b63 <test_end+0x1bb>
    8000027c:	e87346e3          	blt	t1,t2,80000108 <crash_backward>
    80000280:	025865b3          	rem	a1,a6,t0
    80000284:	00001397          	auipc	t2,0x1
    80000288:	f6238393          	addi	t2,t2,-158 # 800011e6 <reg_x28_init+0x6>
    8000028c:	01ffd93b          	srlw	s2,t6,t6
    80000290:	38c00513          	li	a0,908
    80000294:	03ff90b3          	mulh	ra,t6,t6
    80000298:	57c00413          	li	s0,1404
    8000029c:	32000293          	li	t0,800
    800002a0:	77500593          	li	a1,1909
    800002a4:	02b59933          	mulh	s2,a1,a1
    800002a8:	00001717          	auipc	a4,0x1
    800002ac:	ee670713          	addi	a4,a4,-282 # 8000118e <reg_x17_init+0x6>
    800002b0:	9f400c13          	li	s8,-1548
    800002b4:	b5a18c93          	addi	s9,gp,-1190 # 80001a6a <_end+0x35a>
    800002b8:	4913b923          	sd	a7,1170(t2)
    800002bc:	ae6ceb83          	lwu	s7,-1306(s9)
    800002c0:	7d5eab03          	lw	s6,2005(t4)
    800002c4:	00001697          	auipc	a3,0x1
    800002c8:	ea168693          	addi	a3,a3,-351 # 80001165 <reg_x12_init+0x5>
    800002cc:	2da00993          	li	s3,730
    800002d0:	00000393          	li	t2,0
    800002d4:	15f00213          	li	tp,351
    800002d8:	028478b3          	remu	a7,s0,s0
    800002dc:	34f28a93          	addi	s5,t0,847
    800002e0:	ad300113          	li	sp,-1325
    800002e4:	00001d17          	auipc	s10,0x1
    800002e8:	285d0d13          	addi	s10,s10,645 # 80001569 <test_memory+0x269>
    800002ec:	035aa633          	mulhsu	a2,s5,s5
    800002f0:	00000e93          	li	t4,0
    800002f4:	e05aeae3          	bltu	s5,t0,80000108 <crash_backward>
    800002f8:	02423333          	mulhu	t1,tp,tp
    800002fc:	fa900e13          	li	t3,-87
    80000300:	d97d2d83          	lw	s11,-617(s10)
    80000304:	14000b13          	li	s6,320
    80000308:	038c01b3          	mul	gp,s8,s8
    8000030c:	40215fb3          	sra	t6,sp,sp
    80000310:	dfd39ce3          	bne	t2,t4,80000108 <crash_backward>
    80000314:	21bb0913          	addi	s2,s6,539
    80000318:	35d00493          	li	s1,861
    8000031c:	0099983b          	sllw	a6,s3,s1
    80000320:	7fce4a93          	xori	s5,t3,2044
    80000324:	abd1b113          	sltiu	sp,gp,-1347
    80000328:	8ed00f93          	li	t6,-1811
    8000032c:	77400193          	li	gp,1908
    80000330:	00001497          	auipc	s1,0x1
    80000334:	cb648493          	addi	s1,s1,-842 # 80000fe6 <test_end+0x63e>
    80000338:	af418c13          	addi	s8,gp,-1292 # 80001a04 <_end+0x2f4>
    8000033c:	80200113          	li	sp,-2046
    80000340:	01ce7333          	and	t1,t3,t3
    80000344:	14300593          	li	a1,323
    80000348:	003f8633          	add	a2,t6,gp
    8000034c:	01c55f3b          	srlw	t5,a0,t3
    80000350:	6c64aa83          	lw	s5,1734(s1)
    80000354:	13700893          	li	a7,311
    80000358:	13900993          	li	s3,313
    8000035c:	00001417          	auipc	s0,0x1
    80000360:	e7340413          	addi	s0,s0,-397 # 800011cf <reg_x25_init+0x7>
    80000364:	0331583b          	divuw	a6,sp,s3
    80000368:	5816d083          	lhu	ra,1409(a3)
    8000036c:	0318cdbb          	divw	s11,a7,a7
    80000370:	b7100393          	li	t2,-1167
    80000374:	d1600c93          	li	s9,-746
    80000378:	2c100e93          	li	t4,705
    8000037c:	56870783          	lb	a5,1384(a4)
    80000380:	005a1a1b          	slliw	s4,s4,0x5
    80000384:	af6c3e23          	sd	s6,-1284(s8)
    80000388:	0308523b          	divuw	tp,a6,a6
    8000038c:	3f145283          	lhu	t0,1009(s0)
    80000390:	03d38d33          	mul	s10,t2,t4
    80000394:	01959bb3          	sll	s7,a1,s9
    80000398:	95218b13          	addi	s6,gp,-1710 # 80001862 <_end+0x152>
    8000039c:	03b40abb          	mulw	s5,s0,s11
    800003a0:	00100c13          	li	s8,1
    800003a4:	03fc1c13          	slli	s8,s8,0x3f
    800003a8:	024444b3          	div	s1,s0,tp
    800003ac:	01034db3          	xor	s11,t1,a6
    800003b0:	c4200993          	li	s3,-958
    800003b4:	03699933          	mulh	s2,s3,s6
    800003b8:	00001697          	auipc	a3,0x1
    800003bc:	cdb68693          	addi	a3,a3,-805 # 80001093 <fromhost+0x53>
    800003c0:	00100193          	li	gp,1
    800003c4:	03f19193          	slli	gp,gp,0x3f
    800003c8:	00100813          	li	a6,1
    800003cc:	00001597          	auipc	a1,0x1
    800003d0:	af258593          	addi	a1,a1,-1294 # 80000ebe <test_end+0x516>
    800003d4:	22600113          	li	sp,550
    800003d8:	b3d98b93          	addi	s7,s3,-1219
    800003dc:	fff00893          	li	a7,-1
    800003e0:	01398933          	add	s2,s3,s3
    800003e4:	bb7b2d23          	sw	s7,-1094(s6)
    800003e8:	00001d17          	auipc	s10,0x1
    800003ec:	148d0d13          	addi	s10,s10,328 # 80001530 <test_memory+0x230>
    800003f0:	626690a3          	sh	t1,1569(a3)
    800003f4:	41ef5abb          	sraw	s5,t5,t5
    800003f8:	417b8e3b          	subw	t3,s7,s7
    800003fc:	0a9d4703          	lbu	a4,169(s10)
    80000400:	002102b3          	add	t0,sp,sp
    80000404:	56f58f03          	lb	t5,1391(a1)
    80000408:	c6e18493          	addi	s1,gp,-914 # 80001b7e <_end+0x46e>
    8000040c:	0188c8b3          	xor	a7,a7,s8
    80000410:	035dc3bb          	divw	t2,s11,s5
    80000414:	4131d53b          	sraw	a0,gp,s3
    80000418:	fff00093          	li	ra,-1
    8000041c:	0030c0b3          	xor	ra,ra,gp
    80000420:	e3400993          	li	s3,-460
    80000424:	fd200913          	li	s2,-46
    80000428:	032953bb          	divuw	t2,s2,s2
    8000042c:	011f7cb3          	and	s9,t5,a7
    80000430:	7c000513          	li	a0,1984
    80000434:	03f81813          	slli	a6,a6,0x3f
    80000438:	00100b13          	li	s6,1
    8000043c:	001b7233          	and	tp,s6,ra
    80000440:	00001797          	auipc	a5,0x1
    80000444:	a2678793          	addi	a5,a5,-1498 # 80000e66 <test_end+0x4be>
    80000448:	00326eb3          	or	t4,tp,gp
    8000044c:	aaa4dd83          	lhu	s11,-1366(s1)
    80000450:	b4a00393          	li	t2,-1206
    80000454:	35a8c313          	xori	t1,a7,858
    80000458:	00a98f3b          	addw	t5,s3,a0
    8000045c:	00100a93          	li	s5,1
    80000460:	03fa9a93          	slli	s5,s5,0x3f
    80000464:	e3700913          	li	s2,-457
    80000468:	fff00f93          	li	t6,-1
    8000046c:	0323ee33          	rem	t3,t2,s2
    80000470:	01866a33          	or	s4,a2,s8
    80000474:	c8004ae3          	bltz	zero,80000108 <crash_backward>
    80000478:	fff00d13          	li	s10,-1
    8000047c:	c4718d93          	addi	s11,gp,-953 # 80001b57 <_end+0x447>
    80000480:	03fb1b13          	slli	s6,s6,0x3f
    80000484:	35700213          	li	tp,855
    80000488:	71300e13          	li	t3,1811
    8000048c:	00001497          	auipc	s1,0x1
    80000490:	02248493          	addi	s1,s1,34 # 800014ae <test_memory+0x1ae>
    80000494:	015d4d33          	xor	s10,s10,s5
    80000498:	00050393          	mv	t2,a0
    8000049c:	03c220b3          	mulhsu	ra,tp,t3
    800004a0:	8c700293          	li	t0,-1849
    800004a4:	01a57133          	and	sp,a0,s10
    800004a8:	d0818993          	addi	s3,gp,-760 # 80001c18 <_end+0x508>
    800004ac:	26600313          	li	t1,614
    800004b0:	0e14bd23          	sd	ra,250(s1)
    800004b4:	0062bf33          	sltu	t5,t0,t1
    800004b8:	00001e17          	auipc	t3,0x1
    800004bc:	a03e0e13          	addi	t3,t3,-1533 # 80000ebb <test_end+0x513>
    800004c0:	0094f0b3          	and	ra,s1,s1
    800004c4:	015165b3          	or	a1,sp,s5
    800004c8:	01205233          	srl	tp,zero,s2
    800004cc:	29300913          	li	s2,659
    800004d0:	0036df13          	srli	t5,a3,0x3
    800004d4:	c34ccae3          	blt	s9,s4,80000108 <crash_backward>
    800004d8:	fff00b93          	li	s7,-1
    800004dc:	02c602bb          	mulw	t0,a2,a2
    800004e0:	e7d18a13          	addi	s4,gp,-387 # 80001d8d <_end+0x67d>
    800004e4:	00038193          	mv	gp,t2
    800004e8:	91d9bc23          	sd	t4,-1768(s3)
    800004ec:	010fcfb3          	xor	t6,t6,a6
    800004f0:	a2000493          	li	s1,-1504
    800004f4:	01290eb3          	add	t4,s2,s2
    800004f8:	6197b523          	sd	s9,1546(a5)
    800004fc:	7da17893          	andi	a7,sp,2010
    80000500:	801dc503          	lbu	a0,-2047(s11)
    80000504:	cc418f13          	addi	t5,gp,-828 # 80001bd4 <_end+0x4c4>
    80000508:	667e32a3          	sd	t2,1637(t3)
    8000050c:	0031ceb3          	xor	t4,gp,gp
    80000510:	00001197          	auipc	gp,0x1
    80000514:	14018193          	addi	gp,gp,320 # 80001650 <test_memory+0x350>
    80000518:	c0100213          	li	tp,-1023
    8000051c:	9d900593          	li	a1,-1575
    80000520:	0244e0bb          	remw	ra,s1,tp
    80000524:	00100d93          	li	s11,1
    80000528:	016bcbb3          	xor	s7,s7,s6
    8000052c:	00001117          	auipc	sp,0x1
    80000530:	e8810113          	addi	sp,sp,-376 # 800013b4 <test_memory+0xb4>
    80000534:	ce61c383          	lbu	t2,-794(gp) # 80001bf6 <_end+0x4e6>
    80000538:	6d500e13          	li	t3,1749
    8000053c:	03fd9d93          	slli	s11,s11,0x3f
    80000540:	03c5f9b3          	remu	s3,a1,t3
    80000544:	a65f1b23          	sh	t0,-1418(t5)
    80000548:	00001317          	auipc	t1,0x1
    8000054c:	a8d30313          	addi	t1,t1,-1395 # 80000fd5 <test_end+0x62d>
    80000550:	6f2339a3          	sd	s2,1779(t1)
    80000554:	02e747b3          	div	a5,a4,a4
    80000558:	00100213          	li	tp,1
    8000055c:	034f1d13          	slli	s10,t5,0x34
    80000560:	0176f733          	and	a4,a3,s7
    80000564:	03f21213          	slli	tp,tp,0x3f
    80000568:	0162e6b3          	or	a3,t0,s6
    8000056c:	37300e13          	li	t3,883
    80000570:	16c13e83          	ld	t4,364(sp)
    80000574:	fff00493          	li	s1,-1
    80000578:	21a00313          	li	t1,538
    8000057c:	00001597          	auipc	a1,0x1
    80000580:	9e358593          	addi	a1,a1,-1565 # 80000f5f <test_end+0x5b7>
    80000584:	03af0cbb          	mulw	s9,t5,s10
    80000588:	418cd513          	srai	a0,s9,0x18
    8000058c:	026e07bb          	mulw	a5,t3,t1
    80000590:	49758103          	lb	sp,1175(a1)
    80000594:	b6d70ae3          	beq	a4,a3,80000108 <crash_backward>
    80000598:	01f27433          	and	s0,tp,t6
    8000059c:	01046633          	or	a2,s0,a6
    800005a0:	b6c404e3          	beq	s0,a2,80000108 <crash_backward>
    800005a4:	fff00893          	li	a7,-1
    800005a8:	01b8c8b3          	xor	a7,a7,s11
    800005ac:	8bba5c03          	lhu	s8,-1861(s4)
    800005b0:	e4500a93          	li	s5,-443
    800005b4:	0044c4b3          	xor	s1,s1,tp
    800005b8:	f3b18393          	addi	t2,gp,-197 # 80001e4b <_end+0x73b>
    800005bc:	009471b3          	and	gp,s0,s1
    800005c0:	a5da8d13          	addi	s10,s5,-1443
    800005c4:	8a93c983          	lbu	s3,-1879(t2)
    800005c8:	02c637b3          	mulhu	a5,a2,a2
    800005cc:	cd600513          	li	a0,-810
    800005d0:	5f000113          	li	sp,1520
    800005d4:	015c9f1b          	slliw	t5,s9,0x15
    800005d8:	b3aac8e3          	blt	s5,s10,80000108 <crash_backward>
    800005dc:	0041e0b3          	or	ra,gp,tp
    800005e0:	012965b3          	or	a1,s2,s2
    800005e4:	98100993          	li	s3,-1663
    800005e8:	0110f2b3          	and	t0,ra,a7
    800005ec:	3a118463          	beq	gp,ra,80000994 <crash_forward>
    800005f0:	0339f43b          	remuw	s0,s3,s3
    800005f4:	e3600613          	li	a2,-458
    800005f8:	02213cb3          	mulhu	s9,sp,sp
    800005fc:	01bd6933          	or	s2,s10,s11
    80000600:	ddf18e93          	addi	t4,gp,-545 # 80001cef <_end+0x5df>
    80000604:	00c6533b          	srlw	t1,a2,a2
    80000608:	00001b97          	auipc	s7,0x1
    8000060c:	203b8b93          	addi	s7,s7,515 # 8000180b <_end+0xfb>
    80000610:	c3700393          	li	t2,-969
    80000614:	ae596ae3          	bltu	s2,t0,80000108 <crash_backward>
    80000618:	d3f18c13          	addi	s8,gp,-705 # 80001c4f <_end+0x53f>
    8000061c:	9aa60a13          	addi	s4,a2,-1622
    80000620:	a89c09a3          	sb	s1,-1389(s8)
    80000624:	40a50b3b          	subw	s6,a0,a0
    80000628:	7a100713          	li	a4,1953
    8000062c:	02e70fb3          	mul	t6,a4,a4
    80000630:	dd3b9aa3          	sh	s3,-555(s7)
    80000634:	f4a00813          	li	a6,-182
    80000638:	8f5e9e03          	lh	t3,-1803(t4)
    8000063c:	0303b6b3          	mulhu	a3,t2,a6
    80000640:	00001797          	auipc	a5,0x1
    80000644:	e3378793          	addi	a5,a5,-461 # 80001473 <test_memory+0x173>
    80000648:	02f00113          	li	sp,47
    8000064c:	00001697          	auipc	a3,0x1
    80000650:	f9968693          	addi	a3,a3,-103 # 800015e5 <test_memory+0x2e5>
    80000654:	011d10b3          	sll	ra,s10,a7
    80000658:	0717a2a3          	sw	a7,101(a5)
    8000065c:	00bb0333          	add	t1,s6,a1
    80000660:	0251d53b          	divuw	a0,gp,t0
    80000664:	00100593          	li	a1,1
    80000668:	00001f17          	auipc	t5,0x1
    8000066c:	121f0f13          	addi	t5,t5,289 # 80001789 <_end+0x79>
    80000670:	03f59593          	slli	a1,a1,0x3f
    80000674:	89900213          	li	tp,-1895
    80000678:	00070413          	mv	s0,a4
    8000067c:	00d8f633          	and	a2,a7,a3
    80000680:	00040f93          	mv	t6,s0
    80000684:	a5f00e13          	li	t3,-1441
    80000688:	fff00d13          	li	s10,-1
    8000068c:	00001b97          	auipc	s7,0x1
    80000690:	8c6b8b93          	addi	s7,s7,-1850 # 80000f52 <test_end+0x5aa>
    80000694:	00001a17          	auipc	s4,0x1
    80000698:	9c9a0a13          	addi	s4,s4,-1591 # 8000105d <fromhost+0x1d>
    8000069c:	c83f6283          	lwu	t0,-893(t5)
    800006a0:	00001997          	auipc	s3,0x1
    800006a4:	a1398993          	addi	s3,s3,-1517 # 800010b3 <fromhost+0x73>
    800006a8:	004168b3          	or	a7,sp,tp
    800006ac:	3a59a903          	lw	s2,933(s3)
    800006b0:	00001397          	auipc	t2,0x1
    800006b4:	e5c38393          	addi	t2,t2,-420 # 8000150c <test_memory+0x20c>
    800006b8:	72aba783          	lw	a5,1834(s7)
    800006bc:	00001497          	auipc	s1,0x1
    800006c0:	02148493          	addi	s1,s1,33 # 800016dd <test_memory+0x3dd>
    800006c4:	02633ab3          	mulhu	s5,t1,t1
    800006c8:	03ce2b33          	mulhsu	s6,t3,t3
    800006cc:	e9f6dc83          	lhu	s9,-353(a3)
    800006d0:	0043b183          	ld	gp,4(t2)
    800006d4:	00bd4d33          	xor	s10,s10,a1
    800006d8:	01adf733          	and	a4,s11,s10
    800006dc:	aa418813          	addi	a6,gp,-1372 # 800019b4 <_end+0x2a4>
    800006e0:	a7c00313          	li	t1,-1412
    800006e4:	3fba3e83          	ld	t4,1019(s4)
    800006e8:	acb81623          	sh	a1,-1332(a6)
    800006ec:	00b76c33          	or	s8,a4,a1
    800006f0:	b5930093          	addi	ra,t1,-1191
    800006f4:	a1f41ae3          	bne	s0,t6,80000108 <crash_backward>
    800006f8:	da34ed83          	lwu	s11,-605(s1)
    800006fc:	44900d13          	li	s10,1097
    80000700:	00001317          	auipc	t1,0x1
    80000704:	96530313          	addi	t1,t1,-1691 # 80001065 <fromhost+0x25>
    80000708:	a9b18e13          	addi	t3,gp,-1381 # 800019ab <_end+0x29b>
    8000070c:	41ef8a3b          	subw	s4,t6,t5
    80000710:	ef000193          	li	gp,-272
    80000714:	00001697          	auipc	a3,0x1
    80000718:	b6f68693          	addi	a3,a3,-1169 # 80001283 <reg_x16_output+0x3>
    8000071c:	00001a17          	auipc	s4,0x1
    80000720:	c7ca0a13          	addi	s4,s4,-900 # 80001398 <test_memory+0x98>
    80000724:	00100293          	li	t0,1
    80000728:	d4300113          	li	sp,-701
    8000072c:	bede2203          	lw	tp,-1043(t3)
    80000730:	eb200913          	li	s2,-334
    80000734:	fa218a93          	addi	s5,gp,-94 # 80001eb2 <_end+0x7a2>
    80000738:	e4518813          	addi	a6,gp,-443 # 80001d55 <_end+0x645>
    8000073c:	52f00f13          	li	t5,1327
    80000740:	8cf84503          	lbu	a0,-1841(a6)
    80000744:	00100413          	li	s0,1
    80000748:	22cf0b13          	addi	s6,t5,556
    8000074c:	2d96a783          	lw	a5,729(a3)
    80000750:	67a00613          	li	a2,1658
    80000754:	00c91733          	sll	a4,s2,a2
    80000758:	03f41413          	slli	s0,s0,0x3f
    8000075c:	03f29293          	slli	t0,t0,0x3f
    80000760:	54b34383          	lbu	t2,1355(t1)
    80000764:	ab010493          	addi	s1,sp,-1360
    80000768:	45e00213          	li	tp,1118
    8000076c:	fff00893          	li	a7,-1
    80000770:	311a3423          	sd	a7,776(s4)
    80000774:	017bb333          	sltu	t1,s7,s7
    80000778:	026ada33          	divu	s4,s5,t1
    8000077c:	55600693          	li	a3,1366
    80000780:	fff00e93          	li	t4,-1
    80000784:	9951e2e3          	bltu	gp,s5,80000108 <crash_backward>
    80000788:	00001a97          	auipc	s5,0x1
    8000078c:	da1a8a93          	addi	s5,s5,-607 # 80001529 <test_memory+0x229>
    80000790:	20004263          	bltz	zero,80000994 <crash_forward>
    80000794:	00001917          	auipc	s2,0x1
    80000798:	bf390913          	addi	s2,s2,-1037 # 80001387 <test_memory+0x87>
    8000079c:	d1000e13          	li	t3,-752
    800007a0:	976f54e3          	bge	t5,s6,80000108 <crash_backward>
    800007a4:	01ff63b3          	or	t2,t5,t6
    800007a8:	008eceb3          	xor	t4,t4,s0
    800007ac:	81700793          	li	a5,-2025
    800007b0:	03ad3fb3          	mulhu	t6,s10,s10
    800007b4:	ff1a8183          	lb	gp,-15(s5)
    800007b8:	19a91aa3          	sh	s10,405(s2)
    800007bc:	e9a00d93          	li	s11,-358
    800007c0:	02fe453b          	divw	a0,t3,a5
    800007c4:	414a5833          	sra	a6,s4,s4
    800007c8:	01ddfbb3          	and	s7,s11,t4
    800007cc:	00100313          	li	t1,1
    800007d0:	0058c8b3          	xor	a7,a7,t0
    800007d4:	03bdf9bb          	remuw	s3,s11,s11
    800007d8:	03f31313          	slli	t1,t1,0x3f
    800007dc:	03ce4db3          	div	s11,t3,t3
    800007e0:	c4e00e13          	li	t3,-946
    800007e4:	00001817          	auipc	a6,0x1
    800007e8:	82c80813          	addi	a6,a6,-2004 # 80001010 <tohost+0x10>
    800007ec:	84000a93          	li	s5,-1984
    800007f0:	54184783          	lbu	a5,1345(a6)
    800007f4:	fff00713          	li	a4,-1
    800007f8:	02d260b3          	rem	ra,tp,a3
    800007fc:	0112fcb3          	and	s9,t0,a7
    80000800:	015ab4b3          	sltu	s1,s5,s5
    80000804:	008b65b3          	or	a1,s6,s0
    80000808:	a9218913          	addi	s2,gp,-1390 # 800019a2 <_end+0x292>
    8000080c:	f5300513          	li	a0,-173
    80000810:	d6250113          	addi	sp,a0,-670
    80000814:	00000697          	auipc	a3,0x0
    80000818:	54c68693          	addi	a3,a3,1356 # 80000d60 <test_end+0x3b8>
    8000081c:	9b296f03          	lwu	t5,-1614(s2)
    80000820:	0051ec33          	or	s8,gp,t0
    80000824:	00001d17          	auipc	s10,0x1
    80000828:	e43d0d13          	addi	s10,s10,-445 # 80001667 <test_memory+0x367>
    8000082c:	01ce0fb3          	add	t6,t3,t3
    80000830:	178c8263          	beq	s9,s8,80000994 <crash_forward>
    80000834:	72a69b03          	lh	s6,1834(a3)
    80000838:	00674733          	xor	a4,a4,t1
    8000083c:	7ba00213          	li	tp,1978
    80000840:	35200193          	li	gp,850
    80000844:	00000793          	li	a5,0
    80000848:	00000a93          	li	s5,0
    8000084c:	007a1c93          	slli	s9,s4,0x7
    80000850:	ea5d5383          	lhu	t2,-347(s10)
    80000854:	00d686bb          	addw	a3,a3,a3
    80000858:	aaa18493          	addi	s1,gp,-1366 # 800019ba <_end+0x2aa>
    8000085c:	51c20d93          	addi	s11,tp,1308 # 51c <_start-0x7ffffae4>
    80000860:	9fe00c13          	li	s8,-1538
    80000864:	403189b3          	sub	s3,gp,gp
    80000868:	1a100293          	li	t0,417
    8000086c:	30700893          	li	a7,775
    80000870:	bfd18693          	addi	a3,gp,-1027 # 80001b0d <_end+0x3fd>
    80000874:	1357e063          	bltu	a5,s5,80000994 <crash_forward>
    80000878:	96118d13          	addi	s10,gp,-1695 # 80001871 <_end+0x161>
    8000087c:	90e68723          	sb	a4,-1778(a3)
    80000880:	d4000e13          	li	t3,-704
    80000884:	40210cb3          	sub	s9,sp,sp
    80000888:	0312a133          	mulhsu	sp,t0,a7
    8000088c:	f6300f13          	li	t5,-157
    80000890:	00100213          	li	tp,1
    80000894:	00001f97          	auipc	t6,0x1
    80000898:	bd4f8f93          	addi	t6,t6,-1068 # 80001468 <test_memory+0x168>
    8000089c:	058f8723          	sb	s8,78(t6)
    800008a0:	d26d3fa3          	sd	t1,-705(s10)
    800008a4:	41cc5933          	sra	s2,s8,t3
    800008a8:	00e27a33          	and	s4,tp,a4
    800008ac:	bfc18513          	addi	a0,gp,-1028 # 80001b0c <_end+0x3fc>
    800008b0:	00646633          	or	a2,s0,t1
    800008b4:	9c118e93          	addi	t4,gp,-1599 # 800018d1 <_end+0x1c1>
    800008b8:	95b53623          	sd	s11,-1716(a0)
    800008bc:	a4318893          	addi	a7,gp,-1469 # 80001953 <_end+0x243>
    800008c0:	0cca7a63          	bgeu	s4,a2,80000994 <crash_forward>
    800008c4:	a558b103          	ld	sp,-1451(a7)
    800008c8:	9d518793          	addi	a5,gp,-1579 # 800018e5 <_end+0x1d5>
    800008cc:	41ab599b          	sraiw	s3,s6,0x1a
    800008d0:	b97ea9a3          	sw	s7,-1133(t4)
    800008d4:	03f21213          	slli	tp,tp,0x3f
    800008d8:	a717cd83          	lbu	s11,-1423(a5)
    800008dc:	014a13b3          	sll	t2,s4,s4
    800008e0:	00001817          	auipc	a6,0x1
    800008e4:	91280813          	addi	a6,a6,-1774 # 800011f2 <reg_x30_init+0x2>
    800008e8:	b45f0b13          	addi	s6,t5,-1211
    800008ec:	fff00a93          	li	s5,-1
    800008f0:	0b6f0263          	beq	t5,s6,80000994 <crash_forward>
    800008f4:	00000197          	auipc	gp,0x0
    800008f8:	55318193          	addi	gp,gp,1363 # 80000e47 <test_end+0x49f>
    800008fc:	004acab3          	xor	s5,s5,tp
    80000900:	52619ea3          	sh	t1,1341(gp) # 8000244d <__global_pointer$+0x53d>
    80000904:	38280a23          	sb	sp,916(a6)
    80000908:	bc64b083          	ld	ra,-1082(s1)
    8000090c:	0150fbb3          	and	s7,ra,s5
    80000910:	00486433          	or	s0,a6,tp
    80000914:	fe8b8a63          	beq	s7,s0,80000108 <crash_backward>
    80000918:	0040006f          	j	8000091c <reg_dump>

000000008000091c <reg_dump>:
    8000091c:	00001097          	auipc	ra,0x1
    80000920:	de408093          	addi	ra,ra,-540 # 80001700 <loop_count>
    80000924:	0000a103          	lw	sp,0(ra)
    80000928:	fff10193          	addi	gp,sp,-1
    8000092c:	0030a023          	sw	gp,0(ra)
    80000930:	86011ce3          	bnez	sp,800001a8 <pseg_0>
    80000934:	00001097          	auipc	ra,0x1
    80000938:	8cc08093          	addi	ra,ra,-1844 # 80001200 <begin_signature>
    8000093c:	0000b023          	sd	zero,0(ra)
    80000940:	0020b823          	sd	sp,16(ra)
    80000944:	0240b023          	sd	tp,32(ra)
    80000948:	0250b423          	sd	t0,40(ra)
    8000094c:	0260b823          	sd	t1,48(ra)
    80000950:	0270bc23          	sd	t2,56(ra)
    80000954:	0480b023          	sd	s0,64(ra)
    80000958:	04b0bc23          	sd	a1,88(ra)
    8000095c:	06c0b023          	sd	a2,96(ra)
    80000960:	06e0b823          	sd	a4,112(ra)
    80000964:	0920b823          	sd	s2,144(ra)
    80000968:	0930bc23          	sd	s3,152(ra)
    8000096c:	0b40b023          	sd	s4,160(ra)
    80000970:	0b50b423          	sd	s5,168(ra)
    80000974:	0b60b823          	sd	s6,176(ra)
    80000978:	0b70bc23          	sd	s7,184(ra)
    8000097c:	0d80b023          	sd	s8,192(ra)
    80000980:	0d90b423          	sd	s9,200(ra)
    80000984:	0db0bc23          	sd	s11,216(ra)
    80000988:	0fc0b023          	sd	t3,224(ra)
    8000098c:	0fe0b823          	sd	t5,240(ra)
    80000990:	0180006f          	j	800009a8 <test_end>

0000000080000994 <crash_forward>:
    80000994:	0ff0000f          	fence
    80000998:	00018063          	beqz	gp,80000998 <crash_forward+0x4>
    8000099c:	00119193          	slli	gp,gp,0x1
    800009a0:	0011e193          	ori	gp,gp,1
    800009a4:	00000073          	ecall

00000000800009a8 <test_end>:
    800009a8:	0ff0000f          	fence
    800009ac:	00100193          	li	gp,1
    800009b0:	00000073          	ecall
    800009b4:	c0001073          	unimp
	...

Disassembly of section .tohost:

0000000080001000 <tohost>:
	...

0000000080001040 <fromhost>:
	...
