
test.elf:     file format elf64-littleriscv


Disassembly of section .text.init:

0000000080000000 <_start>:
    80000000:	0580006f          	j	80000058 <reset_vector>

0000000080000004 <trap_vector>:
    80000004:	34202f73          	csrr	t5,mcause
    80000008:	00800f93          	li	t6,8
    8000000c:	05ff0063          	beq	t5,t6,8000004c <write_tohost>
    80000010:	00900f93          	li	t6,9
    80000014:	03ff0c63          	beq	t5,t6,8000004c <write_tohost>
    80000018:	00b00f93          	li	t6,11
    8000001c:	03ff0863          	beq	t5,t6,8000004c <write_tohost>
    80000020:	00000f13          	li	t5,0
    80000024:	000f0463          	beqz	t5,8000002c <trap_vector+0x28>
    80000028:	000f0067          	jr	t5
    8000002c:	34202f73          	csrr	t5,mcause
    80000030:	000f5463          	bgez	t5,80000038 <handle_exception>
    80000034:	0140006f          	j	80000048 <other_exception>

0000000080000038 <handle_exception>:
    80000038:	34102e73          	csrr	t3,mepc
    8000003c:	004e0e13          	addi	t3,t3,4
    80000040:	341e1073          	csrw	mepc,t3
    80000044:	30200073          	mret

0000000080000048 <other_exception>:
    80000048:	5391e193          	ori	gp,gp,1337

000000008000004c <write_tohost>:
    8000004c:	00001f17          	auipc	t5,0x1
    80000050:	fa3f2a23          	sw	gp,-76(t5) # 80001000 <tohost>
    80000054:	ff9ff06f          	j	8000004c <write_tohost>

0000000080000058 <reset_vector>:
    80000058:	f1402573          	csrr	a0,mhartid
    8000005c:	00051063          	bnez	a0,8000005c <reset_vector+0x4>
    80000060:	00000297          	auipc	t0,0x0
    80000064:	01028293          	addi	t0,t0,16 # 80000070 <reset_vector+0x18>
    80000068:	30529073          	csrw	mtvec,t0
    8000006c:	18005073          	csrwi	satp,0
    80000070:	00000297          	auipc	t0,0x0
    80000074:	01c28293          	addi	t0,t0,28 # 8000008c <reset_vector+0x34>
    80000078:	30529073          	csrw	mtvec,t0
    8000007c:	fff00293          	li	t0,-1
    80000080:	3b029073          	csrw	pmpaddr0,t0
    80000084:	01f00293          	li	t0,31
    80000088:	3a029073          	csrw	pmpcfg0,t0
    8000008c:	00000297          	auipc	t0,0x0
    80000090:	01828293          	addi	t0,t0,24 # 800000a4 <reset_vector+0x4c>
    80000094:	30529073          	csrw	mtvec,t0
    80000098:	30205073          	csrwi	medeleg,0
    8000009c:	30305073          	csrwi	mideleg,0
    800000a0:	30405073          	csrwi	mie,0
    800000a4:	00000193          	li	gp,0
    800000a8:	00000297          	auipc	t0,0x0
    800000ac:	f5c28293          	addi	t0,t0,-164 # 80000004 <trap_vector>
    800000b0:	30529073          	csrw	mtvec,t0
    800000b4:	00100513          	li	a0,1
    800000b8:	01f51513          	slli	a0,a0,0x1f
    800000bc:	00055863          	bgez	a0,800000cc <reset_vector+0x74>
    800000c0:	0ff0000f          	fence
    800000c4:	00100193          	li	gp,1
    800000c8:	00000073          	ecall
    800000cc:	00000293          	li	t0,0
    800000d0:	00028e63          	beqz	t0,800000ec <reset_vector+0x94>
    800000d4:	10529073          	csrw	stvec,t0
    800000d8:	0000b2b7          	lui	t0,0xb
    800000dc:	1092829b          	addiw	t0,t0,265
    800000e0:	30229073          	csrw	medeleg,t0
    800000e4:	30202373          	csrr	t1,medeleg
    800000e8:	f66290e3          	bne	t0,t1,80000048 <other_exception>
    800000ec:	30005073          	csrwi	mstatus,0
    800000f0:	00000297          	auipc	t0,0x0
    800000f4:	01428293          	addi	t0,t0,20 # 80000104 <reset_vector+0xac>
    800000f8:	34129073          	csrw	mepc,t0
    800000fc:	f1402573          	csrr	a0,mhartid
    80000100:	30200073          	mret
    80000104:	0180006f          	j	8000011c <test_start>

0000000080000108 <crash_backward>:
    80000108:	0ff0000f          	fence
    8000010c:	00018063          	beqz	gp,8000010c <crash_backward+0x4>
    80000110:	00119193          	slli	gp,gp,0x1
    80000114:	0011e193          	ori	gp,gp,1
    80000118:	00000073          	ecall

000000008000011c <test_start>:
    8000011c:	00001f97          	auipc	t6,0x1
    80000120:	fe4f8f93          	addi	t6,t6,-28 # 80001100 <hidden_data>
    80000124:	000fb003          	ld	zero,0(t6)
    80000128:	008fb083          	ld	ra,8(t6)
    8000012c:	010fb103          	ld	sp,16(t6)
    80000130:	018fb183          	ld	gp,24(t6)
    80000134:	020fb203          	ld	tp,32(t6)
    80000138:	028fb283          	ld	t0,40(t6)
    8000013c:	030fb303          	ld	t1,48(t6)
    80000140:	038fb383          	ld	t2,56(t6)
    80000144:	040fb403          	ld	s0,64(t6)
    80000148:	048fb483          	ld	s1,72(t6)
    8000014c:	050fb503          	ld	a0,80(t6)
    80000150:	058fb583          	ld	a1,88(t6)
    80000154:	060fb603          	ld	a2,96(t6)
    80000158:	068fb683          	ld	a3,104(t6)
    8000015c:	070fb703          	ld	a4,112(t6)
    80000160:	078fb783          	ld	a5,120(t6)
    80000164:	080fb803          	ld	a6,128(t6)
    80000168:	088fb883          	ld	a7,136(t6)
    8000016c:	090fb903          	ld	s2,144(t6)
    80000170:	098fb983          	ld	s3,152(t6)
    80000174:	0a0fba03          	ld	s4,160(t6)
    80000178:	0a8fba83          	ld	s5,168(t6)
    8000017c:	0b0fbb03          	ld	s6,176(t6)
    80000180:	0b8fbb83          	ld	s7,184(t6)
    80000184:	0c0fbc03          	ld	s8,192(t6)
    80000188:	0c8fbc83          	ld	s9,200(t6)
    8000018c:	0d0fbd03          	ld	s10,208(t6)
    80000190:	0d8fbd83          	ld	s11,216(t6)
    80000194:	0e0fbe03          	ld	t3,224(t6)
    80000198:	0e8fbe83          	ld	t4,232(t6)
    8000019c:	0f0fbf03          	ld	t5,240(t6)
    800001a0:	0f8fbf83          	ld	t6,248(t6)
    800001a4:	0040006f          	j	800001a8 <pseg_0>

00000000800001a8 <pseg_0>:
    800001a8:	00100913          	li	s2,1
    800001ac:	9d000f13          	li	t5,-1584
    800001b0:	79000893          	li	a7,1936
    800001b4:	03f91913          	slli	s2,s2,0x3f
    800001b8:	034a0733          	mul	a4,s4,s4
    800001bc:	00001c17          	auipc	s8,0x1
    800001c0:	21fc0c13          	addi	s8,s8,543 # 800013db <test_memory+0xdb>
    800001c4:	00001197          	auipc	gp,0x1
    800001c8:	2be18193          	addi	gp,gp,702 # 80001482 <test_memory+0x182>
    800001cc:	02000393          	li	t2,32
    800001d0:	125c1483          	lh	s1,293(s8)
    800001d4:	6d800693          	li	a3,1752
    800001d8:	00001597          	auipc	a1,0x1
    800001dc:	2a958593          	addi	a1,a1,681 # 80001481 <test_memory+0x181>
    800001e0:	92718b93          	addi	s7,gp,-1753 # 80001837 <_end+0x127>
    800001e4:	7c001863          	bnez	zero,800009b4 <crash_forward>
    800001e8:	fff00f93          	li	t6,-1
    800001ec:	00001517          	auipc	a0,0x1
    800001f0:	dff50513          	addi	a0,a0,-513 # 80000feb <test_end+0x623>
    800001f4:	2161d203          	lhu	tp,534(gp) # 80002126 <__global_pointer$+0x216>
    800001f8:	c7900e13          	li	t3,-903
    800001fc:	c9018313          	addi	t1,gp,-880 # 80001ba0 <_end+0x490>
    80000200:	00001b17          	auipc	s6,0x1
    80000204:	5f4b0b13          	addi	s6,s6,1524 # 800017f4 <_end+0xe4>
    80000208:	01c39dbb          	sllw	s11,t2,t3
    8000020c:	aba32823          	sw	s10,-1360(t1)
    80000210:	00df5a3b          	srlw	s4,t5,a3
    80000214:	00001297          	auipc	t0,0x1
    80000218:	e9728293          	addi	t0,t0,-361 # 800010ab <fromhost+0x6b>
    8000021c:	e6dbb0a3          	sd	a3,-415(s7)
    80000220:	00001817          	auipc	a6,0x1
    80000224:	b6680813          	addi	a6,a6,-1178 # 80000d86 <test_end+0x3be>
    80000228:	66553983          	ld	s3,1637(a0)
    8000022c:	012fcfb3          	xor	t6,t6,s2
    80000230:	4692ee83          	lwu	t4,1129(t0)
    80000234:	5c100613          	li	a2,1473
    80000238:	00c8f0b3          	and	ra,a7,a2
    8000023c:	01fdfd33          	and	s10,s11,t6
    80000240:	012667b3          	or	a5,a2,s2
    80000244:	be1b2223          	sw	ra,-1052(s6)
    80000248:	f5d5ca83          	lbu	s5,-163(a1)
    8000024c:	79483523          	sd	s4,1930(a6)
    80000250:	00a7e233          	or	tp,a5,a0
    80000254:	00001797          	auipc	a5,0x1
    80000258:	ae678793          	addi	a5,a5,-1306 # 80000d3a <test_end+0x372>
    8000025c:	e1b00e93          	li	t4,-485
    80000260:	4f400493          	li	s1,1268
    80000264:	00100413          	li	s0,1
    80000268:	00001d17          	auipc	s10,0x1
    8000026c:	f09d0d13          	addi	s10,s10,-247 # 80001171 <reg_x14_init+0x1>
    80000270:	a2f00b13          	li	s6,-1489
    80000274:	6b300393          	li	t2,1715
    80000278:	5fe7dd83          	lhu	s11,1534(a5)
    8000027c:	03f41413          	slli	s0,s0,0x3f
    80000280:	fff00a93          	li	s5,-1
    80000284:	00100593          	li	a1,1
    80000288:	0d000093          	li	ra,208
    8000028c:	00001b97          	auipc	s7,0x1
    80000290:	32ab8b93          	addi	s7,s7,810 # 800015b6 <test_memory+0x2b6>
    80000294:	021ef8bb          	remuw	a7,t4,ra
    80000298:	de4ba323          	sw	tp,-538(s7)
    8000029c:	55fd6603          	lwu	a2,1375(s10)
    800002a0:	03ffd2bb          	divuw	t0,t6,t6
    800002a4:	00001d97          	auipc	s11,0x1
    800002a8:	e0cd8d93          	addi	s11,s11,-500 # 800010b0 <fromhost+0x70>
    800002ac:	74748693          	addi	a3,s1,1863
    800002b0:	42e00913          	li	s2,1070
    800002b4:	40738a33          	sub	s4,t2,t2
    800002b8:	03f59593          	slli	a1,a1,0x3f
    800002bc:	fff00813          	li	a6,-1
    800002c0:	00b84833          	xor	a6,a6,a1
    800002c4:	008acab3          	xor	s5,s5,s0
    800002c8:	012b0133          	add	sp,s6,s2
    800002cc:	6f500c13          	li	s8,1781
    800002d0:	03deb533          	mulhu	a0,t4,t4
    800002d4:	4048de9b          	sraiw	t4,a7,0x4
    800002d8:	1a4c0f93          	addi	t6,s8,420
    800002dc:	01587f33          	and	t5,a6,s5
    800002e0:	010179b3          	and	s3,sp,a6
    800002e4:	00bb6333          	or	t1,s6,a1
    800002e8:	019d43b3          	xor	t2,s10,s9
    800002ec:	6cd4f463          	bgeu	s1,a3,800009b4 <crash_forward>
    800002f0:	5f300893          	li	a7,1523
    800002f4:	e069cae3          	blt	s3,t1,80000108 <crash_backward>
    800002f8:	000001bb          	addw	gp,zero,zero
    800002fc:	40660cb3          	sub	s9,a2,t1
    80000300:	c7300a13          	li	s4,-909
    80000304:	0082ee33          	or	t3,t0,s0
    80000308:	6bee5663          	bge	t3,t5,800009b4 <crash_forward>
    8000030c:	6bfc7463          	bgeu	s8,t6,800009b4 <crash_forward>
    80000310:	0348e63b          	remw	a2,a7,s4
    80000314:	5eddc783          	lbu	a5,1517(s11)
    80000318:	f2c00213          	li	tp,-212
    8000031c:	00a51b9b          	slliw	s7,a0,0xa
    80000320:	03200093          	li	ra,50
    80000324:	00122d33          	slt	s10,tp,ra
    80000328:	035ad2b3          	divu	t0,s5,s5
    8000032c:	16700b93          	li	s7,359
    80000330:	02c328b3          	mulhsu	a7,t1,a2
    80000334:	90518593          	addi	a1,gp,-1787 # 80001815 <_end+0x105>
    80000338:	00001197          	auipc	gp,0x1
    8000033c:	43c18193          	addi	gp,gp,1084 # 80001774 <_end+0x64>
    80000340:	00001a97          	auipc	s5,0x1
    80000344:	3cda8a93          	addi	s5,s5,973 # 8000170d <loop_count+0xd>
    80000348:	754b8c93          	addi	s9,s7,1876
    8000034c:	41ded43b          	sraw	s0,t4,t4
    80000350:	01ef22b3          	slt	t0,t5,t5
    80000354:	02938c33          	mul	s8,t2,s1
    80000358:	01c50133          	add	sp,a0,t3
    8000035c:	0000153b          	sllw	a0,zero,zero
    80000360:	0f000613          	li	a2,240
    80000364:	68200993          	li	s3,1666
    80000368:	41f00e13          	li	t3,1055
    8000036c:	04200313          	li	t1,66
    80000370:	00100e93          	li	t4,1
    80000374:	00001097          	auipc	ra,0x1
    80000378:	0c208093          	addi	ra,ra,194 # 80001436 <test_memory+0x136>
    8000037c:	c5719023          	sh	s7,-960(gp) # 80001b50 <_end+0x440>
    80000380:	033618b3          	mulh	a7,a2,s3
    80000384:	00001b17          	auipc	s6,0x1
    80000388:	fcdb0b13          	addi	s6,s6,-51 # 80001351 <test_memory+0x51>
    8000038c:	03fe9e93          	slli	t4,t4,0x3f
    80000390:	00058413          	mv	s0,a1
    80000394:	fff00793          	li	a5,-1
    80000398:	00040293          	mv	t0,s0
    8000039c:	006e6933          	or	s2,t3,t1
    800003a0:	ef818d93          	addi	s11,gp,-264 # 80001e08 <_end+0x6f8>
    800003a4:	d65412e3          	bne	s0,t0,80000108 <crash_backward>
    800003a8:	00001497          	auipc	s1,0x1
    800003ac:	35a48493          	addi	s1,s1,858 # 80001702 <loop_count+0x2>
    800003b0:	e805cd03          	lbu	s10,-384(a1)
    800003b4:	01d7c7b3          	xor	a5,a5,t4
    800003b8:	095b5803          	lhu	a6,149(s6)
    800003bc:	d8449203          	lh	tp,-636(s1)
    800003c0:	ce718693          	addi	a3,gp,-793 # 80001bf7 <_end+0x4e7>
    800003c4:	00fcffb3          	and	t6,s9,a5
    800003c8:	a30694a3          	sh	a6,-1495(a3)
    800003cc:	01df63b3          	or	t2,t5,t4
    800003d0:	bcf18713          	addi	a4,gp,-1073 # 80001adf <_end+0x3cf>
    800003d4:	ff1a94a3          	sh	a7,-23(s5)
    800003d8:	81bd8f03          	lb	t5,-2021(s11)
    800003dc:	ece0ca03          	lbu	s4,-306(ra)
    800003e0:	824700a3          	sb	tp,-2015(a4)
    800003e4:	0114b533          	sltu	a0,s1,a7
    800003e8:	e2518713          	addi	a4,gp,-475 # 80001d35 <_end+0x625>
    800003ec:	00100393          	li	t2,1
    800003f0:	03f39393          	slli	t2,t2,0x3f
    800003f4:	5c004063          	bltz	zero,800009b4 <crash_forward>
    800003f8:	01ef06b3          	add	a3,t5,t5
    800003fc:	03292bb3          	mulhsu	s7,s2,s2
    80000400:	00001c17          	auipc	s8,0x1
    80000404:	b23c0c13          	addi	s8,s8,-1245 # 80000f23 <test_end+0x55b>
    80000408:	00001097          	auipc	ra,0x1
    8000040c:	d8708093          	addi	ra,ra,-633 # 8000118f <reg_x17_init+0x7>
    80000410:	1f508483          	lb	s1,501(ra)
    80000414:	00001c97          	auipc	s9,0x1
    80000418:	181c8c93          	addi	s9,s9,385 # 80001595 <test_memory+0x295>
    8000041c:	01ad5e33          	srl	t3,s10,s10
    80000420:	8de73da3          	sd	t5,-1829(a4)
    80000424:	00001217          	auipc	tp,0x1
    80000428:	03020213          	addi	tp,tp,48 # 80001454 <test_memory+0x154>
    8000042c:	d6d18d13          	addi	s10,gp,-659 # 80001c7d <_end+0x56d>
    80000430:	0eacada3          	sw	a0,251(s9)
    80000434:	ec400913          	li	s2,-316
    80000438:	b0518813          	addi	a6,gp,-1275 # 80001a15 <_end+0x305>
    8000043c:	34300c93          	li	s9,835
    80000440:	09600f93          	li	t6,150
    80000444:	503f8193          	addi	gp,t6,1283
    80000448:	a5bd5b03          	lhu	s6,-1445(s10)
    8000044c:	20e25e83          	lhu	t4,526(tp) # 20e <_start-0x7ffffdf2>
    80000450:	fff00d93          	li	s11,-1
    80000454:	64000513          	li	a0,1600
    80000458:	412907bb          	subw	a5,s2,s2
    8000045c:	40a55a3b          	sraw	s4,a0,a0
    80000460:	015d84bb          	addw	s1,s11,s5
    80000464:	00000e17          	auipc	t3,0x0
    80000468:	791e0e13          	addi	t3,t3,1937 # 80000bf5 <test_end+0x22d>
    8000046c:	5b4c22a3          	sw	s4,1445(s8)
    80000470:	c9f1cce3          	blt	gp,t6,80000108 <crash_backward>
    80000474:	00001097          	auipc	ra,0x1
    80000478:	d2208093          	addi	ra,ra,-734 # 80001196 <reg_x18_init+0x6>
    8000047c:	8f382603          	lw	a2,-1805(a6)
    80000480:	039cb433          	mulhu	s0,s9,s9
    80000484:	2020ab23          	sw	sp,534(ra)
    80000488:	7b9e1b83          	lh	s7,1977(t3)
    8000048c:	cb118193          	addi	gp,gp,-847 # 80001bc1 <_end+0x4b1>
    80000490:	025295b3          	mulh	a1,t0,t0
    80000494:	02037c33          	remu	s8,t1,zero
    80000498:	01948233          	add	tp,s1,s9
    8000049c:	1a500413          	li	s0,421
    800004a0:	2f18e093          	ori	ra,a7,753
    800004a4:	73d00693          	li	a3,1853
    800004a8:	d1700313          	li	t1,-745
    800004ac:	15700513          	li	a0,343
    800004b0:	40a5083b          	subw	a6,a0,a0
    800004b4:	dea8b493          	sltiu	s1,a7,-534
    800004b8:	4e001e63          	bnez	zero,800009b4 <crash_forward>
    800004bc:	012950bb          	srlw	ra,s2,s2
    800004c0:	dfd00d13          	li	s10,-515
    800004c4:	02635cbb          	divuw	s9,t1,t1
    800004c8:	87a00893          	li	a7,-1926
    800004cc:	007dcdb3          	xor	s11,s11,t2
    800004d0:	00001c17          	auipc	s8,0x1
    800004d4:	c3fc0c13          	addi	s8,s8,-961 # 8000110f <reg_x1_init+0x7>
    800004d8:	02425f3b          	divuw	t5,tp,tp
    800004dc:	87318e03          	lb	t3,-1933(gp) # 80001783 <_end+0x73>
    800004e0:	416b80bb          	subw	ra,s7,s6
    800004e4:	00001f17          	auipc	t5,0x1
    800004e8:	e43f0f13          	addi	t5,t5,-445 # 80001327 <test_memory+0x27>
    800004ec:	00847bb3          	and	s7,s0,s0
    800004f0:	2a1c1783          	lh	a5,673(s8)
    800004f4:	01b7f2b3          	and	t0,a5,s11
    800004f8:	972d0f93          	addi	t6,s10,-1678
    800004fc:	00001817          	auipc	a6,0x1
    80000500:	f7380813          	addi	a6,a6,-141 # 8000146f <test_memory+0x16f>
    80000504:	13f00a93          	li	s5,319
    80000508:	4baff663          	bgeu	t6,s10,800009b4 <crash_forward>
    8000050c:	03169733          	mulh	a4,a3,a7
    80000510:	415359bb          	sraw	s3,t1,s5
    80000514:	a5918b13          	addi	s6,gp,-1447 # 80001969 <_end+0x259>
    80000518:	bf118a13          	addi	s4,gp,-1039 # 80001b01 <_end+0x3f1>
    8000051c:	a9200213          	li	tp,-1390
    80000520:	cdab0903          	lb	s2,-806(s6)
    80000524:	00001c97          	auipc	s9,0x1
    80000528:	946c8c93          	addi	s9,s9,-1722 # 80000e6a <test_end+0x4a2>
    8000052c:	7c2ca323          	sw	sp,1990(s9)
    80000530:	eff18613          	addi	a2,gp,-257 # 80001e0f <_end+0x6ff>
    80000534:	007fe133          	or	sp,t6,t2
    80000538:	310f0503          	lb	a0,784(t5)
    8000053c:	bc22c6e3          	blt	t0,sp,80000108 <crash_backward>
    80000540:	b49a21a3          	sw	s1,-1213(s4)
    80000544:	87d65e83          	lhu	t4,-1923(a2)
    80000548:	024275bb          	remuw	a1,tp,tp
    8000054c:	21381ca3          	sh	s3,537(a6)
    80000550:	036ff7b3          	remu	a5,t6,s6
    80000554:	d7400893          	li	a7,-652
    80000558:	d4688413          	addi	s0,a7,-698
    8000055c:	bc70ee93          	ori	t4,ra,-1081
    80000560:	00001397          	auipc	t2,0x1
    80000564:	11338393          	addi	t2,t2,275 # 80001673 <test_memory+0x373>
    80000568:	0284053b          	mulw	a0,s0,s0
    8000056c:	41ef5833          	sra	a6,t5,t5
    80000570:	014a3233          	sltu	tp,s4,s4
    80000574:	00000b93          	li	s7,0
    80000578:	00000d93          	li	s11,0
    8000057c:	b4218313          	addi	t1,gp,-1214 # 80001a52 <_end+0x342>
    80000580:	00001797          	auipc	a5,0x1
    80000584:	09778793          	addi	a5,a5,151 # 80001617 <test_memory+0x317>
    80000588:	21c00713          	li	a4,540
    8000058c:	00100093          	li	ra,1
    80000590:	72300113          	li	sp,1827
    80000594:	416655bb          	sraw	a1,a2,s6
    80000598:	a4a35483          	lhu	s1,-1462(t1)
    8000059c:	006346b3          	xor	a3,t1,t1
    800005a0:	06a38823          	sb	a0,112(t2)
    800005a4:	25d00813          	li	a6,605
    800005a8:	02e74ab3          	div	s5,a4,a4
    800005ac:	00001217          	auipc	tp,0x1
    800005b0:	e0020213          	addi	tp,tp,-512 # 800013ac <test_memory+0xac>
    800005b4:	03e08b3b          	mulw	s6,ra,t5
    800005b8:	2bf23223          	sd	t6,676(tp) # 2a4 <_start-0x7ffffd5c>
    800005bc:	03f09093          	slli	ra,ra,0x3f
    800005c0:	036e92b3          	mulh	t0,t4,s6
    800005c4:	03d7ee83          	lwu	t4,61(a5)
    800005c8:	b5bbe0e3          	bltu	s7,s11,80000108 <crash_backward>
    800005cc:	48f00f13          	li	t5,1167
    800005d0:	03e15cb3          	divu	s9,sp,t5
    800005d4:	01419d1b          	slliw	s10,gp,0x14
    800005d8:	79500e13          	li	t3,1941
    800005dc:	e2b00c13          	li	s8,-469
    800005e0:	45280513          	addi	a0,a6,1106
    800005e4:	fff00993          	li	s3,-1
    800005e8:	3d056663          	bltu	a0,a6,800009b4 <crash_forward>
    800005ec:	0019c9b3          	xor	s3,s3,ra
    800005f0:	4b700f93          	li	t6,1207
    800005f4:	01ffca33          	xor	s4,t6,t6
    800005f8:	013a7633          	and	a2,s4,s3
    800005fc:	0012e1b3          	or	gp,t0,ra
    80000600:	43e3d593          	srai	a1,t2,0x3e
    80000604:	40840eb3          	sub	t4,s0,s0
    80000608:	00001817          	auipc	a6,0x1
    8000060c:	ea880813          	addi	a6,a6,-344 # 800014b0 <test_memory+0x1b0>
    80000610:	e8180f83          	lb	t6,-383(a6)
    80000614:	025d8b33          	mul	s6,s11,t0
    80000618:	d1e18713          	addi	a4,gp,-738 # 80001c2e <_end+0x51e>
    8000061c:	ca018793          	addi	a5,gp,-864 # 80001bb0 <_end+0x4a0>
    80000620:	418e093b          	subw	s2,t3,s8
    80000624:	038c4abb          	divw	s5,s8,s8
    80000628:	00001217          	auipc	tp,0x1
    8000062c:	cb720213          	addi	tp,tp,-841 # 800012df <reg_x27_output+0x7>
    80000630:	cb618d13          	addi	s10,gp,-842 # 80001bc6 <_end+0x4b6>
    80000634:	ebb18f13          	addi	t5,gp,-325 # 80001dcb <_end+0x6bb>
    80000638:	00001d97          	auipc	s11,0x1
    8000063c:	975d8d93          	addi	s11,s11,-1675 # 80000fad <test_end+0x5e5>
    80000640:	00100913          	li	s2,1
    80000644:	19700413          	li	s0,407
    80000648:	5c500493          	li	s1,1477
    8000064c:	86df3aa3          	sd	a3,-1931(t5)
    80000650:	6bb00313          	li	t1,1723
    80000654:	0f230693          	addi	a3,t1,242
    80000658:	0294ccbb          	divw	s9,s1,s1
    8000065c:	00000897          	auipc	a7,0x0
    80000660:	67688893          	addi	a7,a7,1654 # 80000cd2 <test_end+0x30a>
    80000664:	aa66e2e3          	bltu	a3,t1,80000108 <crash_backward>
    80000668:	6addbda3          	sd	a3,1723(s11)
    8000066c:	01f3da9b          	srliw	s5,t2,0x1f
    80000670:	64b00c93          	li	s9,1611
    80000674:	00001397          	auipc	t2,0x1
    80000678:	04838393          	addi	t2,t2,72 # 800016bc <test_memory+0x3bc>
    8000067c:	95c7c283          	lbu	t0,-1700(a5)
    80000680:	8b273503          	ld	a0,-1870(a4)
    80000684:	77200813          	li	a6,1906
    80000688:	41045b3b          	sraw	s6,s0,a6
    8000068c:	03f91913          	slli	s2,s2,0x3f
    80000690:	b7118a93          	addi	s5,gp,-1167 # 80001a81 <_end+0x371>
    80000694:	00001f97          	auipc	t6,0x1
    80000698:	e8cf8f93          	addi	t6,t6,-372 # 80001520 <test_memory+0x220>
    8000069c:	8f7ae683          	lwu	a3,-1801(s5)
    800006a0:	debf8023          	sb	a1,-544(t6)
    800006a4:	02a52a33          	mulhsu	s4,a0,a0
    800006a8:	404c531b          	sraiw	t1,s8,0x4
    800006ac:	02e844bb          	divw	s1,a6,a4
    800006b0:	fff00c13          	li	s8,-1
    800006b4:	30c1e063          	bltu	gp,a2,800009b4 <crash_forward>
    800006b8:	012c4c33          	xor	s8,s8,s2
    800006bc:	018575b3          	and	a1,a0,s8
    800006c0:	e4939823          	sh	s1,-432(t2)
    800006c4:	1f123b83          	ld	s7,497(tp) # 1f1 <_start-0x7ffffe0f>
    800006c8:	02fb413b          	divw	sp,s6,a5
    800006cc:	61200a13          	li	s4,1554
    800006d0:	909d2f23          	sw	s1,-1762(s10)
    800006d4:	00d1de3b          	srlw	t3,gp,a3
    800006d8:	699a899b          	addiw	s3,s5,1689
    800006dc:	007384bb          	addw	s1,t2,t2
    800006e0:	00000997          	auipc	s3,0x0
    800006e4:	44098993          	addi	s3,s3,1088 # 80000b20 <test_end+0x158>
    800006e8:	36200e13          	li	t3,866
    800006ec:	00100193          	li	gp,1
    800006f0:	505a0393          	addi	t2,s4,1285
    800006f4:	00100793          	li	a5,1
    800006f8:	46b00693          	li	a3,1131
    800006fc:	0021063b          	addw	a2,sp,sp
    80000700:	03ce6d3b          	remw	s10,t3,t3
    80000704:	012deeb3          	or	t4,s11,s2
    80000708:	fde00213          	li	tp,-34
    8000070c:	02b5e133          	rem	sp,a1,a1
    80000710:	7fd9c703          	lbu	a4,2045(s3)
    80000714:	9fd5cae3          	blt	a1,t4,80000108 <crash_backward>
    80000718:	e6e20413          	addi	s0,tp,-402 # fffffffffffffe6e <__global_pointer$+0xffffffff7fffdf5e>
    8000071c:	91b00d93          	li	s11,-1765
    80000720:	03bcff3b          	remuw	t5,s9,s11
    80000724:	00d6fb33          	and	s6,a3,a3
    80000728:	03f79793          	slli	a5,a5,0x3f
    8000072c:	fff00813          	li	a6,-1
    80000730:	00f84833          	xor	a6,a6,a5
    80000734:	03708cbb          	mulw	s9,ra,s7
    80000738:	010df2b3          	and	t0,s11,a6
    8000073c:	ec318e13          	addi	t3,gp,-317 # 80001dd3 <_end+0x6c3>
    80000740:	ace18913          	addi	s2,gp,-1330 # 800019de <_end+0x2ce>
    80000744:	02f16bbb          	remw	s7,sp,a5
    80000748:	72588923          	sb	t0,1842(a7)
    8000074c:	00602d33          	sgtz	s10,t1
    80000750:	9ac66ce3          	bltu	a2,a2,80000108 <crash_backward>
    80000754:	b6a90103          	lb	sp,-1174(s2)
    80000758:	01aa963b          	sllw	a2,s5,s10
    8000075c:	00001597          	auipc	a1,0x1
    80000760:	ad658593          	addi	a1,a1,-1322 # 80001232 <reg_x6_output+0x2>
    80000764:	00f2eab3          	or	s5,t0,a5
    80000768:	90ce3ea3          	sd	a2,-1763(t3)
    8000076c:	00001717          	auipc	a4,0x1
    80000770:	00470713          	addi	a4,a4,4 # 80001770 <_end+0x60>
    80000774:	0a900e93          	li	t4,169
    80000778:	00001b17          	auipc	s6,0x1
    8000077c:	fd0b0b13          	addi	s6,s6,-48 # 80001748 <_end+0x38>
    80000780:	e5771423          	sh	s7,-440(a4)
    80000784:	41d5cc03          	lbu	s8,1053(a1)
    80000788:	00001497          	auipc	s1,0x1
    8000078c:	fc948493          	addi	s1,s1,-55 # 80001751 <_end+0x41>
    80000790:	85300693          	li	a3,-1965
    80000794:	e08b6f03          	lwu	t5,-504(s6)
    80000798:	e074b503          	ld	a0,-505(s1)
    8000079c:	968266e3          	bltu	tp,s0,80000108 <crash_backward>
    800007a0:	00decdb3          	xor	s11,t4,a3
    800007a4:	00100613          	li	a2,1
    800007a8:	03f61613          	slli	a2,a2,0x3f
    800007ac:	21189463          	bne	a7,a7,800009b4 <crash_forward>
    800007b0:	03f19193          	slli	gp,gp,0x3f
    800007b4:	207a5063          	bge	s4,t2,800009b4 <crash_forward>
    800007b8:	b9d00113          	li	sp,-1123
    800007bc:	940016e3          	bnez	zero,80000108 <crash_backward>
    800007c0:	4dd00393          	li	t2,1245
    800007c4:	00001297          	auipc	t0,0x1
    800007c8:	f7628293          	addi	t0,t0,-138 # 8000173a <_end+0x2a>
    800007cc:	00001997          	auipc	s3,0x1
    800007d0:	df698993          	addi	s3,s3,-522 # 800015c2 <test_memory+0x2c2>
    800007d4:	fff00f93          	li	t6,-1
    800007d8:	7ae00a13          	li	s4,1966
    800007dc:	003fcfb3          	xor	t6,t6,gp
    800007e0:	5dc38513          	addi	a0,t2,1500
    800007e4:	015adebb          	srlw	t4,s5,s5
    800007e8:	01fc70b3          	and	ra,s8,t6
    800007ec:	bc018493          	addi	s1,gp,-1088 # 80001ad0 <_end+0x3c0>
    800007f0:	01e9a123          	sw	t5,2(s3)
    800007f4:	92e48d83          	lb	s11,-1746(s1)
    800007f8:	03e00893          	li	a7,62
    800007fc:	d4200813          	li	a6,-702
    80000800:	00100f13          	li	t5,1
    80000804:	00100b93          	li	s7,1
    80000808:	034a76bb          	remuw	a3,s4,s4
    8000080c:	0030e333          	or	t1,ra,gp
    80000810:	03fb9b93          	slli	s7,s7,0x3f
    80000814:	03ff1f13          	slli	t5,t5,0x3f
    80000818:	18608e63          	beq	ra,t1,800009b4 <crash_forward>
    8000081c:	03085233          	divu	tp,a6,a6
    80000820:	036b67bb          	remw	a5,s6,s6
    80000824:	fff00e13          	li	t3,-1
    80000828:	00ce4e33          	xor	t3,t3,a2
    8000082c:	01c6fcb3          	and	s9,a3,t3
    80000830:	00ccec33          	or	s8,s9,a2
    80000834:	94e00a13          	li	s4,-1714
    80000838:	4111573b          	sraw	a4,sp,a7
    8000083c:	54700213          	li	tp,1351
    80000840:	fff00593          	li	a1,-1
    80000844:	00001717          	auipc	a4,0x1
    80000848:	99970713          	addi	a4,a4,-1639 # 800011dd <reg_x27_init+0x5>
    8000084c:	e8000493          	li	s1,-384
    80000850:	cc829b03          	lh	s6,-824(t0)
    80000854:	00000197          	auipc	gp,0x0
    80000858:	59918193          	addi	gp,gp,1433 # 80000ded <test_end+0x425>
    8000085c:	7a900993          	li	s3,1961
    80000860:	01f913b3          	sll	t2,s2,t6
    80000864:	43970083          	lb	ra,1081(a4)
    80000868:	abb04f93          	xori	t6,zero,-1349
    8000086c:	009a66b3          	or	a3,s4,s1
    80000870:	fff00e93          	li	t4,-1
    80000874:	21e00293          	li	t0,542
    80000878:	5fe98d93          	addi	s11,s3,1534
    8000087c:	032908bb          	mulw	a7,s2,s2
    80000880:	01eeceb3          	xor	t4,t4,t5
    80000884:	01d07ab3          	and	s5,zero,t4
    80000888:	02423133          	mulhu	sp,tp,tp
    8000088c:	0175c5b3          	xor	a1,a1,s7
    80000890:	00000097          	auipc	ra,0x0
    80000894:	34608093          	addi	ra,ra,838 # 80000bd6 <test_end+0x20e>
    80000898:	9bc00513          	li	a0,-1604
    8000089c:	41ffd6bb          	sraw	a3,t6,t6
    800008a0:	03000793          	li	a5,48
    800008a4:	0052eb33          	or	s6,t0,t0
    800008a8:	1ac78813          	addi	a6,a5,428
    800008ac:	03511fb3          	mulh	t6,sp,s5
    800008b0:	00b57d33          	and	s10,a0,a1
    800008b4:	1107f063          	bgeu	a5,a6,800009b4 <crash_forward>
    800008b8:	01eae433          	or	s0,s5,t5
    800008bc:	017d6933          	or	s2,s10,s7
    800008c0:	6921c303          	lbu	t1,1682(gp) # 800025a2 <__global_pointer$+0x692>
    800008c4:	bf750393          	addi	t2,a0,-1033
    800008c8:	7f40d483          	lhu	s1,2036(ra)
    800008cc:	0f2d7463          	bgeu	s10,s2,800009b4 <crash_forward>
    800008d0:	00000397          	auipc	t2,0x0
    800008d4:	51c38393          	addi	t2,t2,1308 # 80000dec <test_end+0x424>
    800008d8:	61732b93          	slti	s7,t1,1559
    800008dc:	e0b18913          	addi	s2,gp,-501 # 80001d1b <_end+0x60b>
    800008e0:	00000717          	auipc	a4,0x0
    800008e4:	7e170713          	addi	a4,a4,2017 # 800010c1 <fromhost+0x81>
    800008e8:	00001c97          	auipc	s9,0x1
    800008ec:	af0c8c93          	addi	s9,s9,-1296 # 800013d8 <test_memory+0xd8>
    800008f0:	80591883          	lh	a7,-2043(s2)
    800008f4:	01059a33          	sll	s4,a1,a6
    800008f8:	2a800493          	li	s1,680
    800008fc:	71039a23          	sh	a6,1812(t2)
    80000900:	48848693          	addi	a3,s1,1160
    80000904:	00ce1d93          	slli	s11,t3,0xc
    80000908:	80d480e3          	beq	s1,a3,80000108 <crash_backward>
    8000090c:	153c87a3          	sb	s3,335(s9)
    80000910:	2ed704a3          	sb	a3,745(a4)
    80000914:	00434fb3          	xor	t6,t1,tp
    80000918:	00000197          	auipc	gp,0x0
    8000091c:	56d18193          	addi	gp,gp,1389 # 80000e85 <test_end+0x4bd>
    80000920:	00001297          	auipc	t0,0x1
    80000924:	eea28293          	addi	t0,t0,-278 # 8000180a <_end+0xfa>
    80000928:	70b1ab03          	lw	s6,1803(gp) # 8000261b <__global_pointer$+0x70b>
    8000092c:	d88283a3          	sb	s0,-633(t0)
    80000930:	0040006f          	j	80000934 <reg_dump>

0000000080000934 <reg_dump>:
    80000934:	00001097          	auipc	ra,0x1
    80000938:	dcc08093          	addi	ra,ra,-564 # 80001700 <loop_count>
    8000093c:	0000a103          	lw	sp,0(ra)
    80000940:	fff10193          	addi	gp,sp,-1
    80000944:	0030a023          	sw	gp,0(ra)
    80000948:	860110e3          	bnez	sp,800001a8 <pseg_0>
    8000094c:	00001097          	auipc	ra,0x1
    80000950:	8b408093          	addi	ra,ra,-1868 # 80001200 <begin_signature>
    80000954:	0000b023          	sd	zero,0(ra)
    80000958:	0020b823          	sd	sp,16(ra)
    8000095c:	0260b823          	sd	t1,48(ra)
    80000960:	0480b023          	sd	s0,64(ra)
    80000964:	0490b423          	sd	s1,72(ra)
    80000968:	04a0b823          	sd	a0,80(ra)
    8000096c:	04b0bc23          	sd	a1,88(ra)
    80000970:	06c0b023          	sd	a2,96(ra)
    80000974:	06d0b423          	sd	a3,104(ra)
    80000978:	06f0bc23          	sd	a5,120(ra)
    8000097c:	0900b023          	sd	a6,128(ra)
    80000980:	0910b423          	sd	a7,136(ra)
    80000984:	0930bc23          	sd	s3,152(ra)
    80000988:	0b40b023          	sd	s4,160(ra)
    8000098c:	0b50b423          	sd	s5,168(ra)
    80000990:	0b60b823          	sd	s6,176(ra)
    80000994:	0b70bc23          	sd	s7,184(ra)
    80000998:	0d80b023          	sd	s8,192(ra)
    8000099c:	0db0bc23          	sd	s11,216(ra)
    800009a0:	0fc0b023          	sd	t3,224(ra)
    800009a4:	0fd0b423          	sd	t4,232(ra)
    800009a8:	0fe0b823          	sd	t5,240(ra)
    800009ac:	0ff0bc23          	sd	t6,248(ra)
    800009b0:	0180006f          	j	800009c8 <test_end>

00000000800009b4 <crash_forward>:
    800009b4:	0ff0000f          	fence
    800009b8:	00018063          	beqz	gp,800009b8 <crash_forward+0x4>
    800009bc:	00119193          	slli	gp,gp,0x1
    800009c0:	0011e193          	ori	gp,gp,1
    800009c4:	00000073          	ecall

00000000800009c8 <test_end>:
    800009c8:	0ff0000f          	fence
    800009cc:	00100193          	li	gp,1
    800009d0:	00000073          	ecall
    800009d4:	c0001073          	unimp
	...

Disassembly of section .tohost:

0000000080001000 <tohost>:
	...

0000000080001040 <fromhost>:
	...
