
test.elf:     file format elf64-littleriscv


Disassembly of section .text.init:

0000000080000000 <_start>:
    80000000:	0580006f          	j	80000058 <reset_vector>

0000000080000004 <trap_vector>:
    80000004:	34202f73          	csrr	t5,mcause
    80000008:	00800f93          	li	t6,8
    8000000c:	05ff0063          	beq	t5,t6,8000004c <write_tohost>
    80000010:	00900f93          	li	t6,9
    80000014:	03ff0c63          	beq	t5,t6,8000004c <write_tohost>
    80000018:	00b00f93          	li	t6,11
    8000001c:	03ff0863          	beq	t5,t6,8000004c <write_tohost>
    80000020:	00000f13          	li	t5,0
    80000024:	000f0463          	beqz	t5,8000002c <trap_vector+0x28>
    80000028:	000f0067          	jr	t5
    8000002c:	34202f73          	csrr	t5,mcause
    80000030:	000f5463          	bgez	t5,80000038 <handle_exception>
    80000034:	0140006f          	j	80000048 <other_exception>

0000000080000038 <handle_exception>:
    80000038:	34102e73          	csrr	t3,mepc
    8000003c:	004e0e13          	addi	t3,t3,4
    80000040:	341e1073          	csrw	mepc,t3
    80000044:	30200073          	mret

0000000080000048 <other_exception>:
    80000048:	5391e193          	ori	gp,gp,1337

000000008000004c <write_tohost>:
    8000004c:	00001f17          	auipc	t5,0x1
    80000050:	fa3f2a23          	sw	gp,-76(t5) # 80001000 <tohost>
    80000054:	ff9ff06f          	j	8000004c <write_tohost>

0000000080000058 <reset_vector>:
    80000058:	f1402573          	csrr	a0,mhartid
    8000005c:	00051063          	bnez	a0,8000005c <reset_vector+0x4>
    80000060:	00000297          	auipc	t0,0x0
    80000064:	01028293          	addi	t0,t0,16 # 80000070 <reset_vector+0x18>
    80000068:	30529073          	csrw	mtvec,t0
    8000006c:	18005073          	csrwi	satp,0
    80000070:	00000297          	auipc	t0,0x0
    80000074:	01c28293          	addi	t0,t0,28 # 8000008c <reset_vector+0x34>
    80000078:	30529073          	csrw	mtvec,t0
    8000007c:	fff00293          	li	t0,-1
    80000080:	3b029073          	csrw	pmpaddr0,t0
    80000084:	01f00293          	li	t0,31
    80000088:	3a029073          	csrw	pmpcfg0,t0
    8000008c:	00000297          	auipc	t0,0x0
    80000090:	01828293          	addi	t0,t0,24 # 800000a4 <reset_vector+0x4c>
    80000094:	30529073          	csrw	mtvec,t0
    80000098:	30205073          	csrwi	medeleg,0
    8000009c:	30305073          	csrwi	mideleg,0
    800000a0:	30405073          	csrwi	mie,0
    800000a4:	00000193          	li	gp,0
    800000a8:	00000297          	auipc	t0,0x0
    800000ac:	f5c28293          	addi	t0,t0,-164 # 80000004 <trap_vector>
    800000b0:	30529073          	csrw	mtvec,t0
    800000b4:	00100513          	li	a0,1
    800000b8:	01f51513          	slli	a0,a0,0x1f
    800000bc:	00055863          	bgez	a0,800000cc <reset_vector+0x74>
    800000c0:	0ff0000f          	fence
    800000c4:	00100193          	li	gp,1
    800000c8:	00000073          	ecall
    800000cc:	00000293          	li	t0,0
    800000d0:	00028e63          	beqz	t0,800000ec <reset_vector+0x94>
    800000d4:	10529073          	csrw	stvec,t0
    800000d8:	0000b2b7          	lui	t0,0xb
    800000dc:	1092829b          	addiw	t0,t0,265
    800000e0:	30229073          	csrw	medeleg,t0
    800000e4:	30202373          	csrr	t1,medeleg
    800000e8:	f66290e3          	bne	t0,t1,80000048 <other_exception>
    800000ec:	30005073          	csrwi	mstatus,0
    800000f0:	00000297          	auipc	t0,0x0
    800000f4:	01428293          	addi	t0,t0,20 # 80000104 <reset_vector+0xac>
    800000f8:	34129073          	csrw	mepc,t0
    800000fc:	f1402573          	csrr	a0,mhartid
    80000100:	30200073          	mret
    80000104:	0180006f          	j	8000011c <test_start>

0000000080000108 <crash_backward>:
    80000108:	0ff0000f          	fence
    8000010c:	00018063          	beqz	gp,8000010c <crash_backward+0x4>
    80000110:	00119193          	slli	gp,gp,0x1
    80000114:	0011e193          	ori	gp,gp,1
    80000118:	00000073          	ecall

000000008000011c <test_start>:
    8000011c:	00001f97          	auipc	t6,0x1
    80000120:	fe4f8f93          	addi	t6,t6,-28 # 80001100 <hidden_data>
    80000124:	000fb003          	ld	zero,0(t6)
    80000128:	008fb083          	ld	ra,8(t6)
    8000012c:	010fb103          	ld	sp,16(t6)
    80000130:	018fb183          	ld	gp,24(t6)
    80000134:	020fb203          	ld	tp,32(t6)
    80000138:	028fb283          	ld	t0,40(t6)
    8000013c:	030fb303          	ld	t1,48(t6)
    80000140:	038fb383          	ld	t2,56(t6)
    80000144:	040fb403          	ld	s0,64(t6)
    80000148:	048fb483          	ld	s1,72(t6)
    8000014c:	050fb503          	ld	a0,80(t6)
    80000150:	058fb583          	ld	a1,88(t6)
    80000154:	060fb603          	ld	a2,96(t6)
    80000158:	068fb683          	ld	a3,104(t6)
    8000015c:	070fb703          	ld	a4,112(t6)
    80000160:	078fb783          	ld	a5,120(t6)
    80000164:	080fb803          	ld	a6,128(t6)
    80000168:	088fb883          	ld	a7,136(t6)
    8000016c:	090fb903          	ld	s2,144(t6)
    80000170:	098fb983          	ld	s3,152(t6)
    80000174:	0a0fba03          	ld	s4,160(t6)
    80000178:	0a8fba83          	ld	s5,168(t6)
    8000017c:	0b0fbb03          	ld	s6,176(t6)
    80000180:	0b8fbb83          	ld	s7,184(t6)
    80000184:	0c0fbc03          	ld	s8,192(t6)
    80000188:	0c8fbc83          	ld	s9,200(t6)
    8000018c:	0d0fbd03          	ld	s10,208(t6)
    80000190:	0d8fbd83          	ld	s11,216(t6)
    80000194:	0e0fbe03          	ld	t3,224(t6)
    80000198:	0e8fbe83          	ld	t4,232(t6)
    8000019c:	0f0fbf03          	ld	t5,240(t6)
    800001a0:	0f8fbf83          	ld	t6,248(t6)
    800001a4:	0040006f          	j	800001a8 <pseg_0>

00000000800001a8 <pseg_0>:
    800001a8:	000016b3          	sll	a3,zero,zero
    800001ac:	90e00493          	li	s1,-1778
    800001b0:	03e55133          	divu	sp,a0,t5
    800001b4:	f3500093          	li	ra,-203
    800001b8:	00100b93          	li	s7,1
    800001bc:	70700d93          	li	s11,1799
    800001c0:	ebbd8393          	addi	t2,s11,-325
    800001c4:	29b00193          	li	gp,667
    800001c8:	00949333          	sll	t1,s1,s1
    800001cc:	e0118a13          	addi	s4,gp,-511 # 80001d11 <_end+0x601>
    800001d0:	31100c13          	li	s8,785
    800001d4:	4180d8b3          	sra	a7,ra,s8
    800001d8:	03fb9b93          	slli	s7,s7,0x3f
    800001dc:	70f00113          	li	sp,1807
    800001e0:	8b600493          	li	s1,-1866
    800001e4:	00001097          	auipc	ra,0x1
    800001e8:	a6d08093          	addi	ra,ra,-1427 # 80000c51 <test_end+0x2f1>
    800001ec:	00001397          	auipc	t2,0x1
    800001f0:	f3838393          	addi	t2,t2,-200 # 80001124 <reg_x4_init+0x4>
    800001f4:	403d82b3          	sub	t0,s11,gp
    800001f8:	019c8933          	add	s2,s9,s9
    800001fc:	01ce1ab3          	sll	s5,t3,t3
    80000200:	36583737          	lui	a4,0x36583
    80000204:	d0718993          	addi	s3,gp,-761 # 80001c17 <_end+0x507>
    80000208:	6d10a3a3          	sw	a7,1735(ra)
    8000020c:	ee001ee3          	bnez	zero,80000108 <crash_backward>
    80000210:	fff00613          	li	a2,-1
    80000214:	8df00513          	li	a0,-1825
    80000218:	4f03ee03          	lwu	t3,1264(t2)
    8000021c:	bce00d13          	li	s10,-1074
    80000220:	d9a00893          	li	a7,-614
    80000224:	30e00c13          	li	s8,782
    80000228:	ea888d93          	addi	s11,a7,-344
    8000022c:	00001417          	auipc	s0,0x1
    80000230:	1f240413          	addi	s0,s0,498 # 8000141e <test_memory+0x11e>
    80000234:	9a3a5203          	lhu	tp,-1629(s4)
    80000238:	01764633          	xor	a2,a2,s7
    8000023c:	02a505bb          	mulw	a1,a0,a0
    80000240:	c4f18393          	addi	t2,gp,-945 # 80001b5f <_end+0x44f>
    80000244:	00911833          	sll	a6,sp,s1
    80000248:	c3318513          	addi	a0,gp,-973 # 80001b43 <_end+0x433>
    8000024c:	6c000593          	li	a1,1728
    80000250:	02b5c83b          	divw	a6,a1,a1
    80000254:	80253ea3          	sd	sp,-2019(a0)
    80000258:	0129193b          	sllw	s2,s2,s2
    8000025c:	9119bf03          	ld	t5,-1775(s3)
    80000260:	00cafeb3          	and	t4,s5,a2
    80000264:	b463b4a3          	sd	t1,-1207(t2)
    80000268:	017ee7b3          	or	a5,t4,s7
    8000026c:	e9291ee3          	bne	s2,s2,80000108 <crash_backward>
    80000270:	94100893          	li	a7,-1727
    80000274:	10942523          	sw	s1,266(s0)
    80000278:	99318293          	addi	t0,gp,-1645 # 800018a3 <_end+0x193>
    8000027c:	00001817          	auipc	a6,0x1
    80000280:	58c80813          	addi	a6,a6,1420 # 80001808 <_end+0xf8>
    80000284:	19fe819b          	addiw	gp,t4,415
    80000288:	98e00b13          	li	s6,-1650
    8000028c:	00001697          	auipc	a3,0x1
    80000290:	56d68693          	addi	a3,a3,1389 # 800017f9 <_end+0xe9>
    80000294:	e7ffcae3          	blt	t6,t6,80000108 <crash_backward>
    80000298:	59d00913          	li	s2,1437
    8000029c:	415f5133          	sra	sp,t5,s5
    800002a0:	7fa00513          	li	a0,2042
    800002a4:	aef2b2a3          	sd	a5,-1307(t0)
    800002a8:	b9769c83          	lh	s9,-1129(a3)
    800002ac:	03188a33          	mul	s4,a7,a7
    800002b0:	04600093          	li	ra,70
    800002b4:	016d5fbb          	srlw	t6,s10,s6
    800002b8:	00a974b3          	and	s1,s2,a0
    800002bc:	2df00d93          	li	s11,735
    800002c0:	18800e13          	li	t3,392
    800002c4:	41cd823b          	subw	tp,s11,t3
    800002c8:	418c533b          	sraw	t1,s8,s8
    800002cc:	7ab00a93          	li	s5,1963
    800002d0:	bf5800a3          	sb	s5,-1055(a6)
    800002d4:	0150b733          	sltu	a4,ra,s5
    800002d8:	00001817          	auipc	a6,0x1
    800002dc:	c0f80813          	addi	a6,a6,-1009 # 80000ee7 <test_end+0x587>
    800002e0:	7c680883          	lb	a7,1990(a6)
    800002e4:	02447e33          	remu	t3,s0,tp
    800002e8:	00b59fbb          	sllw	t6,a1,a1
    800002ec:	b3d18993          	addi	s3,gp,-1219 # 80001a4d <_end+0x33d>
    800002f0:	cd300d93          	li	s11,-813
    800002f4:	019bee33          	or	t3,s7,s9
    800002f8:	00001b17          	auipc	s6,0x1
    800002fc:	fdeb0b13          	addi	s6,s6,-34 # 800012d6 <reg_x26_output+0x6>
    80000300:	00100713          	li	a4,1
    80000304:	039cd23b          	divuw	tp,s9,s9
    80000308:	0359653b          	remw	a0,s2,s5
    8000030c:	86c00093          	li	ra,-1940
    80000310:	b2c9cc03          	lbu	s8,-1236(s3)
    80000314:	00001297          	auipc	t0,0x1
    80000318:	bf928293          	addi	t0,t0,-1031 # 80000f0d <test_end+0x5ad>
    8000031c:	00100613          	li	a2,1
    80000320:	97018e93          	addi	t4,gp,-1680 # 80001880 <_end+0x170>
    80000324:	00a2f7b3          	and	a5,t0,a0
    80000328:	1b000693          	li	a3,432
    8000032c:	03f71713          	slli	a4,a4,0x3f
    80000330:	00001197          	auipc	gp,0x1
    80000334:	cfe18193          	addi	gp,gp,-770 # 8000102e <tohost+0x2e>
    80000338:	7592c103          	lbu	sp,1881(t0)
    8000033c:	00001417          	auipc	s0,0x1
    80000340:	33840413          	addi	s0,s0,824 # 80001674 <test_memory+0x374>
    80000344:	02213fb3          	mulhu	t6,sp,sp
    80000348:	fff00d13          	li	s10,-1
    8000034c:	00ed4d33          	xor	s10,s10,a4
    80000350:	01a6fa33          	and	s4,a3,s10
    80000354:	e8d00113          	li	sp,-371
    80000358:	00001897          	auipc	a7,0x1
    8000035c:	e7188893          	addi	a7,a7,-399 # 800011c9 <reg_x25_init+0x1>
    80000360:	2bb89503          	lh	a0,699(a7)
    80000364:	03f61613          	slli	a2,a2,0x3f
    80000368:	03de89b3          	mul	s3,t4,t4
    8000036c:	02041e33          	mulh	t3,s0,zero
    80000370:	002158b3          	srl	a7,sp,sp
    80000374:	286b6483          	lwu	s1,646(s6)
    80000378:	01921fb3          	sll	t6,tp,s9
    8000037c:	00e0e333          	or	t1,ra,a4
    80000380:	021debbb          	remw	s7,s11,ra
    80000384:	efa41223          	sh	s10,-284(s0)
    80000388:	fff00393          	li	t2,-1
    8000038c:	4c700293          	li	t0,1223
    80000390:	ac400c13          	li	s8,-1340
    80000394:	00001997          	auipc	s3,0x1
    80000398:	b0e98993          	addi	s3,s3,-1266 # 80000ea2 <test_end+0x542>
    8000039c:	02515833          	divu	a6,sp,t0
    800003a0:	0a000a93          	li	s5,160
    800003a4:	68e983a3          	sb	a4,1671(s3)
    800003a8:	00001517          	auipc	a0,0x1
    800003ac:	e9450513          	addi	a0,a0,-364 # 8000123c <reg_x7_output+0x4>
    800003b0:	16900793          	li	a5,361
    800003b4:	00c3c3b3          	xor	t2,t2,a2
    800003b8:	02fc1233          	mulh	tp,s8,a5
    800003bc:	e44e8c83          	lb	s9,-444(t4)
    800003c0:	59435663          	bge	t1,s4,8000094c <crash_forward>
    800003c4:	27c51b23          	sh	t3,630(a0)
    800003c8:	69918ca3          	sb	s9,1689(gp) # 800025a9 <__global_pointer$+0x699>
    800003cc:	01569f3b          	sllw	t5,a3,s5
    800003d0:	007e7933          	and	s2,t3,t2
    800003d4:	00c965b3          	or	a1,s2,a2
    800003d8:	d2b978e3          	bgeu	s2,a1,80000108 <crash_backward>
    800003dc:	ad7ff213          	andi	tp,t6,-1321
    800003e0:	4b600693          	li	a3,1206
    800003e4:	37600913          	li	s2,886
    800003e8:	00001497          	auipc	s1,0x1
    800003ec:	94348493          	addi	s1,s1,-1725 # 80000d2b <test_end+0x3cb>
    800003f0:	62d4de83          	lhu	t4,1581(s1)
    800003f4:	dbc00993          	li	s3,-580
    800003f8:	00211833          	sll	a6,sp,sp
    800003fc:	23900613          	li	a2,569
    80000400:	c9f2859b          	addiw	a1,t0,-865
    80000404:	00001897          	auipc	a7,0x1
    80000408:	22088893          	addi	a7,a7,544 # 80001624 <test_memory+0x324>
    8000040c:	030dd133          	divu	sp,s11,a6
    80000410:	00001c97          	auipc	s9,0x1
    80000414:	0fac8c93          	addi	s9,s9,250 # 8000150a <test_memory+0x20a>
    80000418:	00ccde1b          	srliw	t3,s9,0xc
    8000041c:	b7200713          	li	a4,-1166
    80000420:	d428a023          	sw	sp,-704(a7)
    80000424:	f6d00a93          	li	s5,-147
    80000428:	0fb00293          	li	t0,251
    8000042c:	7ef00313          	li	t1,2031
    80000430:	bbb00513          	li	a0,-1093
    80000434:	00001117          	auipc	sp,0x1
    80000438:	c2010113          	addi	sp,sp,-992 # 80001054 <fromhost+0x14>
    8000043c:	00001b97          	auipc	s7,0x1
    80000440:	2d0b8b93          	addi	s7,s7,720 # 8000170c <loop_count+0xc>
    80000444:	0356ea3b          	remw	s4,a3,s5
    80000448:	be718813          	addi	a6,gp,-1049 # 80001af7 <_end+0x3e7>
    8000044c:	02a55f3b          	divuw	t5,a0,a0
    80000450:	00001497          	auipc	s1,0x1
    80000454:	fa748493          	addi	s1,s1,-89 # 800013f7 <test_memory+0xf7>
    80000458:	fb8c9383          	lh	t2,-72(s9)
    8000045c:	02596d3b          	remw	s10,s2,t0
    80000460:	0069ec33          	or	s8,s3,t1
    80000464:	00001a17          	auipc	s4,0x1
    80000468:	0efa0a13          	addi	s4,s4,239 # 80001553 <test_memory+0x253>
    8000046c:	c84e3593          	sltiu	a1,t3,-892
    80000470:	24100093          	li	ra,577
    80000474:	68112623          	sw	ra,1676(sp)
    80000478:	ebeb9023          	sh	t5,-352(s7)
    8000047c:	02e66db3          	rem	s11,a2,a4
    80000480:	00109b3b          	sllw	s6,ra,ra
    80000484:	22d4a203          	lw	tp,557(s1)
    80000488:	5c6d2537          	lui	a0,0x5c6d2
    8000048c:	d2700f93          	li	t6,-729
    80000490:	e0ba4f03          	lbu	t5,-501(s4)
    80000494:	c7c18e13          	addi	t3,gp,-900 # 80001b8c <_end+0x47c>
    80000498:	03ffc1bb          	divw	gp,t6,t6
    8000049c:	00001417          	auipc	s0,0x1
    800004a0:	8b540413          	addi	s0,s0,-1867 # 80000d51 <test_end+0x3f1>
    800004a4:	65c40783          	lb	a5,1628(s0)
    800004a8:	83ae1c23          	sh	s10,-1992(t3)
    800004ac:	00001097          	auipc	ra,0x1
    800004b0:	22408093          	addi	ra,ra,548 # 800016d0 <test_memory+0x3d0>
    800004b4:	00001b97          	auipc	s7,0x1
    800004b8:	29bb8b93          	addi	s7,s7,667 # 8000174f <_end+0x3f>
    800004bc:	b8900513          	li	a0,-1143
    800004c0:	0c300993          	li	s3,195
    800004c4:	66300793          	li	a5,1635
    800004c8:	20d00313          	li	t1,525
    800004cc:	00001717          	auipc	a4,0x1
    800004d0:	eb370713          	addi	a4,a4,-333 # 8000137f <test_memory+0x7f>
    800004d4:	00100293          	li	t0,1
    800004d8:	4067dab3          	sra	s5,a5,t1
    800004dc:	00001397          	auipc	t2,0x1
    800004e0:	e9338393          	addi	t2,t2,-365 # 8000136f <test_memory+0x6f>
    800004e4:	898568b7          	lui	a7,0x89856
    800004e8:	9af00613          	li	a2,-1617
    800004ec:	52a00a13          	li	s4,1322
    800004f0:	033994b3          	mulh	s1,s3,s3
    800004f4:	0693b903          	ld	s2,105(t2)
    800004f8:	50300893          	li	a7,1283
    800004fc:	03ce03bb          	mulw	t2,t3,t3
    80000500:	02c52c33          	mulhsu	s8,a0,a2
    80000504:	03f29293          	slli	t0,t0,0x3f
    80000508:	00001d97          	auipc	s11,0x1
    8000050c:	ae8d8d93          	addi	s11,s11,-1304 # 80000ff0 <test_end+0x690>
    80000510:	0332013b          	mulw	sp,tp,s3
    80000514:	0339e5b3          	rem	a1,s3,s3
    80000518:	cce00f13          	li	t5,-818
    8000051c:	39ed9f23          	sh	t5,926(s11)
    80000520:	01ef64b3          	or	s1,t5,t5
    80000524:	0c800313          	li	t1,200
    80000528:	8ce80e83          	lb	t4,-1842(a6)
    8000052c:	406887bb          	subw	a5,a7,t1
    80000530:	fff00193          	li	gp,-1
    80000534:	0051c1b3          	xor	gp,gp,t0
    80000538:	c3cb8d03          	lb	s10,-964(s7)
    8000053c:	00367fb3          	and	t6,a2,gp
    80000540:	005b6cb3          	or	s9,s6,t0
    80000544:	02d730a3          	sd	a3,33(a4)
    80000548:	026b1413          	slli	s0,s6,0x26
    8000054c:	01800213          	li	tp,24
    80000550:	41085abb          	sraw	s5,a6,a6
    80000554:	cd20db03          	lhu	s6,-814(ra)
    80000558:	28400e13          	li	t3,644
    8000055c:	a5f18f13          	addi	t5,gp,-1441 # 8000196f <_end+0x25f>
    80000560:	404a06b3          	sub	a3,s4,tp
    80000564:	00001897          	auipc	a7,0x1
    80000568:	c2f88893          	addi	a7,a7,-977 # 80001193 <reg_x18_init+0x3>
    8000056c:	b9bf5a83          	lhu	s5,-1125(t5)
    80000570:	7dc00293          	li	t0,2012
    80000574:	f7800c93          	li	s9,-136
    80000578:	d4000513          	li	a0,-704
    8000057c:	00001597          	auipc	a1,0x1
    80000580:	e3858593          	addi	a1,a1,-456 # 800013b4 <test_memory+0xb4>
    80000584:	00001e97          	auipc	t4,0x1
    80000588:	c07e8e93          	addi	t4,t4,-1017 # 8000118b <reg_x17_init+0x3>
    8000058c:	2b85ab83          	lw	s7,696(a1)
    80000590:	65c00313          	li	t1,1628
    80000594:	0262f1bb          	remuw	gp,t0,t1
    80000598:	cc200f93          	li	t6,-830
    8000059c:	a8000f13          	li	t5,-1408
    800005a0:	9f2f0093          	addi	ra,t5,-1550
    800005a4:	5d1e8b9b          	addiw	s7,t4,1489
    800005a8:	3a001263          	bnez	zero,8000094c <crash_forward>
    800005ac:	07300993          	li	s3,115
    800005b0:	dad00613          	li	a2,-595
    800005b4:	01243a33          	sltu	s4,s0,s2
    800005b8:	00001d97          	auipc	s11,0x1
    800005bc:	d58d8d93          	addi	s11,s11,-680 # 80001310 <test_memory+0x10>
    800005c0:	0139e4b3          	or	s1,s3,s3
    800005c4:	00001697          	auipc	a3,0x1
    800005c8:	1e368693          	addi	a3,a3,483 # 800017a7 <_end+0x97>
    800005cc:	03fc8c3b          	mulw	s8,s9,t6
    800005d0:	00001a97          	auipc	s5,0x1
    800005d4:	e89a8a93          	addi	s5,s5,-375 # 80001459 <test_memory+0x159>
    800005d8:	132abba3          	sd	s2,311(s5)
    800005dc:	00001497          	auipc	s1,0x1
    800005e0:	d2b48493          	addi	s1,s1,-725 # 80001307 <test_memory+0x7>
    800005e4:	00001c97          	auipc	s9,0x1
    800005e8:	ab8c8c93          	addi	s9,s9,-1352 # 8000109c <fromhost+0x5c>
    800005ec:	00c63833          	sltu	a6,a2,a2
    800005f0:	35e0de63          	bge	ra,t5,8000094c <crash_forward>
    800005f4:	d5350113          	addi	sp,a0,-685 # 5c6d1d53 <_start-0x2392e2ad>
    800005f8:	69a00b93          	li	s7,1690
    800005fc:	5cacdf83          	lhu	t6,1482(s9)
    80000600:	278b8993          	addi	s3,s7,632
    80000604:	9a700713          	li	a4,-1625
    80000608:	ea56db03          	lhu	s6,-347(a3)
    8000060c:	af3bfee3          	bgeu	s7,s3,80000108 <crash_backward>
    80000610:	060d9623          	sh	zero,108(s11)
    80000614:	ae001ae3          	bnez	zero,80000108 <crash_backward>
    80000618:	d9600313          	li	t1,-618
    8000061c:	a9b00193          	li	gp,-1381
    80000620:	1e98a403          	lw	s0,489(a7)
    80000624:	e4538c1b          	addiw	s8,t2,-443
    80000628:	00078393          	mv	t2,a5
    8000062c:	4ab00593          	li	a1,1195
    80000630:	00331a33          	sll	s4,t1,gp
    80000634:	00038d13          	mv	s10,t2
    80000638:	40b70233          	sub	tp,a4,a1
    8000063c:	3b3e9903          	lh	s2,947(t4)
    80000640:	140e0793          	addi	a5,t3,320
    80000644:	016b15b3          	sll	a1,s6,s6
    80000648:	00000c97          	auipc	s9,0x0
    8000064c:	69ac8c93          	addi	s9,s9,1690 # 80000ce2 <test_end+0x382>
    80000650:	034a58bb          	divuw	a7,s4,s4
    80000654:	016b2db3          	slt	s11,s6,s6
    80000658:	b7918913          	addi	s2,gp,-1159 # 80001a89 <_end+0x379>
    8000065c:	00001697          	auipc	a3,0x1
    80000660:	d9268693          	addi	a3,a3,-622 # 800013ee <test_memory+0xee>
    80000664:	1e66ce83          	lbu	t4,486(a3)
    80000668:	00000617          	auipc	a2,0x0
    8000066c:	6ae60613          	addi	a2,a2,1710 # 80000d16 <test_end+0x3b6>
    80000670:	02738fb3          	mul	t6,t2,t2
    80000674:	91f93c03          	ld	s8,-1761(s2)
    80000678:	717ca723          	sw	s7,1806(s9)
    8000067c:	6fd00413          	li	s0,1789
    80000680:	67e66a03          	lwu	s4,1662(a2)
    80000684:	96518693          	addi	a3,gp,-1691 # 80001875 <_end+0x165>
    80000688:	20400993          	li	s3,516
    8000068c:	0df00a93          	li	s5,223
    80000690:	ca769583          	lh	a1,-857(a3)
    80000694:	019c8cbb          	addw	s9,s9,s9
    80000698:	a0718d93          	addi	s11,gp,-1529 # 80001917 <_end+0x207>
    8000069c:	59800b13          	li	s6,1432
    800006a0:	36798813          	addi	a6,s3,871
    800006a4:	93400f13          	li	t5,-1740
    800006a8:	a5400b93          	li	s7,-1452
    800006ac:	a4001ee3          	bnez	zero,80000108 <crash_backward>
    800006b0:	02630a33          	mul	s4,t1,t1
    800006b4:	a0a00d13          	li	s10,-1526
    800006b8:	00001f97          	auipc	t6,0x1
    800006bc:	0e6f8f93          	addi	t6,t6,230 # 8000179e <_end+0x8e>
    800006c0:	1cf00c13          	li	s8,463
    800006c4:	01fcde9b          	srliw	t4,s9,0x1f
    800006c8:	ee3f84a3          	sb	gp,-279(t6)
    800006cc:	037f013b          	mulw	sp,t5,s7
    800006d0:	2c448283          	lb	t0,708(s1)
    800006d4:	01471093          	slli	ra,a4,0x14
    800006d8:	00195193          	srli	gp,s2,0x1
    800006dc:	00000693          	li	a3,0
    800006e0:	1c8c0913          	addi	s2,s8,456
    800006e4:	c8fdd883          	lhu	a7,-881(s11)
    800006e8:	01ad3e33          	sltu	t3,s10,s10
    800006ec:	e7600213          	li	tp,-394
    800006f0:	00001397          	auipc	t2,0x1
    800006f4:	8cd38393          	addi	t2,t2,-1843 # 80000fbd <test_end+0x65d>
    800006f8:	00001f97          	auipc	t6,0x1
    800006fc:	a2ff8f93          	addi	t6,t6,-1489 # 80001127 <reg_x4_init+0x7>
    80000700:	001e8a3b          	addw	s4,t4,ra
    80000704:	14200113          	li	sp,322
    80000708:	01240633          	add	a2,s0,s2
    8000070c:	01644333          	xor	t1,s0,s6
    80000710:	6b43bda3          	sd	s4,1723(t2)
    80000714:	00100e13          	li	t3,1
    80000718:	00000417          	auipc	s0,0x0
    8000071c:	77640413          	addi	s0,s0,1910 # 80000e8e <test_end+0x52e>
    80000720:	33ef8d03          	lb	s10,830(t6)
    80000724:	004ad53b          	srlw	a0,s5,tp
    80000728:	00000793          	li	a5,0
    8000072c:	00000593          	li	a1,0
    80000730:	e40fec13          	ori	s8,t6,-448
    80000734:	03fe1e13          	slli	t3,t3,0x3f
    80000738:	00001317          	auipc	t1,0x1
    8000073c:	93e30313          	addi	t1,t1,-1730 # 80001076 <fromhost+0x36>
    80000740:	fff00893          	li	a7,-1
    80000744:	59141c23          	sh	a7,1432(s0)
    80000748:	00001297          	auipc	t0,0x1
    8000074c:	c3728293          	addi	t0,t0,-969 # 8000137f <test_memory+0x7f>
    80000750:	01c8c8b3          	xor	a7,a7,t3
    80000754:	20d00b93          	li	s7,525
    80000758:	022101bb          	mulw	gp,sp,sp
    8000075c:	00000c93          	li	s9,0
    80000760:	011aff33          	and	t5,s5,a7
    80000764:	9ab7e2e3          	bltu	a5,a1,80000108 <crash_backward>
    80000768:	037be4bb          	remw	s1,s7,s7
    8000076c:	0f42a2a3          	sw	s4,229(t0)
    80000770:	01cf60b3          	or	ra,t5,t3
    80000774:	e9c00e93          	li	t4,-356
    80000778:	038c7733          	remu	a4,s8,s8
    8000077c:	03d14dbb          	divw	s11,sp,t4
    80000780:	34a33b03          	ld	s6,842(t1)
    80000784:	10800a13          	li	s4,264
    80000788:	35900913          	li	s2,857
    8000078c:	012a6633          	or	a2,s4,s2
    80000790:	00b00e93          	li	t4,11
    80000794:	00001997          	auipc	s3,0x1
    80000798:	c1398993          	addi	s3,s3,-1005 # 800013a7 <test_memory+0xa7>
    8000079c:	a8300e13          	li	t3,-1405
    800007a0:	1399b403          	ld	s0,313(s3)
    800007a4:	43e00613          	li	a2,1086
    800007a8:	00001517          	auipc	a0,0x1
    800007ac:	e2e50513          	addi	a0,a0,-466 # 800015d6 <test_memory+0x2d6>
    800007b0:	034b47bb          	divw	a5,s6,s4
    800007b4:	03fffabb          	remuw	s5,t6,t6
    800007b8:	01761d3b          	sllw	s10,a2,s7
    800007bc:	03aad33b          	divuw	t1,s5,s10
    800007c0:	03ce41bb          	divw	gp,t3,t3
    800007c4:	a0400f93          	li	t6,-1532
    800007c8:	026279b3          	remu	s3,tp,t1
    800007cc:	f7e00493          	li	s1,-130
    800007d0:	71c3c393          	xori	t2,t2,1820
    800007d4:	3bf00a13          	li	s4,959
    800007d8:	78160713          	addi	a4,a2,1921
    800007dc:	414f813b          	subw	sp,t6,s4
    800007e0:	72700913          	li	s2,1831
    800007e4:	41e00593          	li	a1,1054
    800007e8:	00100213          	li	tp,1
    800007ec:	03f21213          	slli	tp,tp,0x3f
    800007f0:	00001897          	auipc	a7,0x1
    800007f4:	d0b88893          	addi	a7,a7,-757 # 800014fb <test_memory+0x1fb>
    800007f8:	036b483b          	divw	a6,s6,s6
    800007fc:	00100993          	li	s3,1
    80000800:	5c800f93          	li	t6,1480
    80000804:	14c76463          	bltu	a4,a2,8000094c <crash_forward>
    80000808:	02b956bb          	divuw	a3,s2,a1
    8000080c:	00000c17          	auipc	s8,0x0
    80000810:	566c0c13          	addi	s8,s8,1382 # 80000d72 <test_end+0x412>
    80000814:	03297abb          	remuw	s5,s2,s2
    80000818:	00000197          	auipc	gp,0x0
    8000081c:	50b18193          	addi	gp,gp,1291 # 80000d23 <test_end+0x3c3>
    80000820:	5ecc1c23          	sh	a2,1528(s8)
    80000824:	fe651d83          	lh	s11,-26(a0)
    80000828:	409482bb          	subw	t0,s1,s1
    8000082c:	01dedb3b          	srlw	s6,t4,t4
    80000830:	00000697          	auipc	a3,0x0
    80000834:	61668693          	addi	a3,a3,1558 # 80000e46 <test_end+0x4e6>
    80000838:	fff00c93          	li	s9,-1
    8000083c:	01ce583b          	srlw	a6,t3,t3
    80000840:	03f99993          	slli	s3,s3,0x3f
    80000844:	00001117          	auipc	sp,0x1
    80000848:	88110113          	addi	sp,sp,-1919 # 800010c5 <fromhost+0x85>
    8000084c:	f9b8bea3          	sd	s11,-99(a7)
    80000850:	fff00793          	li	a5,-1
    80000854:	7751b403          	ld	s0,1909(gp) # 80002685 <__global_pointer$+0x775>
    80000858:	35710c23          	sb	s7,856(sp)
    8000085c:	a9a00893          	li	a7,-1382
    80000860:	22600b13          	li	s6,550
    80000864:	00001a97          	auipc	s5,0x1
    80000868:	ceca8a93          	addi	s5,s5,-788 # 80001550 <test_memory+0x250>
    8000086c:	00001397          	auipc	t2,0x1
    80000870:	b5738393          	addi	t2,t2,-1193 # 800013c3 <test_memory+0xc3>
    80000874:	004cccb3          	xor	s9,s9,tp
    80000878:	00000d93          	li	s11,0
    8000087c:	b8900093          	li	ra,-1143
    80000880:	036b0c33          	mul	s8,s6,s6
    80000884:	019cff33          	and	t5,s9,s9
    80000888:	3f100913          	li	s2,1009
    8000088c:	0318d2bb          	divuw	t0,a7,a7
    80000890:	5136b123          	sd	s3,1282(a3)
    80000894:	b5900613          	li	a2,-1191
    80000898:	001f933b          	sllw	t1,t6,ra
    8000089c:	32c38e03          	lb	t3,812(t2)
    800008a0:	fa0ab703          	ld	a4,-96(s5)
    800008a4:	00000e93          	li	t4,0
    800008a8:	0137c7b3          	xor	a5,a5,s3
    800008ac:	40c905b3          	sub	a1,s2,a2
    800008b0:	004f6bb3          	or	s7,t5,tp
    800008b4:	00f47d33          	and	s10,s0,a5
    800008b8:	01326a33          	or	s4,tp,s3
    800008bc:	85ddc6e3          	blt	s11,t4,80000108 <crash_backward>
    800008c0:	0040006f          	j	800008c4 <reg_dump>

00000000800008c4 <reg_dump>:
    800008c4:	00001097          	auipc	ra,0x1
    800008c8:	e3c08093          	addi	ra,ra,-452 # 80001700 <loop_count>
    800008cc:	0000a103          	lw	sp,0(ra)
    800008d0:	fff10193          	addi	gp,sp,-1
    800008d4:	0030a023          	sw	gp,0(ra)
    800008d8:	8c0118e3          	bnez	sp,800001a8 <pseg_0>
    800008dc:	00001097          	auipc	ra,0x1
    800008e0:	92408093          	addi	ra,ra,-1756 # 80001200 <begin_signature>
    800008e4:	0000b023          	sd	zero,0(ra)
    800008e8:	0240b023          	sd	tp,32(ra)
    800008ec:	0250b423          	sd	t0,40(ra)
    800008f0:	0260b823          	sd	t1,48(ra)
    800008f4:	0480b023          	sd	s0,64(ra)
    800008f8:	0490b423          	sd	s1,72(ra)
    800008fc:	04b0bc23          	sd	a1,88(ra)
    80000900:	06c0b023          	sd	a2,96(ra)
    80000904:	06e0b823          	sd	a4,112(ra)
    80000908:	06f0bc23          	sd	a5,120(ra)
    8000090c:	0900b023          	sd	a6,128(ra)
    80000910:	0910b423          	sd	a7,136(ra)
    80000914:	0920b823          	sd	s2,144(ra)
    80000918:	0930bc23          	sd	s3,152(ra)
    8000091c:	0b40b023          	sd	s4,160(ra)
    80000920:	0b60b823          	sd	s6,176(ra)
    80000924:	0b70bc23          	sd	s7,184(ra)
    80000928:	0d80b023          	sd	s8,192(ra)
    8000092c:	0d90b423          	sd	s9,200(ra)
    80000930:	0da0b823          	sd	s10,208(ra)
    80000934:	0db0bc23          	sd	s11,216(ra)
    80000938:	0fc0b023          	sd	t3,224(ra)
    8000093c:	0fd0b423          	sd	t4,232(ra)
    80000940:	0fe0b823          	sd	t5,240(ra)
    80000944:	0ff0bc23          	sd	t6,248(ra)
    80000948:	0180006f          	j	80000960 <test_end>

000000008000094c <crash_forward>:
    8000094c:	0ff0000f          	fence
    80000950:	00018063          	beqz	gp,80000950 <crash_forward+0x4>
    80000954:	00119193          	slli	gp,gp,0x1
    80000958:	0011e193          	ori	gp,gp,1
    8000095c:	00000073          	ecall

0000000080000960 <test_end>:
    80000960:	0ff0000f          	fence
    80000964:	00100193          	li	gp,1
    80000968:	00000073          	ecall
    8000096c:	c0001073          	unimp
	...

Disassembly of section .tohost:

0000000080001000 <tohost>:
	...

0000000080001040 <fromhost>:
	...
