
test.elf:     file format elf64-littleriscv


Disassembly of section .text.init:

0000000080000000 <_start>:
    80000000:	0580006f          	j	80000058 <reset_vector>

0000000080000004 <trap_vector>:
    80000004:	34202f73          	csrr	t5,mcause
    80000008:	00800f93          	li	t6,8
    8000000c:	05ff0063          	beq	t5,t6,8000004c <write_tohost>
    80000010:	00900f93          	li	t6,9
    80000014:	03ff0c63          	beq	t5,t6,8000004c <write_tohost>
    80000018:	00b00f93          	li	t6,11
    8000001c:	03ff0863          	beq	t5,t6,8000004c <write_tohost>
    80000020:	00000f13          	li	t5,0
    80000024:	000f0463          	beqz	t5,8000002c <trap_vector+0x28>
    80000028:	000f0067          	jr	t5
    8000002c:	34202f73          	csrr	t5,mcause
    80000030:	000f5463          	bgez	t5,80000038 <handle_exception>
    80000034:	0140006f          	j	80000048 <other_exception>

0000000080000038 <handle_exception>:
    80000038:	34102e73          	csrr	t3,mepc
    8000003c:	004e0e13          	addi	t3,t3,4
    80000040:	341e1073          	csrw	mepc,t3
    80000044:	30200073          	mret

0000000080000048 <other_exception>:
    80000048:	5391e193          	ori	gp,gp,1337

000000008000004c <write_tohost>:
    8000004c:	00001f17          	auipc	t5,0x1
    80000050:	fa3f2a23          	sw	gp,-76(t5) # 80001000 <tohost>
    80000054:	ff9ff06f          	j	8000004c <write_tohost>

0000000080000058 <reset_vector>:
    80000058:	f1402573          	csrr	a0,mhartid
    8000005c:	00051063          	bnez	a0,8000005c <reset_vector+0x4>
    80000060:	00000297          	auipc	t0,0x0
    80000064:	01028293          	addi	t0,t0,16 # 80000070 <reset_vector+0x18>
    80000068:	30529073          	csrw	mtvec,t0
    8000006c:	18005073          	csrwi	satp,0
    80000070:	00000297          	auipc	t0,0x0
    80000074:	01c28293          	addi	t0,t0,28 # 8000008c <reset_vector+0x34>
    80000078:	30529073          	csrw	mtvec,t0
    8000007c:	fff00293          	li	t0,-1
    80000080:	3b029073          	csrw	pmpaddr0,t0
    80000084:	01f00293          	li	t0,31
    80000088:	3a029073          	csrw	pmpcfg0,t0
    8000008c:	00000297          	auipc	t0,0x0
    80000090:	01828293          	addi	t0,t0,24 # 800000a4 <reset_vector+0x4c>
    80000094:	30529073          	csrw	mtvec,t0
    80000098:	30205073          	csrwi	medeleg,0
    8000009c:	30305073          	csrwi	mideleg,0
    800000a0:	30405073          	csrwi	mie,0
    800000a4:	00000193          	li	gp,0
    800000a8:	00000297          	auipc	t0,0x0
    800000ac:	f5c28293          	addi	t0,t0,-164 # 80000004 <trap_vector>
    800000b0:	30529073          	csrw	mtvec,t0
    800000b4:	00100513          	li	a0,1
    800000b8:	01f51513          	slli	a0,a0,0x1f
    800000bc:	00055863          	bgez	a0,800000cc <reset_vector+0x74>
    800000c0:	0ff0000f          	fence
    800000c4:	00100193          	li	gp,1
    800000c8:	00000073          	ecall
    800000cc:	00000293          	li	t0,0
    800000d0:	00028e63          	beqz	t0,800000ec <reset_vector+0x94>
    800000d4:	10529073          	csrw	stvec,t0
    800000d8:	0000b2b7          	lui	t0,0xb
    800000dc:	1092829b          	addiw	t0,t0,265
    800000e0:	30229073          	csrw	medeleg,t0
    800000e4:	30202373          	csrr	t1,medeleg
    800000e8:	f66290e3          	bne	t0,t1,80000048 <other_exception>
    800000ec:	30005073          	csrwi	mstatus,0
    800000f0:	00000297          	auipc	t0,0x0
    800000f4:	01428293          	addi	t0,t0,20 # 80000104 <reset_vector+0xac>
    800000f8:	34129073          	csrw	mepc,t0
    800000fc:	f1402573          	csrr	a0,mhartid
    80000100:	30200073          	mret
    80000104:	0180006f          	j	8000011c <test_start>

0000000080000108 <crash_backward>:
    80000108:	0ff0000f          	fence
    8000010c:	00018063          	beqz	gp,8000010c <crash_backward+0x4>
    80000110:	00119193          	slli	gp,gp,0x1
    80000114:	0011e193          	ori	gp,gp,1
    80000118:	00000073          	ecall

000000008000011c <test_start>:
    8000011c:	00001f97          	auipc	t6,0x1
    80000120:	fe4f8f93          	addi	t6,t6,-28 # 80001100 <hidden_data>
    80000124:	000fb003          	ld	zero,0(t6)
    80000128:	008fb083          	ld	ra,8(t6)
    8000012c:	010fb103          	ld	sp,16(t6)
    80000130:	018fb183          	ld	gp,24(t6)
    80000134:	020fb203          	ld	tp,32(t6)
    80000138:	028fb283          	ld	t0,40(t6)
    8000013c:	030fb303          	ld	t1,48(t6)
    80000140:	038fb383          	ld	t2,56(t6)
    80000144:	040fb403          	ld	s0,64(t6)
    80000148:	048fb483          	ld	s1,72(t6)
    8000014c:	050fb503          	ld	a0,80(t6)
    80000150:	058fb583          	ld	a1,88(t6)
    80000154:	060fb603          	ld	a2,96(t6)
    80000158:	068fb683          	ld	a3,104(t6)
    8000015c:	070fb703          	ld	a4,112(t6)
    80000160:	078fb783          	ld	a5,120(t6)
    80000164:	080fb803          	ld	a6,128(t6)
    80000168:	088fb883          	ld	a7,136(t6)
    8000016c:	090fb903          	ld	s2,144(t6)
    80000170:	098fb983          	ld	s3,152(t6)
    80000174:	0a0fba03          	ld	s4,160(t6)
    80000178:	0a8fba83          	ld	s5,168(t6)
    8000017c:	0b0fbb03          	ld	s6,176(t6)
    80000180:	0b8fbb83          	ld	s7,184(t6)
    80000184:	0c0fbc03          	ld	s8,192(t6)
    80000188:	0c8fbc83          	ld	s9,200(t6)
    8000018c:	0d0fbd03          	ld	s10,208(t6)
    80000190:	0d8fbd83          	ld	s11,216(t6)
    80000194:	0e0fbe03          	ld	t3,224(t6)
    80000198:	0e8fbe83          	ld	t4,232(t6)
    8000019c:	0f0fbf03          	ld	t5,240(t6)
    800001a0:	0f8fbf83          	ld	t6,248(t6)
    800001a4:	0040006f          	j	800001a8 <pseg_0>

00000000800001a8 <pseg_0>:
    800001a8:	00100113          	li	sp,1
    800001ac:	8be00b93          	li	s7,-1858
    800001b0:	00001c97          	auipc	s9,0x1
    800001b4:	cb3c8c93          	addi	s9,s9,-845 # 80000e63 <test_end+0x487>
    800001b8:	93800d13          	li	s10,-1736
    800001bc:	d7018d93          	addi	s11,gp,-656 # 80001c80 <_end+0x570>
    800001c0:	00001097          	auipc	ra,0x1
    800001c4:	f4a08093          	addi	ra,ra,-182 # 8000110a <reg_x1_init+0x2>
    800001c8:	14b00a93          	li	s5,331
    800001cc:	00100913          	li	s2,1
    800001d0:	e3dd0f13          	addi	t5,s10,-451
    800001d4:	03f91913          	slli	s2,s2,0x3f
    800001d8:	03294e33          	div	t3,s2,s2
    800001dc:	00c055b3          	srl	a1,zero,a2
    800001e0:	03f11113          	slli	sp,sp,0x3f
    800001e4:	015bd633          	srl	a2,s7,s5
    800001e8:	fff00213          	li	tp,-1
    800001ec:	7cc66e63          	bltu	a2,a2,800009c8 <crash_forward>
    800001f0:	00100f93          	li	t6,1
    800001f4:	d8118a93          	addi	s5,gp,-639 # 80001c91 <_end+0x581>
    800001f8:	03ff9f93          	slli	t6,t6,0x3f
    800001fc:	07c00513          	li	a0,124
    80000200:	4cfc9383          	lh	t2,1231(s9)
    80000204:	001a9f33          	sll	t5,s5,ra
    80000208:	9e718e13          	addi	t3,gp,-1561 # 800018f7 <_end+0x1e7>
    8000020c:	878db303          	ld	t1,-1928(s11)
    80000210:	fff00893          	li	a7,-1
    80000214:	a7400c13          	li	s8,-1420
    80000218:	01224233          	xor	tp,tp,s2
    8000021c:	3e40a923          	sw	tp,1010(ra)
    80000220:	00001a17          	auipc	s4,0x1
    80000224:	e23a0a13          	addi	s4,s4,-477 # 80001043 <fromhost+0x3>
    80000228:	605a3ea3          	sd	t0,1565(s4)
    8000022c:	fff00693          	li	a3,-1
    80000230:	018561b3          	or	gp,a0,s8
    80000234:	d3ee1ca3          	sh	t5,-711(t3)
    80000238:	d2700613          	li	a2,-729
    8000023c:	0026c6b3          	xor	a3,a3,sp
    80000240:	00d2f733          	and	a4,t0,a3
    80000244:	0049fb33          	and	s6,s3,tp
    80000248:	012b64b3          	or	s1,s6,s2
    8000024c:	00001a17          	auipc	s4,0x1
    80000250:	107a0a13          	addi	s4,s4,263 # 80001353 <test_memory+0x53>
    80000254:	f3800813          	li	a6,-200
    80000258:	eb64e8e3          	bltu	s1,s6,80000108 <crash_backward>
    8000025c:	00001397          	auipc	t2,0x1
    80000260:	d5a38393          	addi	t2,t2,-678 # 80000fb6 <test_end+0x5da>
    80000264:	64e3ad03          	lw	s10,1614(t2)
    80000268:	88967c13          	andi	s8,a2,-1911
    8000026c:	00001c97          	auipc	s9,0x1
    80000270:	fccc8c93          	addi	s9,s9,-52 # 80001238 <reg_x7_output>
    80000274:	294ce303          	lwu	t1,660(s9)
    80000278:	00100d93          	li	s11,1
    8000027c:	90b00993          	li	s3,-1781
    80000280:	99fae583          	lwu	a1,-1633(s5)
    80000284:	9cb00e13          	li	t3,-1589
    80000288:	c5200b13          	li	s6,-942
    8000028c:	af160b93          	addi	s7,a2,-1295
    80000290:	03fd9d93          	slli	s11,s11,0x3f
    80000294:	d5918213          	addi	tp,gp,-679 # 80001c69 <_end+0x559>
    80000298:	00001c97          	auipc	s9,0x1
    8000029c:	f3ec8c93          	addi	s9,s9,-194 # 800011d6 <reg_x26_init+0x6>
    800002a0:	77500593          	li	a1,1909
    800002a4:	036e73b3          	remu	t2,t3,s6
    800002a8:	01f8c8b3          	xor	a7,a7,t6
    800002ac:	009baab3          	slt	s5,s7,s1
    800002b0:	462cb303          	ld	t1,1122(s9)
    800002b4:	7fe00e13          	li	t3,2046
    800002b8:	0114f2b3          	and	t0,s1,a7
    800002bc:	004a131b          	slliw	t1,s4,0x4
    800002c0:	2a2a4f03          	lbu	t5,674(s4)
    800002c4:	a69bbc93          	sltiu	s9,s7,-1431
    800002c8:	40b5dd33          	sra	s10,a1,a1
    800002cc:	01387eb3          	and	t4,a6,s3
    800002d0:	039fbab3          	mulhu	s5,t6,s9
    800002d4:	00001917          	auipc	s2,0x1
    800002d8:	50190913          	addi	s2,s2,1281 # 800017d5 <_end+0xc5>
    800002dc:	6e739663          	bne	t2,t2,800009c8 <crash_forward>
    800002e0:	dce00a13          	li	s4,-562
    800002e4:	81a20323          	sb	s10,-2042(tp) # fffffffffffff806 <__global_pointer$+0xffffffff7fffd8f6>
    800002e8:	00001c17          	auipc	s8,0x1
    800002ec:	2f5c0c13          	addi	s8,s8,757 # 800015dd <test_memory+0x2dd>
    800002f0:	77c00393          	li	t2,1916
    800002f4:	01f2e433          	or	s0,t0,t6
    800002f8:	00001997          	auipc	s3,0x1
    800002fc:	b6898993          	addi	s3,s3,-1176 # 80000e60 <test_end+0x484>
    80000300:	ddb93483          	ld	s1,-549(s2)
    80000304:	fc0c19a3          	sh	zero,-45(s8)
    80000308:	027e6b33          	rem	s6,t3,t2
    8000030c:	e2100c93          	li	s9,-479
    80000310:	69f00d13          	li	s10,1695
    80000314:	fff00193          	li	gp,-1
    80000318:	03acaf33          	mulhsu	t5,s9,s10
    8000031c:	002767b3          	or	a5,a4,sp
    80000320:	7869d303          	lhu	t1,1926(s3)
    80000324:	847a0a93          	addi	s5,s4,-1977
    80000328:	df4ad0e3          	bge	s5,s4,80000108 <crash_backward>
    8000032c:	c7600593          	li	a1,-906
    80000330:	b0d18613          	addi	a2,gp,-1267 # 80001a1d <_end+0x30d>
    80000334:	0118c833          	xor	a6,a7,a7
    80000338:	02b59bb3          	mulh	s7,a1,a1
    8000033c:	01b1c1b3          	xor	gp,gp,s11
    80000340:	003bf533          	and	a0,s7,gp
    80000344:	01bee0b3          	or	ra,t4,s11
    80000348:	68154063          	blt	a0,ra,800009c8 <crash_forward>
    8000034c:	ba8639a3          	sd	s0,-1101(a2)
    80000350:	dae7dce3          	bge	a5,a4,80000108 <crash_backward>
    80000354:	95700793          	li	a5,-1705
    80000358:	58900493          	li	s1,1417
    8000035c:	af2071b7          	lui	gp,0xaf207
    80000360:	af418693          	addi	a3,gp,-1292 # ffffffffaf206af4 <__global_pointer$+0xffffffff2f204be4>
    80000364:	5e600e13          	li	t3,1510
    80000368:	da0060e3          	bltu	zero,zero,80000108 <crash_backward>
    8000036c:	e7500d93          	li	s11,-395
    80000370:	0294c833          	div	a6,s1,s1
    80000374:	93678a13          	addi	s4,a5,-1738
    80000378:	0bc00c13          	li	s8,188
    8000037c:	03be68bb          	remw	a7,t3,s11
    80000380:	00bc5193          	srli	gp,s8,0xb
    80000384:	00100813          	li	a6,1
    80000388:	70a00e93          	li	t4,1802
    8000038c:	4010de1b          	sraiw	t3,ra,0x1
    80000390:	73000393          	li	t2,1840
    80000394:	41ef533b          	sraw	t1,t5,t5
    80000398:	018c1abb          	sllw	s5,s8,s8
    8000039c:	00001617          	auipc	a2,0x1
    800003a0:	ad860613          	addi	a2,a2,-1320 # 80000e74 <test_end+0x498>
    800003a4:	a0069983          	lh	s3,-1536(a3)
    800003a8:	00001b17          	auipc	s6,0x1
    800003ac:	c51b0b13          	addi	s6,s6,-943 # 80000ff9 <test_end+0x61d>
    800003b0:	34fb2c83          	lw	s9,847(s6)
    800003b4:	9ba18213          	addi	tp,gp,-1606 # 800018ca <_end+0x1ba>
    800003b8:	00001417          	auipc	s0,0x1
    800003bc:	43d40413          	addi	s0,s0,1085 # 800017f5 <_end+0xe5>
    800003c0:	d9e26903          	lwu	s2,-610(tp) # fffffffffffffd9e <__global_pointer$+0xffffffff7fffde8e>
    800003c4:	03f81813          	slli	a6,a6,0x3f
    800003c8:	fff00193          	li	gp,-1
    800003cc:	0273d53b          	divuw	a0,t2,t2
    800003d0:	00001717          	auipc	a4,0x1
    800003d4:	02570713          	addi	a4,a4,37 # 800013f5 <test_memory+0xf5>
    800003d8:	019aa4b3          	slt	s1,s5,s9
    800003dc:	07f76f03          	lwu	t5,127(a4)
    800003e0:	3494af13          	slti	t5,s1,841
    800003e4:	00001317          	auipc	t1,0x1
    800003e8:	3b030313          	addi	t1,t1,944 # 80001794 <_end+0x84>
    800003ec:	59761623          	sh	s7,1420(a2)
    800003f0:	419cdbbb          	sraw	s7,s9,s9
    800003f4:	518e8093          	addi	ra,t4,1304
    800003f8:	00001a17          	auipc	s4,0x1
    800003fc:	017a0a13          	addi	s4,s4,23 # 8000140f <test_memory+0x10f>
    80000400:	020006bb          	mulw	a3,zero,zero
    80000404:	d6c00f93          	li	t6,-660
    80000408:	03ffd13b          	divuw	sp,t6,t6
    8000040c:	016b19b3          	sll	s3,s6,s6
    80000410:	00001517          	auipc	a0,0x1
    80000414:	29450513          	addi	a0,a0,660 # 800016a4 <test_memory+0x3a4>
    80000418:	ff600593          	li	a1,-10
    8000041c:	ef832c03          	lw	s8,-264(t1)
    80000420:	ce451783          	lh	a5,-796(a0)
    80000424:	00841d3b          	sllw	s10,s0,s0
    80000428:	27800a93          	li	s5,632
    8000042c:	08a00b93          	li	s7,138
    80000430:	e77429a3          	sw	s7,-397(s0)
    80000434:	29b00713          	li	a4,667
    80000438:	00001117          	auipc	sp,0x1
    8000043c:	12910113          	addi	sp,sp,297 # 80001561 <test_memory+0x261>
    80000440:	d5700393          	li	t2,-681
    80000444:	02eaecbb          	remw	s9,s5,a4
    80000448:	029c563b          	divuw	a2,s8,s1
    8000044c:	225a5483          	lhu	s1,549(s4)
    80000450:	a6018693          	addi	a3,gp,-1440 # 80001970 <_end+0x260>
    80000454:	38100e13          	li	t3,897
    80000458:	02c63eb3          	mulhu	t4,a2,a2
    8000045c:	03c3fb33          	remu	s6,t2,t3
    80000460:	02b582b3          	mul	t0,a1,a1
    80000464:	0101c1b3          	xor	gp,gp,a6
    80000468:	d0f68323          	sb	a5,-762(a3)
    8000046c:	00377db3          	and	s11,a4,gp
    80000470:	010668b3          	or	a7,a2,a6
    80000474:	417b8f33          	sub	t5,s7,s7
    80000478:	10f12083          	lw	ra,271(sp)
    8000047c:	5a000d93          	li	s11,1440
    80000480:	f6900e13          	li	t3,-151
    80000484:	00058c13          	mv	s8,a1
    80000488:	01ef1fbb          	sllw	t6,t5,t5
    8000048c:	53400513          	li	a0,1332
    80000490:	97200693          	li	a3,-1678
    80000494:	2c200593          	li	a1,706
    80000498:	00100a93          	li	s5,1
    8000049c:	e6500613          	li	a2,-411
    800004a0:	02ae043b          	mulw	s0,t3,a0
    800004a4:	1a800793          	li	a5,424
    800004a8:	034a723b          	remuw	tp,s4,s4
    800004ac:	00c6e1b3          	or	gp,a3,a2
    800004b0:	02f66d33          	rem	s10,a2,a5
    800004b4:	eb900a13          	li	s4,-327
    800004b8:	000c0493          	mv	s1,s8
    800004bc:	00f58b33          	add	s6,a1,a5
    800004c0:	03fa9a93          	slli	s5,s5,0x3f
    800004c4:	10f00693          	li	a3,271
    800004c8:	01ad2d33          	slt	s10,s10,s10
    800004cc:	83d00393          	li	t2,-1987
    800004d0:	0339e1b3          	rem	gp,s3,s3
    800004d4:	fff00b93          	li	s7,-1
    800004d8:	000b0913          	mv	s2,s6
    800004dc:	41bd813b          	subw	sp,s11,s11
    800004e0:	00001217          	auipc	tp,0x1
    800004e4:	27e20213          	addi	tp,tp,638 # 8000175e <_end+0x4e>
    800004e8:	d8338e13          	addi	t3,t2,-637
    800004ec:	015bcbb3          	xor	s7,s7,s5
    800004f0:	00090813          	mv	a6,s2
    800004f4:	9c500b13          	li	s6,-1595
    800004f8:	00bbd193          	srli	gp,s7,0xb
    800004fc:	eaf22723          	sw	a5,-338(tp) # fffffffffffffeae <__global_pointer$+0xffffffff7fffdf9e>
    80000500:	014a6f33          	or	t5,s4,s4
    80000504:	000d8793          	mv	a5,s11
    80000508:	00001517          	auipc	a0,0x1
    8000050c:	ac250513          	addi	a0,a0,-1342 # 80000fca <test_end+0x5ee>
    80000510:	00001617          	auipc	a2,0x1
    80000514:	8f460613          	addi	a2,a2,-1804 # 80000e04 <test_end+0x428>
    80000518:	017df333          	and	t1,s11,s7
    8000051c:	c6d00c93          	li	s9,-915
    80000520:	015d6eb3          	or	t4,s10,s5
    80000524:	6d465583          	lhu	a1,1748(a2)
    80000528:	4e652f83          	lw	t6,1254(a0)
    8000052c:	0366f9b3          	remu	s3,a3,s6
    80000530:	00078413          	mv	s0,a5
    80000534:	00000117          	auipc	sp,0x0
    80000538:	67510113          	addi	sp,sp,1653 # 80000ba9 <test_end+0x1cd>
    8000053c:	60a00d13          	li	s10,1546
    80000540:	48006463          	bltu	zero,zero,800009c8 <crash_forward>
    80000544:	00000293          	li	t0,0
    80000548:	75bc2613          	slti	a2,s8,1883
    8000054c:	469c4e63          	blt	s8,s1,800009c8 <crash_forward>
    80000550:	00001317          	auipc	t1,0x1
    80000554:	b8230313          	addi	t1,t1,-1150 # 800010d2 <fromhost+0x92>
    80000558:	00000093          	li	ra,0
    8000055c:	00001397          	auipc	t2,0x1
    80000560:	abe38393          	addi	t2,t2,-1346 # 8000101a <tohost+0x1a>
    80000564:	89e00713          	li	a4,-1890
    80000568:	00001f97          	auipc	t6,0x1
    8000056c:	00df8f93          	addi	t6,t6,13 # 80001575 <test_memory+0x275>
    80000570:	00100593          	li	a1,1
    80000574:	c0718193          	addi	gp,gp,-1017 # 80001b17 <_end+0x407>
    80000578:	bbe1a4a3          	sw	t5,-1111(gp) # 80001ab9 <_end+0x3a9>
    8000057c:	03f59593          	slli	a1,a1,0x3f
    80000580:	02ec88bb          	mulw	a7,s9,a4
    80000584:	00001917          	auipc	s2,0x1
    80000588:	c4890913          	addi	s2,s2,-952 # 800011cc <reg_x25_init+0x4>
    8000058c:	fff00a13          	li	s4,-1
    80000590:	4287cc63          	blt	a5,s0,800009c8 <crash_forward>
    80000594:	00001497          	auipc	s1,0x1
    80000598:	20b48493          	addi	s1,s1,523 # 8000179f <_end+0x8f>
    8000059c:	fadfd983          	lhu	s3,-83(t6)
    800005a0:	94718f13          	addi	t5,gp,-1721 # 80001857 <_end+0x147>
    800005a4:	00001217          	auipc	tp,0x1
    800005a8:	f0b20213          	addi	tp,tp,-245 # 800014af <test_memory+0x1af>
    800005ac:	03ad4833          	div	a6,s10,s10
    800005b0:	3413a723          	sw	ra,846(t2)
    800005b4:	0df25b83          	lhu	s7,223(tp) # df <_start-0x7fffff21>
    800005b8:	3269e213          	ori	tp,s3,806
    800005bc:	8fb00c13          	li	s8,-1797
    800005c0:	8fa00713          	li	a4,-1798
    800005c4:	00ba4a33          	xor	s4,s4,a1
    800005c8:	7c513fa3          	sd	t0,2015(sp)
    800005cc:	0140fab3          	and	s5,ra,s4
    800005d0:	00bae533          	or	a0,s5,a1
    800005d4:	00b5d7b3          	srl	a5,a1,a1
    800005d8:	418c0cb3          	sub	s9,s8,s8
    800005dc:	d214d603          	lhu	a2,-735(s1)
    800005e0:	e93f4183          	lbu	gp,-365(t5)
    800005e4:	00100693          	li	a3,1
    800005e8:	d2e70413          	addi	s0,a4,-722
    800005ec:	35490ca3          	sb	s4,857(s2)
    800005f0:	00001897          	auipc	a7,0x1
    800005f4:	b7488893          	addi	a7,a7,-1164 # 80001164 <reg_x12_init+0x4>
    800005f8:	ee800613          	li	a2,-280
    800005fc:	b0aaf6e3          	bgeu	s5,a0,80000108 <crash_backward>
    80000600:	00000197          	auipc	gp,0x0
    80000604:	77018193          	addi	gp,gp,1904 # 80000d70 <test_end+0x394>
    80000608:	73e1df03          	lhu	t5,1854(gp) # 8000264e <__global_pointer$+0x73e>
    8000060c:	00001217          	auipc	tp,0x1
    80000610:	08e20213          	addi	tp,tp,142 # 8000169a <test_memory+0x39a>
    80000614:	93900393          	li	t2,-1735
    80000618:	03f69693          	slli	a3,a3,0x3f
    8000061c:	ae0016e3          	bnez	zero,80000108 <crash_backward>
    80000620:	00739bb3          	sll	s7,t2,t2
    80000624:	00001497          	auipc	s1,0x1
    80000628:	98048493          	addi	s1,s1,-1664 # 80000fa4 <test_end+0x5c8>
    8000062c:	2ca32d83          	lw	s11,714(t1)
    80000630:	9be00c13          	li	s8,-1602
    80000634:	035799b3          	mulh	s3,a5,s5
    80000638:	a5400d13          	li	s10,-1452
    8000063c:	00001f17          	auipc	t5,0x1
    80000640:	a49f0f13          	addi	t5,t5,-1463 # 80001085 <fromhost+0x45>
    80000644:	00000d97          	auipc	s11,0x0
    80000648:	6b6d8d93          	addi	s11,s11,1718 # 80000cfa <test_end+0x31e>
    8000064c:	03ad0833          	mul	a6,s10,s10
    80000650:	68500513          	li	a0,1669
    80000654:	fff00b13          	li	s6,-1
    80000658:	01861fb3          	sll	t6,a2,s8
    8000065c:	46ff6a83          	lwu	s5,1135(t5)
    80000660:	00001c97          	auipc	s9,0x1
    80000664:	fcfc8c93          	addi	s9,s9,-49 # 8000162f <test_memory+0x32f>
    80000668:	00001f97          	auipc	t6,0x1
    8000066c:	a93f8f93          	addi	t6,t6,-1389 # 800010fb <fromhost+0xbb>
    80000670:	ecdc8323          	sb	a3,-314(s9)
    80000674:	00100393          	li	t2,1
    80000678:	00001117          	auipc	sp,0x1
    8000067c:	dc310113          	addi	sp,sp,-573 # 8000143b <test_memory+0x13b>
    80000680:	014085b3          	add	a1,ra,s4
    80000684:	21f50b93          	addi	s7,a0,543
    80000688:	00db4b33          	xor	s6,s6,a3
    8000068c:	4099da1b          	sraiw	s4,s3,0x9
    80000690:	a0c18a93          	addi	s5,gp,-1524 # 8000191c <_end+0x20c>
    80000694:	7bedb703          	ld	a4,1982(s11)
    80000698:	bed00593          	li	a1,-1043
    8000069c:	38cfaaa3          	sw	a2,917(t6)
    800006a0:	88300d13          	li	s10,-1917
    800006a4:	00001097          	auipc	ra,0x1
    800006a8:	fa608093          	addi	ra,ra,-90 # 8000164a <test_memory+0x34a>
    800006ac:	cc60ec03          	lwu	s8,-826(ra)
    800006b0:	00001c97          	auipc	s9,0x1
    800006b4:	143c8c93          	addi	s9,s9,323 # 800017f3 <_end+0xe3>
    800006b8:	76f00613          	li	a2,1903
    800006bc:	e2020903          	lb	s2,-480(tp) # fffffffffffffe20 <__global_pointer$+0xffffffff7fffdf10>
    800006c0:	02c669bb          	remw	s3,a2,a2
    800006c4:	016a7eb3          	and	t4,s4,s6
    800006c8:	090110a3          	sh	a6,129(sp)
    800006cc:	2eabee63          	bltu	s7,a0,800009c8 <crash_forward>
    800006d0:	aaba8423          	sb	a1,-1368(s5)
    800006d4:	01ad3f33          	sltu	t5,s10,s10
    800006d8:	4294c783          	lbu	a5,1065(s1)
    800006dc:	ed8c95a3          	sh	s8,-309(s9)
    800006e0:	03f39393          	slli	t2,t2,0x3f
    800006e4:	00d7ee33          	or	t3,a5,a3
    800006e8:	a6258293          	addi	t0,a1,-1438
    800006ec:	24588d23          	sb	t0,602(a7)
    800006f0:	a41d0813          	addi	a6,s10,-1471
    800006f4:	2c55ca63          	blt	a1,t0,800009c8 <crash_forward>
    800006f8:	fff00313          	li	t1,-1
    800006fc:	01291bbb          	sllw	s7,s2,s2
    80000700:	d4c18d93          	addi	s11,gp,-692 # 80001c5c <_end+0x54c>
    80000704:	2da87263          	bgeu	a6,s10,800009c8 <crash_forward>
    80000708:	01549f93          	slli	t6,s1,0x15
    8000070c:	8f900293          	li	t0,-1799
    80000710:	2293a213          	slti	tp,t2,553
    80000714:	00f789b3          	add	s3,a5,a5
    80000718:	038c64bb          	remw	s1,s8,s8
    8000071c:	021f5c13          	srli	s8,t5,0x21
    80000720:	00000c97          	auipc	s9,0x0
    80000724:	617c8c93          	addi	s9,s9,1559 # 80000d37 <test_end+0x35b>
    80000728:	797c98a3          	sh	s7,1937(s9)
    8000072c:	970dbe23          	sd	a6,-1668(s11)
    80000730:	00001097          	auipc	ra,0x1
    80000734:	0ad08093          	addi	ra,ra,173 # 800017dd <_end+0xcd>
    80000738:	9d218b13          	addi	s6,gp,-1582 # 800018e2 <_end+0x1d2>
    8000073c:	00a51abb          	sllw	s5,a0,a0
    80000740:	00100f13          	li	t5,1
    80000744:	bc128513          	addi	a0,t0,-1087
    80000748:	00000117          	auipc	sp,0x0
    8000074c:	74e10113          	addi	sp,sp,1870 # 80000e96 <test_end+0x4ba>
    80000750:	03ff1f13          	slli	t5,t5,0x3f
    80000754:	72a13883          	ld	a7,1834(sp)
    80000758:	0061193b          	sllw	s2,sp,t1
    8000075c:	03cb8c33          	mul	s8,s7,t3
    80000760:	00100e93          	li	t4,1
    80000764:	02e744b3          	div	s1,a4,a4
    80000768:	03fe9e93          	slli	t4,t4,0x3f
    8000076c:	fff00f93          	li	t6,-1
    80000770:	fff00613          	li	a2,-1
    80000774:	01e64633          	xor	a2,a2,t5
    80000778:	bd918d93          	addi	s11,gp,-1063 # 80001ae9 <_end+0x3d9>
    8000077c:	d7fb0e03          	lb	t3,-641(s6)
    80000780:	00000c97          	auipc	s9,0x0
    80000784:	754c8c93          	addi	s9,s9,1876 # 80000ed4 <test_end+0x4f8>
    80000788:	b3b0dd03          	lhu	s10,-1221(ra)
    8000078c:	97b18213          	addi	tp,gp,-1669 # 8000188b <_end+0x17b>
    80000790:	b1c00093          	li	ra,-1252
    80000794:	b5d18913          	addi	s2,gp,-1187 # 80001a6d <_end+0x35d>
    80000798:	80600d13          	li	s10,-2042
    8000079c:	00ce7733          	and	a4,t3,a2
    800007a0:	e84d0e13          	addi	t3,s10,-380
    800007a4:	00734333          	xor	t1,t1,t2
    800007a8:	d2c24a83          	lbu	s5,-724(tp) # fffffffffffffd2c <__global_pointer$+0xffffffff7fffde1c>
    800007ac:	78aca623          	sw	a0,1932(s9)
    800007b0:	e7a08513          	addi	a0,ra,-390
    800007b4:	01efea33          	or	s4,t6,t5
    800007b8:	954708e3          	beq	a4,s4,80000108 <crash_backward>
    800007bc:	21100793          	li	a5,529
    800007c0:	01dfcfb3          	xor	t6,t6,t4
    800007c4:	0173eb33          	or	s6,t2,s7
    800007c8:	022106bb          	mulw	a3,sp,sp
    800007cc:	02f7c5b3          	div	a1,a5,a5
    800007d0:	a3118493          	addi	s1,gp,-1487 # 80001941 <_end+0x231>
    800007d4:	00100093          	li	ra,1
    800007d8:	01292533          	slt	a0,s2,s2
    800007dc:	0062f1b3          	and	gp,t0,t1
    800007e0:	a8e48fa3          	sb	a4,-1377(s1)
    800007e4:	007c6433          	or	s0,s8,t2
    800007e8:	b17d9983          	lh	s3,-1257(s11)
    800007ec:	91ae7ee3          	bgeu	t3,s10,80000108 <crash_backward>
    800007f0:	00100713          	li	a4,1
    800007f4:	03f71713          	slli	a4,a4,0x3f
    800007f8:	03f09093          	slli	ra,ra,0x3f
    800007fc:	fff00a13          	li	s4,-1
    80000800:	01f3f833          	and	a6,t2,t6
    80000804:	f1400113          	li	sp,-236
    80000808:	fff00a93          	li	s5,-1
    8000080c:	ddb18b13          	addi	s6,gp,-549 # 80001ceb <_end+0x5db>
    80000810:	93118d93          	addi	s11,gp,-1743 # 80001841 <_end+0x131>
    80000814:	00b5c5b3          	xor	a1,a1,a1
    80000818:	00ea4a33          	xor	s4,s4,a4
    8000081c:	97395883          	lhu	a7,-1677(s2)
    80000820:	c8200993          	li	s3,-894
    80000824:	41258f33          	sub	t5,a1,s2
    80000828:	02210cbb          	mulw	s9,sp,sp
    8000082c:	02756e3b          	remw	t3,a0,t2
    80000830:	0145f6b3          	and	a3,a1,s4
    80000834:	0339e533          	rem	a0,s3,s3
    80000838:	001acab3          	xor	s5,s5,ra
    8000083c:	2bb14793          	xori	a5,sp,699
    80000840:	8b9b6283          	lwu	t0,-1863(s6)
    80000844:	d77dbd03          	ld	s10,-649(s11)
    80000848:	015a7233          	and	tp,s4,s5
    8000084c:	00e2e633          	or	a2,t0,a4
    80000850:	01d36bb3          	or	s7,t1,t4
    80000854:	001cec33          	or	s8,s9,ra
    80000858:	00001917          	auipc	s2,0x1
    8000085c:	d7590913          	addi	s2,s2,-651 # 800015cd <test_memory+0x2cd>
    80000860:	004e92b3          	sll	t0,t4,tp
    80000864:	00001d17          	auipc	s10,0x1
    80000868:	cfbd0d13          	addi	s10,s10,-773 # 8000155f <test_memory+0x25f>
    8000086c:	88d66ee3          	bltu	a2,a3,80000108 <crash_backward>
    80000870:	00000497          	auipc	s1,0x0
    80000874:	40948493          	addi	s1,s1,1033 # 80000c79 <test_end+0x29d>
    80000878:	0315843b          	mulw	s0,a1,a7
    8000087c:	b3518f93          	addi	t6,gp,-1227 # 80001a45 <_end+0x335>
    80000880:	ebe00693          	li	a3,-322
    80000884:	abbfeb03          	lwu	s6,-1349(t6)
    80000888:	9c100193          	li	gp,-1599
    8000088c:	45400e13          	li	t3,1108
    80000890:	d5195f03          	lhu	t5,-687(s2)
    80000894:	00d682b3          	add	t0,a3,a3
    80000898:	f21d3c83          	ld	s9,-223(s10)
    8000089c:	9cd00993          	li	s3,-1587
    800008a0:	00000617          	auipc	a2,0x0
    800008a4:	79960613          	addi	a2,a2,1945 # 80001039 <tohost+0x39>
    800008a8:	00000317          	auipc	t1,0x0
    800008ac:	78130313          	addi	t1,t1,1921 # 80001029 <tohost+0x29>
    800008b0:	00001e97          	auipc	t4,0x1
    800008b4:	ca5e8e93          	addi	t4,t4,-859 # 80001555 <test_memory+0x255>
    800008b8:	02686233          	rem	tp,a6,t1
    800008bc:	00100113          	li	sp,1
    800008c0:	03f11113          	slli	sp,sp,0x3f
    800008c4:	70f4b703          	ld	a4,1807(s1)
    800008c8:	00000a17          	auipc	s4,0x0
    800008cc:	618a0a13          	addi	s4,s4,1560 # 80000ee0 <test_end+0x504>
    800008d0:	40e756bb          	sraw	a3,a4,a4
    800008d4:	488a6083          	lwu	ra,1160(s4)
    800008d8:	6c300913          	li	s2,1731
    800008dc:	710e0d93          	addi	s11,t3,1808
    800008e0:	c4100b13          	li	s6,-959
    800008e4:	90a00213          	li	tp,-1782
    800008e8:	0fbe0063          	beq	t3,s11,800009c8 <crash_forward>
    800008ec:	a54b0413          	addi	s0,s6,-1452
    800008f0:	fff00813          	li	a6,-1
    800008f4:	b0300513          	li	a0,-1277
    800008f8:	e8e00a93          	li	s5,-370
    800008fc:	01591c3b          	sllw	s8,s2,s5
    80000900:	681313a3          	sh	ra,1671(t1)
    80000904:	00000d17          	auipc	s10,0x0
    80000908:	626d0d13          	addi	s10,s10,1574 # 80000f2a <test_end+0x54e>
    8000090c:	646d3f03          	ld	t5,1606(s10)
    80000910:	6a2633a3          	sd	sp,1703(a2)
    80000914:	ff645a63          	bge	s0,s6,80000108 <crash_backward>
    80000918:	00001c97          	auipc	s9,0x1
    8000091c:	d9bc8c93          	addi	s9,s9,-613 # 800016b3 <test_memory+0x3b3>
    80000920:	e05c9283          	lh	t0,-507(s9)
    80000924:	40a9d8bb          	sraw	a7,s3,a0
    80000928:	0031d7b3          	srl	a5,gp,gp
    8000092c:	1a7e9583          	lh	a1,423(t4)
    80000930:	00425fb3          	srl	t6,tp,tp
    80000934:	00284833          	xor	a6,a6,sp
    80000938:	010173b3          	and	t2,sp,a6
    8000093c:	0022ebb3          	or	s7,t0,sp
    80000940:	0040006f          	j	80000944 <reg_dump>

0000000080000944 <reg_dump>:
    80000944:	00001097          	auipc	ra,0x1
    80000948:	dbc08093          	addi	ra,ra,-580 # 80001700 <loop_count>
    8000094c:	0000a103          	lw	sp,0(ra)
    80000950:	fff10193          	addi	gp,sp,-1
    80000954:	0030a023          	sw	gp,0(ra)
    80000958:	840118e3          	bnez	sp,800001a8 <pseg_0>
    8000095c:	00001097          	auipc	ra,0x1
    80000960:	8a408093          	addi	ra,ra,-1884 # 80001200 <begin_signature>
    80000964:	0000b023          	sd	zero,0(ra)
    80000968:	0020b823          	sd	sp,16(ra)
    8000096c:	0030bc23          	sd	gp,24(ra)
    80000970:	0240b023          	sd	tp,32(ra)
    80000974:	0250b423          	sd	t0,40(ra)
    80000978:	0270bc23          	sd	t2,56(ra)
    8000097c:	0480b023          	sd	s0,64(ra)
    80000980:	04a0b823          	sd	a0,80(ra)
    80000984:	04b0bc23          	sd	a1,88(ra)
    80000988:	06d0b423          	sd	a3,104(ra)
    8000098c:	06e0b823          	sd	a4,112(ra)
    80000990:	06f0bc23          	sd	a5,120(ra)
    80000994:	0900b023          	sd	a6,128(ra)
    80000998:	0910b423          	sd	a7,136(ra)
    8000099c:	0920b823          	sd	s2,144(ra)
    800009a0:	0930bc23          	sd	s3,152(ra)
    800009a4:	0b50b423          	sd	s5,168(ra)
    800009a8:	0b60b823          	sd	s6,176(ra)
    800009ac:	0b70bc23          	sd	s7,184(ra)
    800009b0:	0d80b023          	sd	s8,192(ra)
    800009b4:	0db0bc23          	sd	s11,216(ra)
    800009b8:	0fc0b023          	sd	t3,224(ra)
    800009bc:	0fe0b823          	sd	t5,240(ra)
    800009c0:	0ff0bc23          	sd	t6,248(ra)
    800009c4:	0180006f          	j	800009dc <test_end>

00000000800009c8 <crash_forward>:
    800009c8:	0ff0000f          	fence
    800009cc:	00018063          	beqz	gp,800009cc <crash_forward+0x4>
    800009d0:	00119193          	slli	gp,gp,0x1
    800009d4:	0011e193          	ori	gp,gp,1
    800009d8:	00000073          	ecall

00000000800009dc <test_end>:
    800009dc:	0ff0000f          	fence
    800009e0:	00100193          	li	gp,1
    800009e4:	00000073          	ecall
    800009e8:	c0001073          	unimp

Disassembly of section .tohost:

0000000080001000 <tohost>:
	...

0000000080001040 <fromhost>:
	...
