
test.elf:     file format elf64-littleriscv


Disassembly of section .text.init:

0000000080000000 <_start>:
    80000000:	0580006f          	j	80000058 <reset_vector>

0000000080000004 <trap_vector>:
    80000004:	34202f73          	csrr	t5,mcause
    80000008:	00800f93          	li	t6,8
    8000000c:	05ff0063          	beq	t5,t6,8000004c <write_tohost>
    80000010:	00900f93          	li	t6,9
    80000014:	03ff0c63          	beq	t5,t6,8000004c <write_tohost>
    80000018:	00b00f93          	li	t6,11
    8000001c:	03ff0863          	beq	t5,t6,8000004c <write_tohost>
    80000020:	00000f13          	li	t5,0
    80000024:	000f0463          	beqz	t5,8000002c <trap_vector+0x28>
    80000028:	000f0067          	jr	t5
    8000002c:	34202f73          	csrr	t5,mcause
    80000030:	000f5463          	bgez	t5,80000038 <handle_exception>
    80000034:	0140006f          	j	80000048 <other_exception>

0000000080000038 <handle_exception>:
    80000038:	34102e73          	csrr	t3,mepc
    8000003c:	004e0e13          	addi	t3,t3,4
    80000040:	341e1073          	csrw	mepc,t3
    80000044:	30200073          	mret

0000000080000048 <other_exception>:
    80000048:	5391e193          	ori	gp,gp,1337

000000008000004c <write_tohost>:
    8000004c:	00001f17          	auipc	t5,0x1
    80000050:	fa3f2a23          	sw	gp,-76(t5) # 80001000 <tohost>
    80000054:	ff9ff06f          	j	8000004c <write_tohost>

0000000080000058 <reset_vector>:
    80000058:	f1402573          	csrr	a0,mhartid
    8000005c:	00051063          	bnez	a0,8000005c <reset_vector+0x4>
    80000060:	00000297          	auipc	t0,0x0
    80000064:	01028293          	addi	t0,t0,16 # 80000070 <reset_vector+0x18>
    80000068:	30529073          	csrw	mtvec,t0
    8000006c:	18005073          	csrwi	satp,0
    80000070:	00000297          	auipc	t0,0x0
    80000074:	01c28293          	addi	t0,t0,28 # 8000008c <reset_vector+0x34>
    80000078:	30529073          	csrw	mtvec,t0
    8000007c:	fff00293          	li	t0,-1
    80000080:	3b029073          	csrw	pmpaddr0,t0
    80000084:	01f00293          	li	t0,31
    80000088:	3a029073          	csrw	pmpcfg0,t0
    8000008c:	00000297          	auipc	t0,0x0
    80000090:	01828293          	addi	t0,t0,24 # 800000a4 <reset_vector+0x4c>
    80000094:	30529073          	csrw	mtvec,t0
    80000098:	30205073          	csrwi	medeleg,0
    8000009c:	30305073          	csrwi	mideleg,0
    800000a0:	30405073          	csrwi	mie,0
    800000a4:	00000193          	li	gp,0
    800000a8:	00000297          	auipc	t0,0x0
    800000ac:	f5c28293          	addi	t0,t0,-164 # 80000004 <trap_vector>
    800000b0:	30529073          	csrw	mtvec,t0
    800000b4:	00100513          	li	a0,1
    800000b8:	01f51513          	slli	a0,a0,0x1f
    800000bc:	00055863          	bgez	a0,800000cc <reset_vector+0x74>
    800000c0:	0ff0000f          	fence
    800000c4:	00100193          	li	gp,1
    800000c8:	00000073          	ecall
    800000cc:	00000293          	li	t0,0
    800000d0:	00028e63          	beqz	t0,800000ec <reset_vector+0x94>
    800000d4:	10529073          	csrw	stvec,t0
    800000d8:	0000b2b7          	lui	t0,0xb
    800000dc:	1092829b          	addiw	t0,t0,265
    800000e0:	30229073          	csrw	medeleg,t0
    800000e4:	30202373          	csrr	t1,medeleg
    800000e8:	f66290e3          	bne	t0,t1,80000048 <other_exception>
    800000ec:	30005073          	csrwi	mstatus,0
    800000f0:	00000297          	auipc	t0,0x0
    800000f4:	01428293          	addi	t0,t0,20 # 80000104 <reset_vector+0xac>
    800000f8:	34129073          	csrw	mepc,t0
    800000fc:	f1402573          	csrr	a0,mhartid
    80000100:	30200073          	mret
    80000104:	0180006f          	j	8000011c <test_start>

0000000080000108 <crash_backward>:
    80000108:	0ff0000f          	fence
    8000010c:	00018063          	beqz	gp,8000010c <crash_backward+0x4>
    80000110:	00119193          	slli	gp,gp,0x1
    80000114:	0011e193          	ori	gp,gp,1
    80000118:	00000073          	ecall

000000008000011c <test_start>:
    8000011c:	00001f97          	auipc	t6,0x1
    80000120:	fe4f8f93          	addi	t6,t6,-28 # 80001100 <hidden_data>
    80000124:	000fb003          	ld	zero,0(t6)
    80000128:	008fb083          	ld	ra,8(t6)
    8000012c:	010fb103          	ld	sp,16(t6)
    80000130:	018fb183          	ld	gp,24(t6)
    80000134:	020fb203          	ld	tp,32(t6)
    80000138:	028fb283          	ld	t0,40(t6)
    8000013c:	030fb303          	ld	t1,48(t6)
    80000140:	038fb383          	ld	t2,56(t6)
    80000144:	040fb403          	ld	s0,64(t6)
    80000148:	048fb483          	ld	s1,72(t6)
    8000014c:	050fb503          	ld	a0,80(t6)
    80000150:	058fb583          	ld	a1,88(t6)
    80000154:	060fb603          	ld	a2,96(t6)
    80000158:	068fb683          	ld	a3,104(t6)
    8000015c:	070fb703          	ld	a4,112(t6)
    80000160:	078fb783          	ld	a5,120(t6)
    80000164:	080fb803          	ld	a6,128(t6)
    80000168:	088fb883          	ld	a7,136(t6)
    8000016c:	090fb903          	ld	s2,144(t6)
    80000170:	098fb983          	ld	s3,152(t6)
    80000174:	0a0fba03          	ld	s4,160(t6)
    80000178:	0a8fba83          	ld	s5,168(t6)
    8000017c:	0b0fbb03          	ld	s6,176(t6)
    80000180:	0b8fbb83          	ld	s7,184(t6)
    80000184:	0c0fbc03          	ld	s8,192(t6)
    80000188:	0c8fbc83          	ld	s9,200(t6)
    8000018c:	0d0fbd03          	ld	s10,208(t6)
    80000190:	0d8fbd83          	ld	s11,216(t6)
    80000194:	0e0fbe03          	ld	t3,224(t6)
    80000198:	0e8fbe83          	ld	t4,232(t6)
    8000019c:	0f0fbf03          	ld	t5,240(t6)
    800001a0:	0f8fbf83          	ld	t6,248(t6)
    800001a4:	0040006f          	j	800001a8 <pseg_0>

00000000800001a8 <pseg_0>:
    800001a8:	80200793          	li	a5,-2046
    800001ac:	01a5d3bb          	srlw	t2,a1,s10
    800001b0:	00000f93          	li	t6,0
    800001b4:	00d6d133          	srl	sp,a3,a3
    800001b8:	039cf633          	remu	a2,s9,s9
    800001bc:	63c00313          	li	t1,1596
    800001c0:	c8f18293          	addi	t0,gp,-881 # 80001b9f <_end+0x48f>
    800001c4:	58b00113          	li	sp,1419
    800001c8:	02f7d233          	divu	tp,a5,a5
    800001cc:	cbf00893          	li	a7,-833
    800001d0:	fd600993          	li	s3,-42
    800001d4:	e8800393          	li	t2,-376
    800001d8:	00100a13          	li	s4,1
    800001dc:	9ff29da3          	sh	t6,-1541(t0)
    800001e0:	39100c13          	li	s8,913
    800001e4:	03fa1a13          	slli	s4,s4,0x3f
    800001e8:	d5300e13          	li	t3,-685
    800001ec:	00000713          	li	a4,0
    800001f0:	00001417          	auipc	s0,0x1
    800001f4:	43840413          	addi	s0,s0,1080 # 80001628 <test_memory+0x328>
    800001f8:	fff00d13          	li	s10,-1
    800001fc:	7eef9463          	bne	t6,a4,800009e4 <crash_forward>
    80000200:	00713633          	sltu	a2,sp,t2
    80000204:	49d00913          	li	s2,1181
    80000208:	014d4d33          	xor	s10,s10,s4
    8000020c:	00962fb3          	slt	t6,a2,s1
    80000210:	67b00813          	li	a6,1659
    80000214:	02637cbb          	remuw	s9,t1,t1
    80000218:	01adf4b3          	and	s1,s11,s10
    8000021c:	12280593          	addi	a1,a6,290
    80000220:	00001f17          	auipc	t5,0x1
    80000224:	e5cf0f13          	addi	t5,t5,-420 # 8000107c <fromhost+0x3c>
    80000228:	0144e1b3          	or	gp,s1,s4
    8000022c:	00001697          	auipc	a3,0x1
    80000230:	0c468693          	addi	a3,a3,196 # 800012f0 <reg_x30_output>
    80000234:	293f4083          	lbu	ra,659(t5)
    80000238:	012c1dbb          	sllw	s11,s8,s2
    8000023c:	00100113          	li	sp,1
    80000240:	8f598b13          	addi	s6,s3,-1803
    80000244:	03f11113          	slli	sp,sp,0x3f
    80000248:	3a000f93          	li	t6,928
    8000024c:	7f500a93          	li	s5,2037
    80000250:	035e4533          	div	a0,t3,s5
    80000254:	793b5863          	bge	s6,s3,800009e4 <crash_forward>
    80000258:	b1000793          	li	a5,-1264
    8000025c:	0318fbb3          	remu	s7,a7,a7
    80000260:	00001197          	auipc	gp,0x1
    80000264:	36a18193          	addi	gp,gp,874 # 800015ca <test_memory+0x2ca>
    80000268:	b7400393          	li	t2,-1164
    8000026c:	00001b17          	auipc	s6,0x1
    80000270:	2a1b0b13          	addi	s6,s6,673 # 8000150d <test_memory+0x20d>
    80000274:	0841d483          	lhu	s1,132(gp) # 80001f94 <__global_pointer$+0x84>
    80000278:	48e00d93          	li	s11,1166
    8000027c:	00088813          	mv	a6,a7
    80000280:	fff00a13          	li	s4,-1
    80000284:	03bfe733          	rem	a4,t6,s11
    80000288:	00080a93          	mv	s5,a6
    8000028c:	ef700493          	li	s1,-265
    80000290:	00778d33          	add	s10,a5,t2
    80000294:	e8d44e83          	lbu	t4,-371(s0)
    80000298:	1c469123          	sh	tp,450(a3)
    8000029c:	002a4a33          	xor	s4,s4,sp
    800002a0:	00100893          	li	a7,1
    800002a4:	92618d93          	addi	s11,gp,-1754 # 80001836 <_end+0x126>
    800002a8:	5ec00193          	li	gp,1516
    800002ac:	00949733          	sll	a4,s1,s1
    800002b0:	00100613          	li	a2,1
    800002b4:	03f61613          	slli	a2,a2,0x3f
    800002b8:	014772b3          	and	t0,a4,s4
    800002bc:	0231c5b3          	div	a1,gp,gp
    800002c0:	03f89893          	slli	a7,a7,0x3f
    800002c4:	4189d59b          	sraiw	a1,s3,0x18
    800002c8:	fff00513          	li	a0,-1
    800002cc:	fff00313          	li	t1,-1
    800002d0:	977bc713          	xori	a4,s7,-1673
    800002d4:	00100413          	li	s0,1
    800002d8:	f615b093          	sltiu	ra,a1,-159
    800002dc:	00c34333          	xor	t1,t1,a2
    800002e0:	41bb80b3          	sub	ra,s7,s11
    800002e4:	01154533          	xor	a0,a0,a7
    800002e8:	03f41413          	slli	s0,s0,0x3f
    800002ec:	48400f93          	li	t6,1156
    800002f0:	1d7b6b83          	lwu	s7,471(s6)
    800002f4:	41ff81b3          	sub	gp,t6,t6
    800002f8:	dacdad23          	sw	a2,-582(s11)
    800002fc:	fff00d13          	li	s10,-1
    80000300:	008d4d33          	xor	s10,s10,s0
    80000304:	b6a18c13          	addi	s8,gp,-1174 # 80001a7a <_end+0x36a>
    80000308:	b36c1e83          	lh	t4,-1226(s8)
    8000030c:	6d581c63          	bne	a6,s5,800009e4 <crash_forward>
    80000310:	01aefcb3          	and	s9,t4,s10
    80000314:	d1618b93          	addi	s7,gp,-746 # 80001c26 <_end+0x516>
    80000318:	8bdbc583          	lbu	a1,-1859(s7)
    8000031c:	0022e233          	or	tp,t0,sp
    80000320:	92718093          	addi	ra,gp,-1753 # 80001837 <_end+0x127>
    80000324:	0064ff33          	and	t5,s1,t1
    80000328:	012496bb          	sllw	a3,s1,s2
    8000032c:	000d8493          	mv	s1,s11
    80000330:	6a525a63          	bge	tp,t0,800009e4 <crash_forward>
    80000334:	d050eb03          	lwu	s6,-763(ra)
    80000338:	0048519b          	srliw	gp,a6,0x4
    8000033c:	00cae933          	or	s2,s5,a2
    80000340:	008563b3          	or	t2,a0,s0
    80000344:	c4818c13          	addi	s8,gp,-952 # 80001b58 <_end+0x448>
    80000348:	a86c4803          	lbu	a6,-1402(s8)
    8000034c:	00048793          	mv	a5,s1
    80000350:	da7cfce3          	bgeu	s9,t2,80000108 <crash_backward>
    80000354:	00a2f9b3          	and	s3,t0,a0
    80000358:	41550fbb          	subw	t6,a0,s5
    8000035c:	b9d00d93          	li	s11,-1123
    80000360:	821d8713          	addi	a4,s11,-2015
    80000364:	01166e33          	or	t3,a2,a7
    80000368:	e9c00f13          	li	t5,-356
    8000036c:	e5c18193          	addi	gp,gp,-420 # 80001d6c <_end+0x65c>
    80000370:	d02f861b          	addiw	a2,t6,-766
    80000374:	028463b3          	rem	t2,s0,s0
    80000378:	01ef54bb          	srlw	s1,t5,t5
    8000037c:	10800093          	li	ra,264
    80000380:	67c9f263          	bgeu	s3,t3,800009e4 <crash_forward>
    80000384:	10500693          	li	a3,261
    80000388:	40d0dcbb          	sraw	s9,ra,a3
    8000038c:	00100993          	li	s3,1
    80000390:	02611693          	slli	a3,sp,0x26
    80000394:	3bc00113          	li	sp,956
    80000398:	00100c13          	li	s8,1
    8000039c:	038c7f33          	remu	t5,s8,s8
    800003a0:	03f99993          	slli	s3,s3,0x3f
    800003a4:	00001817          	auipc	a6,0x1
    800003a8:	22680813          	addi	a6,a6,550 # 800015ca <test_memory+0x2ca>
    800003ac:	58500513          	li	a0,1413
    800003b0:	64700593          	li	a1,1607
    800003b4:	00b14b33          	xor	s6,sp,a1
    800003b8:	03293e33          	mulhu	t3,s2,s2
    800003bc:	c7b18893          	addi	a7,gp,-901 # 80001b8b <_end+0x47b>
    800003c0:	dd418413          	addi	s0,gp,-556 # 80001ce4 <_end+0x5d4>
    800003c4:	85e19283          	lh	t0,-1954(gp) # 8000176e <_end+0x5e>
    800003c8:	b8518e93          	addi	t4,gp,-1147 # 80001a95 <_end+0x385>
    800003cc:	9e542a23          	sw	t0,-1548(s0)
    800003d0:	d3d00a13          	li	s4,-707
    800003d4:	a7e88483          	lb	s1,-1410(a7)
    800003d8:	82500693          	li	a3,-2011
    800003dc:	d5f68113          	addi	sp,a3,-673
    800003e0:	03fc1c13          	slli	s8,s8,0x3f
    800003e4:	6d600d13          	li	s10,1750
    800003e8:	01452633          	slt	a2,a0,s4
    800003ec:	fff00d93          	li	s11,-1
    800003f0:	a3c18193          	addi	gp,gp,-1476 # 8000194c <_end+0x23c>
    800003f4:	00001497          	auipc	s1,0x1
    800003f8:	90448493          	addi	s1,s1,-1788 # 80000cf8 <test_end+0x300>
    800003fc:	33d00c93          	li	s9,829
    80000400:	11282203          	lw	tp,274(a6)
    80000404:	019ccf33          	xor	t5,s9,s9
    80000408:	fff00313          	li	t1,-1
    8000040c:	01834333          	xor	t1,t1,s8
    80000410:	006f7bb3          	and	s7,t5,t1
    80000414:	019c90b3          	sll	ra,s9,s9
    80000418:	6b04c283          	lbu	t0,1712(s1)
    8000041c:	018beab3          	or	s5,s7,s8
    80000420:	a321ba23          	sd	s2,-1484(gp) # 80001944 <_end+0x234>
    80000424:	013dcdb3          	xor	s11,s11,s3
    80000428:	01bef3b3          	and	t2,t4,s11
    8000042c:	96118593          	addi	a1,gp,-1695 # 80001871 <_end+0x161>
    80000430:	00001897          	auipc	a7,0x1
    80000434:	09388893          	addi	a7,a7,147 # 800014c3 <test_memory+0x1c3>
    80000438:	00e896a3          	sh	a4,13(a7)
    8000043c:	fde00793          	li	a5,-34
    80000440:	01376733          	or	a4,a4,s3
    80000444:	02fd6fbb          	remw	t6,s10,a5
    80000448:	b7d59e03          	lh	t3,-1155(a1)
    8000044c:	c4beb903          	ld	s2,-949(t4)
    80000450:	00001f17          	auipc	t5,0x1
    80000454:	bc2f0f13          	addi	t5,t5,-1086 # 80001012 <tohost+0x12>
    80000458:	ca100193          	li	gp,-863
    8000045c:	00db8833          	add	a6,s7,a3
    80000460:	01f4ccb3          	xor	s9,s1,t6
    80000464:	332f3723          	sd	s2,814(t5)
    80000468:	023190b3          	mulh	ra,gp,gp
    8000046c:	00722c33          	slt	s8,tp,t2
    80000470:	00001417          	auipc	s0,0x1
    80000474:	be140413          	addi	s0,s0,-1055 # 80001051 <fromhost+0x11>
    80000478:	41970bbb          	subw	s7,a4,s9
    8000047c:	41700893          	li	a7,1047
    80000480:	0118db33          	srl	s6,a7,a7
    80000484:	4ad00593          	li	a1,1197
    80000488:	af418d93          	addi	s11,gp,-1292 # 80001a04 <_end+0x2f4>
    8000048c:	37a58f93          	addi	t6,a1,890
    80000490:	ecc00693          	li	a3,-308
    80000494:	0052d333          	srl	t1,t0,t0
    80000498:	00001e17          	auipc	t3,0x1
    8000049c:	a51e0e13          	addi	t3,t3,-1455 # 80000ee9 <test_end+0x4f1>
    800004a0:	00001e97          	auipc	t4,0x1
    800004a4:	01de8e93          	addi	t4,t4,29 # 800014bd <test_memory+0x1bd>
    800004a8:	02d6cabb          	divw	s5,a3,a3
    800004ac:	00001717          	auipc	a4,0x1
    800004b0:	09170713          	addi	a4,a4,145 # 8000153d <test_memory+0x23d>
    800004b4:	00001d17          	auipc	s10,0x1
    800004b8:	c76d0d13          	addi	s10,s10,-906 # 8000112a <reg_x5_init+0x2>
    800004bc:	8a400c13          	li	s8,-1884
    800004c0:	3bc00913          	li	s2,956
    800004c4:	a9418a13          	addi	s4,gp,-1388 # 800019a4 <_end+0x294>
    800004c8:	4ade0103          	lb	sp,1197(t3)
    800004cc:	015a8cbb          	addw	s9,s5,s5
    800004d0:	61600b13          	li	s6,1558
    800004d4:	03ef01bb          	mulw	gp,t5,t5
    800004d8:	e92eb9a3          	sd	s2,-365(t4)
    800004dc:	00090513          	mv	a0,s2
    800004e0:	56d40123          	sb	a3,1378(s0)
    800004e4:	2e6d3483          	ld	s1,742(s10)
    800004e8:	1e000113          	li	sp,480
    800004ec:	00001817          	auipc	a6,0x1
    800004f0:	b0c80813          	addi	a6,a6,-1268 # 80000ff8 <test_end+0x600>
    800004f4:	08370e23          	sb	gp,156(a4)
    800004f8:	036c1bb3          	mulh	s7,s8,s6
    800004fc:	3a800613          	li	a2,936
    80000500:	00001097          	auipc	ra,0x1
    80000504:	b9908093          	addi	ra,ra,-1127 # 80001099 <fromhost+0x59>
    80000508:	02c929b3          	mulhsu	s3,s2,a2
    8000050c:	022105bb          	mulw	a1,sp,sp
    80000510:	e3300f93          	li	t6,-461
    80000514:	cd6f8a93          	addi	s5,t6,-810
    80000518:	40709883          	lh	a7,1031(ra)
    8000051c:	e1500713          	li	a4,-491
    80000520:	02e76633          	rem	a2,a4,a4
    80000524:	00050293          	mv	t0,a0
    80000528:	02d68233          	mul	tp,a3,a3
    8000052c:	b3cdb783          	ld	a5,-1220(s11)
    80000530:	d3ca4383          	lbu	t2,-708(s4)
    80000534:	34500b93          	li	s7,837
    80000538:	00001417          	auipc	s0,0x1
    8000053c:	12b40413          	addi	s0,s0,299 # 80001663 <test_memory+0x363>
    80000540:	00000313          	li	t1,0
    80000544:	664804a3          	sb	tp,1641(a6)
    80000548:	cf844483          	lbu	s1,-776(s0)
    8000054c:	e1300993          	li	s3,-493
    80000550:	00000613          	li	a2,0
    80000554:	00000f13          	li	t5,0
    80000558:	66c00e93          	li	t4,1644
    8000055c:	8cb00893          	li	a7,-1845
    80000560:	b5818c93          	addi	s9,gp,-1192 # 80001a68 <_end+0x358>
    80000564:	b7600b13          	li	s6,-1162
    80000568:	c7ccee03          	lwu	t3,-900(s9)
    8000056c:	dd200913          	li	s2,-558
    80000570:	0339c13b          	divw	sp,s3,s3
    80000574:	88090c13          	addi	s8,s2,-1920
    80000578:	00060713          	mv	a4,a2
    8000057c:	b8e616e3          	bne	a2,a4,80000108 <crash_backward>
    80000580:	411880bb          	subw	ra,a7,a7
    80000584:	016ebd33          	sltu	s10,t4,s6
    80000588:	0d000193          	li	gp,208
    8000058c:	01297233          	and	tp,s2,s2
    80000590:	00001f17          	auipc	t5,0x1
    80000594:	eb4f0f13          	addi	t5,t5,-332 # 80001444 <test_memory+0x144>
    80000598:	29560a93          	addi	s5,a2,661
    8000059c:	00c65333          	srl	t1,a2,a2
    800005a0:	19500693          	li	a3,405
    800005a4:	00001397          	auipc	t2,0x1
    800005a8:	10d38393          	addi	t2,t2,269 # 800016b1 <test_memory+0x3b1>
    800005ac:	00d688b3          	add	a7,a3,a3
    800005b0:	ace00513          	li	a0,-1330
    800005b4:	00000e93          	li	t4,0
    800005b8:	003ba5b3          	slt	a1,s7,gp
    800005bc:	00d69833          	sll	a6,a3,a3
    800005c0:	132f1523          	sh	s2,298(t5)
    800005c4:	00001817          	auipc	a6,0x1
    800005c8:	d6480813          	addi	a6,a6,-668 # 80001328 <test_memory+0x28>
    800005cc:	02a57433          	remu	s0,a0,a0
    800005d0:	daf3a1a3          	sw	a5,-605(t2)
    800005d4:	c4e00793          	li	a5,-946
    800005d8:	00000493          	li	s1,0
    800005dc:	00100d93          	li	s11,1
    800005e0:	96d18f13          	addi	t5,gp,-1683 # 8000187d <_end+0x16d>
    800005e4:	0294a1b3          	mulhsu	gp,s1,s1
    800005e8:	d0900713          	li	a4,-759
    800005ec:	00d6c933          	xor	s2,a3,a3
    800005f0:	b7800413          	li	s0,-1160
    800005f4:	02f7b2b3          	mulhu	t0,a5,a5
    800005f8:	b17bc8e3          	blt	s7,s7,80000108 <crash_backward>
    800005fc:	50500513          	li	a0,1285
    80000600:	5a500b93          	li	s7,1445
    80000604:	00100613          	li	a2,1
    80000608:	01ffcd33          	xor	s10,t6,t6
    8000060c:	03f61613          	slli	a2,a2,0x3f
    80000610:	00e73e33          	sltu	t3,a4,a4
    80000614:	15900913          	li	s2,345
    80000618:	412901b3          	sub	gp,s2,s2
    8000061c:	03fd9d93          	slli	s11,s11,0x3f
    80000620:	ca3f27a3          	sw	gp,-849(t5)
    80000624:	558b8593          	addi	a1,s7,1368
    80000628:	022cf7b3          	remu	a5,s9,sp
    8000062c:	15280883          	lb	a7,338(a6)
    80000630:	00100713          	li	a4,1
    80000634:	fff00993          	li	s3,-1
    80000638:	03f71713          	slli	a4,a4,0x3f
    8000063c:	7c200a93          	li	s5,1986
    80000640:	00001917          	auipc	s2,0x1
    80000644:	d4390913          	addi	s2,s2,-701 # 80001383 <test_memory+0x83>
    80000648:	00001897          	auipc	a7,0x1
    8000064c:	a5b88893          	addi	a7,a7,-1445 # 800010a3 <fromhost+0x63>
    80000650:	01400f13          	li	t5,20
    80000654:	2c088083          	lb	ra,704(a7)
    80000658:	01b9c9b3          	xor	s3,s3,s11
    8000065c:	fff00d13          	li	s10,-1
    80000660:	00000e97          	auipc	t4,0x0
    80000664:	60be8e93          	addi	t4,t4,1547 # 80000c6b <test_end+0x273>
    80000668:	0137fcb3          	and	s9,a5,s3
    8000066c:	00ed4d33          	xor	s10,s10,a4
    80000670:	719ee883          	lwu	a7,1817(t4)
    80000674:	85000c13          	li	s8,-1968
    80000678:	36bbf663          	bgeu	s7,a1,800009e4 <crash_forward>
    8000067c:	01bcefb3          	or	t6,s9,s11
    80000680:	3eb00313          	li	t1,1003
    80000684:	59200493          	li	s1,1426
    80000688:	1bb91e03          	lh	t3,443(s2)
    8000068c:	01a9f2b3          	and	t0,s3,s10
    80000690:	2a200093          	li	ra,674
    80000694:	0214f7bb          	remuw	a5,s1,ra
    80000698:	00ebe1b3          	or	gp,s7,a4
    8000069c:	02633233          	mulhu	tp,t1,t1
    800006a0:	41ee8bb3          	sub	s7,t4,t5
    800006a4:	2b1f0813          	addi	a6,t5,689
    800006a8:	fff00a13          	li	s4,-1
    800006ac:	00ca4a33          	xor	s4,s4,a2
    800006b0:	00a413b3          	sll	t2,s0,a0
    800006b4:	33fcc863          	blt	s9,t6,800009e4 <crash_forward>
    800006b8:	330f5663          	bge	t5,a6,800009e4 <crash_forward>
    800006bc:	00100b93          	li	s7,1
    800006c0:	01bdd5bb          	srlw	a1,s11,s11
    800006c4:	00001497          	auipc	s1,0x1
    800006c8:	ab748493          	addi	s1,s1,-1353 # 8000117b <reg_x15_init+0x3>
    800006cc:	43b49783          	lh	a5,1083(s1)
    800006d0:	00001f17          	auipc	t5,0x1
    800006d4:	0dcf0f13          	addi	t5,t5,220 # 800017ac <_end+0x9c>
    800006d8:	00001d17          	auipc	s10,0x1
    800006dc:	839d0d13          	addi	s10,s10,-1991 # 80000f11 <test_end+0x519>
    800006e0:	af797513          	andi	a0,s2,-1289
    800006e4:	00100713          	li	a4,1
    800006e8:	d80f6c83          	lwu	s9,-640(t5)
    800006ec:	01427b33          	and	s6,tp,s4
    800006f0:	038ac6b3          	div	a3,s5,s8
    800006f4:	00cb6133          	or	sp,s6,a2
    800006f8:	03fb9b93          	slli	s7,s7,0x3f
    800006fc:	00000917          	auipc	s2,0x0
    80000700:	7ee90913          	addi	s2,s2,2030 # 80000eea <test_end+0x4f2>
    80000704:	fd700f93          	li	t6,-41
    80000708:	fe900993          	li	s3,-23
    8000070c:	fff00193          	li	gp,-1
    80000710:	73b00213          	li	tp,1851
    80000714:	0171c1b3          	xor	gp,gp,s7
    80000718:	003bf2b3          	and	t0,s7,gp
    8000071c:	017c68b3          	or	a7,s8,s7
    80000720:	036b4433          	div	s0,s6,s6
    80000724:	406d37a3          	sd	t1,1039(s10)
    80000728:	004993b3          	sll	t2,s3,tp
    8000072c:	4fe96303          	lwu	t1,1278(s2)
    80000730:	01ff9e3b          	sllw	t3,t6,t6
    80000734:	03f71713          	slli	a4,a4,0x3f
    80000738:	fff00813          	li	a6,-1
    8000073c:	00e84833          	xor	a6,a6,a4
    80000740:	2b128263          	beq	t0,a7,800009e4 <crash_forward>
    80000744:	010c70b3          	and	ra,s8,a6
    80000748:	00e0edb3          	or	s11,ra,a4
    8000074c:	416b5833          	sra	a6,s6,s6
    80000750:	00100393          	li	t2,1
    80000754:	ca100e13          	li	t3,-863
    80000758:	00001197          	auipc	gp,0x1
    8000075c:	e6418193          	addi	gp,gp,-412 # 800015bc <test_memory+0x2bc>
    80000760:	c4418913          	addi	s2,gp,-956 # 80001b54 <_end+0x444>
    80000764:	79900f13          	li	t5,1945
    80000768:	00000a97          	auipc	s5,0x0
    8000076c:	3d3a8a93          	addi	s5,s5,979 # 80000b3b <test_end+0x143>
    80000770:	01ef52bb          	srlw	t0,t5,t5
    80000774:	84c93e83          	ld	t4,-1972(s2)
    80000778:	2f800493          	li	s1,760
    8000077c:	b3100813          	li	a6,-1231
    80000780:	03f39393          	slli	t2,t2,0x3f
    80000784:	00000117          	auipc	sp,0x0
    80000788:	6ca10113          	addi	sp,sp,1738 # 80000e4e <test_end+0x456>
    8000078c:	00001097          	auipc	ra,0x1
    80000790:	b7808093          	addi	ra,ra,-1160 # 80001304 <test_memory+0x4>
    80000794:	00001217          	auipc	tp,0x1
    80000798:	bdc20213          	addi	tp,tp,-1060 # 80001370 <test_memory+0x70>
    8000079c:	00c0d303          	lhu	t1,12(ra)
    800007a0:	00001d17          	auipc	s10,0x1
    800007a4:	aead0d13          	addi	s10,s10,-1302 # 8000128a <reg_x17_output+0x2>
    800007a8:	02000433          	mul	s0,zero,zero
    800007ac:	c3d18793          	addi	a5,gp,-963 # 80001b4d <_end+0x43d>
    800007b0:	3ebd0c03          	lb	s8,1003(s10)
    800007b4:	f341b603          	ld	a2,-204(gp) # 80001e44 <_end+0x734>
    800007b8:	fb600593          	li	a1,-74
    800007bc:	015a8433          	add	s0,s5,s5
    800007c0:	29922e23          	sw	s9,668(tp) # 29c <_start-0x7ffffd64>
    800007c4:	00000f17          	auipc	t5,0x0
    800007c8:	79bf0f13          	addi	t5,t5,1947 # 80000f5f <test_end+0x567>
    800007cc:	fff00c93          	li	s9,-1
    800007d0:	b4a78723          	sb	a0,-1202(a5)
    800007d4:	58700093          	li	ra,1415
    800007d8:	00001c17          	auipc	s8,0x1
    800007dc:	af4c0c13          	addi	s8,s8,-1292 # 800012cc <reg_x25_output+0x4>
    800007e0:	060c6e83          	lwu	t4,96(s8)
    800007e4:	7fca93a3          	sh	t3,2023(s5)
    800007e8:	00000d17          	auipc	s10,0x0
    800007ec:	6c6d0d13          	addi	s10,s10,1734 # 80000eae <test_end+0x4b6>
    800007f0:	00c65533          	srl	a0,a2,a2
    800007f4:	6ea13a03          	ld	s4,1770(sp)
    800007f8:	e1f00f93          	li	t6,-481
    800007fc:	029e46bb          	divw	a3,t3,s1
    80000800:	007cccb3          	xor	s9,s9,t2
    80000804:	0191fdb3          	and	s11,gp,s9
    80000808:	716d2b23          	sw	s6,1814(s10)
    8000080c:	a3518a13          	addi	s4,gp,-1483 # 80001945 <_end+0x235>
    80000810:	02b5eb33          	rem	s6,a1,a1
    80000814:	d3500113          	li	sp,-715
    80000818:	412407b3          	sub	a5,s0,s2
    8000081c:	fc800613          	li	a2,-56
    80000820:	02637c3b          	remuw	s8,t1,t1
    80000824:	00630eb3          	add	t4,t1,t1
    80000828:	03ffebb3          	rem	s7,t6,t6
    8000082c:	ef200293          	li	t0,-270
    80000830:	dd800a93          	li	s5,-552
    80000834:	5f1f1903          	lh	s2,1521(t5)
    80000838:	3cf00213          	li	tp,975
    8000083c:	8aa00d13          	li	s10,-1878
    80000840:	015101bb          	addw	gp,sp,s5
    80000844:	20500413          	li	s0,517
    80000848:	a43a3483          	ld	s1,-1469(s4)
    8000084c:	0084193b          	sllw	s2,s0,s0
    80000850:	41df8733          	sub	a4,t6,t4
    80000854:	00509333          	sll	t1,ra,t0
    80000858:	00000f17          	auipc	t5,0x0
    8000085c:	3a0f0f13          	addi	t5,t5,928 # 80000bf8 <test_end+0x200>
    80000860:	01a24e33          	xor	t3,tp,s10
    80000864:	d2260513          	addi	a0,a2,-734
    80000868:	732f1a83          	lh	s5,1842(t5)
    8000086c:	01bddfbb          	srlw	t6,s11,s11
    80000870:	fd280993          	addi	s3,a6,-46
    80000874:	27e00093          	li	ra,638
    80000878:	69b00b93          	li	s7,1691
    8000087c:	02109ab3          	mulh	s5,ra,ra
    80000880:	00100493          	li	s1,1
    80000884:	417bd1b3          	sra	gp,s7,s7
    80000888:	ac718713          	addi	a4,gp,-1337 # 800019d7 <_end+0x2c7>
    8000088c:	007de8b3          	or	a7,s11,t2
    80000890:	00001217          	auipc	tp,0x1
    80000894:	f4c20213          	addi	tp,tp,-180 # 800017dc <_end+0xcc>
    80000898:	35c00593          	li	a1,860
    8000089c:	a6b00c13          	li	s8,-1429
    800008a0:	00000793          	li	a5,0
    800008a4:	bd5720a3          	sw	s5,-1087(a4)
    800008a8:	d8b24f83          	lbu	t6,-629(tp) # fffffffffffffd8b <__global_pointer$+0xffffffff7fffde7b>
    800008ac:	dc08031b          	addiw	t1,a6,-576
    800008b0:	0d300413          	li	s0,211
    800008b4:	cfcc0e93          	addi	t4,s8,-772
    800008b8:	03f49493          	slli	s1,s1,0x3f
    800008bc:	01d1d0bb          	srlw	ra,gp,t4
    800008c0:	fff00613          	li	a2,-1
    800008c4:	00000113          	li	sp,0
    800008c8:	41ec5733          	sra	a4,s8,t5
    800008cc:	a1000b93          	li	s7,-1520
    800008d0:	00100193          	li	gp,1
    800008d4:	03f19193          	slli	gp,gp,0x3f
    800008d8:	408402bb          	subw	t0,s0,s0
    800008dc:	00964633          	xor	a2,a2,s1
    800008e0:	02634533          	div	a0,t1,t1
    800008e4:	30300d13          	li	s10,771
    800008e8:	e7d00b13          	li	s6,-387
    800008ec:	00ce7a33          	and	s4,t3,a2
    800008f0:	00100913          	li	s2,1
    800008f4:	fff00c13          	li	s8,-1
    800008f8:	0165c6b3          	xor	a3,a1,s6
    800008fc:	03f91913          	slli	s2,s2,0x3f
    80000900:	003c4c33          	xor	s8,s8,gp
    80000904:	0377ff3b          	remuw	t5,a5,s7
    80000908:	fff00993          	li	s3,-1
    8000090c:	018870b3          	and	ra,a6,s8
    80000910:	009eee33          	or	t3,t4,s1
    80000914:	ff4e6a63          	bltu	t3,s4,80000108 <crash_backward>
    80000918:	0129c9b3          	xor	s3,s3,s2
    8000091c:	03ab8833          	mul	a6,s7,s10
    80000920:	b5e00413          	li	s0,-1186
    80000924:	0030eab3          	or	s5,ra,gp
    80000928:	35100393          	li	t2,849
    8000092c:	fc1aee63          	bltu	s5,ra,80000108 <crash_backward>
    80000930:	013af333          	and	t1,s5,s3
    80000934:	02747533          	remu	a0,s0,t2
    80000938:	01236233          	or	tp,t1,s2
    8000093c:	fc626663          	bltu	tp,t1,80000108 <crash_backward>
    80000940:	0040006f          	j	80000944 <reg_dump>

0000000080000944 <reg_dump>:
    80000944:	00001097          	auipc	ra,0x1
    80000948:	dbc08093          	addi	ra,ra,-580 # 80001700 <loop_count>
    8000094c:	0000a103          	lw	sp,0(ra)
    80000950:	fff10193          	addi	gp,sp,-1
    80000954:	0030a023          	sw	gp,0(ra)
    80000958:	840118e3          	bnez	sp,800001a8 <pseg_0>
    8000095c:	00001097          	auipc	ra,0x1
    80000960:	8a408093          	addi	ra,ra,-1884 # 80001200 <begin_signature>
    80000964:	0000b023          	sd	zero,0(ra)
    80000968:	0020b823          	sd	sp,16(ra)
    8000096c:	0030bc23          	sd	gp,24(ra)
    80000970:	0240b023          	sd	tp,32(ra)
    80000974:	0250b423          	sd	t0,40(ra)
    80000978:	0260b823          	sd	t1,48(ra)
    8000097c:	0270bc23          	sd	t2,56(ra)
    80000980:	0480b023          	sd	s0,64(ra)
    80000984:	0490b423          	sd	s1,72(ra)
    80000988:	04a0b823          	sd	a0,80(ra)
    8000098c:	04b0bc23          	sd	a1,88(ra)
    80000990:	06c0b023          	sd	a2,96(ra)
    80000994:	06d0b423          	sd	a3,104(ra)
    80000998:	06e0b823          	sd	a4,112(ra)
    8000099c:	06f0bc23          	sd	a5,120(ra)
    800009a0:	0900b023          	sd	a6,128(ra)
    800009a4:	0910b423          	sd	a7,136(ra)
    800009a8:	0920b823          	sd	s2,144(ra)
    800009ac:	0930bc23          	sd	s3,152(ra)
    800009b0:	0b40b023          	sd	s4,160(ra)
    800009b4:	0b50b423          	sd	s5,168(ra)
    800009b8:	0b60b823          	sd	s6,176(ra)
    800009bc:	0b70bc23          	sd	s7,184(ra)
    800009c0:	0d80b023          	sd	s8,192(ra)
    800009c4:	0d90b423          	sd	s9,200(ra)
    800009c8:	0da0b823          	sd	s10,208(ra)
    800009cc:	0db0bc23          	sd	s11,216(ra)
    800009d0:	0fc0b023          	sd	t3,224(ra)
    800009d4:	0fd0b423          	sd	t4,232(ra)
    800009d8:	0fe0b823          	sd	t5,240(ra)
    800009dc:	0ff0bc23          	sd	t6,248(ra)
    800009e0:	0180006f          	j	800009f8 <test_end>

00000000800009e4 <crash_forward>:
    800009e4:	0ff0000f          	fence
    800009e8:	00018063          	beqz	gp,800009e8 <crash_forward+0x4>
    800009ec:	00119193          	slli	gp,gp,0x1
    800009f0:	0011e193          	ori	gp,gp,1
    800009f4:	00000073          	ecall

00000000800009f8 <test_end>:
    800009f8:	0ff0000f          	fence
    800009fc:	00100193          	li	gp,1
    80000a00:	00000073          	ecall
    80000a04:	c0001073          	unimp
	...

Disassembly of section .tohost:

0000000080001000 <tohost>:
	...

0000000080001040 <fromhost>:
	...
