
test.elf:     file format elf64-littleriscv


Disassembly of section .text.init:

0000000080000000 <_start>:
    80000000:	0580006f          	j	80000058 <reset_vector>

0000000080000004 <trap_vector>:
    80000004:	34202f73          	csrr	t5,mcause
    80000008:	00800f93          	li	t6,8
    8000000c:	05ff0063          	beq	t5,t6,8000004c <write_tohost>
    80000010:	00900f93          	li	t6,9
    80000014:	03ff0c63          	beq	t5,t6,8000004c <write_tohost>
    80000018:	00b00f93          	li	t6,11
    8000001c:	03ff0863          	beq	t5,t6,8000004c <write_tohost>
    80000020:	00000f13          	li	t5,0
    80000024:	000f0463          	beqz	t5,8000002c <trap_vector+0x28>
    80000028:	000f0067          	jr	t5
    8000002c:	34202f73          	csrr	t5,mcause
    80000030:	000f5463          	bgez	t5,80000038 <handle_exception>
    80000034:	0140006f          	j	80000048 <other_exception>

0000000080000038 <handle_exception>:
    80000038:	34102e73          	csrr	t3,mepc
    8000003c:	004e0e13          	addi	t3,t3,4
    80000040:	341e1073          	csrw	mepc,t3
    80000044:	30200073          	mret

0000000080000048 <other_exception>:
    80000048:	5391e193          	ori	gp,gp,1337

000000008000004c <write_tohost>:
    8000004c:	00001f17          	auipc	t5,0x1
    80000050:	fa3f2a23          	sw	gp,-76(t5) # 80001000 <tohost>
    80000054:	ff9ff06f          	j	8000004c <write_tohost>

0000000080000058 <reset_vector>:
    80000058:	f1402573          	csrr	a0,mhartid
    8000005c:	00051063          	bnez	a0,8000005c <reset_vector+0x4>
    80000060:	00000297          	auipc	t0,0x0
    80000064:	01028293          	addi	t0,t0,16 # 80000070 <reset_vector+0x18>
    80000068:	30529073          	csrw	mtvec,t0
    8000006c:	18005073          	csrwi	satp,0
    80000070:	00000297          	auipc	t0,0x0
    80000074:	01c28293          	addi	t0,t0,28 # 8000008c <reset_vector+0x34>
    80000078:	30529073          	csrw	mtvec,t0
    8000007c:	fff00293          	li	t0,-1
    80000080:	3b029073          	csrw	pmpaddr0,t0
    80000084:	01f00293          	li	t0,31
    80000088:	3a029073          	csrw	pmpcfg0,t0
    8000008c:	00000297          	auipc	t0,0x0
    80000090:	01828293          	addi	t0,t0,24 # 800000a4 <reset_vector+0x4c>
    80000094:	30529073          	csrw	mtvec,t0
    80000098:	30205073          	csrwi	medeleg,0
    8000009c:	30305073          	csrwi	mideleg,0
    800000a0:	30405073          	csrwi	mie,0
    800000a4:	00000193          	li	gp,0
    800000a8:	00000297          	auipc	t0,0x0
    800000ac:	f5c28293          	addi	t0,t0,-164 # 80000004 <trap_vector>
    800000b0:	30529073          	csrw	mtvec,t0
    800000b4:	00100513          	li	a0,1
    800000b8:	01f51513          	slli	a0,a0,0x1f
    800000bc:	00055863          	bgez	a0,800000cc <reset_vector+0x74>
    800000c0:	0ff0000f          	fence
    800000c4:	00100193          	li	gp,1
    800000c8:	00000073          	ecall
    800000cc:	00000293          	li	t0,0
    800000d0:	00028e63          	beqz	t0,800000ec <reset_vector+0x94>
    800000d4:	10529073          	csrw	stvec,t0
    800000d8:	0000b2b7          	lui	t0,0xb
    800000dc:	1092829b          	addiw	t0,t0,265
    800000e0:	30229073          	csrw	medeleg,t0
    800000e4:	30202373          	csrr	t1,medeleg
    800000e8:	f66290e3          	bne	t0,t1,80000048 <other_exception>
    800000ec:	30005073          	csrwi	mstatus,0
    800000f0:	00000297          	auipc	t0,0x0
    800000f4:	01428293          	addi	t0,t0,20 # 80000104 <reset_vector+0xac>
    800000f8:	34129073          	csrw	mepc,t0
    800000fc:	f1402573          	csrr	a0,mhartid
    80000100:	30200073          	mret
    80000104:	0180006f          	j	8000011c <test_start>

0000000080000108 <crash_backward>:
    80000108:	0ff0000f          	fence
    8000010c:	00018063          	beqz	gp,8000010c <crash_backward+0x4>
    80000110:	00119193          	slli	gp,gp,0x1
    80000114:	0011e193          	ori	gp,gp,1
    80000118:	00000073          	ecall

000000008000011c <test_start>:
    8000011c:	00001f97          	auipc	t6,0x1
    80000120:	fe4f8f93          	addi	t6,t6,-28 # 80001100 <hidden_data>
    80000124:	000fb003          	ld	zero,0(t6)
    80000128:	008fb083          	ld	ra,8(t6)
    8000012c:	010fb103          	ld	sp,16(t6)
    80000130:	018fb183          	ld	gp,24(t6)
    80000134:	020fb203          	ld	tp,32(t6)
    80000138:	028fb283          	ld	t0,40(t6)
    8000013c:	030fb303          	ld	t1,48(t6)
    80000140:	038fb383          	ld	t2,56(t6)
    80000144:	040fb403          	ld	s0,64(t6)
    80000148:	048fb483          	ld	s1,72(t6)
    8000014c:	050fb503          	ld	a0,80(t6)
    80000150:	058fb583          	ld	a1,88(t6)
    80000154:	060fb603          	ld	a2,96(t6)
    80000158:	068fb683          	ld	a3,104(t6)
    8000015c:	070fb703          	ld	a4,112(t6)
    80000160:	078fb783          	ld	a5,120(t6)
    80000164:	080fb803          	ld	a6,128(t6)
    80000168:	088fb883          	ld	a7,136(t6)
    8000016c:	090fb903          	ld	s2,144(t6)
    80000170:	098fb983          	ld	s3,152(t6)
    80000174:	0a0fba03          	ld	s4,160(t6)
    80000178:	0a8fba83          	ld	s5,168(t6)
    8000017c:	0b0fbb03          	ld	s6,176(t6)
    80000180:	0b8fbb83          	ld	s7,184(t6)
    80000184:	0c0fbc03          	ld	s8,192(t6)
    80000188:	0c8fbc83          	ld	s9,200(t6)
    8000018c:	0d0fbd03          	ld	s10,208(t6)
    80000190:	0d8fbd83          	ld	s11,216(t6)
    80000194:	0e0fbe03          	ld	t3,224(t6)
    80000198:	0e8fbe83          	ld	t4,232(t6)
    8000019c:	0f0fbf03          	ld	t5,240(t6)
    800001a0:	0f8fbf83          	ld	t6,248(t6)
    800001a4:	0040006f          	j	800001a8 <pseg_0>

00000000800001a8 <pseg_0>:
    800001a8:	02953813          	sltiu	a6,a0,41
    800001ac:	00d6a5b3          	slt	a1,a3,a3
    800001b0:	00001d97          	auipc	s11,0x1
    800001b4:	ed4d8d93          	addi	s11,s11,-300 # 80001084 <fromhost+0x44>
    800001b8:	019d3233          	sltu	tp,s10,s9
    800001bc:	1f200a93          	li	s5,498
    800001c0:	000b0e93          	mv	t4,s6
    800001c4:	01aa13bb          	sllw	t2,s4,s10
    800001c8:	06d00d13          	li	s10,109
    800001cc:	baf00113          	li	sp,-1105
    800001d0:	00001f17          	auipc	t5,0x1
    800001d4:	60ff0f13          	addi	t5,t5,1551 # 800017df <_end+0xcf>
    800001d8:	e4290613          	addi	a2,s2,-446
    800001dc:	00001797          	auipc	a5,0x1
    800001e0:	39778793          	addi	a5,a5,919 # 80001573 <test_memory+0x273>
    800001e4:	73100413          	li	s0,1841
    800001e8:	021d0193          	addi	gp,s10,33
    800001ec:	00214bb3          	xor	s7,sp,sp
    800001f0:	00100f93          	li	t6,1
    800001f4:	2dadae23          	sw	s10,732(s11)
    800001f8:	00001c17          	auipc	s8,0x1
    800001fc:	ce1c0c13          	addi	s8,s8,-799 # 80000ed9 <test_end+0x4f1>
    80000200:	035a82b3          	mul	t0,s5,s5
    80000204:	fe37d683          	lhu	a3,-29(a5)
    80000208:	0294f8b3          	remu	a7,s1,s1
    8000020c:	000e8493          	mv	s1,t4
    80000210:	00001917          	auipc	s2,0x1
    80000214:	f3990913          	addi	s2,s2,-199 # 80001149 <reg_x9_init+0x1>
    80000218:	d7ff0aa3          	sb	t6,-651(t5)
    8000021c:	579c3ba3          	sd	s9,1399(s8)
    80000220:	93400a13          	li	s4,-1740
    80000224:	03441333          	mulh	t1,s0,s4
    80000228:	41490503          	lb	a0,1044(s2)
    8000022c:	03ff9f93          	slli	t6,t6,0x3f
    80000230:	54000993          	li	s3,1344
    80000234:	fff00e13          	li	t3,-1
    80000238:	40cc8cbb          	subw	s9,s9,a2
    8000023c:	0139b733          	sltu	a4,s3,s3
    80000240:	01fe4e33          	xor	t3,t3,t6
    80000244:	01c27b33          	and	s6,tp,t3
    80000248:	01fb60b3          	or	ra,s6,t6
    8000024c:	ea1b0ee3          	beq	s6,ra,80000108 <crash_backward>
    80000250:	40380e3b          	subw	t3,a6,gp
    80000254:	00001097          	auipc	ra,0x1
    80000258:	c2d08093          	addi	ra,ra,-979 # 80000e81 <test_end+0x499>
    8000025c:	49c00893          	li	a7,1180
    80000260:	97900e93          	li	t4,-1671
    80000264:	030f7dbb          	remuw	s11,t5,a6
    80000268:	eec00493          	li	s1,-276
    8000026c:	25400693          	li	a3,596
    80000270:	00100c93          	li	s9,1
    80000274:	992fa993          	slti	s3,t6,-1646
    80000278:	7fb00813          	li	a6,2043
    8000027c:	00001717          	auipc	a4,0x1
    80000280:	3f470713          	addi	a4,a4,1012 # 80001670 <test_memory+0x370>
    80000284:	0104bab3          	sltu	s5,s1,a6
    80000288:	00001f17          	auipc	t5,0x1
    8000028c:	540f0f13          	addi	t5,t5,1344 # 800017c8 <_end+0xb8>
    80000290:	a2600d13          	li	s10,-1498
    80000294:	00000593          	li	a1,0
    80000298:	0118d3bb          	srlw	t2,a7,a7
    8000029c:	0052bb33          	sltu	s6,t0,t0
    800002a0:	03fc9c93          	slli	s9,s9,0x3f
    800002a4:	00000793          	li	a5,0
    800002a8:	6170a103          	lw	sp,1559(ra)
    800002ac:	00de823b          	addw	tp,t4,a3
    800002b0:	10c00193          	li	gp,268
    800002b4:	00001c17          	auipc	s8,0x1
    800002b8:	26ec0c13          	addi	s8,s8,622 # 80001522 <test_memory+0x222>
    800002bc:	61400d93          	li	s11,1556
    800002c0:	e3b00a93          	li	s5,-453
    800002c4:	d1474603          	lbu	a2,-748(a4)
    800002c8:	e0ef0503          	lb	a0,-498(t5)
    800002cc:	035d883b          	mulw	a6,s11,s5
    800002d0:	e71c1123          	sh	a7,-414(s8)
    800002d4:	003d1333          	sll	t1,s10,gp
    800002d8:	64700493          	li	s1,1607
    800002dc:	ed018413          	addi	s0,gp,-304 # 80001de0 <_end+0x6d0>
    800002e0:	fff00a13          	li	s4,-1
    800002e4:	4f600e13          	li	t3,1270
    800002e8:	6e73c663          	blt	t2,t2,800009d4 <crash_forward>
    800002ec:	00000193          	li	gp,0
    800002f0:	01ef18b3          	sll	a7,t5,t5
    800002f4:	6e700093          	li	ra,1767
    800002f8:	81045903          	lhu	s2,-2032(s0)
    800002fc:	ae300113          	li	sp,-1309
    80000300:	b4c00f13          	li	t5,-1204
    80000304:	00001597          	auipc	a1,0x1
    80000308:	06b58593          	addi	a1,a1,107 # 8000136f <test_memory+0x6f>
    8000030c:	00000813          	li	a6,0
    80000310:	0273bdb3          	mulhu	s11,t2,t2
    80000314:	00212333          	slt	t1,sp,sp
    80000318:	019a4a33          	xor	s4,s4,s9
    8000031c:	00001217          	auipc	tp,0x1
    80000320:	b9620213          	addi	tp,tp,-1130 # 80000eb2 <test_end+0x4ca>
    80000324:	a7418613          	addi	a2,gp,-1420 # 80001984 <_end+0x274>
    80000328:	01ef1c33          	sll	s8,t5,t5
    8000032c:	03f21f13          	slli	t5,tp,0x3f
    80000330:	0bf58703          	lb	a4,191(a1)
    80000334:	0231f43b          	remuw	s0,gp,gp
    80000338:	00100d93          	li	s11,1
    8000033c:	0210b533          	mulhu	a0,ra,ra
    80000340:	014af2b3          	and	t0,s5,s4
    80000344:	03fd9d93          	slli	s11,s11,0x3f
    80000348:	0191ebb3          	or	s7,gp,s9
    8000034c:	000e8f93          	mv	t6,t4
    80000350:	000f8a93          	mv	s5,t6
    80000354:	03c4c9b3          	div	s3,s1,t3
    80000358:	92618593          	addi	a1,gp,-1754 # 80001836 <_end+0x126>
    8000035c:	77500b13          	li	s6,1909
    80000360:	0231cd33          	div	s10,gp,gp
    80000364:	bfe5e703          	lwu	a4,-1026(a1)
    80000368:	016b57b3          	srl	a5,s6,s6
    8000036c:	675fc463          	blt	t6,s5,800009d4 <crash_forward>
    80000370:	a8b18313          	addi	t1,gp,-1397 # 8000199b <_end+0x28b>
    80000374:	7d623383          	ld	t2,2006(tp) # 7d6 <_start-0x7ffff82a>
    80000378:	fff00e93          	li	t4,-1
    8000037c:	030c48b3          	div	a7,s8,a6
    80000380:	92a00513          	li	a0,-1750
    80000384:	433ece13          	xori	t3,t4,1075
    80000388:	d901c0e3          	blt	gp,a6,80000108 <crash_backward>
    8000038c:	a8400c93          	li	s9,-1404
    80000390:	80d00213          	li	tp,-2035
    80000394:	bb763e23          	sd	s7,-1092(a2)
    80000398:	8fd00713          	li	a4,-1795
    8000039c:	00420fbb          	addw	t6,tp,tp
    800003a0:	01beceb3          	xor	t4,t4,s11
    800003a4:	99135083          	lhu	ra,-1647(t1)
    800003a8:	4094dfb3          	sra	t6,s1,s1
    800003ac:	00100293          	li	t0,1
    800003b0:	0c100693          	li	a3,193
    800003b4:	0008d233          	srl	tp,a7,zero
    800003b8:	01def133          	and	sp,t4,t4
    800003bc:	db900893          	li	a7,-583
    800003c0:	c9000193          	li	gp,-880
    800003c4:	40318833          	sub	a6,gp,gp
    800003c8:	000034b3          	snez	s1,zero
    800003cc:	01b1e933          	or	s2,gp,s11
    800003d0:	33700413          	li	s0,823
    800003d4:	d2296ae3          	bltu	s2,sp,80000108 <crash_backward>
    800003d8:	011ce7b3          	or	a5,s9,a7
    800003dc:	fe570593          	addi	a1,a4,-27
    800003e0:	00001317          	auipc	t1,0x1
    800003e4:	3d730313          	addi	t1,t1,983 # 800017b7 <_end+0xa7>
    800003e8:	02223133          	mulhu	sp,tp,sp
    800003ec:	03ce1cb3          	mulh	s9,t3,t3
    800003f0:	6b068c13          	addi	s8,a3,1712
    800003f4:	02852f33          	mulhsu	t5,a0,s0
    800003f8:	0339ffbb          	remuw	t6,s3,s3
    800003fc:	00001397          	auipc	t2,0x1
    80000400:	f2138393          	addi	t2,t2,-223 # 8000131d <test_memory+0x1d>
    80000404:	5c004863          	bltz	zero,800009d4 <crash_forward>
    80000408:	0094beb3          	sltu	t4,s1,s1
    8000040c:	00001617          	auipc	a2,0x1
    80000410:	b6c60613          	addi	a2,a2,-1172 # 80000f78 <test_end+0x590>
    80000414:	00001417          	auipc	s0,0x1
    80000418:	1cb40413          	addi	s0,s0,459 # 800015df <test_memory+0x2df>
    8000041c:	d5600113          	li	sp,-682
    80000420:	03f29293          	slli	t0,t0,0x3f
    80000424:	a2e00893          	li	a7,-1490
    80000428:	fff00a13          	li	s4,-1
    8000042c:	f6e88d93          	addi	s11,a7,-146
    80000430:	3f600793          	li	a5,1014
    80000434:	eb148b13          	addi	s6,s1,-335
    80000438:	00545f03          	lhu	t5,5(s0)
    8000043c:	03ad4c33          	div	s8,s10,s10
    80000440:	ae400993          	li	s3,-1308
    80000444:	00100493          	li	s1,1
    80000448:	cd1dd0e3          	bge	s11,a7,80000108 <crash_backward>
    8000044c:	0273e6b3          	rem	a3,t2,t2
    80000450:	00001c97          	auipc	s9,0x1
    80000454:	bd6c8c93          	addi	s9,s9,-1066 # 80001026 <tohost+0x26>
    80000458:	6dc61b23          	sh	t3,1750(a2)
    8000045c:	d2c00e93          	li	t4,-724
    80000460:	d4735083          	lhu	ra,-697(t1)
    80000464:	03f49493          	slli	s1,s1,0x3f
    80000468:	40f78933          	sub	s2,a5,a5
    8000046c:	005a4a33          	xor	s4,s4,t0
    80000470:	32f3ea83          	lwu	s5,815(t2)
    80000474:	fff00213          	li	tp,-1
    80000478:	00001597          	auipc	a1,0x1
    8000047c:	e2658593          	addi	a1,a1,-474 # 8000129e <reg_x19_output+0x6>
    80000480:	00924233          	xor	tp,tp,s1
    80000484:	4a5ccf83          	lbu	t6,1189(s9)
    80000488:	01d13533          	sltu	a0,sp,t4
    8000048c:	f2000693          	li	a3,-224
    80000490:	004ae733          	or	a4,s5,tp
    80000494:	004771b3          	and	gp,a4,tp
    80000498:	009e6833          	or	a6,t3,s1
    8000049c:	52386c63          	bltu	a6,gp,800009d4 <crash_forward>
    800004a0:	0139cd33          	xor	s10,s3,s3
    800004a4:	014ffbb3          	and	s7,t6,s4
    800004a8:	00001c17          	auipc	s8,0x1
    800004ac:	d82c0c13          	addi	s8,s8,-638 # 8000122a <reg_x5_output+0x2>
    800004b0:	00001797          	auipc	a5,0x1
    800004b4:	c2178793          	addi	a5,a5,-991 # 800010d1 <fromhost+0x91>
    800004b8:	08500913          	li	s2,133
    800004bc:	00020413          	mv	s0,tp
    800004c0:	0126f633          	and	a2,a3,s2
    800004c4:	2e079ea3          	sh	zero,765(a5)
    800004c8:	00001d97          	auipc	s11,0x1
    800004cc:	9e6d8d93          	addi	s11,s11,-1562 # 80000eae <test_end+0x4c6>
    800004d0:	005bee33          	or	t3,s7,t0
    800004d4:	612d9383          	lh	t2,1554(s11)
    800004d8:	00100f13          	li	t5,1
    800004dc:	00040a93          	mv	s5,s0
    800004e0:	3c6c2083          	lw	ra,966(s8)
    800004e4:	23359823          	sh	s3,560(a1)
    800004e8:	24100113          	li	sp,577
    800004ec:	00100813          	li	a6,1
    800004f0:	03f81813          	slli	a6,a6,0x3f
    800004f4:	03bdd3b3          	divu	t2,s11,s11
    800004f8:	00214eb3          	xor	t4,sp,sp
    800004fc:	03ff1f13          	slli	t5,t5,0x3f
    80000500:	00001797          	auipc	a5,0x1
    80000504:	ef978793          	addi	a5,a5,-263 # 800013f9 <test_memory+0xf9>
    80000508:	0231c3bb          	divw	t2,gp,gp
    8000050c:	00001617          	auipc	a2,0x1
    80000510:	eeb60613          	addi	a2,a2,-277 # 800013f7 <test_memory+0xf7>
    80000514:	00001297          	auipc	t0,0x1
    80000518:	84128293          	addi	t0,t0,-1983 # 80000d55 <test_end+0x36d>
    8000051c:	00100393          	li	t2,1
    80000520:	00001597          	auipc	a1,0x1
    80000524:	1d358593          	addi	a1,a1,467 # 800016f3 <test_memory+0x3f3>
    80000528:	e4a00d13          	li	s10,-438
    8000052c:	03f39393          	slli	t2,t2,0x3f
    80000530:	c0c18193          	addi	gp,gp,-1012 # 80001b1c <_end+0x40c>
    80000534:	fff00493          	li	s1,-1
    80000538:	03ad26b3          	mulhsu	a3,s10,s10
    8000053c:	00001097          	auipc	ra,0x1
    80000540:	f1d08093          	addi	ra,ra,-227 # 80001459 <test_memory+0x159>
    80000544:	c3b00c93          	li	s9,-965
    80000548:	0a860203          	lb	tp,168(a2)
    8000054c:	fff00b93          	li	s7,-1
    80000550:	a7518123          	sb	s5,-1438(gp) # 80001972 <_end+0x262>
    80000554:	0290a9a3          	sw	s1,51(ra)
    80000558:	039cb9b3          	mulhu	s3,s9,s9
    8000055c:	00001e97          	auipc	t4,0x1
    80000560:	f54e8e93          	addi	t4,t4,-172 # 800014b0 <test_memory+0x1b0>
    80000564:	db55b103          	ld	sp,-587(a1)
    80000568:	68e28e03          	lb	t3,1678(t0)
    8000056c:	0104c4b3          	xor	s1,s1,a6
    80000570:	00001c97          	auipc	s9,0x1
    80000574:	096c8c93          	addi	s9,s9,150 # 80001606 <test_memory+0x306>
    80000578:	fff00893          	li	a7,-1
    8000057c:	fe900e13          	li	t3,-23
    80000580:	036fdc3b          	divuw	s8,t6,s6
    80000584:	8fec6913          	ori	s2,s8,-1794
    80000588:	00001697          	auipc	a3,0x1
    8000058c:	ca668693          	addi	a3,a3,-858 # 8000122e <reg_x5_output+0x6>
    80000590:	03ce723b          	remuw	tp,t3,t3
    80000594:	00001297          	auipc	t0,0x1
    80000598:	a9428293          	addi	t0,t0,-1388 # 80001028 <tohost+0x28>
    8000059c:	e0bcc183          	lbu	gp,-501(s9)
    800005a0:	009c7533          	and	a0,s8,s1
    800005a4:	73466713          	ori	a4,a2,1844
    800005a8:	01056db3          	or	s11,a0,a6
    800005ac:	d9118413          	addi	s0,gp,-623 # 80001ca1 <_end+0x591>
    800005b0:	27b00913          	li	s2,635
    800005b4:	b5b54ae3          	blt	a0,s11,80000108 <crash_backward>
    800005b8:	007bcbb3          	xor	s7,s7,t2
    800005bc:	00001a97          	auipc	s5,0x1
    800005c0:	a2ca8a93          	addi	s5,s5,-1492 # 80000fe8 <test_end+0x600>
    800005c4:	00001e17          	auipc	t3,0x1
    800005c8:	94ae0e13          	addi	t3,t3,-1718 # 80000f0e <test_end+0x526>
    800005cc:	00001717          	auipc	a4,0x1
    800005d0:	a2170713          	addi	a4,a4,-1503 # 80000fed <test_end+0x605>
    800005d4:	4e9a8203          	lb	tp,1257(s5)
    800005d8:	618e1c83          	lh	s9,1560(t3)
    800005dc:	40cfdc33          	sra	s8,t6,a2
    800005e0:	5912ae23          	sw	a7,1436(t0)
    800005e4:	032961b3          	rem	gp,s2,s2
    800005e8:	1e500093          	li	ra,485
    800005ec:	93318493          	addi	s1,gp,-1741 # 80001843 <_end+0x133>
    800005f0:	ffae8ca3          	sb	s10,-7(t4)
    800005f4:	00278fa3          	sb	sp,31(a5)
    800005f8:	87242ba3          	sw	s2,-1929(s0)
    800005fc:	14600813          	li	a6,326
    80000600:	de700d93          	li	s11,-537
    80000604:	caf00c93          	li	s9,-849
    80000608:	00100113          	li	sp,1
    8000060c:	0171ffb3          	and	t6,gp,s7
    80000610:	33c00e93          	li	t4,828
    80000614:	03f11113          	slli	sp,sp,0x3f
    80000618:	00000913          	li	s2,0
    8000061c:	039ceab3          	rem	s5,s9,s9
    80000620:	01e8c8b3          	xor	a7,a7,t5
    80000624:	25d00593          	li	a1,605
    80000628:	00be9c33          	sll	s8,t4,a1
    8000062c:	01b812b3          	sll	t0,a6,s11
    80000630:	b4800613          	li	a2,-1208
    80000634:	616727a3          	sw	s6,1551(a4)
    80000638:	00c0c9b3          	xor	s3,ra,a2
    8000063c:	01197b33          	and	s6,s2,a7
    80000640:	0308753b          	remuw	a0,a6,a6
    80000644:	000b8213          	mv	tp,s7
    80000648:	00020993          	mv	s3,tp
    8000064c:	00000413          	li	s0,0
    80000650:	d67498a3          	sh	t2,-655(s1)
    80000654:	00100c13          	li	s8,1
    80000658:	ab3218e3          	bne	tp,s3,80000108 <crash_backward>
    8000065c:	00786a33          	or	s4,a6,t2
    80000660:	00000517          	auipc	a0,0x0
    80000664:	62950513          	addi	a0,a0,1577 # 80000c89 <test_end+0x2a1>
    80000668:	ad800713          	li	a4,-1320
    8000066c:	93b00813          	li	a6,-1733
    80000670:	f9844493          	xori	s1,s0,-104
    80000674:	787502a3          	sb	t2,1925(a0)
    80000678:	fff00e13          	li	t3,-1
    8000067c:	01e36333          	or	t1,t1,t5
    80000680:	bd700e93          	li	t4,-1065
    80000684:	002e4e33          	xor	t3,t3,sp
    80000688:	01c177b3          	and	a5,sp,t3
    8000068c:	0027e1b3          	or	gp,a5,sp
    80000690:	03d75633          	divu	a2,a4,t4
    80000694:	34f1e063          	bltu	gp,a5,800009d4 <crash_forward>
    80000698:	00001a97          	auipc	s5,0x1
    8000069c:	0a6a8a93          	addi	s5,s5,166 # 8000173e <_end+0x2e>
    800006a0:	ef0a8ea3          	sb	a6,-259(s5)
    800006a4:	404b52bb          	sraw	t0,s6,tp
    800006a8:	4ac69d03          	lh	s10,1196(a3)
    800006ac:	41080cb3          	sub	s9,a6,a6
    800006b0:	03fc1c13          	slli	s8,s8,0x3f
    800006b4:	fff00593          	li	a1,-1
    800006b8:	0185c5b3          	xor	a1,a1,s8
    800006bc:	00bbf0b3          	and	ra,s7,a1
    800006c0:	018bedb3          	or	s11,s7,s8
    800006c4:	00001417          	auipc	s0,0x1
    800006c8:	00140413          	addi	s0,s0,1 # 800016c5 <test_memory+0x3c5>
    800006cc:	0043e633          	or	a2,t2,tp
    800006d0:	00000697          	auipc	a3,0x0
    800006d4:	70768693          	addi	a3,a3,1799 # 80000dd7 <test_end+0x3ef>
    800006d8:	00001097          	auipc	ra,0x1
    800006dc:	cac08093          	addi	ra,ra,-852 # 80001384 <test_memory+0x84>
    800006e0:	15c0bf83          	ld	t6,348(ra)
    800006e4:	f8b00b13          	li	s6,-117
    800006e8:	00001297          	auipc	t0,0x1
    800006ec:	ec528293          	addi	t0,t0,-315 # 800015ad <test_memory+0x2ad>
    800006f0:	48100993          	li	s3,1153
    800006f4:	f0d29d03          	lh	s10,-243(t0)
    800006f8:	35a00793          	li	a5,858
    800006fc:	00100513          	li	a0,1
    80000700:	40f7d1bb          	sraw	gp,a5,a5
    80000704:	0139e3b3          	or	t2,s3,s3
    80000708:	414cd493          	srai	s1,s9,0x14
    8000070c:	c5344883          	lbu	a7,-941(s0)
    80000710:	17500293          	li	t0,373
    80000714:	01ce6fb3          	or	t6,t3,t3
    80000718:	36700a13          	li	s4,871
    8000071c:	034b7933          	remu	s2,s6,s4
    80000720:	92e00613          	li	a2,-1746
    80000724:	00100793          	li	a5,1
    80000728:	00001e97          	auipc	t4,0x1
    8000072c:	9c1e8e93          	addi	t4,t4,-1599 # 800010e9 <fromhost+0xa9>
    80000730:	017d931b          	slliw	t1,s11,0x17
    80000734:	64800213          	li	tp,1608
    80000738:	03f51513          	slli	a0,a0,0x3f
    8000073c:	035ad0b3          	divu	ra,s5,s5
    80000740:	02c28d33          	mul	s10,t0,a2
    80000744:	00001997          	auipc	s3,0x1
    80000748:	94e98993          	addi	s3,s3,-1714 # 80001092 <fromhost+0x52>
    8000074c:	7e96bd83          	ld	s11,2025(a3)
    80000750:	00001717          	auipc	a4,0x1
    80000754:	ebc70713          	addi	a4,a4,-324 # 8000160c <test_memory+0x30c>
    80000758:	00001417          	auipc	s0,0x1
    8000075c:	81240413          	addi	s0,s0,-2030 # 80000f6a <test_end+0x582>
    80000760:	fff00a93          	li	s5,-1
    80000764:	49a406a3          	sb	s10,1165(s0)
    80000768:	00aacab3          	xor	s5,s5,a0
    8000076c:	3bde8f03          	lb	t5,957(t4)
    80000770:	015dfe33          	and	t3,s11,s5
    80000774:	1f700813          	li	a6,503
    80000778:	00a7e133          	or	sp,a5,a0
    8000077c:	00100913          	li	s2,1
    80000780:	ba700593          	li	a1,-1113
    80000784:	242e0863          	beq	t3,sp,800009d4 <crash_forward>
    80000788:	00b23bb3          	sltu	s7,tp,a1
    8000078c:	9590ef93          	ori	t6,ra,-1703
    80000790:	03f91913          	slli	s2,s2,0x3f
    80000794:	fff00d93          	li	s11,-1
    80000798:	01080cb3          	add	s9,a6,a6
    8000079c:	00001a17          	auipc	s4,0x1
    800007a0:	bf8a0a13          	addi	s4,s4,-1032 # 80001394 <test_memory+0x94>
    800007a4:	d1a70c03          	lb	s8,-742(a4)
    800007a8:	0156ccb3          	xor	s9,a3,s5
    800007ac:	06ba0a83          	lb	s5,107(s4)
    800007b0:	c3a00113          	li	sp,-966
    800007b4:	41ef0233          	sub	tp,t5,t5
    800007b8:	35e9b383          	ld	t2,862(s3)
    800007bc:	02c650bb          	divuw	ra,a2,a2
    800007c0:	93600b13          	li	s6,-1738
    800007c4:	00000517          	auipc	a0,0x0
    800007c8:	6d550513          	addi	a0,a0,1749 # 80000e99 <test_end+0x4b1>
    800007cc:	016b56bb          	srlw	a3,s6,s6
    800007d0:	73551f83          	lh	t6,1845(a0)
    800007d4:	03f79793          	slli	a5,a5,0x3f
    800007d8:	00100f13          	li	t5,1
    800007dc:	fff00193          	li	gp,-1
    800007e0:	00f1c1b3          	xor	gp,gp,a5
    800007e4:	93ff92e3          	bne	t6,t6,80000108 <crash_backward>
    800007e8:	00000597          	auipc	a1,0x0
    800007ec:	5c958593          	addi	a1,a1,1481 # 80000db1 <test_end+0x3c9>
    800007f0:	012dcdb3          	xor	s11,s11,s2
    800007f4:	70559e03          	lh	t3,1797(a1)
    800007f8:	003d78b3          	and	a7,s10,gp
    800007fc:	00216833          	or	a6,sp,sp
    80000800:	0321fbbb          	remuw	s7,gp,s2
    80000804:	03ff1f13          	slli	t5,t5,0x3f
    80000808:	fff00d13          	li	s10,-1
    8000080c:	00f364b3          	or	s1,t1,a5
    80000810:	01b9feb3          	and	t4,s3,s11
    80000814:	8e98cae3          	blt	a7,s1,80000108 <crash_backward>
    80000818:	01296333          	or	t1,s2,s2
    8000081c:	01ed4d33          	xor	s10,s10,t5
    80000820:	8e6e84e3          	beq	t4,t1,80000108 <crash_backward>
    80000824:	01aef633          	and	a2,t4,s10
    80000828:	01ece2b3          	or	t0,s9,t5
    8000082c:	8cc2eee3          	bltu	t0,a2,80000108 <crash_backward>
    80000830:	57600613          	li	a2,1398
    80000834:	00100813          	li	a6,1
    80000838:	83000d93          	li	s11,-2000
    8000083c:	03ef723b          	remuw	tp,t5,t5
    80000840:	00001e17          	auipc	t3,0x1
    80000844:	a3ce0e13          	addi	t3,t3,-1476 # 8000127c <reg_x15_output+0x4>
    80000848:	e9400513          	li	a0,-364
    8000084c:	00000d17          	auipc	s10,0x0
    80000850:	59dd0d13          	addi	s10,s10,1437 # 80000de9 <test_end+0x401>
    80000854:	9e174137          	lui	sp,0x9e174
    80000858:	01ef0eb3          	add	t4,t5,t5
    8000085c:	124e6903          	lwu	s2,292(t3)
    80000860:	68e00493          	li	s1,1678
    80000864:	28b00a93          	li	s5,651
    80000868:	be418c13          	addi	s8,gp,-1052 # 80001af4 <_end+0x3e4>
    8000086c:	cc518413          	addi	s0,gp,-827 # 80001bd5 <_end+0x4c5>
    80000870:	ad6429a3          	sw	s6,-1325(s0)
    80000874:	00000697          	auipc	a3,0x0
    80000878:	5f268693          	addi	a3,a3,1522 # 80000e66 <test_end+0x47e>
    8000087c:	7ffd2883          	lw	a7,2047(s10)
    80000880:	81d00b13          	li	s6,-2019
    80000884:	03f81813          	slli	a6,a6,0x3f
    80000888:	a1e18793          	addi	a5,gp,-1506 # 8000192e <_end+0x21e>
    8000088c:	fff00593          	li	a1,-1
    80000890:	03666fb3          	rem	t6,a2,s6
    80000894:	40a55333          	sra	t1,a0,a0
    80000898:	67a69283          	lh	t0,1658(a3)
    8000089c:	8c4c2823          	sw	tp,-1840(s8)
    800008a0:	0105c5b3          	xor	a1,a1,a6
    800008a4:	015ae733          	or	a4,s5,s5
    800008a8:	31b00193          	li	gp,795
    800008ac:	00b9fa33          	and	s4,s3,a1
    800008b0:	03718393          	addi	t2,gp,55 # 80001f47 <__global_pointer$+0x37>
    800008b4:	028dfcbb          	remuw	s9,s11,s0
    800008b8:	b8a7bf03          	ld	t5,-1142(a5)
    800008bc:	010be9b3          	or	s3,s7,a6
    800008c0:	1149da63          	bge	s3,s4,800009d4 <crash_forward>
    800008c4:	009d90bb          	sllw	ra,s11,s1
    800008c8:	afe18413          	addi	s0,gp,-1282 # 80001a0e <_end+0x2fe>
    800008cc:	000c8e13          	mv	t3,s9
    800008d0:	00000197          	auipc	gp,0x0
    800008d4:	57618193          	addi	gp,gp,1398 # 80000e46 <test_end+0x45e>
    800008d8:	03290ab3          	mul	s5,s2,s2
    800008dc:	00100513          	li	a0,1
    800008e0:	92a00e93          	li	t4,-1750
    800008e4:	57a1b083          	ld	ra,1402(gp) # 8000248a <__global_pointer$+0x57a>
    800008e8:	039cff33          	remu	t5,s9,s9
    800008ec:	03f51513          	slli	a0,a0,0x3f
    800008f0:	c2600713          	li	a4,-986
    800008f4:	02eec3b3          	div	t2,t4,a4
    800008f8:	fff00693          	li	a3,-1
    800008fc:	000e0593          	mv	a1,t3
    80000900:	80be14e3          	bne	t3,a1,80000108 <crash_backward>
    80000904:	00a6c6b3          	xor	a3,a3,a0
    80000908:	014a2db3          	slt	s11,s4,s4
    8000090c:	00001717          	auipc	a4,0x1
    80000910:	d0570713          	addi	a4,a4,-763 # 80001611 <test_memory+0x311>
    80000914:	b3e00493          	li	s1,-1218
    80000918:	91318e93          	addi	t4,gp,-1773 # 80001823 <_end+0x113>
    8000091c:	a4243523          	sd	sp,-1462(s0)
    80000920:	d53ebaa3          	sd	s3,-683(t4)
    80000924:	00d4fc33          	and	s8,s1,a3
    80000928:	00001a97          	auipc	s5,0x1
    8000092c:	dc6a8a93          	addi	s5,s5,-570 # 800016ee <test_memory+0x3ee>
    80000930:	83800393          	li	t2,-1992
    80000934:	02f7ecbb          	remw	s9,a5,a5
    80000938:	fe972fa3          	sw	s1,-1(a4)
    8000093c:	efcaa523          	sw	t3,-278(s5)
    80000940:	1d900313          	li	t1,473
    80000944:	0274a633          	mulhsu	a2,s1,t2
    80000948:	00ac6233          	or	tp,s8,a0
    8000094c:	00637e33          	and	t3,t1,t1
    80000950:	0040006f          	j	80000954 <reg_dump>

0000000080000954 <reg_dump>:
    80000954:	00001097          	auipc	ra,0x1
    80000958:	dac08093          	addi	ra,ra,-596 # 80001700 <loop_count>
    8000095c:	0000a103          	lw	sp,0(ra)
    80000960:	fff10193          	addi	gp,sp,-1 # ffffffff9e173fff <__global_pointer$+0xffffffff1e1720ef>
    80000964:	0030a023          	sw	gp,0(ra)
    80000968:	840110e3          	bnez	sp,800001a8 <pseg_0>
    8000096c:	00001097          	auipc	ra,0x1
    80000970:	89408093          	addi	ra,ra,-1900 # 80001200 <begin_signature>
    80000974:	0000b023          	sd	zero,0(ra)
    80000978:	0020b823          	sd	sp,16(ra)
    8000097c:	0240b023          	sd	tp,32(ra)
    80000980:	0250b423          	sd	t0,40(ra)
    80000984:	0260b823          	sd	t1,48(ra)
    80000988:	0270bc23          	sd	t2,56(ra)
    8000098c:	0490b423          	sd	s1,72(ra)
    80000990:	04a0b823          	sd	a0,80(ra)
    80000994:	04b0bc23          	sd	a1,88(ra)
    80000998:	06c0b023          	sd	a2,96(ra)
    8000099c:	06d0b423          	sd	a3,104(ra)
    800009a0:	0900b023          	sd	a6,128(ra)
    800009a4:	0910b423          	sd	a7,136(ra)
    800009a8:	0920b823          	sd	s2,144(ra)
    800009ac:	0930bc23          	sd	s3,152(ra)
    800009b0:	0b40b023          	sd	s4,160(ra)
    800009b4:	0b60b823          	sd	s6,176(ra)
    800009b8:	0b70bc23          	sd	s7,184(ra)
    800009bc:	0d80b023          	sd	s8,192(ra)
    800009c0:	0d90b423          	sd	s9,200(ra)
    800009c4:	0db0bc23          	sd	s11,216(ra)
    800009c8:	0fc0b023          	sd	t3,224(ra)
    800009cc:	0fe0b823          	sd	t5,240(ra)
    800009d0:	0180006f          	j	800009e8 <test_end>

00000000800009d4 <crash_forward>:
    800009d4:	0ff0000f          	fence
    800009d8:	00018063          	beqz	gp,800009d8 <crash_forward+0x4>
    800009dc:	00119193          	slli	gp,gp,0x1
    800009e0:	0011e193          	ori	gp,gp,1
    800009e4:	00000073          	ecall

00000000800009e8 <test_end>:
    800009e8:	0ff0000f          	fence
    800009ec:	00100193          	li	gp,1
    800009f0:	00000073          	ecall
    800009f4:	c0001073          	unimp
	...

Disassembly of section .tohost:

0000000080001000 <tohost>:
	...

0000000080001040 <fromhost>:
	...
