
test.elf:     file format elf64-littleriscv


Disassembly of section .text:

0000000080000000 <_start>:
    80000000:	000010b7          	lui	ra,0x1
    80000004:	00002137          	lui	sp,0x2
    80000008:	000031b7          	lui	gp,0x3
    8000000c:	00004237          	lui	tp,0x4
    80000010:	000052b7          	lui	t0,0x5
    80000014:	00006337          	lui	t1,0x6
    80000018:	000073b7          	lui	t2,0x7
    8000001c:	00008437          	lui	s0,0x8
    80000020:	000094b7          	lui	s1,0x9
    80000024:	00000537          	lui	a0,0x0
    80000028:	0000b5b7          	lui	a1,0xb
    8000002c:	0000c637          	lui	a2,0xc
    80000030:	0000d6b7          	lui	a3,0xd
    80000034:	0000e737          	lui	a4,0xe
    80000038:	0000f7b7          	lui	a5,0xf
    8000003c:	00010837          	lui	a6,0x10
    80000040:	000118b7          	lui	a7,0x11
    80000044:	00012937          	lui	s2,0x12
    80000048:	000139b7          	lui	s3,0x13
    8000004c:	00014a37          	lui	s4,0x14
    80000050:	00015ab7          	lui	s5,0x15
    80000054:	00016b37          	lui	s6,0x16
    80000058:	00017bb7          	lui	s7,0x17
    8000005c:	00018c37          	lui	s8,0x18
    80000060:	00019cb7          	lui	s9,0x19
    80000064:	0001ad37          	lui	s10,0x1a
    80000068:	0001bdb7          	lui	s11,0x1b
    8000006c:	0001ce37          	lui	t3,0x1c
    80000070:	0001deb7          	lui	t4,0x1d
    80000074:	0001ef37          	lui	t5,0x1e
    80000078:	0001ffb7          	lui	t6,0x1f
    8000007c:	801010b7          	lui	ra,0x80101
    80000080:	80102137          	lui	sp,0x80102
    80000084:	801031b7          	lui	gp,0x80103
    80000088:	80104237          	lui	tp,0x80104
    8000008c:	801052b7          	lui	t0,0x80105
    80000090:	80106337          	lui	t1,0x80106
    80000094:	801073b7          	lui	t2,0x80107
    80000098:	80108437          	lui	s0,0x80108
    8000009c:	801094b7          	lui	s1,0x80109
    800000a0:	80110537          	lui	a0,0x80110
    800000a4:	801115b7          	lui	a1,0x80111
    800000a8:	80112637          	lui	a2,0x80112
    800000ac:	801136b7          	lui	a3,0x80113
    800000b0:	80114737          	lui	a4,0x80114
    800000b4:	801157b7          	lui	a5,0x80115
    800000b8:	80116837          	lui	a6,0x80116
    800000bc:	801178b7          	lui	a7,0x80117
    800000c0:	80118937          	lui	s2,0x80118
    800000c4:	801199b7          	lui	s3,0x80119
    800000c8:	80120a37          	lui	s4,0x80120
    800000cc:	80121ab7          	lui	s5,0x80121
    800000d0:	80122b37          	lui	s6,0x80122
    800000d4:	80123bb7          	lui	s7,0x80123
    800000d8:	80124c37          	lui	s8,0x80124
    800000dc:	80125cb7          	lui	s9,0x80125
    800000e0:	80126d37          	lui	s10,0x80126
    800000e4:	80127db7          	lui	s11,0x80127
    800000e8:	80128e37          	lui	t3,0x80128
    800000ec:	80129eb7          	lui	t4,0x80129
    800000f0:	80130f37          	lui	t5,0x80130
    800000f4:	80131fb7          	lui	t6,0x80131
    800000f8:	00100513          	li	a0,1
    800000fc:	000805b7          	lui	a1,0x80
    80000100:	0015859b          	addiw	a1,a1,1
    80000104:	00c59593          	slli	a1,a1,0xc

0000000080000108 <_finish_loop>:
    80000108:	00a5a023          	sw	a0,0(a1) # 80000 <_start-0x7ff80000>
    8000010c:	ffdff06f          	j	80000108 <_finish_loop>
