
test.elf:     file format elf64-littleriscv


Disassembly of section .text.init:

0000000080000000 <_start>:
    80000000:	0580006f          	j	80000058 <reset_vector>

0000000080000004 <trap_vector>:
    80000004:	34202f73          	csrr	t5,mcause
    80000008:	00800f93          	li	t6,8
    8000000c:	05ff0063          	beq	t5,t6,8000004c <write_tohost>
    80000010:	00900f93          	li	t6,9
    80000014:	03ff0c63          	beq	t5,t6,8000004c <write_tohost>
    80000018:	00b00f93          	li	t6,11
    8000001c:	03ff0863          	beq	t5,t6,8000004c <write_tohost>
    80000020:	00000f13          	li	t5,0
    80000024:	000f0463          	beqz	t5,8000002c <trap_vector+0x28>
    80000028:	000f0067          	jr	t5
    8000002c:	34202f73          	csrr	t5,mcause
    80000030:	000f5463          	bgez	t5,80000038 <handle_exception>
    80000034:	0140006f          	j	80000048 <other_exception>

0000000080000038 <handle_exception>:
    80000038:	34102e73          	csrr	t3,mepc
    8000003c:	004e0e13          	addi	t3,t3,4
    80000040:	341e1073          	csrw	mepc,t3
    80000044:	30200073          	mret

0000000080000048 <other_exception>:
    80000048:	5391e193          	ori	gp,gp,1337

000000008000004c <write_tohost>:
    8000004c:	00001f17          	auipc	t5,0x1
    80000050:	fa3f2a23          	sw	gp,-76(t5) # 80001000 <tohost>
    80000054:	ff9ff06f          	j	8000004c <write_tohost>

0000000080000058 <reset_vector>:
    80000058:	f1402573          	csrr	a0,mhartid
    8000005c:	00051063          	bnez	a0,8000005c <reset_vector+0x4>
    80000060:	00000297          	auipc	t0,0x0
    80000064:	01028293          	addi	t0,t0,16 # 80000070 <reset_vector+0x18>
    80000068:	30529073          	csrw	mtvec,t0
    8000006c:	18005073          	csrwi	satp,0
    80000070:	00000297          	auipc	t0,0x0
    80000074:	01c28293          	addi	t0,t0,28 # 8000008c <reset_vector+0x34>
    80000078:	30529073          	csrw	mtvec,t0
    8000007c:	fff00293          	li	t0,-1
    80000080:	3b029073          	csrw	pmpaddr0,t0
    80000084:	01f00293          	li	t0,31
    80000088:	3a029073          	csrw	pmpcfg0,t0
    8000008c:	00000297          	auipc	t0,0x0
    80000090:	01828293          	addi	t0,t0,24 # 800000a4 <reset_vector+0x4c>
    80000094:	30529073          	csrw	mtvec,t0
    80000098:	30205073          	csrwi	medeleg,0
    8000009c:	30305073          	csrwi	mideleg,0
    800000a0:	30405073          	csrwi	mie,0
    800000a4:	00000193          	li	gp,0
    800000a8:	00000297          	auipc	t0,0x0
    800000ac:	f5c28293          	addi	t0,t0,-164 # 80000004 <trap_vector>
    800000b0:	30529073          	csrw	mtvec,t0
    800000b4:	00100513          	li	a0,1
    800000b8:	01f51513          	slli	a0,a0,0x1f
    800000bc:	00055863          	bgez	a0,800000cc <reset_vector+0x74>
    800000c0:	0ff0000f          	fence
    800000c4:	00100193          	li	gp,1
    800000c8:	00000073          	ecall
    800000cc:	00000293          	li	t0,0
    800000d0:	00028e63          	beqz	t0,800000ec <reset_vector+0x94>
    800000d4:	10529073          	csrw	stvec,t0
    800000d8:	0000b2b7          	lui	t0,0xb
    800000dc:	1092829b          	addiw	t0,t0,265
    800000e0:	30229073          	csrw	medeleg,t0
    800000e4:	30202373          	csrr	t1,medeleg
    800000e8:	f66290e3          	bne	t0,t1,80000048 <other_exception>
    800000ec:	30005073          	csrwi	mstatus,0
    800000f0:	00000297          	auipc	t0,0x0
    800000f4:	01428293          	addi	t0,t0,20 # 80000104 <reset_vector+0xac>
    800000f8:	34129073          	csrw	mepc,t0
    800000fc:	f1402573          	csrr	a0,mhartid
    80000100:	30200073          	mret
    80000104:	0180006f          	j	8000011c <test_start>

0000000080000108 <crash_backward>:
    80000108:	0ff0000f          	fence
    8000010c:	00018063          	beqz	gp,8000010c <crash_backward+0x4>
    80000110:	00119193          	slli	gp,gp,0x1
    80000114:	0011e193          	ori	gp,gp,1
    80000118:	00000073          	ecall

000000008000011c <test_start>:
    8000011c:	00001f97          	auipc	t6,0x1
    80000120:	fe4f8f93          	addi	t6,t6,-28 # 80001100 <hidden_data>
    80000124:	000fb003          	ld	zero,0(t6)
    80000128:	008fb083          	ld	ra,8(t6)
    8000012c:	010fb103          	ld	sp,16(t6)
    80000130:	018fb183          	ld	gp,24(t6)
    80000134:	020fb203          	ld	tp,32(t6)
    80000138:	028fb283          	ld	t0,40(t6)
    8000013c:	030fb303          	ld	t1,48(t6)
    80000140:	038fb383          	ld	t2,56(t6)
    80000144:	040fb403          	ld	s0,64(t6)
    80000148:	048fb483          	ld	s1,72(t6)
    8000014c:	050fb503          	ld	a0,80(t6)
    80000150:	058fb583          	ld	a1,88(t6)
    80000154:	060fb603          	ld	a2,96(t6)
    80000158:	068fb683          	ld	a3,104(t6)
    8000015c:	070fb703          	ld	a4,112(t6)
    80000160:	078fb783          	ld	a5,120(t6)
    80000164:	080fb803          	ld	a6,128(t6)
    80000168:	088fb883          	ld	a7,136(t6)
    8000016c:	090fb903          	ld	s2,144(t6)
    80000170:	098fb983          	ld	s3,152(t6)
    80000174:	0a0fba03          	ld	s4,160(t6)
    80000178:	0a8fba83          	ld	s5,168(t6)
    8000017c:	0b0fbb03          	ld	s6,176(t6)
    80000180:	0b8fbb83          	ld	s7,184(t6)
    80000184:	0c0fbc03          	ld	s8,192(t6)
    80000188:	0c8fbc83          	ld	s9,200(t6)
    8000018c:	0d0fbd03          	ld	s10,208(t6)
    80000190:	0d8fbd83          	ld	s11,216(t6)
    80000194:	0e0fbe03          	ld	t3,224(t6)
    80000198:	0e8fbe83          	ld	t4,232(t6)
    8000019c:	0f0fbf03          	ld	t5,240(t6)
    800001a0:	0f8fbf83          	ld	t6,248(t6)
    800001a4:	0040006f          	j	800001a8 <pseg_0>

00000000800001a8 <pseg_0>:
    800001a8:	00000793          	li	a5,0
    800001ac:	41398733          	sub	a4,s3,s3
    800001b0:	81200b93          	li	s7,-2030
    800001b4:	0ab00493          	li	s1,171
    800001b8:	01459d1b          	slliw	s10,a1,0x14
    800001bc:	09100913          	li	s2,145
    800001c0:	21890313          	addi	t1,s2,536
    800001c4:	12700513          	li	a0,295
    800001c8:	00080813          	mv	a6,a6
    800001cc:	8cf00393          	li	t2,-1841
    800001d0:	40738a3b          	subw	s4,t2,t2
    800001d4:	02a4d13b          	divuw	sp,s1,a0
    800001d8:	4181d9bb          	sraw	s3,gp,s8
    800001dc:	00001297          	auipc	t0,0x1
    800001e0:	50a28293          	addi	t0,t0,1290 # 800016e6 <test_memory+0x3e6>
    800001e4:	cc100193          	li	gp,-831
    800001e8:	2d300c93          	li	s9,723
    800001ec:	0227d733          	divu	a4,a5,sp
    800001f0:	0283e6bb          	remw	a3,t2,s0
    800001f4:	f1234ae3          	blt	t1,s2,80000108 <crash_backward>
    800001f8:	00e70433          	add	s0,a4,a4
    800001fc:	00001a97          	auipc	s5,0x1
    80000200:	127a8a93          	addi	s5,s5,295 # 80001323 <test_memory+0x23>
    80000204:	00000893          	li	a7,0
    80000208:	f117c0e3          	blt	a5,a7,80000108 <crash_backward>
    8000020c:	000e8093          	mv	ra,t4
    80000210:	0d9a8b03          	lb	s6,217(s5)
    80000214:	66200c13          	li	s8,1634
    80000218:	9e200d93          	li	s11,-1566
    8000021c:	34300a93          	li	s5,835
    80000220:	b3318513          	addi	a0,gp,-1229 # 80001a43 <_end+0x333>
    80000224:	00080f93          	mv	t6,a6
    80000228:	63200913          	li	s2,1586
    8000022c:	73f81463          	bne	a6,t6,80000954 <crash_forward>
    80000230:	01295133          	srl	sp,s2,s2
    80000234:	00008d13          	mv	s10,ra
    80000238:	d8829e03          	lh	t3,-632(t0)
    8000023c:	d9500793          	li	a5,-619
    80000240:	f6e18593          	addi	a1,gp,-146 # 80001e7e <_end+0x76e>
    80000244:	03bdc4b3          	div	s1,s11,s11
    80000248:	02e7093b          	mulw	s2,a4,a4
    8000024c:	1c25c693          	xori	a3,a1,450
    80000250:	34a00393          	li	t2,842
    80000254:	00001b17          	auipc	s6,0x1
    80000258:	d04b0b13          	addi	s6,s6,-764 # 80000f58 <test_end+0x5f0>
    8000025c:	87c00213          	li	tp,-1924
    80000260:	03c00493          	li	s1,60
    80000264:	6eb1e863          	bltu	gp,a1,80000954 <crash_forward>
    80000268:	4bab5703          	lhu	a4,1210(s6)
    8000026c:	c6852aa3          	sw	s0,-907(a0)
    80000270:	004b9ebb          	sllw	t4,s7,tp
    80000274:	02fe5133          	divu	sp,t3,a5
    80000278:	0273ca3b          	divw	s4,t2,t2
    8000027c:	00fad333          	srl	t1,s5,a5
    80000280:	038c8f3b          	mulw	t5,s9,s8
    80000284:	03cdf833          	remu	a6,s11,t3
    80000288:	00001897          	auipc	a7,0x1
    8000028c:	22e88893          	addi	a7,a7,558 # 800014b6 <test_memory+0x1b6>
    80000290:	eab8c403          	lbu	s0,-341(a7)
    80000294:	02384fbb          	divw	t6,a6,gp
    80000298:	0294f933          	remu	s2,s1,s1
    8000029c:	41bdd633          	sra	a2,s11,s11
    800002a0:	90900293          	li	t0,-1783
    800002a4:	02842e33          	mulhsu	t3,s0,s0
    800002a8:	0252b9b3          	mulhu	s3,t0,t0
    800002ac:	8c800d13          	li	s10,-1848
    800002b0:	406d5c9b          	sraiw	s9,s10,0x6
    800002b4:	b4ef2093          	slti	ra,t5,-1202
    800002b8:	015ae733          	or	a4,s5,s5
    800002bc:	00001697          	auipc	a3,0x1
    800002c0:	44768693          	addi	a3,a3,1095 # 80001703 <loop_count+0x3>
    800002c4:	00001297          	auipc	t0,0x1
    800002c8:	95428293          	addi	t0,t0,-1708 # 80000c18 <test_end+0x2b0>
    800002cc:	89a00d93          	li	s11,-1894
    800002d0:	9b418793          	addi	a5,gp,-1612 # 800018c4 <_end+0x1b4>
    800002d4:	79a00893          	li	a7,1946
    800002d8:	0339ecb3          	rem	s9,s3,s3
    800002dc:	00a5559b          	srliw	a1,a0,0xa
    800002e0:	01ad7533          	and	a0,s10,s10
    800002e4:	41bddc3b          	sraw	s8,s11,s11
    800002e8:	76e00093          	li	ra,1902
    800002ec:	019011b3          	sll	gp,zero,s9
    800002f0:	0010973b          	sllw	a4,ra,ra
    800002f4:	f2068123          	sb	zero,-222(a3)
    800002f8:	e297c803          	lbu	a6,-471(a5)
    800002fc:	00e00493          	li	s1,14
    80000300:	dfa18a93          	addi	s5,gp,-518 # 80001d0a <_end+0x5fa>
    80000304:	00001a17          	auipc	s4,0x1
    80000308:	20ea0a13          	addi	s4,s4,526 # 80001512 <test_memory+0x212>
    8000030c:	00098d13          	mv	s10,s3
    80000310:	95daa723          	sw	t4,-1714(s5)
    80000314:	0294d3bb          	divuw	t2,s1,s1
    80000318:	0031d53b          	srlw	a0,gp,gp
    8000031c:	a4200c13          	li	s8,-1470
    80000320:	96218c93          	addi	s9,gp,-1694 # 80001872 <_end+0x162>
    80000324:	f3ea6e83          	lwu	t4,-194(s4)
    80000328:	f5b9871b          	addiw	a4,s3,-165
    8000032c:	a01c0d93          	addi	s11,s8,-1535
    80000330:	0318bbb3          	mulhu	s7,a7,a7
    80000334:	7a029e03          	lh	t3,1952(t0)
    80000338:	000d0193          	mv	gp,s10
    8000033c:	e5ac9623          	sh	s10,-436(s9)
    80000340:	00001917          	auipc	s2,0x1
    80000344:	2d690913          	addi	s2,s2,726 # 80001616 <test_memory+0x316>
    80000348:	00001597          	auipc	a1,0x1
    8000034c:	f5058593          	addi	a1,a1,-176 # 80001298 <reg_x19_output>
    80000350:	00001617          	auipc	a2,0x1
    80000354:	29560613          	addi	a2,a2,661 # 800015e5 <test_memory+0x2e5>
    80000358:	e0766983          	lwu	s3,-505(a2)
    8000035c:	0e700413          	li	s0,231
    80000360:	00001317          	auipc	t1,0x1
    80000364:	daf30313          	addi	t1,t1,-593 # 8000110f <reg_x1_init+0x7>
    80000368:	47140f13          	addi	t5,s0,1137
    8000036c:	d88f4ee3          	blt	t5,s0,80000108 <crash_backward>
    80000370:	e9f00113          	li	sp,-353
    80000374:	1ca5d803          	lhu	a6,458(a1)
    80000378:	99700393          	li	t2,-1641
    8000037c:	a0518893          	addi	a7,gp,-1531 # 80001915 <_end+0x205>
    80000380:	02005dbb          	divuw	s11,zero,zero
    80000384:	ac700e93          	li	t4,-1337
    80000388:	e1a93b03          	ld	s6,-486(s2)
    8000038c:	f6500613          	li	a2,-155
    80000390:	4cd00f93          	li	t6,1229
    80000394:	323320a3          	sw	gp,801(t1)
    80000398:	16d00593          	li	a1,365
    8000039c:	42d00293          	li	t0,1069
    800003a0:	f6318913          	addi	s2,gp,-157 # 80001e73 <_end+0x763>
    800003a4:	1f700193          	li	gp,503
    800003a8:	02c64cb3          	div	s9,a2,a2
    800003ac:	00001817          	auipc	a6,0x1
    800003b0:	16380813          	addi	a6,a6,355 # 8000150f <test_memory+0x20f>
    800003b4:	00001f17          	auipc	t5,0x1
    800003b8:	ee5f0f13          	addi	t5,t5,-283 # 80001299 <reg_x19_output+0x1>
    800003bc:	ebd00a93          	li	s5,-323
    800003c0:	6bb58093          	addi	ra,a1,1723
    800003c4:	5dd00d13          	li	s10,1501
    800003c8:	db918b13          	addi	s6,gp,-583 # 80001cc9 <_end+0x5b9>
    800003cc:	00001c17          	auipc	s8,0x1
    800003d0:	b16c0c13          	addi	s8,s8,-1258 # 80000ee2 <test_end+0x57a>
    800003d4:	ed984a03          	lbu	s4,-295(a6)
    800003d8:	57cc3b23          	sd	t3,1398(s8)
    800003dc:	d138a483          	lw	s1,-749(a7)
    800003e0:	023ef7bb          	remuw	a5,t4,gp
    800003e4:	f8700613          	li	a2,-121
    800003e8:	70600e93          	li	t4,1798
    800003ec:	00100593          	li	a1,1
    800003f0:	03ad2533          	mulhsu	a0,s10,s10
    800003f4:	03f59593          	slli	a1,a1,0x3f
    800003f8:	00001a17          	auipc	s4,0x1
    800003fc:	407a0a13          	addi	s4,s4,1031 # 800017ff <_end+0xef>
    80000400:	03d650bb          	divuw	ra,a2,t4
    80000404:	fff00493          	li	s1,-1
    80000408:	c95a1883          	lh	a7,-875(s4)
    8000040c:	00000797          	auipc	a5,0x0
    80000410:	7cb78793          	addi	a5,a5,1995 # 80000bd7 <test_end+0x26f>
    80000414:	c6900413          	li	s0,-919
    80000418:	3f7f1ea3          	sh	s7,1021(t5)
    8000041c:	41f15233          	sra	tp,sp,t6
    80000420:	ba300713          	li	a4,-1117
    80000424:	11100693          	li	a3,273
    80000428:	0a228313          	addi	t1,t0,162
    8000042c:	9fcb1ca3          	sh	t3,-1543(s6)
    80000430:	00daae33          	slt	t3,s5,a3
    80000434:	de940993          	addi	s3,s0,-535
    80000438:	84d95d83          	lhu	s11,-1971(s2)
    8000043c:	ca057c13          	andi	s8,a0,-864
    80000440:	00001117          	auipc	sp,0x1
    80000444:	38d10113          	addi	sp,sp,909 # 800017cd <_end+0xbd>
    80000448:	ece10e83          	lb	t4,-306(sp)
    8000044c:	5062f463          	bgeu	t0,t1,80000954 <crash_forward>
    80000450:	00b4c4b3          	xor	s1,s1,a1
    80000454:	7f97b183          	ld	gp,2041(a5)
    80000458:	00001317          	auipc	t1,0x1
    8000045c:	b5a30313          	addi	t1,t1,-1190 # 80000fb2 <test_end+0x64a>
    80000460:	40e38bb3          	sub	s7,t2,a4
    80000464:	c7718d13          	addi	s10,gp,-905 # 80001b87 <_end+0x477>
    80000468:	ae418913          	addi	s2,gp,-1308 # 800019f4 <_end+0x2e4>
    8000046c:	66131b23          	sh	ra,1654(t1)
    80000470:	c889fce3          	bgeu	s3,s0,80000108 <crash_backward>
    80000474:	7c700693          	li	a3,1991
    80000478:	00100893          	li	a7,1
    8000047c:	4052dabb          	sraw	s5,t0,t0
    80000480:	87f00b13          	li	s6,-1921
    80000484:	02e56ebb          	remw	t4,a0,a4
    80000488:	f7800293          	li	t0,-136
    8000048c:	00001317          	auipc	t1,0x1
    80000490:	c1830313          	addi	t1,t1,-1000 # 800010a4 <fromhost+0x64>
    80000494:	00001117          	auipc	sp,0x1
    80000498:	e4910113          	addi	sp,sp,-439 # 800012dd <reg_x27_output+0x5>
    8000049c:	3c200613          	li	a2,962
    800004a0:	03f89893          	slli	a7,a7,0x3f
    800004a4:	9e9d3e03          	ld	t3,-1559(s10)
    800004a8:	fff00a13          	li	s4,-1
    800004ac:	c1594d83          	lbu	s11,-1003(s2)
    800004b0:	00100993          	li	s3,1
    800004b4:	49c33383          	ld	t2,1180(t1)
    800004b8:	009dfcb3          	and	s9,s11,s1
    800004bc:	0e1103a3          	sb	ra,231(sp)
    800004c0:	e5d18193          	addi	gp,gp,-419 # 80001d6d <_end+0x65d>
    800004c4:	00001d17          	auipc	s10,0x1
    800004c8:	f00d0d13          	addi	s10,s10,-256 # 800013c4 <test_memory+0xc4>
    800004cc:	400053b3          	sra	t2,zero,zero
    800004d0:	00b4e833          	or	a6,s1,a1
    800004d4:	00001117          	auipc	sp,0x1
    800004d8:	01510113          	addi	sp,sp,21 # 800014e9 <test_memory+0x1e9>
    800004dc:	011a4a33          	xor	s4,s4,a7
    800004e0:	00001e97          	auipc	t4,0x1
    800004e4:	cc4e8e93          	addi	t4,t4,-828 # 800011a4 <reg_x20_init+0x4>
    800004e8:	a4f00793          	li	a5,-1457
    800004ec:	94918da3          	sb	s1,-1701(gp) # 8000186b <_end+0x15b>
    800004f0:	bb800213          	li	tp,-1096
    800004f4:	00001917          	auipc	s2,0x1
    800004f8:	2ba90913          	addi	s2,s2,698 # 800017ae <_end+0x9e>
    800004fc:	35de8b83          	lb	s7,861(t4)
    80000500:	0246dfbb          	divuw	t6,a3,tp
    80000504:	40f2dc33          	sra	s8,t0,a5
    80000508:	02cb1533          	mulh	a0,s6,a2
    8000050c:	01417f33          	and	t5,sp,s4
    80000510:	00001317          	auipc	t1,0x1
    80000514:	a9a30313          	addi	t1,t1,-1382 # 80000faa <test_end+0x642>
    80000518:	03f99993          	slli	s3,s3,0x3f
    8000051c:	011f60b3          	or	ra,t5,a7
    80000520:	dec91623          	sh	a2,-532(s2)
    80000524:	fff00713          	li	a4,-1
    80000528:	3b7307a3          	sb	s7,943(t1)
    8000052c:	0b515d83          	lhu	s11,181(sp)
    80000530:	421f0263          	beq	t5,ra,80000954 <crash_forward>
    80000534:	bd0cfae3          	bgeu	s9,a6,80000108 <crash_backward>
    80000538:	00001197          	auipc	gp,0x1
    8000053c:	b1918193          	addi	gp,gp,-1255 # 80001051 <fromhost+0x11>
    80000540:	4139d633          	sra	a2,s3,s3
    80000544:	9a700113          	li	sp,-1625
    80000548:	01374733          	xor	a4,a4,s3
    8000054c:	a6718f93          	addi	t6,gp,-1433 # 80001977 <_end+0x267>
    80000550:	97818513          	addi	a0,gp,-1672 # 80001888 <_end+0x178>
    80000554:	4c400d93          	li	s11,1220
    80000558:	7b100393          	li	t2,1969
    8000055c:	0273febb          	remuw	t4,t2,t2
    80000560:	00713c33          	sltu	s8,sp,t2
    80000564:	97000f13          	li	t5,-1680
    80000568:	46500b13          	li	s6,1125
    8000056c:	036b1233          	mulh	tp,s6,s6
    80000570:	ab351a23          	sh	s3,-1356(a0)
    80000574:	5ff00893          	li	a7,1535
    80000578:	0be00913          	li	s2,190
    8000057c:	f97d4e03          	lbu	t3,-105(s10)
    80000580:	01214bb3          	xor	s7,sp,s2
    80000584:	4ac1bfa3          	sd	a2,1215(gp) # 800023cf <__global_pointer$+0x4bf>
    80000588:	b39fe283          	lwu	t0,-1223(t6)
    8000058c:	011f70b3          	and	ra,t5,a7
    80000590:	00ec7433          	and	s0,s8,a4
    80000594:	6e400793          	li	a5,1764
    80000598:	01346ab3          	or	s5,s0,s3
    8000059c:	3b547c63          	bgeu	s0,s5,80000954 <crash_forward>
    800005a0:	02fd96b3          	mulh	a3,s11,a5
    800005a4:	00001097          	auipc	ra,0x1
    800005a8:	fc108093          	addi	ra,ra,-63 # 80001565 <test_memory+0x265>
    800005ac:	00001217          	auipc	tp,0x1
    800005b0:	ad120213          	addi	tp,tp,-1327 # 8000107d <fromhost+0x3d>
    800005b4:	28e00e13          	li	t3,654
    800005b8:	0285a333          	mulhsu	t1,a1,s0
    800005bc:	00001c17          	auipc	s8,0x1
    800005c0:	8e2c0c13          	addi	s8,s8,-1822 # 80000e9e <test_end+0x536>
    800005c4:	00001297          	auipc	t0,0x1
    800005c8:	f8b28293          	addi	t0,t0,-117 # 8000154f <test_memory+0x24f>
    800005cc:	db109aa3          	sh	a7,-587(ra)
    800005d0:	b0618693          	addi	a3,gp,-1274 # 80001a16 <_end+0x306>
    800005d4:	38a00113          	li	sp,906
    800005d8:	c4c18493          	addi	s1,gp,-948 # 80001b5c <_end+0x44c>
    800005dc:	1c800193          	li	gp,456
    800005e0:	00000917          	auipc	s2,0x0
    800005e4:	70f90913          	addi	s2,s2,1807 # 80000cef <test_end+0x387>
    800005e8:	80e00313          	li	t1,-2034
    800005ec:	c8b6a723          	sw	a1,-882(a3)
    800005f0:	03ce6ab3          	rem	s5,t3,t3
    800005f4:	59300b13          	li	s6,1427
    800005f8:	01e81a1b          	slliw	s4,a6,0x1e
    800005fc:	00100b93          	li	s7,1
    80000600:	4fec4783          	lbu	a5,1278(s8)
    80000604:	27300d93          	li	s11,627
    80000608:	03fb9b93          	slli	s7,s7,0x3f
    8000060c:	67120383          	lb	t2,1649(tp) # 671 <_start-0x7ffff98f>
    80000610:	fff00e93          	li	t4,-1
    80000614:	00314833          	xor	a6,sp,gp
    80000618:	7e391603          	lh	a2,2019(s2)
    8000061c:	c4800f93          	li	t6,-952
    80000620:	03f315b3          	mulh	a1,t1,t6
    80000624:	d3018f13          	addi	t5,gp,-720 # 80001c40 <_end+0x530>
    80000628:	82f49f23          	sh	a5,-1986(s1)
    8000062c:	18e28ca3          	sb	a4,409(t0)
    80000630:	00001997          	auipc	s3,0x1
    80000634:	89798993          	addi	s3,s3,-1897 # 80000ec7 <test_end+0x55f>
    80000638:	41bb5d3b          	sraw	s10,s6,s11
    8000063c:	8d0f2703          	lw	a4,-1840(t5)
    80000640:	6599a6a3          	sw	s9,1613(s3)
    80000644:	00001797          	auipc	a5,0x1
    80000648:	c4978793          	addi	a5,a5,-951 # 8000128d <reg_x17_output+0x5>
    8000064c:	017eceb3          	xor	t4,t4,s7
    80000650:	d8918e13          	addi	t3,gp,-631 # 80001c99 <_end+0x589>
    80000654:	01d5fcb3          	and	s9,a1,t4
    80000658:	03d1adb3          	mulhsu	s11,gp,t4
    8000065c:	00001997          	auipc	s3,0x1
    80000660:	00e98993          	addi	s3,s3,14 # 8000166a <test_memory+0x36a>
    80000664:	d7d18f13          	addi	t5,gp,-643 # 80001c8d <_end+0x57d>
    80000668:	93918213          	addi	tp,gp,-1735 # 80001849 <_end+0x139>
    8000066c:	017ce8b3          	or	a7,s9,s7
    80000670:	03a1adb3          	mulhsu	s11,gp,s10
    80000674:	a9818393          	addi	t2,gp,-1384 # 800019a8 <_end+0x298>
    80000678:	d9299f83          	lh	t6,-622(s3)
    8000067c:	004214b3          	sll	s1,tp,tp
    80000680:	00100913          	li	s2,1
    80000684:	2757dc03          	lhu	s8,629(a5)
    80000688:	03f91913          	slli	s2,s2,0x3f
    8000068c:	cb321b03          	lh	s6,-845(tp) # fffffffffffffcb3 <__global_pointer$+0xffffffff7fffdda3>
    80000690:	00001197          	auipc	gp,0x1
    80000694:	01818193          	addi	gp,gp,24 # 800016a8 <test_memory+0x3a8>
    80000698:	f6e00513          	li	a0,-146
    8000069c:	9b0f29a3          	sw	a6,-1613(t5)
    800006a0:	00078213          	mv	tp,a5
    800006a4:	00001897          	auipc	a7,0x1
    800006a8:	9a888893          	addi	a7,a7,-1624 # 8000104c <fromhost+0xc>
    800006ac:	b9d00f93          	li	t6,-1123
    800006b0:	e0f50413          	addi	s0,a0,-497
    800006b4:	fff00313          	li	t1,-1
    800006b8:	01234333          	xor	t1,t1,s2
    800006bc:	00637a33          	and	s4,t1,t1
    800006c0:	41de0bb3          	sub	s7,t3,t4
    800006c4:	8b7e3d03          	ld	s10,-1865(t3)
    800006c8:	b4e39f23          	sh	a4,-1186(t2)
    800006cc:	f64f8e93          	addi	t4,t6,-156
    800006d0:	02b6a5b3          	mulhsu	a1,a3,a1
    800006d4:	41b48e33          	sub	t3,s1,s11
    800006d8:	00109c3b          	sllw	s8,ra,ra
    800006dc:	08b00b13          	li	s6,139
    800006e0:	aa600b93          	li	s7,-1370
    800006e4:	948d8d1b          	addiw	s10,s11,-1720
    800006e8:	5dd8a223          	sw	t4,1476(a7)
    800006ec:	417b5f33          	sra	t5,s6,s7
    800006f0:	dea19803          	lh	a6,-534(gp) # 80001cfa <_end+0x5ea>
    800006f4:	26a47063          	bgeu	s0,a0,80000954 <crash_forward>
    800006f8:	00000293          	li	t0,0
    800006fc:	00000113          	li	sp,0
    80000700:	00020c93          	mv	s9,tp
    80000704:	25dfc863          	blt	t6,t4,80000954 <crash_forward>
    80000708:	41395db3          	sra	s11,s2,s3
    8000070c:	03fc863b          	mulw	a2,s9,t6
    80000710:	07900793          	li	a5,121
    80000714:	9e22cae3          	blt	t0,sp,80000108 <crash_backward>
    80000718:	00000497          	auipc	s1,0x0
    8000071c:	5b348493          	addi	s1,s1,1459 # 80000ccb <test_end+0x363>
    80000720:	1c278393          	addi	t2,a5,450
    80000724:	01206733          	or	a4,zero,s2
    80000728:	7754a983          	lw	s3,1909(s1)
    8000072c:	0267df33          	divu	t5,a5,t1
    80000730:	e4600e13          	li	t3,-442
    80000734:	3fd00d93          	li	s11,1021
    80000738:	03bda533          	mulhsu	a0,s11,s11
    8000073c:	df600f93          	li	t6,-522
    80000740:	c8f00493          	li	s1,-881
    80000744:	21475863          	bge	a4,s4,80000954 <crash_forward>
    80000748:	9c77f0e3          	bgeu	a5,t2,80000108 <crash_backward>
    8000074c:	00100593          	li	a1,1
    80000750:	00001517          	auipc	a0,0x1
    80000754:	ac250513          	addi	a0,a0,-1342 # 80001212 <reg_x2_output+0x2>
    80000758:	03d5a9b3          	mulhsu	s3,a1,t4
    8000075c:	36900d13          	li	s10,873
    80000760:	009e16b3          	sll	a3,t3,s1
    80000764:	3c851323          	sh	s0,966(a0)
    80000768:	039cc7b3          	div	a5,s9,s9
    8000076c:	00001b17          	auipc	s6,0x1
    80000770:	d1fb0b13          	addi	s6,s6,-737 # 8000148b <test_memory+0x18b>
    80000774:	c0018313          	addi	t1,gp,-1024 # 80001b10 <_end+0x400>
    80000778:	01def733          	and	a4,t4,t4
    8000077c:	f3200193          	li	gp,-206
    80000780:	03ffd83b          	divuw	a6,t6,t6
    80000784:	9dc18c13          	addi	s8,gp,-1572 # 800018ec <_end+0x1dc>
    80000788:	01ad1ab3          	sll	s5,s10,s10
    8000078c:	017b80bb          	addw	ra,s7,s7
    80000790:	03f59593          	slli	a1,a1,0x3f
    80000794:	87d32223          	sw	t4,-1948(t1)
    80000798:	fff00e93          	li	t4,-1
    8000079c:	e5a00213          	li	tp,-422
    800007a0:	fd300c93          	li	s9,-45
    800007a4:	87400513          	li	a0,-1932
    800007a8:	b3a18993          	addi	s3,gp,-1222 # 80001a4a <_end+0x33a>
    800007ac:	9e500113          	li	sp,-1563
    800007b0:	002262b3          	or	t0,tp,sp
    800007b4:	03919433          	mulh	s0,gp,s9
    800007b8:	b7dc1323          	sh	t4,-1178(s8)
    800007bc:	76200093          	li	ra,1890
    800007c0:	00beceb3          	xor	t4,t4,a1
    800007c4:	8a700e13          	li	t3,-1881
    800007c8:	00000917          	auipc	s2,0x0
    800007cc:	6b990913          	addi	s2,s2,1721 # 80000e81 <test_end+0x519>
    800007d0:	ad99b323          	sd	s9,-1338(s3)
    800007d4:	92318d93          	addi	s11,gp,-1757 # 80001833 <_end+0x123>
    800007d8:	013f923b          	sllw	tp,t6,s3
    800007dc:	52cc0393          	addi	t2,s8,1324
    800007e0:	56f94f03          	lbu	t5,1391(s2)
    800007e4:	02424433          	div	s0,tp,tp
    800007e8:	00001b97          	auipc	s7,0x1
    800007ec:	e9ab8b93          	addi	s7,s7,-358 # 80001682 <test_memory+0x382>
    800007f0:	9a500f93          	li	t6,-1627
    800007f4:	7ec00713          	li	a4,2028
    800007f8:	02efeabb          	remw	s5,t6,a4
    800007fc:	0eeb2ca3          	sw	a4,249(s6)
    80000800:	a3900813          	li	a6,-1479
    80000804:	0c500693          	li	a3,197
    80000808:	ddddba03          	ld	s4,-547(s11)
    8000080c:	00001117          	auipc	sp,0x1
    80000810:	92110113          	addi	sp,sp,-1759 # 8000112d <reg_x5_init+0x5>
    80000814:	01d8f633          	and	a2,a7,t4
    80000818:	18d00213          	li	tp,397
    8000081c:	00001f17          	auipc	t5,0x1
    80000820:	d54f0f13          	addi	t5,t5,-684 # 80001570 <test_memory+0x270>
    80000824:	010097b3          	sll	a5,ra,a6
    80000828:	00001c97          	auipc	s9,0x1
    8000082c:	8b3c8c93          	addi	s9,s9,-1869 # 800010db <fromhost+0x9b>
    80000830:	fa4b8a23          	sb	tp,-76(s7)
    80000834:	03c56d33          	rem	s10,a0,t3
    80000838:	00000c17          	auipc	s8,0x0
    8000083c:	5fbc0c13          	addi	s8,s8,1531 # 80000e33 <test_end+0x4cb>
    80000840:	54dc3283          	ld	t0,1357(s8)
    80000844:	00ba68b3          	or	a7,s4,a1
    80000848:	4fdca8a3          	sw	t4,1265(s9)
    8000084c:	77368493          	addi	s1,a3,1907
    80000850:	46f16303          	lwu	t1,1135(sp)
    80000854:	058f3903          	ld	s2,88(t5)
    80000858:	40d7d41b          	sraiw	s0,a5,0xd
    8000085c:	84b00993          	li	s3,-1973
    80000860:	8b1644e3          	blt	a2,a7,80000108 <crash_backward>
    80000864:	013241b3          	xor	gp,tp,s3
    80000868:	00001097          	auipc	ra,0x1
    8000086c:	d8708093          	addi	ra,ra,-633 # 800015ef <test_memory+0x2ef>
    80000870:	dae18b13          	addi	s6,gp,-594 # 80001cbe <_end+0x5ae>
    80000874:	9b6b2983          	lw	s3,-1610(s6)
    80000878:	19100693          	li	a3,401
    8000087c:	e740a8a3          	sw	s4,-399(ra)
    80000880:	54468c93          	addi	s9,a3,1348
    80000884:	00b8f8b3          	and	a7,a7,a1
    80000888:	02e7d593          	srli	a1,a5,0x2e
    8000088c:	01001713          	slli	a4,zero,0x10
    80000890:	40c2d233          	sra	tp,t0,a2
    80000894:	00bd61b3          	or	gp,s10,a1
    80000898:	66a00e13          	li	t3,1642
    8000089c:	d8b18893          	addi	a7,gp,-629 # 80001c9b <_end+0x58b>
    800008a0:	81d00a93          	li	s5,-2019
    800008a4:	13a00813          	li	a6,314
    800008a8:	8ad8b6a3          	sd	a3,-1875(a7)
    800008ac:	03080a3b          	mulw	s4,a6,a6
    800008b0:	20043393          	sltiu	t2,s0,512
    800008b4:	0b6b4063          	blt	s6,s6,80000954 <crash_forward>
    800008b8:	035ad9bb          	divuw	s3,s5,s5
    800008bc:	02d6ddb3          	divu	s11,a3,a3
    800008c0:	01ce6eb3          	or	t4,t3,t3
    800008c4:	d7118c93          	addi	s9,gp,-655 # 80001c81 <_end+0x571>
    800008c8:	8afc8403          	lb	s0,-1873(s9)
    800008cc:	0040006f          	j	800008d0 <reg_dump>

00000000800008d0 <reg_dump>:
    800008d0:	00001097          	auipc	ra,0x1
    800008d4:	e3008093          	addi	ra,ra,-464 # 80001700 <loop_count>
    800008d8:	0000a103          	lw	sp,0(ra)
    800008dc:	fff10193          	addi	gp,sp,-1
    800008e0:	0030a023          	sw	gp,0(ra)
    800008e4:	8c0112e3          	bnez	sp,800001a8 <pseg_0>
    800008e8:	00001097          	auipc	ra,0x1
    800008ec:	91808093          	addi	ra,ra,-1768 # 80001200 <begin_signature>
    800008f0:	0000b023          	sd	zero,0(ra)
    800008f4:	0030bc23          	sd	gp,24(ra)
    800008f8:	0240b023          	sd	tp,32(ra)
    800008fc:	0250b423          	sd	t0,40(ra)
    80000900:	0260b823          	sd	t1,48(ra)
    80000904:	0270bc23          	sd	t2,56(ra)
    80000908:	0480b023          	sd	s0,64(ra)
    8000090c:	0490b423          	sd	s1,72(ra)
    80000910:	04a0b823          	sd	a0,80(ra)
    80000914:	04b0bc23          	sd	a1,88(ra)
    80000918:	06c0b023          	sd	a2,96(ra)
    8000091c:	06d0b423          	sd	a3,104(ra)
    80000920:	06e0b823          	sd	a4,112(ra)
    80000924:	06f0bc23          	sd	a5,120(ra)
    80000928:	0900b023          	sd	a6,128(ra)
    8000092c:	0920b823          	sd	s2,144(ra)
    80000930:	0930bc23          	sd	s3,152(ra)
    80000934:	0b40b023          	sd	s4,160(ra)
    80000938:	0b50b423          	sd	s5,168(ra)
    8000093c:	0da0b823          	sd	s10,208(ra)
    80000940:	0db0bc23          	sd	s11,216(ra)
    80000944:	0fc0b023          	sd	t3,224(ra)
    80000948:	0fd0b423          	sd	t4,232(ra)
    8000094c:	0ff0bc23          	sd	t6,248(ra)
    80000950:	0180006f          	j	80000968 <test_end>

0000000080000954 <crash_forward>:
    80000954:	0ff0000f          	fence
    80000958:	00018063          	beqz	gp,80000958 <crash_forward+0x4>
    8000095c:	00119193          	slli	gp,gp,0x1
    80000960:	0011e193          	ori	gp,gp,1
    80000964:	00000073          	ecall

0000000080000968 <test_end>:
    80000968:	0ff0000f          	fence
    8000096c:	00100193          	li	gp,1
    80000970:	00000073          	ecall
    80000974:	c0001073          	unimp
	...

Disassembly of section .tohost:

0000000080001000 <tohost>:
	...

0000000080001040 <fromhost>:
	...
