
test.elf:     file format elf64-littleriscv


Disassembly of section .text:

0000000080000000 <_start>:
    80000000:	00000097          	auipc	ra,0x0
    80000004:	0c008093          	addi	ra,ra,192 # 800000c0 <data>
    80000008:	03300513          	li	a0,51
    8000000c:	07700593          	li	a1,119
    80000010:	0bb00613          	li	a2,187
    80000014:	0ff00693          	li	a3,255
    80000018:	06700713          	li	a4,103
    8000001c:	0ef00793          	li	a5,239
    80000020:	00100813          	li	a6,1
    80000024:	02300893          	li	a7,35
    80000028:	04500913          	li	s2,69
    8000002c:	07700993          	li	s3,119
    80000030:	08900a13          	li	s4,137
    80000034:	0ab00a93          	li	s5,171
    80000038:	0cd00b13          	li	s6,205
    8000003c:	0ef00b93          	li	s7,239
    80000040:	00200c13          	li	s8,2
    80000044:	04600c93          	li	s9,70
    80000048:	00a08023          	sb	a0,0(ra)
    8000004c:	00b080a3          	sb	a1,1(ra)
    80000050:	00c08123          	sb	a2,2(ra)
    80000054:	00d081a3          	sb	a3,3(ra)
    80000058:	00e08223          	sb	a4,4(ra)
    8000005c:	00f082a3          	sb	a5,5(ra)
    80000060:	01008323          	sb	a6,6(ra)
    80000064:	011083a3          	sb	a7,7(ra)
    80000068:	01208423          	sb	s2,8(ra)
    8000006c:	013084a3          	sb	s3,9(ra)
    80000070:	01408523          	sb	s4,10(ra)
    80000074:	015085a3          	sb	s5,11(ra)
    80000078:	01608623          	sb	s6,12(ra)
    8000007c:	017086a3          	sb	s7,13(ra)
    80000080:	01808723          	sb	s8,14(ra)
    80000084:	019087a3          	sb	s9,15(ra)
    80000088:	0000b803          	ld	a6,0(ra)
    8000008c:	0080b883          	ld	a7,8(ra)
    80000090:	00000013          	nop
    80000094:	00000013          	nop
    80000098:	00000013          	nop
    8000009c:	00100513          	li	a0,1
    800000a0:	000805b7          	lui	a1,0x80
    800000a4:	0015859b          	addiw	a1,a1,1
    800000a8:	00c59593          	slli	a1,a1,0xc

00000000800000ac <_finish_loop>:
    800000ac:	00a5a023          	sw	a0,0(a1) # 80000 <_start-0x7ff80000>
    800000b0:	ffdff06f          	j	800000ac <_finish_loop>
