
test.elf:     file format elf64-littleriscv


Disassembly of section .text.init:

0000000080000000 <_start>:
    80000000:	0580006f          	j	80000058 <reset_vector>

0000000080000004 <trap_vector>:
    80000004:	34202f73          	csrr	t5,mcause
    80000008:	00800f93          	li	t6,8
    8000000c:	05ff0063          	beq	t5,t6,8000004c <write_tohost>
    80000010:	00900f93          	li	t6,9
    80000014:	03ff0c63          	beq	t5,t6,8000004c <write_tohost>
    80000018:	00b00f93          	li	t6,11
    8000001c:	03ff0863          	beq	t5,t6,8000004c <write_tohost>
    80000020:	00000f13          	li	t5,0
    80000024:	000f0463          	beqz	t5,8000002c <trap_vector+0x28>
    80000028:	000f0067          	jr	t5
    8000002c:	34202f73          	csrr	t5,mcause
    80000030:	000f5463          	bgez	t5,80000038 <handle_exception>
    80000034:	0140006f          	j	80000048 <other_exception>

0000000080000038 <handle_exception>:
    80000038:	34102e73          	csrr	t3,mepc
    8000003c:	004e0e13          	addi	t3,t3,4
    80000040:	341e1073          	csrw	mepc,t3
    80000044:	30200073          	mret

0000000080000048 <other_exception>:
    80000048:	5391e193          	ori	gp,gp,1337

000000008000004c <write_tohost>:
    8000004c:	00001f17          	auipc	t5,0x1
    80000050:	fa3f2a23          	sw	gp,-76(t5) # 80001000 <tohost>
    80000054:	ff9ff06f          	j	8000004c <write_tohost>

0000000080000058 <reset_vector>:
    80000058:	f1402573          	csrr	a0,mhartid
    8000005c:	00051063          	bnez	a0,8000005c <reset_vector+0x4>
    80000060:	00000297          	auipc	t0,0x0
    80000064:	01028293          	addi	t0,t0,16 # 80000070 <reset_vector+0x18>
    80000068:	30529073          	csrw	mtvec,t0
    8000006c:	18005073          	csrwi	satp,0
    80000070:	00000297          	auipc	t0,0x0
    80000074:	01c28293          	addi	t0,t0,28 # 8000008c <reset_vector+0x34>
    80000078:	30529073          	csrw	mtvec,t0
    8000007c:	fff00293          	li	t0,-1
    80000080:	3b029073          	csrw	pmpaddr0,t0
    80000084:	01f00293          	li	t0,31
    80000088:	3a029073          	csrw	pmpcfg0,t0
    8000008c:	00000297          	auipc	t0,0x0
    80000090:	01828293          	addi	t0,t0,24 # 800000a4 <reset_vector+0x4c>
    80000094:	30529073          	csrw	mtvec,t0
    80000098:	30205073          	csrwi	medeleg,0
    8000009c:	30305073          	csrwi	mideleg,0
    800000a0:	30405073          	csrwi	mie,0
    800000a4:	00000193          	li	gp,0
    800000a8:	00000297          	auipc	t0,0x0
    800000ac:	f5c28293          	addi	t0,t0,-164 # 80000004 <trap_vector>
    800000b0:	30529073          	csrw	mtvec,t0
    800000b4:	00100513          	li	a0,1
    800000b8:	01f51513          	slli	a0,a0,0x1f
    800000bc:	00055863          	bgez	a0,800000cc <reset_vector+0x74>
    800000c0:	0ff0000f          	fence
    800000c4:	00100193          	li	gp,1
    800000c8:	00000073          	ecall
    800000cc:	00000293          	li	t0,0
    800000d0:	00028e63          	beqz	t0,800000ec <reset_vector+0x94>
    800000d4:	10529073          	csrw	stvec,t0
    800000d8:	0000b2b7          	lui	t0,0xb
    800000dc:	1092829b          	addiw	t0,t0,265
    800000e0:	30229073          	csrw	medeleg,t0
    800000e4:	30202373          	csrr	t1,medeleg
    800000e8:	f66290e3          	bne	t0,t1,80000048 <other_exception>
    800000ec:	30005073          	csrwi	mstatus,0
    800000f0:	00000297          	auipc	t0,0x0
    800000f4:	01428293          	addi	t0,t0,20 # 80000104 <reset_vector+0xac>
    800000f8:	34129073          	csrw	mepc,t0
    800000fc:	f1402573          	csrr	a0,mhartid
    80000100:	30200073          	mret
    80000104:	0180006f          	j	8000011c <test_start>

0000000080000108 <crash_backward>:
    80000108:	0ff0000f          	fence
    8000010c:	00018063          	beqz	gp,8000010c <crash_backward+0x4>
    80000110:	00119193          	slli	gp,gp,0x1
    80000114:	0011e193          	ori	gp,gp,1
    80000118:	00000073          	ecall

000000008000011c <test_start>:
    8000011c:	00001f97          	auipc	t6,0x1
    80000120:	fe4f8f93          	addi	t6,t6,-28 # 80001100 <hidden_data>
    80000124:	000fb003          	ld	zero,0(t6)
    80000128:	008fb083          	ld	ra,8(t6)
    8000012c:	010fb103          	ld	sp,16(t6)
    80000130:	018fb183          	ld	gp,24(t6)
    80000134:	020fb203          	ld	tp,32(t6)
    80000138:	028fb283          	ld	t0,40(t6)
    8000013c:	030fb303          	ld	t1,48(t6)
    80000140:	038fb383          	ld	t2,56(t6)
    80000144:	040fb403          	ld	s0,64(t6)
    80000148:	048fb483          	ld	s1,72(t6)
    8000014c:	050fb503          	ld	a0,80(t6)
    80000150:	058fb583          	ld	a1,88(t6)
    80000154:	060fb603          	ld	a2,96(t6)
    80000158:	068fb683          	ld	a3,104(t6)
    8000015c:	070fb703          	ld	a4,112(t6)
    80000160:	078fb783          	ld	a5,120(t6)
    80000164:	080fb803          	ld	a6,128(t6)
    80000168:	088fb883          	ld	a7,136(t6)
    8000016c:	090fb903          	ld	s2,144(t6)
    80000170:	098fb983          	ld	s3,152(t6)
    80000174:	0a0fba03          	ld	s4,160(t6)
    80000178:	0a8fba83          	ld	s5,168(t6)
    8000017c:	0b0fbb03          	ld	s6,176(t6)
    80000180:	0b8fbb83          	ld	s7,184(t6)
    80000184:	0c0fbc03          	ld	s8,192(t6)
    80000188:	0c8fbc83          	ld	s9,200(t6)
    8000018c:	0d0fbd03          	ld	s10,208(t6)
    80000190:	0d8fbd83          	ld	s11,216(t6)
    80000194:	0e0fbe03          	ld	t3,224(t6)
    80000198:	0e8fbe83          	ld	t4,232(t6)
    8000019c:	0f0fbf03          	ld	t5,240(t6)
    800001a0:	0f8fbf83          	ld	t6,248(t6)
    800001a4:	0040006f          	j	800001a8 <pseg_0>

00000000800001a8 <pseg_0>:
    800001a8:	000a0693          	mv	a3,s4
    800001ac:	16200293          	li	t0,354
    800001b0:	00001597          	auipc	a1,0x1
    800001b4:	edf58593          	addi	a1,a1,-289 # 8000108f <fromhost+0x4f>
    800001b8:	04d00713          	li	a4,77
    800001bc:	01749413          	slli	s0,s1,0x17
    800001c0:	ee000893          	li	a7,-288
    800001c4:	c3700b93          	li	s7,-969
    800001c8:	a8700d13          	li	s10,-1401
    800001cc:	037b87bb          	mulw	a5,s7,s7
    800001d0:	23500313          	li	t1,565
    800001d4:	03a8c23b          	divw	tp,a7,s10
    800001d8:	00001997          	auipc	s3,0x1
    800001dc:	c2298993          	addi	s3,s3,-990 # 80000dfa <test_end+0x3de>
    800001e0:	00100093          	li	ra,1
    800001e4:	7cb00913          	li	s2,1995
    800001e8:	00068f93          	mv	t6,a3
    800001ec:	ccd00e93          	li	t4,-819
    800001f0:	6f898e03          	lb	t3,1784(s3)
    800001f4:	03085f33          	divu	t5,a6,a6
    800001f8:	4f15b4a3          	sd	a7,1257(a1)
    800001fc:	03f09093          	slli	ra,ra,0x3f
    80000200:	fff00193          	li	gp,-1
    80000204:	0011c1b3          	xor	gp,gp,ra
    80000208:	edb00113          	li	sp,-293
    8000020c:	eff6eee3          	bltu	a3,t6,80000108 <crash_backward>
    80000210:	00100a13          	li	s4,1
    80000214:	00e2a3b3          	slt	t2,t0,a4
    80000218:	40235dbb          	sraw	s11,t1,sp
    8000021c:	00377533          	and	a0,a4,gp
    80000220:	00001a97          	auipc	s5,0x1
    80000224:	22fa8a93          	addi	s5,s5,559 # 8000144f <test_memory+0x14f>
    80000228:	00156c33          	or	s8,a0,ra
    8000022c:	03fa1a13          	slli	s4,s4,0x3f
    80000230:	01d9083b          	addw	a6,s2,t4
    80000234:	f17a8c83          	lb	s9,-233(s5)
    80000238:	fff00613          	li	a2,-1
    8000023c:	01464633          	xor	a2,a2,s4
    80000240:	00c47b33          	and	s6,s0,a2
    80000244:	014de4b3          	or	s1,s11,s4
    80000248:	c7318413          	addi	s0,gp,-909 # 80001b83 <_end+0x473>
    8000024c:	4eb00313          	li	t1,1259
    80000250:	00001217          	auipc	tp,0x1
    80000254:	b1220213          	addi	tp,tp,-1262 # 80000d62 <test_end+0x346>
    80000258:	00001797          	auipc	a5,0x1
    8000025c:	1c378793          	addi	a5,a5,451 # 8000141b <test_memory+0x11b>
    80000260:	5b600713          	li	a4,1462
    80000264:	8fe41ca3          	sh	t5,-1799(s0)
    80000268:	68000c93          	li	s9,1664
    8000026c:	78001e63          	bnez	zero,80000a08 <crash_forward>
    80000270:	00000b13          	li	s6,0
    80000274:	00000693          	li	a3,0
    80000278:	4010d3b3          	sra	t2,ra,ra
    8000027c:	00e33f33          	sltu	t5,t1,a4
    80000280:	00001817          	auipc	a6,0x1
    80000284:	29b80813          	addi	a6,a6,667 # 8000151b <test_memory+0x21b>
    80000288:	00001097          	auipc	ra,0x1
    8000028c:	d3708093          	addi	ra,ra,-713 # 80000fbf <test_end+0x5a3>
    80000290:	039cfab3          	remu	s5,s9,s9
    80000294:	e7018c13          	addi	s8,gp,-400 # 80001d80 <_end+0x670>
    80000298:	4410ca03          	lbu	s4,1089(ra)
    8000029c:	76006663          	bltu	zero,zero,80000a08 <crash_forward>
    800002a0:	00001597          	auipc	a1,0x1
    800002a4:	03158593          	addi	a1,a1,49 # 800012d1 <reg_x26_output+0x1>
    800002a8:	019c8d3b          	addw	s10,s9,s9
    800002ac:	0f800113          	li	sp,248
    800002b0:	00001897          	auipc	a7,0x1
    800002b4:	23188893          	addi	a7,a7,561 # 800014e1 <test_memory+0x1e1>
    800002b8:	20678e83          	lb	t4,518(a5)
    800002bc:	0295553b          	divuw	a0,a0,s1
    800002c0:	32710f93          	addi	t6,sp,807
    800002c4:	79120183          	lb	gp,1937(tp) # 791 <_start-0x7ffff86f>
    800002c8:	01ad02bb          	addw	t0,s10,s10
    800002cc:	83dc02a3          	sb	t4,-2011(s8)
    800002d0:	05359483          	lh	s1,83(a1)
    800002d4:	00100f13          	li	t5,1
    800002d8:	037be9bb          	remw	s3,s7,s7
    800002dc:	db700393          	li	t2,-585
    800002e0:	00001097          	auipc	ra,0x1
    800002e4:	30e08093          	addi	ra,ra,782 # 800015ee <test_memory+0x2ee>
    800002e8:	00001797          	auipc	a5,0x1
    800002ec:	3c578793          	addi	a5,a5,965 # 800016ad <test_memory+0x3ad>
    800002f0:	21500a93          	li	s5,533
    800002f4:	6c700613          	li	a2,1735
    800002f8:	e4e0dd03          	lhu	s10,-434(ra)
    800002fc:	ec98a3a3          	sw	s1,-313(a7)
    80000300:	61900593          	li	a1,1561
    80000304:	02c65933          	divu	s2,a2,a2
    80000308:	08982b83          	lw	s7,137(a6)
    8000030c:	b3f00493          	li	s1,-1217
    80000310:	bff18b93          	addi	s7,gp,-1025 # 80001b0f <_end+0x3ff>
    80000314:	83c38e13          	addi	t3,t2,-1988
    80000318:	6fc3c863          	blt	t2,t3,80000a08 <crash_forward>
    8000031c:	014a0a3b          	addw	s4,s4,s4
    80000320:	00100e13          	li	t3,1
    80000324:	03fe1e13          	slli	t3,t3,0x3f
    80000328:	fff00093          	li	ra,-1
    8000032c:	aa0b8fa3          	sb	zero,-1345(s7)
    80000330:	00001c97          	auipc	s9,0x1
    80000334:	352c8c93          	addi	s9,s9,850 # 80001682 <test_memory+0x382>
    80000338:	fee00193          	li	gp,-18
    8000033c:	000c9c23          	sh	zero,24(s9)
    80000340:	4eb00b93          	li	s7,1259
    80000344:	0095d9bb          	srlw	s3,a1,s1
    80000348:	03ff1f13          	slli	t5,t5,0x3f
    8000034c:	fff00e93          	li	t4,-1
    80000350:	498b8c93          	addi	s9,s7,1176
    80000354:	00001697          	auipc	a3,0x1
    80000358:	1a468693          	addi	a3,a3,420 # 800014f8 <test_memory+0x1f8>
    8000035c:	1f700c93          	li	s9,503
    80000360:	01c0c0b3          	xor	ra,ra,t3
    80000364:	001773b3          	and	t2,a4,ra
    80000368:	01eeceb3          	xor	t4,t4,t5
    8000036c:	01c068b3          	or	a7,zero,t3
    80000370:	41ffdbb3          	sra	s7,t6,t6
    80000374:	c9779403          	lh	s0,-873(a5)
    80000378:	7c400213          	li	tp,1988
    8000037c:	01db7533          	and	a0,s6,t4
    80000380:	00001a17          	auipc	s4,0x1
    80000384:	e30a0a13          	addi	s4,s4,-464 # 800011b0 <reg_x22_init>
    80000388:	b9418b93          	addi	s7,gp,-1132 # 80001aa4 <_end+0x394>
    8000038c:	00100913          	li	s2,1
    80000390:	03f91913          	slli	s2,s2,0x3f
    80000394:	01eb6333          	or	t1,s6,t5
    80000398:	0318f9b3          	remu	s3,a7,a7
    8000039c:	00001417          	auipc	s0,0x1
    800003a0:	cb040413          	addi	s0,s0,-848 # 8000104c <fromhost+0xc>
    800003a4:	1986b603          	ld	a2,408(a3)
    800003a8:	fff00d13          	li	s10,-1
    800003ac:	02c9c13b          	divw	sp,s3,a2
    800003b0:	d4650ce3          	beq	a0,t1,80000108 <crash_backward>
    800003b4:	024182bb          	mulw	t0,gp,tp
    800003b8:	f0b18593          	addi	a1,gp,-245 # 80001e1b <_end+0x70b>
    800003bc:	039cf4bb          	remuw	s1,s9,s9
    800003c0:	68a40123          	sb	a0,1666(s0)
    800003c4:	012d4d33          	xor	s10,s10,s2
    800003c8:	8895eb03          	lwu	s6,-1911(a1)
    800003cc:	4f3a03a3          	sb	s3,1255(s4)
    800003d0:	03def13b          	remuw	sp,t4,t4
    800003d4:	75f00713          	li	a4,1887
    800003d8:	63138863          	beq	t2,a7,80000a08 <crash_forward>
    800003dc:	c24baf83          	lw	t6,-988(s7)
    800003e0:	036b7233          	remu	tp,s6,s6
    800003e4:	96c00c93          	li	s9,-1684
    800003e8:	d6b00493          	li	s1,-661
    800003ec:	00ea8dbb          	addw	s11,s5,a4
    800003f0:	01ae7c33          	and	s8,t3,s10
    800003f4:	3cf00e13          	li	t3,975
    800003f8:	60001863          	bnez	zero,80000a08 <crash_forward>
    800003fc:	b3618413          	addi	s0,gp,-1226 # 80001a46 <_end+0x336>
    80000400:	a3d40b83          	lb	s7,-1475(s0)
    80000404:	012c6833          	or	a6,s8,s2
    80000408:	035adab3          	divu	s5,s5,s5
    8000040c:	bd9c8f13          	addi	t5,s9,-1063
    80000410:	c2b18e93          	addi	t4,gp,-981 # 80001b3b <_end+0x42b>
    80000414:	c9600293          	li	t0,-874
    80000418:	037b8633          	mul	a2,s7,s7
    8000041c:	00001697          	auipc	a3,0x1
    80000420:	ca068693          	addi	a3,a3,-864 # 800010bc <fromhost+0x7c>
    80000424:	98b00793          	li	a5,-1653
    80000428:	4054d1b3          	sra	gp,s1,t0
    8000042c:	63700a13          	li	s4,1591
    80000430:	014e58bb          	srlw	a7,t3,s4
    80000434:	018c5fb3          	srl	t6,s8,s8
    80000438:	9a1ea983          	lw	s3,-1631(t4)
    8000043c:	9af00313          	li	t1,-1617
    80000440:	00001b17          	auipc	s6,0x1
    80000444:	bbfb0b13          	addi	s6,s6,-1089 # 80000fff <test_end+0x5e3>
    80000448:	00100593          	li	a1,1
    8000044c:	5bec8e63          	beq	s9,t5,80000a08 <crash_forward>
    80000450:	b2d18113          	addi	sp,gp,-1235 # 80001a3d <_end+0x32d>
    80000454:	5a001a63          	bnez	zero,80000a08 <crash_forward>
    80000458:	3966dd83          	lhu	s11,918(a3)
    8000045c:	5ca00c13          	li	s8,1482
    80000460:	d6200913          	li	s2,-670
    80000464:	017c1cbb          	sllw	s9,s8,s7
    80000468:	4c9b1aa3          	sh	s1,1237(s6)
    8000046c:	03f59593          	slli	a1,a1,0x3f
    80000470:	012c1bb3          	sll	s7,s8,s2
    80000474:	07d00d13          	li	s10,125
    80000478:	00100613          	li	a2,1
    8000047c:	03f61613          	slli	a2,a2,0x3f
    80000480:	4fb00e93          	li	t4,1275
    80000484:	4cf00a93          	li	s5,1231
    80000488:	d0900c13          	li	s8,-759
    8000048c:	cac18413          	addi	s0,gp,-852 # 80001bbc <_end+0x4ac>
    80000490:	0b700293          	li	t0,183
    80000494:	fff00f13          	li	t5,-1
    80000498:	a1b139a3          	sd	s11,-1517(sp)
    8000049c:	4d300913          	li	s2,1235
    800004a0:	00cf4f33          	xor	t5,t5,a2
    800004a4:	005e9833          	sll	a6,t4,t0
    800004a8:	0067853b          	addw	a0,a5,t1
    800004ac:	01e17733          	and	a4,sp,t5
    800004b0:	b6d18113          	addi	sp,gp,-1171 # 80001a7d <_end+0x36d>
    800004b4:	00001897          	auipc	a7,0x1
    800004b8:	f3588893          	addi	a7,a7,-203 # 800013e9 <test_memory+0xe9>
    800004bc:	228d0f93          	addi	t6,s10,552
    800004c0:	00d03cb3          	snez	s9,a3
    800004c4:	89f16683          	lwu	a3,-1889(sp)
    800004c8:	032c3bb3          	mulhu	s7,s8,s2
    800004cc:	03ce61b3          	rem	gp,t3,t3
    800004d0:	bc300e93          	li	t4,-1085
    800004d4:	14e884a3          	sb	a4,329(a7)
    800004d8:	036c0cb3          	mul	s9,s8,s6
    800004dc:	97844a03          	lbu	s4,-1672(s0)
    800004e0:	00001c17          	auipc	s8,0x1
    800004e4:	fc3c0c13          	addi	s8,s8,-61 # 800014a3 <test_memory+0x1a3>
    800004e8:	00001297          	auipc	t0,0x1
    800004ec:	2e028293          	addi	t0,t0,736 # 800017c8 <_end+0xb8>
    800004f0:	ce500493          	li	s1,-795
    800004f4:	409a8e3b          	subw	t3,s5,s1
    800004f8:	017c0323          	sb	s7,6(s8)
    800004fc:	00001d97          	auipc	s11,0x1
    80000500:	ccad8d93          	addi	s11,s11,-822 # 800011c6 <reg_x24_init+0x6>
    80000504:	00100c93          	li	s9,1
    80000508:	bd618893          	addi	a7,gp,-1066 # 80001ae6 <_end+0x3d6>
    8000050c:	03fc9c93          	slli	s9,s9,0x3f
    80000510:	029f9b13          	slli	s6,t6,0x29
    80000514:	00c9e9b3          	or	s3,s3,a2
    80000518:	fff00093          	li	ra,-1
    8000051c:	4f374663          	blt	a4,s3,80000a08 <crash_forward>
    80000520:	00b0c0b3          	xor	ra,ra,a1
    80000524:	fff00913          	li	s2,-1
    80000528:	001873b3          	and	t2,a6,ra
    8000052c:	01de9333          	sll	t1,t4,t4
    80000530:	09000993          	li	s3,144
    80000534:	51cd9d23          	sh	t3,1306(s11)
    80000538:	00001b17          	auipc	s6,0x1
    8000053c:	b64b0b13          	addi	s6,s6,-1180 # 8000109c <fromhost+0x5c>
    80000540:	01994933          	xor	s2,s2,s9
    80000544:	00001317          	auipc	t1,0x1
    80000548:	25830313          	addi	t1,t1,600 # 8000179c <_end+0x8c>
    8000054c:	00001117          	auipc	sp,0x1
    80000550:	8c810113          	addi	sp,sp,-1848 # 80000e14 <test_end+0x3f8>
    80000554:	00001517          	auipc	a0,0x1
    80000558:	dcb50513          	addi	a0,a0,-565 # 8000131f <test_memory+0x1f>
    8000055c:	79598f13          	addi	t5,s3,1941
    80000560:	99c18d93          	addi	s11,gp,-1636 # 800018ac <_end+0x19c>
    80000564:	74e00a93          	li	s5,1870
    80000568:	c6818613          	addi	a2,gp,-920 # 80001b78 <_end+0x468>
    8000056c:	493f6e63          	bltu	t5,s3,80000a08 <crash_forward>
    80000570:	012ffbb3          	and	s7,t6,s2
    80000574:	02a57e33          	remu	t3,a0,a0
    80000578:	00b1e233          	or	tp,gp,a1
    8000057c:	8b500a13          	li	s4,-1867
    80000580:	035ad4b3          	divu	s1,s5,s5
    80000584:	b87252e3          	bge	tp,t2,80000108 <crash_backward>
    80000588:	b95a3d13          	sltiu	s10,s4,-1131
    8000058c:	27a520a3          	sw	s10,609(a0)
    80000590:	af4dec03          	lwu	s8,-1292(s11)
    80000594:	db82d783          	lhu	a5,-584(t0)
    80000598:	0194e1b3          	or	gp,s1,s9
    8000059c:	8c889403          	lh	s0,-1848(a7)
    800005a0:	58d10ca3          	sb	a3,1433(sp)
    800005a4:	b771d2e3          	bge	gp,s7,80000108 <crash_backward>
    800005a8:	e8433e83          	ld	t4,-380(t1)
    800005ac:	00001f17          	auipc	t5,0x1
    800005b0:	f4af0f13          	addi	t5,t5,-182 # 800014f6 <test_memory+0x1f6>
    800005b4:	00001997          	auipc	s3,0x1
    800005b8:	83e98993          	addi	s3,s3,-1986 # 80000df2 <test_end+0x3d6>
    800005bc:	6ad9bb23          	sd	a3,1718(s3)
    800005c0:	ab2606a3          	sb	s2,-1363(a2)
    800005c4:	03def23b          	remuw	tp,t4,t4
    800005c8:	f0f00493          	li	s1,-241
    800005cc:	0094ce33          	xor	t3,s1,s1
    800005d0:	00001517          	auipc	a0,0x1
    800005d4:	1f650513          	addi	a0,a0,502 # 800017c6 <_end+0xb6>
    800005d8:	a8800593          	li	a1,-1400
    800005dc:	00001297          	auipc	t0,0x1
    800005e0:	a8228293          	addi	t0,t0,-1406 # 8000105e <fromhost+0x1e>
    800005e4:	fb2f0f83          	lb	t6,-78(t5)
    800005e8:	00001417          	auipc	s0,0x1
    800005ec:	dd540413          	addi	s0,s0,-555 # 800013bd <test_memory+0xbd>
    800005f0:	39400613          	li	a2,916
    800005f4:	4ee00d13          	li	s10,1262
    800005f8:	01ad0f3b          	addw	t5,s10,s10
    800005fc:	00c021b3          	sgtz	gp,a2
    80000600:	578b6703          	lwu	a4,1400(s6)
    80000604:	48b00e13          	li	t3,1163
    80000608:	0141ac33          	slt	s8,gp,s4
    8000060c:	c1000813          	li	a6,-1008
    80000610:	7d800d93          	li	s11,2008
    80000614:	030a36b3          	mulhu	a3,s4,a6
    80000618:	4fd29523          	sh	t4,1258(t0)
    8000061c:	4b900493          	li	s1,1209
    80000620:	e0053523          	sd	zero,-502(a0)
    80000624:	aea18a93          	addi	s5,gp,-1302 # 800019fa <_end+0x2ea>
    80000628:	02b5c133          	div	sp,a1,a1
    8000062c:	fee00093          	li	ra,-18
    80000630:	cab00e93          	li	t4,-853
    80000634:	1c346b83          	lwu	s7,451(s0)
    80000638:	41bd0cb3          	sub	s9,s10,s11
    8000063c:	af0a9e23          	sh	a6,-1284(s5)
    80000640:	415ad39b          	sraiw	t2,s5,0x15
    80000644:	03de7fb3          	remu	t6,t3,t4
    80000648:	02f7893b          	mulw	s2,a5,a5
    8000064c:	0094a9b3          	slt	s3,s1,s1
    80000650:	8b600313          	li	t1,-1866
    80000654:	00663233          	sltu	tp,a2,t1
    80000658:	03527733          	remu	a4,tp,s5
    8000065c:	5bd00893          	li	a7,1469
    80000660:	0110b7b3          	sltu	a5,ra,a7
    80000664:	00001797          	auipc	a5,0x1
    80000668:	ddd78793          	addi	a5,a5,-547 # 80001441 <test_memory+0x141>
    8000066c:	02b5b1b3          	mulhu	gp,a1,a1
    80000670:	00000b97          	auipc	s7,0x0
    80000674:	6c7b8b93          	addi	s7,s7,1735 # 80000d37 <test_end+0x31b>
    80000678:	60db9403          	lh	s0,1549(s7)
    8000067c:	00001c17          	auipc	s8,0x1
    80000680:	98ec0c13          	addi	s8,s8,-1650 # 8000100a <tohost+0xa>
    80000684:	01ef573b          	srlw	a4,t5,t5
    80000688:	00001117          	auipc	sp,0x1
    8000068c:	14310113          	addi	sp,sp,323 # 800017cb <_end+0xbb>
    80000690:	00001617          	auipc	a2,0x1
    80000694:	b9760613          	addi	a2,a2,-1129 # 80001227 <reg_x4_output+0x7>
    80000698:	4f8c4f83          	lbu	t6,1272(s8)
    8000069c:	03018233          	mul	tp,gp,a6
    800006a0:	e5b2fc93          	andi	s9,t0,-421
    800006a4:	00001a97          	auipc	s5,0x1
    800006a8:	e24a8a93          	addi	s5,s5,-476 # 800014c8 <test_memory+0x1c8>
    800006ac:	d2510e83          	lb	t4,-731(sp)
    800006b0:	00100c13          	li	s8,1
    800006b4:	01ef64b3          	or	s1,t5,t5
    800006b8:	07a00193          	li	gp,122
    800006bc:	428d5213          	srai	tp,s10,0x28
    800006c0:	03fc1c13          	slli	s8,s8,0x3f
    800006c4:	00001997          	auipc	s3,0x1
    800006c8:	94998993          	addi	s3,s3,-1719 # 8000100d <tohost+0xd>
    800006cc:	00001f17          	auipc	t5,0x1
    800006d0:	ea5f0f13          	addi	t5,t5,-347 # 80001571 <test_memory+0x271>
    800006d4:	00195513          	srli	a0,s2,0x1
    800006d8:	0787c283          	lbu	t0,120(a5)
    800006dc:	00100a13          	li	s4,1
    800006e0:	2d166583          	lwu	a1,721(a2)
    800006e4:	01a00493          	li	s1,26
    800006e8:	03fa1a13          	slli	s4,s4,0x3f
    800006ec:	43400293          	li	t0,1076
    800006f0:	67448513          	addi	a0,s1,1652
    800006f4:	a0001ae3          	bnez	zero,80000108 <crash_backward>
    800006f8:	ace00d13          	li	s10,-1330
    800006fc:	af618113          	addi	sp,gp,-1290 # 80001a06 <_end+0x2f6>
    80000700:	fff00693          	li	a3,-1
    80000704:	4e79bda3          	sd	t2,1275(s3)
    80000708:	0c018713          	addi	a4,gp,192 # 80001fd0 <__global_pointer$+0xc0>
    8000070c:	0252d5bb          	divuw	a1,t0,t0
    80000710:	00001b17          	auipc	s6,0x1
    80000714:	c21b0b13          	addi	s6,s6,-991 # 80001331 <test_memory+0x31>
    80000718:	1b7b2303          	lw	t1,439(s6)
    8000071c:	41ad093b          	subw	s2,s10,s10
    80000720:	02ff1d83          	lh	s11,47(t5)
    80000724:	00000e97          	auipc	t4,0x0
    80000728:	4dde8e93          	addi	t4,t4,1245 # 80000c01 <test_end+0x1e5>
    8000072c:	ec4aae23          	sw	tp,-292(s5)
    80000730:	fff00f93          	li	t6,-1
    80000734:	0146c6b3          	xor	a3,a3,s4
    80000738:	0143099b          	addiw	s3,t1,20
    8000073c:	41d481b3          	sub	gp,s1,t4
    80000740:	70beab83          	lw	s7,1803(t4)
    80000744:	c3900793          	li	a5,-967
    80000748:	00001497          	auipc	s1,0x1
    8000074c:	cb548493          	addi	s1,s1,-843 # 800013fd <test_memory+0xfd>
    80000750:	018fcfb3          	xor	t6,t6,s8
    80000754:	90b10d23          	sb	a1,-1766(sp)
    80000758:	aa818f13          	addi	t5,gp,-1368 # 800019b8 <_end+0x2a8>
    8000075c:	00000897          	auipc	a7,0x0
    80000760:	47788893          	addi	a7,a7,1143 # 80000bd3 <test_end+0x1b7>
    80000764:	00d0f3b3          	and	t2,ra,a3
    80000768:	014cee33          	or	t3,s9,s4
    8000076c:	00068313          	mv	t1,a3
    80000770:	bcef0903          	lb	s2,-1074(t5)
    80000774:	d1b18b13          	addi	s6,gp,-741 # 80001c2b <_end+0x51b>
    80000778:	01fa7433          	and	s0,s4,t6
    8000077c:	00001197          	auipc	gp,0x1
    80000780:	d2d18193          	addi	gp,gp,-723 # 800014a9 <test_memory+0x1a9>
    80000784:	00001a97          	auipc	s5,0x1
    80000788:	d84a8a93          	addi	s5,s5,-636 # 80001508 <test_memory+0x208>
    8000078c:	018f6cb3          	or	s9,t5,s8
    80000790:	00030593          	mv	a1,t1
    80000794:	27c3ca63          	blt	t2,t3,80000a08 <crash_forward>
    80000798:	0a8abd03          	ld	s10,168(s5)
    8000079c:	3a800613          	li	a2,936
    800007a0:	49c00713          	li	a4,1180
    800007a4:	ea400913          	li	s2,-348
    800007a8:	7358d803          	lhu	a6,1845(a7)
    800007ac:	00100f13          	li	t5,1
    800007b0:	3f570293          	addi	t0,a4,1013
    800007b4:	94e2eae3          	bltu	t0,a4,80000108 <crash_backward>
    800007b8:	00c7c233          	xor	tp,a5,a2
    800007bc:	2ac00a13          	li	s4,684
    800007c0:	fd248ca3          	sb	s2,-39(s1)
    800007c4:	62500e93          	li	t4,1573
    800007c8:	a3c00813          	li	a6,-1476
    800007cc:	a5618513          	addi	a0,gp,-1450 # 80001966 <_end+0x256>
    800007d0:	a6a53d83          	ld	s11,-1430(a0)
    800007d4:	b7e00393          	li	t2,-1154
    800007d8:	007a58bb          	srlw	a7,s4,t2
    800007dc:	01081d33          	sll	s10,a6,a6
    800007e0:	03ff1f13          	slli	t5,t5,0x3f
    800007e4:	bb700093          	li	ra,-1097
    800007e8:	fff00a93          	li	s5,-1
    800007ec:	03d92133          	mulhsu	sp,s2,t4
    800007f0:	0210fbbb          	remuw	s7,ra,ra
    800007f4:	0eb199a3          	sh	a1,243(gp) # 80002003 <__global_pointer$+0xf3>
    800007f8:	971b1983          	lh	s3,-1679(s6)
    800007fc:	01eacab3          	xor	s5,s5,t5
    80000800:	0156fe33          	and	t3,a3,s5
    80000804:	01e5e6b3          	or	a3,a1,t5
    80000808:	20de4063          	blt	t3,a3,80000a08 <crash_forward>
    8000080c:	e9c18713          	addi	a4,gp,-356 # 80001dac <_end+0x69c>
    80000810:	40f6023b          	subw	tp,a2,a5
    80000814:	36000d13          	li	s10,864
    80000818:	03ef2cb3          	mulhsu	s9,t5,t5
    8000081c:	89670f03          	lb	t5,-1898(a4)
    80000820:	00001e97          	auipc	t4,0x1
    80000824:	afae8e93          	addi	t4,t4,-1286 # 8000131a <test_memory+0x1a>
    80000828:	00001817          	auipc	a6,0x1
    8000082c:	ac580813          	addi	a6,a6,-1339 # 800012ed <reg_x29_output+0x5>
    80000830:	e8218893          	addi	a7,gp,-382 # 80001d92 <_end+0x682>
    80000834:	9aa18513          	addi	a0,gp,-1622 # 800018ba <_end+0x1aa>
    80000838:	148ec903          	lbu	s2,328(t4)
    8000083c:	11b81783          	lh	a5,283(a6)
    80000840:	00001a17          	auipc	s4,0x1
    80000844:	f08a0a13          	addi	s4,s4,-248 # 80001748 <_end+0x38>
    80000848:	2b200c13          	li	s8,690
    8000084c:	40100093          	li	ra,1025
    80000850:	418c05bb          	subw	a1,s8,s8
    80000854:	f7aa4283          	lbu	t0,-134(s4)
    80000858:	00761dbb          	sllw	s11,a2,t2
    8000085c:	039c8f33          	mul	t5,s9,s9
    80000860:	6bb34313          	xori	t1,t1,1723
    80000864:	b5418a93          	addi	s5,gp,-1196 # 80001a64 <_end+0x354>
    80000868:	03ad713b          	remuw	sp,s10,s10
    8000086c:	bffa8b23          	sb	t6,-1034(s5)
    80000870:	40d00b13          	li	s6,1037
    80000874:	aba00593          	li	a1,-1350
    80000878:	f2e00f13          	li	t5,-210
    8000087c:	ba600613          	li	a2,-1114
    80000880:	ab100793          	li	a5,-1359
    80000884:	d9e51483          	lh	s1,-610(a0)
    80000888:	92e8a983          	lw	s3,-1746(a7)
    8000088c:	2a800393          	li	t2,680
    80000890:	00c0dfb3          	srl	t6,ra,a2
    80000894:	00001e97          	auipc	t4,0x1
    80000898:	dc4e8e93          	addi	t4,t4,-572 # 80001658 <test_memory+0x358>
    8000089c:	00001817          	auipc	a6,0x1
    800008a0:	c3580813          	addi	a6,a6,-971 # 800014d1 <test_memory+0x1d1>
    800008a4:	c6178913          	addi	s2,a5,-927
    800008a8:	e6d823a3          	sw	a3,-409(a6)
    800008ac:	fede85a3          	sb	a3,-21(t4)
    800008b0:	00738d33          	add	s10,t2,t2
    800008b4:	00100b93          	li	s7,1
    800008b8:	03fb9b93          	slli	s7,s7,0x3f
    800008bc:	00001517          	auipc	a0,0x1
    800008c0:	d3450513          	addi	a0,a0,-716 # 800015f0 <test_memory+0x2f0>
    800008c4:	00cad8bb          	srlw	a7,s5,a2
    800008c8:	84f950e3          	bge	s2,a5,80000108 <crash_backward>
    800008cc:	40b5d333          	sra	t1,a1,a1
    800008d0:	55400993          	li	s3,1364
    800008d4:	21187493          	andi	s1,a6,529
    800008d8:	41ef0a33          	sub	s4,t5,t5
    800008dc:	00000213          	li	tp,0
    800008e0:	00001c17          	auipc	s8,0x1
    800008e4:	863c0c13          	addi	s8,s8,-1949 # 80001143 <reg_x8_init+0x3>
    800008e8:	00000713          	li	a4,0
    800008ec:	007b5433          	srl	s0,s6,t2
    800008f0:	00697fb3          	and	t6,s2,t1
    800008f4:	fff00e13          	li	t3,-1
    800008f8:	64e98613          	addi	a2,s3,1614
    800008fc:	e3e50083          	lb	ra,-450(a0)
    80000900:	11364463          	blt	a2,s3,80000a08 <crash_forward>
    80000904:	000ed83b          	srlw	a6,t4,zero
    80000908:	017e4e33          	xor	t3,t3,s7
    8000090c:	d4718293          	addi	t0,gp,-697 # 80001c57 <_end+0x547>
    80000910:	9e4bba93          	sltiu	s5,s7,-1564
    80000914:	fee21a63          	bne	tp,a4,80000108 <crash_backward>
    80000918:	00001d97          	auipc	s11,0x1
    8000091c:	c83d8d93          	addi	s11,s11,-893 # 8000159b <test_memory+0x29b>
    80000920:	e9e00713          	li	a4,-354
    80000924:	01c8f6b3          	and	a3,a7,t3
    80000928:	b6718393          	addi	t2,gp,-1177 # 80001a77 <_end+0x367>
    8000092c:	037ba4b3          	mulhsu	s1,s7,s7
    80000930:	9613de83          	lhu	t4,-1695(t2)
    80000934:	017ce1b3          	or	gp,s9,s7
    80000938:	9212cc83          	lbu	s9,-1759(t0)
    8000093c:	025db103          	ld	sp,37(s11)
    80000940:	5e500813          	li	a6,1509
    80000944:	b3600a13          	li	s4,-1226
    80000948:	03482233          	mulhsu	tp,a6,s4
    8000094c:	09600893          	li	a7,150
    80000950:	53b00913          	li	s2,1339
    80000954:	e9a18793          	addi	a5,gp,-358 # 80001daa <_end+0x69a>
    80000958:	41270b33          	sub	s6,a4,s2
    8000095c:	82678f03          	lb	t5,-2010(a5)
    80000960:	4fac28a3          	sw	s10,1265(s8)
    80000964:	fc700593          	li	a1,-57
    80000968:	02b5e533          	rem	a0,a1,a1
    8000096c:	03788d13          	addi	s10,a7,55
    80000970:	00001a97          	auipc	s5,0x1
    80000974:	a91a8a93          	addi	s5,s5,-1391 # 80001401 <test_memory+0x101>
    80000978:	2cbaa083          	lw	ra,715(s5)
    8000097c:	0040006f          	j	80000980 <reg_dump>

0000000080000980 <reg_dump>:
    80000980:	00001097          	auipc	ra,0x1
    80000984:	d8008093          	addi	ra,ra,-640 # 80001700 <loop_count>
    80000988:	0000a103          	lw	sp,0(ra)
    8000098c:	fff10193          	addi	gp,sp,-1
    80000990:	0030a023          	sw	gp,0(ra)
    80000994:	80011ae3          	bnez	sp,800001a8 <pseg_0>
    80000998:	00001097          	auipc	ra,0x1
    8000099c:	86808093          	addi	ra,ra,-1944 # 80001200 <begin_signature>
    800009a0:	0000b023          	sd	zero,0(ra)
    800009a4:	0020b823          	sd	sp,16(ra)
    800009a8:	0030bc23          	sd	gp,24(ra)
    800009ac:	0240b023          	sd	tp,32(ra)
    800009b0:	0260b823          	sd	t1,48(ra)
    800009b4:	0480b023          	sd	s0,64(ra)
    800009b8:	0490b423          	sd	s1,72(ra)
    800009bc:	04a0b823          	sd	a0,80(ra)
    800009c0:	04b0bc23          	sd	a1,88(ra)
    800009c4:	06c0b023          	sd	a2,96(ra)
    800009c8:	06d0b423          	sd	a3,104(ra)
    800009cc:	06e0b823          	sd	a4,112(ra)
    800009d0:	0900b023          	sd	a6,128(ra)
    800009d4:	0910b423          	sd	a7,136(ra)
    800009d8:	0920b823          	sd	s2,144(ra)
    800009dc:	0930bc23          	sd	s3,152(ra)
    800009e0:	0b40b023          	sd	s4,160(ra)
    800009e4:	0b60b823          	sd	s6,176(ra)
    800009e8:	0b70bc23          	sd	s7,184(ra)
    800009ec:	0d90b423          	sd	s9,200(ra)
    800009f0:	0da0b823          	sd	s10,208(ra)
    800009f4:	0fc0b023          	sd	t3,224(ra)
    800009f8:	0fd0b423          	sd	t4,232(ra)
    800009fc:	0fe0b823          	sd	t5,240(ra)
    80000a00:	0ff0bc23          	sd	t6,248(ra)
    80000a04:	0180006f          	j	80000a1c <test_end>

0000000080000a08 <crash_forward>:
    80000a08:	0ff0000f          	fence
    80000a0c:	00018063          	beqz	gp,80000a0c <crash_forward+0x4>
    80000a10:	00119193          	slli	gp,gp,0x1
    80000a14:	0011e193          	ori	gp,gp,1
    80000a18:	00000073          	ecall

0000000080000a1c <test_end>:
    80000a1c:	0ff0000f          	fence
    80000a20:	00100193          	li	gp,1
    80000a24:	00000073          	ecall
    80000a28:	c0001073          	unimp
	...

Disassembly of section .tohost:

0000000080001000 <tohost>:
	...

0000000080001040 <fromhost>:
	...
