
test.elf:     file format elf64-littleriscv


Disassembly of section .text.init:

0000000080000000 <_start>:
    80000000:	0580006f          	j	80000058 <reset_vector>

0000000080000004 <trap_vector>:
    80000004:	34202f73          	csrr	t5,mcause
    80000008:	00800f93          	li	t6,8
    8000000c:	05ff0063          	beq	t5,t6,8000004c <write_tohost>
    80000010:	00900f93          	li	t6,9
    80000014:	03ff0c63          	beq	t5,t6,8000004c <write_tohost>
    80000018:	00b00f93          	li	t6,11
    8000001c:	03ff0863          	beq	t5,t6,8000004c <write_tohost>
    80000020:	00000f13          	li	t5,0
    80000024:	000f0463          	beqz	t5,8000002c <trap_vector+0x28>
    80000028:	000f0067          	jr	t5
    8000002c:	34202f73          	csrr	t5,mcause
    80000030:	000f5463          	bgez	t5,80000038 <handle_exception>
    80000034:	0140006f          	j	80000048 <other_exception>

0000000080000038 <handle_exception>:
    80000038:	34102e73          	csrr	t3,mepc
    8000003c:	004e0e13          	addi	t3,t3,4
    80000040:	341e1073          	csrw	mepc,t3
    80000044:	30200073          	mret

0000000080000048 <other_exception>:
    80000048:	5391e193          	ori	gp,gp,1337

000000008000004c <write_tohost>:
    8000004c:	00001f17          	auipc	t5,0x1
    80000050:	fa3f2a23          	sw	gp,-76(t5) # 80001000 <tohost>
    80000054:	ff9ff06f          	j	8000004c <write_tohost>

0000000080000058 <reset_vector>:
    80000058:	f1402573          	csrr	a0,mhartid
    8000005c:	00051063          	bnez	a0,8000005c <reset_vector+0x4>
    80000060:	00000297          	auipc	t0,0x0
    80000064:	01028293          	addi	t0,t0,16 # 80000070 <reset_vector+0x18>
    80000068:	30529073          	csrw	mtvec,t0
    8000006c:	18005073          	csrwi	satp,0
    80000070:	00000297          	auipc	t0,0x0
    80000074:	01c28293          	addi	t0,t0,28 # 8000008c <reset_vector+0x34>
    80000078:	30529073          	csrw	mtvec,t0
    8000007c:	fff00293          	li	t0,-1
    80000080:	3b029073          	csrw	pmpaddr0,t0
    80000084:	01f00293          	li	t0,31
    80000088:	3a029073          	csrw	pmpcfg0,t0
    8000008c:	00000297          	auipc	t0,0x0
    80000090:	01828293          	addi	t0,t0,24 # 800000a4 <reset_vector+0x4c>
    80000094:	30529073          	csrw	mtvec,t0
    80000098:	30205073          	csrwi	medeleg,0
    8000009c:	30305073          	csrwi	mideleg,0
    800000a0:	30405073          	csrwi	mie,0
    800000a4:	00000193          	li	gp,0
    800000a8:	00000297          	auipc	t0,0x0
    800000ac:	f5c28293          	addi	t0,t0,-164 # 80000004 <trap_vector>
    800000b0:	30529073          	csrw	mtvec,t0
    800000b4:	00100513          	li	a0,1
    800000b8:	01f51513          	slli	a0,a0,0x1f
    800000bc:	00055863          	bgez	a0,800000cc <reset_vector+0x74>
    800000c0:	0ff0000f          	fence
    800000c4:	00100193          	li	gp,1
    800000c8:	00000073          	ecall
    800000cc:	00000293          	li	t0,0
    800000d0:	00028e63          	beqz	t0,800000ec <reset_vector+0x94>
    800000d4:	10529073          	csrw	stvec,t0
    800000d8:	0000b2b7          	lui	t0,0xb
    800000dc:	1092829b          	addiw	t0,t0,265
    800000e0:	30229073          	csrw	medeleg,t0
    800000e4:	30202373          	csrr	t1,medeleg
    800000e8:	f66290e3          	bne	t0,t1,80000048 <other_exception>
    800000ec:	30005073          	csrwi	mstatus,0
    800000f0:	00000297          	auipc	t0,0x0
    800000f4:	01428293          	addi	t0,t0,20 # 80000104 <reset_vector+0xac>
    800000f8:	34129073          	csrw	mepc,t0
    800000fc:	f1402573          	csrr	a0,mhartid
    80000100:	30200073          	mret
    80000104:	0180006f          	j	8000011c <test_start>

0000000080000108 <crash_backward>:
    80000108:	0ff0000f          	fence
    8000010c:	00018063          	beqz	gp,8000010c <crash_backward+0x4>
    80000110:	00119193          	slli	gp,gp,0x1
    80000114:	0011e193          	ori	gp,gp,1
    80000118:	00000073          	ecall

000000008000011c <test_start>:
    8000011c:	00001f97          	auipc	t6,0x1
    80000120:	fe4f8f93          	addi	t6,t6,-28 # 80001100 <hidden_data>
    80000124:	000fb003          	ld	zero,0(t6)
    80000128:	008fb083          	ld	ra,8(t6)
    8000012c:	010fb103          	ld	sp,16(t6)
    80000130:	018fb183          	ld	gp,24(t6)
    80000134:	020fb203          	ld	tp,32(t6)
    80000138:	028fb283          	ld	t0,40(t6)
    8000013c:	030fb303          	ld	t1,48(t6)
    80000140:	038fb383          	ld	t2,56(t6)
    80000144:	040fb403          	ld	s0,64(t6)
    80000148:	048fb483          	ld	s1,72(t6)
    8000014c:	050fb503          	ld	a0,80(t6)
    80000150:	058fb583          	ld	a1,88(t6)
    80000154:	060fb603          	ld	a2,96(t6)
    80000158:	068fb683          	ld	a3,104(t6)
    8000015c:	070fb703          	ld	a4,112(t6)
    80000160:	078fb783          	ld	a5,120(t6)
    80000164:	080fb803          	ld	a6,128(t6)
    80000168:	088fb883          	ld	a7,136(t6)
    8000016c:	090fb903          	ld	s2,144(t6)
    80000170:	098fb983          	ld	s3,152(t6)
    80000174:	0a0fba03          	ld	s4,160(t6)
    80000178:	0a8fba83          	ld	s5,168(t6)
    8000017c:	0b0fbb03          	ld	s6,176(t6)
    80000180:	0b8fbb83          	ld	s7,184(t6)
    80000184:	0c0fbc03          	ld	s8,192(t6)
    80000188:	0c8fbc83          	ld	s9,200(t6)
    8000018c:	0d0fbd03          	ld	s10,208(t6)
    80000190:	0d8fbd83          	ld	s11,216(t6)
    80000194:	0e0fbe03          	ld	t3,224(t6)
    80000198:	0e8fbe83          	ld	t4,232(t6)
    8000019c:	0f0fbf03          	ld	t5,240(t6)
    800001a0:	0f8fbf83          	ld	t6,248(t6)
    800001a4:	0040006f          	j	800001a8 <pseg_0>

00000000800001a8 <pseg_0>:
    800001a8:	50e00993          	li	s3,1294
    800001ac:	92c18c13          	addi	s8,gp,-1748 # 8000183c <_end+0x12c>
    800001b0:	13b00513          	li	a0,315
    800001b4:	02a562bb          	remw	t0,a0,a0
    800001b8:	fce00913          	li	s2,-50
    800001bc:	019cbe33          	sltu	t3,s9,s9
    800001c0:	746a0413          	addi	s0,s4,1862
    800001c4:	b83cad93          	slti	s11,s9,-1149
    800001c8:	01e8133b          	sllw	t1,a6,t5
    800001cc:	d2900613          	li	a2,-727
    800001d0:	00001b17          	auipc	s6,0x1
    800001d4:	37eb0b13          	addi	s6,s6,894 # 8000154e <test_memory+0x24e>
    800001d8:	25200f93          	li	t6,594
    800001dc:	d8300193          	li	gp,-637
    800001e0:	c4f00593          	li	a1,-945
    800001e4:	00001097          	auipc	ra,0x1
    800001e8:	17508093          	addi	ra,ra,373 # 80001359 <test_memory+0x59>
    800001ec:	25b0ad03          	lw	s10,603(ra)
    800001f0:	e72b6483          	lwu	s1,-398(s6)
    800001f4:	00001e97          	auipc	t4,0x1
    800001f8:	25ae8e93          	addi	t4,t4,602 # 8000144e <test_memory+0x14e>
    800001fc:	00100e13          	li	t3,1
    80000200:	02b5f833          	remu	a6,a1,a1
    80000204:	f07e9b23          	sh	t2,-234(t4)
    80000208:	59a00a93          	li	s5,1434
    8000020c:	e4460a13          	addi	s4,a2,-444
    80000210:	1ed00c93          	li	s9,493
    80000214:	03295bbb          	divuw	s7,s2,s2
    80000218:	00001297          	auipc	t0,0x1
    8000021c:	ea728293          	addi	t0,t0,-345 # 800010bf <fromhost+0x7f>
    80000220:	4932bca3          	sd	s3,1177(t0)
    80000224:	410000b3          	neg	ra,a6
    80000228:	5a998793          	addi	a5,s3,1449
    8000022c:	a4a00313          	li	t1,-1462
    80000230:	039cd8b3          	divu	a7,s9,s9
    80000234:	a2400b93          	li	s7,-1500
    80000238:	015183b3          	add	t2,gp,s5
    8000023c:	2de00d13          	li	s10,734
    80000240:	00bf8f3b          	addw	t5,t6,a1
    80000244:	b26c1703          	lh	a4,-1242(s8)
    80000248:	0cb00493          	li	s1,203
    8000024c:	01731633          	sll	a2,t1,s7
    80000250:	409d083b          	subw	a6,s10,s1
    80000254:	b1018213          	addi	tp,gp,-1264 # 80001a20 <_end+0x310>
    80000258:	9b400293          	li	t0,-1612
    8000025c:	00001a17          	auipc	s4,0x1
    80000260:	1b0a0a13          	addi	s4,s4,432 # 8000140c <test_memory+0x10c>
    80000264:	7d37e263          	bltu	a5,s3,80000a28 <crash_forward>
    80000268:	000a6b03          	lwu	s6,0(s4)
    8000026c:	98728093          	addi	ra,t0,-1657
    80000270:	00002933          	sltz	s2,zero
    80000274:	bc918693          	addi	a3,gp,-1079 # 80001ad9 <_end+0x3c9>
    80000278:	03fe1e13          	slli	t3,t3,0x3f
    8000027c:	2866ba93          	sltiu	s5,a3,646
    80000280:	9f418b93          	addi	s7,gp,-1548 # 80001904 <_end+0x1f4>
    80000284:	000a4fb3          	xor	t6,s4,zero
    80000288:	03cd84b3          	mul	s1,s11,t3
    8000028c:	fff00413          	li	s0,-1
    80000290:	6be00893          	li	a7,1726
    80000294:	00001c17          	auipc	s8,0x1
    80000298:	d9cc0c13          	addi	s8,s8,-612 # 80001030 <tohost+0x30>
    8000029c:	00001a17          	auipc	s4,0x1
    800002a0:	0a5a0a13          	addi	s4,s4,165 # 80001341 <test_memory+0x41>
    800002a4:	3d0c3c83          	ld	s9,976(s8)
    800002a8:	cdd00293          	li	t0,-803
    800002ac:	03ef2733          	mulhsu	a4,t5,t5
    800002b0:	00001f97          	auipc	t6,0x1
    800002b4:	230f8f93          	addi	t6,t6,560 # 800014e0 <test_memory+0x1e0>
    800002b8:	20c00613          	li	a2,524
    800002bc:	00001c17          	auipc	s8,0x1
    800002c0:	099c0c13          	addi	s8,s8,153 # 80001355 <test_memory+0x55>
    800002c4:	019cb7b3          	sltu	a5,s9,s9
    800002c8:	00001d17          	auipc	s10,0x1
    800002cc:	2ded0d13          	addi	s10,s10,734 # 800015a6 <test_memory+0x2a6>
    800002d0:	02c665b3          	rem	a1,a2,a2
    800002d4:	02589b33          	mulh	s6,a7,t0
    800002d8:	0215f83b          	remuw	a6,a1,ra
    800002dc:	ecef9c83          	lh	s9,-306(t6)
    800002e0:	00001a97          	auipc	s5,0x1
    800002e4:	282a8a93          	addi	s5,s5,642 # 80001562 <test_memory+0x262>
    800002e8:	bd825103          	lhu	sp,-1064(tp) # fffffffffffffbd8 <__global_pointer$+0xffffffff7fffdcc8>
    800002ec:	066a9823          	sh	t1,112(s5)
    800002f0:	01c44433          	xor	s0,s0,t3
    800002f4:	050c0b23          	sb	a6,86(s8)
    800002f8:	02c66ebb          	remw	t4,a2,a2
    800002fc:	decbb903          	ld	s2,-532(s7)
    80000300:	293a1483          	lh	s1,659(s4)
    80000304:	61300593          	li	a1,1555
    80000308:	026674b3          	remu	s1,a2,t1
    8000030c:	00001c17          	auipc	s8,0x1
    80000310:	45bc0c13          	addi	s8,s8,1115 # 80001767 <_end+0x57>
    80000314:	00001197          	auipc	gp,0x1
    80000318:	2c218193          	addi	gp,gp,706 # 800015d6 <test_memory+0x2d6>
    8000031c:	b3268023          	sb	s2,-1248(a3)
    80000320:	008c7db3          	and	s11,s8,s0
    80000324:	39600f93          	li	t6,918
    80000328:	00d69f1b          	slliw	t5,a3,0xd
    8000032c:	0bc1bd23          	sd	t3,186(gp) # 80001fca <__global_pointer$+0xba>
    80000330:	0ead0303          	lb	t1,234(s10)
    80000334:	0dbe0e9b          	addiw	t4,t3,219
    80000338:	c79c3883          	ld	a7,-903(s8)
    8000033c:	00100813          	li	a6,1
    80000340:	00e509b3          	add	s3,a0,a4
    80000344:	d4d00493          	li	s1,-691
    80000348:	03f81813          	slli	a6,a6,0x3f
    8000034c:	01e00f13          	li	t5,30
    80000350:	43c00c93          	li	s9,1084
    80000354:	00000093          	li	ra,0
    80000358:	00001317          	auipc	t1,0x1
    8000035c:	fec30313          	addi	t1,t1,-20 # 80001344 <test_memory+0x44>
    80000360:	fff00913          	li	s2,-1
    80000364:	0235e233          	rem	tp,a1,gp
    80000368:	03e496b3          	mulh	a3,s1,t5
    8000036c:	0339a1b3          	mulhsu	gp,s3,s3
    80000370:	e1900a13          	li	s4,-487
    80000374:	01ac539b          	srliw	t2,s8,0x1a
    80000378:	03f5f733          	remu	a4,a1,t6
    8000037c:	259308a3          	sb	s9,593(t1)
    80000380:	f9900c13          	li	s8,-103
    80000384:	014cdab3          	srl	s5,s9,s4
    80000388:	10300293          	li	t0,259
    8000038c:	00001e97          	auipc	t4,0x1
    80000390:	178e8e93          	addi	t4,t4,376 # 80001504 <test_memory+0x204>
    80000394:	00000113          	li	sp,0
    80000398:	01094933          	xor	s2,s2,a6
    8000039c:	e08ee983          	lwu	s3,-504(t4)
    800003a0:	012cfb33          	and	s6,s9,s2
    800003a4:	bf500b93          	li	s7,-1035
    800003a8:	038c18b3          	mulh	a7,s8,s8
    800003ac:	01c8e533          	or	a0,a7,t3
    800003b0:	0372d63b          	divuw	a2,t0,s7
    800003b4:	010b67b3          	or	a5,s6,a6
    800003b8:	01f1131b          	slliw	t1,sp,0x1f
    800003bc:	0052c6b3          	xor	a3,t0,t0
    800003c0:	d3f00513          	li	a0,-705
    800003c4:	a2218413          	addi	s0,gp,-1502 # 80001932 <_end+0x222>
    800003c8:	0339d4b3          	divu	s1,s3,s3
    800003cc:	00001617          	auipc	a2,0x1
    800003d0:	e3e60613          	addi	a2,a2,-450 # 8000120a <reg_x1_output+0x2>
    800003d4:	af800913          	li	s2,-1288
    800003d8:	84a00113          	li	sp,-1974
    800003dc:	00001897          	auipc	a7,0x1
    800003e0:	a5988893          	addi	a7,a7,-1447 # 80000e35 <test_end+0x3f9>
    800003e4:	80800e93          	li	t4,-2040
    800003e8:	ed400b93          	li	s7,-300
    800003ec:	19e00213          	li	tp,414
    800003f0:	a1800f93          	li	t6,-1512
    800003f4:	3b361b23          	sh	s3,950(a2)
    800003f8:	34000293          	li	t0,832
    800003fc:	00001817          	auipc	a6,0x1
    80000400:	eb880813          	addi	a6,a6,-328 # 800012b4 <reg_x22_output+0x4>
    80000404:	f5300593          	li	a1,-173
    80000408:	03fef733          	remu	a4,t4,t6
    8000040c:	baf00193          	li	gp,-1105
    80000410:	023159b3          	divu	s3,sp,gp
    80000414:	00454cb3          	xor	s9,a0,tp
    80000418:	31c81d23          	sh	t3,794(a6)
    8000041c:	7fb8eb03          	lwu	s6,2043(a7)
    80000420:	38500693          	li	a3,901
    80000424:	02b2cabb          	divw	s5,t0,a1
    80000428:	012947b3          	xor	a5,s2,s2
    8000042c:	d9800713          	li	a4,-616
    80000430:	017b83bb          	addw	t2,s7,s7
    80000434:	02d69333          	mulh	t1,a3,a3
    80000438:	99918613          	addi	a2,gp,-1639 # 800018a9 <_end+0x199>
    8000043c:	00001597          	auipc	a1,0x1
    80000440:	28358593          	addi	a1,a1,643 # 800016bf <test_memory+0x3bf>
    80000444:	adf63483          	ld	s1,-1313(a2)
    80000448:	00000213          	li	tp,0
    8000044c:	014a78b3          	and	a7,s4,s4
    80000450:	0322733b          	remuw	t1,tp,s2
    80000454:	00001d97          	auipc	s11,0x1
    80000458:	301d8d93          	addi	s11,s11,769 # 80001755 <_end+0x45>
    8000045c:	00001897          	auipc	a7,0x1
    80000460:	c9588893          	addi	a7,a7,-875 # 800010f1 <fromhost+0xb1>
    80000464:	00000913          	li	s2,0
    80000468:	03f48d33          	mul	s10,s1,t6
    8000046c:	ad718813          	addi	a6,gp,-1321 # 800019e7 <_end+0x2d7>
    80000470:	f3fd9ba3          	sh	t6,-201(s11)
    80000474:	dea00393          	li	t2,-534
    80000478:	2fd8c303          	lbu	t1,765(a7)
    8000047c:	d5c44e03          	lbu	t3,-676(s0)
    80000480:	38800993          	li	s3,904
    80000484:	00001417          	auipc	s0,0x1
    80000488:	e6a40413          	addi	s0,s0,-406 # 800012ee <reg_x29_output+0x6>
    8000048c:	02ba4933          	div	s2,s4,a1
    80000490:	f4159103          	lh	sp,-191(a1)
    80000494:	00100213          	li	tp,1
    80000498:	b8a18593          	addi	a1,gp,-1142 # 80001a9a <_end+0x38a>
    8000049c:	9e270e93          	addi	t4,a4,-1566
    800004a0:	00000e17          	auipc	t3,0x0
    800004a4:	719e0e13          	addi	t3,t3,1817 # 80000bb9 <test_end+0x17d>
    800004a8:	00001917          	auipc	s2,0x1
    800004ac:	24190913          	addi	s2,s2,577 # 800016e9 <test_memory+0x3e9>
    800004b0:	70400693          	li	a3,1796
    800004b4:	e39925a3          	sw	s9,-469(s2)
    800004b8:	17740303          	lb	t1,375(s0)
    800004bc:	c5d766e3          	bltu	a4,t4,80000108 <crash_backward>
    800004c0:	77de2da3          	sw	t4,1915(t3)
    800004c4:	a3981283          	lh	t0,-1479(a6)
    800004c8:	02d3bbb3          	mulhu	s7,t2,a3
    800004cc:	00e71d33          	sll	s10,a4,a4
    800004d0:	9b95c103          	lbu	sp,-1607(a1)
    800004d4:	03f21213          	slli	tp,tp,0x3f
    800004d8:	1b400a93          	li	s5,436
    800004dc:	a9400793          	li	a5,-1388
    800004e0:	74798c93          	addi	s9,s3,1863
    800004e4:	00f7f533          	and	a0,a5,a5
    800004e8:	79f00f93          	li	t6,1951
    800004ec:	e5b00b13          	li	s6,-421
    800004f0:	fff00893          	li	a7,-1
    800004f4:	01fac1b3          	xor	gp,s5,t6
    800004f8:	036b6633          	rem	a2,s6,s6
    800004fc:	00100f13          	li	t5,1
    80000500:	0048c8b3          	xor	a7,a7,tp
    80000504:	011b74b3          	and	s1,s6,a7
    80000508:	03ff1f13          	slli	t5,t5,0x3f
    8000050c:	0040edb3          	or	s11,ra,tp
    80000510:	fff00093          	li	ra,-1
    80000514:	01e0c0b3          	xor	ra,ra,t5
    80000518:	00001417          	auipc	s0,0x1
    8000051c:	a5740413          	addi	s0,s0,-1449 # 80000f6f <test_end+0x533>
    80000520:	00187a33          	and	s4,a6,ra
    80000524:	01a18ebb          	addw	t4,gp,s10
    80000528:	01ea6c33          	or	s8,s4,t5
    8000052c:	00001197          	auipc	gp,0x1
    80000530:	bf118193          	addi	gp,gp,-1039 # 8000111d <reg_x3_init+0x5>
    80000534:	63542603          	lw	a2,1589(s0)
    80000538:	00001497          	auipc	s1,0x1
    8000053c:	10948493          	addi	s1,s1,265 # 80001641 <test_memory+0x341>
    80000540:	00001f97          	auipc	t6,0x1
    80000544:	bcaf8f93          	addi	t6,t6,-1078 # 8000110a <reg_x1_init+0x2>
    80000548:	bd4c60e3          	bltu	s8,s4,80000108 <crash_backward>
    8000054c:	00001917          	auipc	s2,0x1
    80000550:	fbf90913          	addi	s2,s2,-65 # 8000150b <test_memory+0x20b>
    80000554:	c4900513          	li	a0,-951
    80000558:	a9900e13          	li	t3,-1383
    8000055c:	b7f00d13          	li	s10,-1153
    80000560:	d7b4b7a3          	sd	s11,-657(s1)
    80000564:	00001a97          	auipc	s5,0x1
    80000568:	271a8a93          	addi	s5,s5,625 # 800017d5 <_end+0xc5>
    8000056c:	41a55b3b          	sraw	s6,a0,s10
    80000570:	00001597          	auipc	a1,0x1
    80000574:	21958593          	addi	a1,a1,537 # 80001789 <_end+0x79>
    80000578:	16192203          	lw	tp,353(s2)
    8000057c:	00001617          	auipc	a2,0x1
    80000580:	afe60613          	addi	a2,a2,-1282 # 8000107a <fromhost+0x3a>
    80000584:	03ce6133          	rem	sp,t3,t3
    80000588:	3fafe803          	lwu	a6,1018(t6)
    8000058c:	36a00693          	li	a3,874
    80000590:	00001097          	auipc	ra,0x1
    80000594:	90c08093          	addi	ra,ra,-1780 # 80000e9c <test_end+0x460>
    80000598:	21b00713          	li	a4,539
    8000059c:	00001997          	auipc	s3,0x1
    800005a0:	fc898993          	addi	s3,s3,-56 # 80001564 <test_memory+0x264>
    800005a4:	00f7e533          	or	a0,a5,a5
    800005a8:	4da64e83          	lbu	t4,1242(a2)
    800005ac:	00001a17          	auipc	s4,0x1
    800005b0:	a57a0a13          	addi	s4,s4,-1449 # 80001003 <tohost+0x3>
    800005b4:	00001417          	auipc	s0,0x1
    800005b8:	92440413          	addi	s0,s0,-1756 # 80000ed8 <test_end+0x49c>
    800005bc:	a6f18f13          	addi	t5,gp,-1425 # 8000197f <_end+0x26f>
    800005c0:	40e70d33          	sub	s10,a4,a4
    800005c4:	4d40ec03          	lwu	s8,1236(ra)
    800005c8:	00d4929b          	slliw	t0,s1,0xd
    800005cc:	38900e93          	li	t4,905
    800005d0:	8b38811b          	addiw	sp,a7,-1869
    800005d4:	cf8aaba3          	sw	s8,-777(s5)
    800005d8:	51500493          	li	s1,1301
    800005dc:	4c200d13          	li	s10,1218
    800005e0:	4dd43c23          	sd	t4,1240(s0)
    800005e4:	53aa24a3          	sw	s10,1321(s4)
    800005e8:	0aa99c83          	lh	s9,170(s3)
    800005ec:	41ad053b          	subw	a0,s10,s10
    800005f0:	0139ae33          	slt	t3,s3,s3
    800005f4:	98d00313          	li	t1,-1651
    800005f8:	bbff0b03          	lb	s6,-1089(t5)
    800005fc:	5b618423          	sb	s6,1448(gp) # 800024b8 <__global_pointer$+0x5a8>
    80000600:	d2b00813          	li	a6,-725
    80000604:	00001617          	auipc	a2,0x1
    80000608:	c5a60613          	addi	a2,a2,-934 # 8000125e <reg_x11_output+0x6>
    8000060c:	02e6e3b3          	rem	t2,a3,a4
    80000610:	d0800a93          	li	s5,-760
    80000614:	e2700413          	li	s0,-473
    80000618:	03469a13          	slli	s4,a3,0x34
    8000061c:	3bb62523          	sw	s11,938(a2)
    80000620:	0304ffbb          	remuw	t6,s1,a6
    80000624:	026368bb          	remw	a7,t1,t1
    80000628:	028460bb          	remw	ra,s0,s0
    8000062c:	ac004ee3          	bltz	zero,80000108 <crash_backward>
    80000630:	dac00c13          	li	s8,-596
    80000634:	035a813b          	mulw	sp,s5,s5
    80000638:	00001417          	auipc	s0,0x1
    8000063c:	fb740413          	addi	s0,s0,-73 # 800015ef <test_memory+0x2ef>
    80000640:	0108073b          	addw	a4,a6,a6
    80000644:	ec65afa3          	sw	t1,-289(a1)
    80000648:	00001f17          	auipc	t5,0x1
    8000064c:	96ef0f13          	addi	t5,t5,-1682 # 80000fb6 <test_end+0x57a>
    80000650:	00001b17          	auipc	s6,0x1
    80000654:	80eb0b13          	addi	s6,s6,-2034 # 80000e5e <test_end+0x422>
    80000658:	00000497          	auipc	s1,0x0
    8000065c:	76348493          	addi	s1,s1,1891 # 80000dbb <test_end+0x37f>
    80000660:	ee200893          	li	a7,-286
    80000664:	4118d63b          	sraw	a2,a7,a7
    80000668:	00001197          	auipc	gp,0x1
    8000066c:	b8d18193          	addi	gp,gp,-1139 # 800011f5 <reg_x30_init+0x5>
    80000670:	00001397          	auipc	t2,0x1
    80000674:	91c38393          	addi	t2,t2,-1764 # 80000f8c <test_end+0x550>
    80000678:	e6700913          	li	s2,-409
    8000067c:	032940bb          	divw	ra,s2,s2
    80000680:	00001f97          	auipc	t6,0x1
    80000684:	bfcf8f93          	addi	t6,t6,-1028 # 8000127c <reg_x15_output+0x4>
    80000688:	ae800713          	li	a4,-1304
    8000068c:	9fb00313          	li	t1,-1541
    80000690:	95e18e13          	addi	t3,gp,-1698 # 8000186e <_end+0x15e>
    80000694:	00e730b3          	sltu	ra,a4,a4
    80000698:	cf518b93          	addi	s7,gp,-779 # 80001c05 <_end+0x4f5>
    8000069c:	d26e01a3          	sb	t1,-733(t3)
    800006a0:	360f8123          	sb	zero,866(t6)
    800006a4:	5a54a803          	lw	a6,1445(s1)
    800006a8:	63ef5a83          	lhu	s5,1598(t5)
    800006ac:	fa143103          	ld	sp,-95(s0)
    800006b0:	15f19c83          	lh	s9,351(gp) # 8000206f <__global_pointer$+0x15f>
    800006b4:	6503e683          	lwu	a3,1616(t2)
    800006b8:	00100413          	li	s0,1
    800006bc:	00100c93          	li	s9,1
    800006c0:	00f7d4b3          	srl	s1,a5,a5
    800006c4:	5f4b2123          	sw	s4,1506(s6)
    800006c8:	020001bb          	mulw	gp,zero,zero
    800006cc:	0063523b          	srlw	tp,t1,t1
    800006d0:	7e100613          	li	a2,2017
    800006d4:	03f41413          	slli	s0,s0,0x3f
    800006d8:	b9218513          	addi	a0,gp,-1134 # 80001aa2 <_end+0x392>
    800006dc:	1ba00713          	li	a4,442
    800006e0:	ef918213          	addi	tp,gp,-263 # 80001e09 <_end+0x6f9>
    800006e4:	97200893          	li	a7,-1678
    800006e8:	00100093          	li	ra,1
    800006ec:	03fc9c93          	slli	s9,s9,0x3f
    800006f0:	fff00113          	li	sp,-1
    800006f4:	fff00e13          	li	t3,-1
    800006f8:	00814133          	xor	sp,sp,s0
    800006fc:	411905b3          	sub	a1,s2,a7
    80000700:	00001797          	auipc	a5,0x1
    80000704:	ba278793          	addi	a5,a5,-1118 # 800012a2 <reg_x20_output+0x2>
    80000708:	51770393          	addi	t2,a4,1303
    8000070c:	002c76b3          	and	a3,s8,sp
    80000710:	00000197          	auipc	gp,0x0
    80000714:	78118193          	addi	gp,gp,1921 # 80000e91 <test_end+0x455>
    80000718:	00001997          	auipc	s3,0x1
    8000071c:	0f098993          	addi	s3,s3,240 # 80001808 <_end+0xf8>
    80000720:	0086eab3          	or	s5,a3,s0
    80000724:	87c24803          	lbu	a6,-1924(tp) # fffffffffffff87c <__global_pointer$+0xffffffff7fffd96c>
    80000728:	038ec2bb          	divw	t0,t4,s8
    8000072c:	00c64a33          	xor	s4,a2,a2
    80000730:	6611d883          	lhu	a7,1633(gp) # 80002571 <__global_pointer$+0x661>
    80000734:	a7a00613          	li	a2,-1414
    80000738:	a3051d03          	lh	s10,-1488(a0)
    8000073c:	3c279723          	sh	sp,974(a5)
    80000740:	a6fbad83          	lw	s11,-1425(s7)
    80000744:	c6700e93          	li	t4,-921
    80000748:	03dec23b          	divw	tp,t4,t4
    8000074c:	cdb986a3          	sb	s11,-819(s3)
    80000750:	023028b3          	mulhsu	a7,zero,gp
    80000754:	00c661b3          	or	gp,a2,a2
    80000758:	2c775863          	bge	a4,t2,80000a28 <crash_forward>
    8000075c:	03f09093          	slli	ra,ra,0x3f
    80000760:	fff00b13          	li	s6,-1
    80000764:	00001917          	auipc	s2,0x1
    80000768:	f6590913          	addi	s2,s2,-155 # 800016c9 <test_memory+0x3c9>
    8000076c:	001b4b33          	xor	s6,s6,ra
    80000770:	0163f4b3          	and	s1,t2,s6
    80000774:	019e4e33          	xor	t3,t3,s9
    80000778:	c6c90583          	lb	a1,-916(s2)
    8000077c:	01caff33          	and	t5,s5,t3
    80000780:	019f6fb3          	or	t6,t5,s9
    80000784:	99efe2e3          	bltu	t6,t5,80000108 <crash_backward>
    80000788:	001ce333          	or	t1,s9,ra
    8000078c:	1df00593          	li	a1,479
    80000790:	00100813          	li	a6,1
    80000794:	015adabb          	srlw	s5,s5,s5
    80000798:	00000413          	li	s0,0
    8000079c:	5fc00213          	li	tp,1532
    800007a0:	dc300713          	li	a4,-573
    800007a4:	e3800b13          	li	s6,-456
    800007a8:	eca70a13          	addi	s4,a4,-310
    800007ac:	12520b93          	addi	s7,tp,293 # 125 <_start-0x7ffffedb>
    800007b0:	5a100193          	li	gp,1441
    800007b4:	264bea63          	bltu	s7,tp,80000a28 <crash_forward>
    800007b8:	4bc18313          	addi	t1,gp,1212 # 800023cc <__global_pointer$+0x4bc>
    800007bc:	00001497          	auipc	s1,0x1
    800007c0:	a1f48493          	addi	s1,s1,-1505 # 800011db <reg_x27_init+0x3>
    800007c4:	016b0dbb          	addw	s11,s6,s6
    800007c8:	e8300693          	li	a3,-381
    800007cc:	00d592bb          	sllw	t0,a1,a3
    800007d0:	bdd18d93          	addi	s11,gp,-1059 # 80001aed <_end+0x3dd>
    800007d4:	03f81813          	slli	a6,a6,0x3f
    800007d8:	9b1dda83          	lhu	s5,-1615(s11)
    800007dc:	f7318913          	addi	s2,gp,-141 # 80001e83 <_end+0x773>
    800007e0:	00001f17          	auipc	t5,0x1
    800007e4:	b38f0f13          	addi	t5,t5,-1224 # 80001318 <test_memory+0x18>
    800007e8:	82d93f83          	ld	t6,-2003(s2)
    800007ec:	2f54e603          	lwu	a2,757(s1)
    800007f0:	03b00b13          	li	s6,59
    800007f4:	00000113          	li	sp,0
    800007f8:	1a7f1e23          	sh	t2,444(t5)
    800007fc:	e9600c93          	li	s9,-362
    80000800:	22246463          	bltu	s0,sp,80000a28 <crash_forward>
    80000804:	43400513          	li	a0,1076
    80000808:	00001f97          	auipc	t6,0x1
    8000080c:	b7df8f93          	addi	t6,t6,-1155 # 80001385 <test_memory+0x85>
    80000810:	87800393          	li	t2,-1928
    80000814:	00100293          	li	t0,1
    80000818:	c0400693          	li	a3,-1020
    8000081c:	724b0213          	addi	tp,s6,1828
    80000820:	59600b93          	li	s7,1430
    80000824:	96800413          	li	s0,-1688
    80000828:	03f29293          	slli	t0,t0,0x3f
    8000082c:	039cee33          	rem	t3,s9,s9
    80000830:	8d624ce3          	blt	tp,s6,80000108 <crash_backward>
    80000834:	7ac00193          	li	gp,1964
    80000838:	03f00d13          	li	s10,63
    8000083c:	00000497          	auipc	s1,0x0
    80000840:	5cd48493          	addi	s1,s1,1485 # 80000e09 <test_end+0x3cd>
    80000844:	fff00c13          	li	s8,-1
    80000848:	00001a97          	auipc	s5,0x1
    8000084c:	ca4a8a93          	addi	s5,s5,-860 # 800014ec <test_memory+0x1ec>
    80000850:	0edaac23          	sw	a3,248(s5)
    80000854:	010c4c33          	xor	s8,s8,a6
    80000858:	007519bb          	sllw	s3,a0,t2
    8000085c:	02844633          	div	a2,s0,s0
    80000860:	b4968093          	addi	ra,a3,-1207
    80000864:	4af00a93          	li	s5,1199
    80000868:	fff00793          	li	a5,-1
    8000086c:	0057c7b3          	xor	a5,a5,t0
    80000870:	018a78b3          	and	a7,s4,s8
    80000874:	00000117          	auipc	sp,0x0
    80000878:	39010113          	addi	sp,sp,912 # 80000c04 <test_end+0x1c8>
    8000087c:	1fe18a13          	addi	s4,gp,510 # 8000210e <__global_pointer$+0x1fe>
    80000880:	01abb933          	sltu	s2,s7,s10
    80000884:	80d00e13          	li	t3,-2035
    80000888:	0108eeb3          	or	t4,a7,a6
    8000088c:	00fc75b3          	and	a1,s8,a5
    80000890:	41ce0b3b          	subw	s6,t3,t3
    80000894:	1941fa63          	bgeu	gp,s4,80000a28 <crash_forward>
    80000898:	c4200213          	li	tp,-958
    8000089c:	adf00313          	li	t1,-1313
    800008a0:	059f8a23          	sb	s9,84(t6)
    800008a4:	00100b93          	li	s7,1
    800008a8:	9bc00413          	li	s0,-1604
    800008ac:	b6d00513          	li	a0,-1171
    800008b0:	00001197          	auipc	gp,0x1
    800008b4:	9f618193          	addi	gp,gp,-1546 # 800012a6 <reg_x20_output+0x6>
    800008b8:	85d8f8e3          	bgeu	a7,t4,80000108 <crash_backward>
    800008bc:	40a253bb          	sraw	t2,tp,a0
    800008c0:	01ad9cbb          	sllw	s9,s11,s10
    800008c4:	03fb9b93          	slli	s7,s7,0x3f
    800008c8:	0055edb3          	or	s11,a1,t0
    800008cc:	14bdee63          	bltu	s11,a1,80000a28 <crash_forward>
    800008d0:	028ae63b          	remw	a2,s5,s0
    800008d4:	00100793          	li	a5,1
    800008d8:	f9330713          	addi	a4,t1,-109
    800008dc:	12d18e03          	lb	t3,301(gp) # 8000203d <__global_pointer$+0x12d>
    800008e0:	6bc00813          	li	a6,1724
    800008e4:	c6e18c93          	addi	s9,gp,-914 # 80001b7e <_end+0x46e>
    800008e8:	d3e00413          	li	s0,-706
    800008ec:	878c9423          	sh	s8,-1944(s9)
    800008f0:	03080dbb          	mulw	s11,a6,a6
    800008f4:	89a00f93          	li	t6,-1894
    800008f8:	79d13a23          	sd	t4,1940(sp)
    800008fc:	03c29513          	slli	a0,t0,0x3c
    80000900:	bd300613          	li	a2,-1069
    80000904:	03f79793          	slli	a5,a5,0x3f
    80000908:	fff00993          	li	s3,-1
    8000090c:	00001a97          	auipc	s5,0x1
    80000910:	a1da8a93          	addi	s5,s5,-1507 # 80001329 <test_memory+0x29>
    80000914:	0179c9b3          	xor	s3,s3,s7
    80000918:	02791293          	slli	t0,s2,0x27
    8000091c:	008463b3          	or	t2,s0,s0
    80000920:	fff00693          	li	a3,-1
    80000924:	014d3e33          	sltu	t3,s10,s4
    80000928:	5934df03          	lhu	t5,1427(s1)
    8000092c:	00d370b3          	and	ra,t1,a3
    80000930:	00f6c6b3          	xor	a3,a3,a5
    80000934:	0339da33          	divu	s4,s3,s3
    80000938:	00d07c33          	and	s8,zero,a3
    8000093c:	01377d33          	and	s10,a4,s3
    80000940:	00088e93          	mv	t4,a7
    80000944:	000e8213          	mv	tp,t4
    80000948:	dae00a13          	li	s4,-594
    8000094c:	8d700413          	li	s0,-1833
    80000950:	00100813          	li	a6,1
    80000954:	00cfb5b3          	sltu	a1,t6,a2
    80000958:	00f768b3          	or	a7,a4,a5
    8000095c:	0178e933          	or	s2,a7,s7
    80000960:	03f81813          	slli	a6,a6,0x3f
    80000964:	10b00293          	li	t0,267
    80000968:	1f5adb03          	lhu	s6,501(s5)
    8000096c:	29300193          	li	gp,659
    80000970:	00001c97          	auipc	s9,0x1
    80000974:	967c8c93          	addi	s9,s9,-1689 # 800012d7 <reg_x26_output+0x7>
    80000978:	fff00713          	li	a4,-1
    8000097c:	0232edb3          	rem	s11,t0,gp
    80000980:	01074733          	xor	a4,a4,a6
    80000984:	045ca2a3          	sw	t0,69(s9)
    80000988:	008a60b3          	or	ra,s4,s0
    8000098c:	00e6f533          	and	a0,a3,a4
    80000990:	0103e333          	or	t1,t2,a6
    80000994:	0040006f          	j	80000998 <reg_dump>

0000000080000998 <reg_dump>:
    80000998:	00001097          	auipc	ra,0x1
    8000099c:	d6808093          	addi	ra,ra,-664 # 80001700 <loop_count>
    800009a0:	0000a103          	lw	sp,0(ra)
    800009a4:	fff10193          	addi	gp,sp,-1
    800009a8:	0030a023          	sw	gp,0(ra)
    800009ac:	fe011e63          	bnez	sp,800001a8 <pseg_0>
    800009b0:	00001097          	auipc	ra,0x1
    800009b4:	85008093          	addi	ra,ra,-1968 # 80001200 <begin_signature>
    800009b8:	0000b023          	sd	zero,0(ra)
    800009bc:	0030bc23          	sd	gp,24(ra)
    800009c0:	0240b023          	sd	tp,32(ra)
    800009c4:	0250b423          	sd	t0,40(ra)
    800009c8:	0260b823          	sd	t1,48(ra)
    800009cc:	0270bc23          	sd	t2,56(ra)
    800009d0:	0480b023          	sd	s0,64(ra)
    800009d4:	04a0b823          	sd	a0,80(ra)
    800009d8:	04b0bc23          	sd	a1,88(ra)
    800009dc:	06c0b023          	sd	a2,96(ra)
    800009e0:	06d0b423          	sd	a3,104(ra)
    800009e4:	06e0b823          	sd	a4,112(ra)
    800009e8:	06f0bc23          	sd	a5,120(ra)
    800009ec:	0900b023          	sd	a6,128(ra)
    800009f0:	0910b423          	sd	a7,136(ra)
    800009f4:	0920b823          	sd	s2,144(ra)
    800009f8:	0930bc23          	sd	s3,152(ra)
    800009fc:	0b40b023          	sd	s4,160(ra)
    80000a00:	0b60b823          	sd	s6,176(ra)
    80000a04:	0b70bc23          	sd	s7,184(ra)
    80000a08:	0d80b023          	sd	s8,192(ra)
    80000a0c:	0da0b823          	sd	s10,208(ra)
    80000a10:	0db0bc23          	sd	s11,216(ra)
    80000a14:	0fc0b023          	sd	t3,224(ra)
    80000a18:	0fd0b423          	sd	t4,232(ra)
    80000a1c:	0fe0b823          	sd	t5,240(ra)
    80000a20:	0ff0bc23          	sd	t6,248(ra)
    80000a24:	0180006f          	j	80000a3c <test_end>

0000000080000a28 <crash_forward>:
    80000a28:	0ff0000f          	fence
    80000a2c:	00018063          	beqz	gp,80000a2c <crash_forward+0x4>
    80000a30:	00119193          	slli	gp,gp,0x1
    80000a34:	0011e193          	ori	gp,gp,1
    80000a38:	00000073          	ecall

0000000080000a3c <test_end>:
    80000a3c:	0ff0000f          	fence
    80000a40:	00100193          	li	gp,1
    80000a44:	00000073          	ecall
    80000a48:	c0001073          	unimp
	...

Disassembly of section .tohost:

0000000080001000 <tohost>:
	...

0000000080001040 <fromhost>:
	...
