
test.elf:     file format elf64-littleriscv


Disassembly of section .text.init:

0000000080000000 <_start>:
    80000000:	0580006f          	j	80000058 <reset_vector>

0000000080000004 <trap_vector>:
    80000004:	34202f73          	csrr	t5,mcause
    80000008:	00800f93          	li	t6,8
    8000000c:	05ff0063          	beq	t5,t6,8000004c <write_tohost>
    80000010:	00900f93          	li	t6,9
    80000014:	03ff0c63          	beq	t5,t6,8000004c <write_tohost>
    80000018:	00b00f93          	li	t6,11
    8000001c:	03ff0863          	beq	t5,t6,8000004c <write_tohost>
    80000020:	00000f13          	li	t5,0
    80000024:	000f0463          	beqz	t5,8000002c <trap_vector+0x28>
    80000028:	000f0067          	jr	t5
    8000002c:	34202f73          	csrr	t5,mcause
    80000030:	000f5463          	bgez	t5,80000038 <handle_exception>
    80000034:	0140006f          	j	80000048 <other_exception>

0000000080000038 <handle_exception>:
    80000038:	34102e73          	csrr	t3,mepc
    8000003c:	004e0e13          	addi	t3,t3,4
    80000040:	341e1073          	csrw	mepc,t3
    80000044:	30200073          	mret

0000000080000048 <other_exception>:
    80000048:	5391e193          	ori	gp,gp,1337

000000008000004c <write_tohost>:
    8000004c:	00001f17          	auipc	t5,0x1
    80000050:	fa3f2a23          	sw	gp,-76(t5) # 80001000 <tohost>
    80000054:	ff9ff06f          	j	8000004c <write_tohost>

0000000080000058 <reset_vector>:
    80000058:	f1402573          	csrr	a0,mhartid
    8000005c:	00051063          	bnez	a0,8000005c <reset_vector+0x4>
    80000060:	00000297          	auipc	t0,0x0
    80000064:	01028293          	addi	t0,t0,16 # 80000070 <reset_vector+0x18>
    80000068:	30529073          	csrw	mtvec,t0
    8000006c:	18005073          	csrwi	satp,0
    80000070:	00000297          	auipc	t0,0x0
    80000074:	01c28293          	addi	t0,t0,28 # 8000008c <reset_vector+0x34>
    80000078:	30529073          	csrw	mtvec,t0
    8000007c:	fff00293          	li	t0,-1
    80000080:	3b029073          	csrw	pmpaddr0,t0
    80000084:	01f00293          	li	t0,31
    80000088:	3a029073          	csrw	pmpcfg0,t0
    8000008c:	00000297          	auipc	t0,0x0
    80000090:	01828293          	addi	t0,t0,24 # 800000a4 <reset_vector+0x4c>
    80000094:	30529073          	csrw	mtvec,t0
    80000098:	30205073          	csrwi	medeleg,0
    8000009c:	30305073          	csrwi	mideleg,0
    800000a0:	30405073          	csrwi	mie,0
    800000a4:	00000193          	li	gp,0
    800000a8:	00000297          	auipc	t0,0x0
    800000ac:	f5c28293          	addi	t0,t0,-164 # 80000004 <trap_vector>
    800000b0:	30529073          	csrw	mtvec,t0
    800000b4:	00100513          	li	a0,1
    800000b8:	01f51513          	slli	a0,a0,0x1f
    800000bc:	00055863          	bgez	a0,800000cc <reset_vector+0x74>
    800000c0:	0ff0000f          	fence
    800000c4:	00100193          	li	gp,1
    800000c8:	00000073          	ecall
    800000cc:	00000293          	li	t0,0
    800000d0:	00028e63          	beqz	t0,800000ec <reset_vector+0x94>
    800000d4:	10529073          	csrw	stvec,t0
    800000d8:	0000b2b7          	lui	t0,0xb
    800000dc:	1092829b          	addiw	t0,t0,265
    800000e0:	30229073          	csrw	medeleg,t0
    800000e4:	30202373          	csrr	t1,medeleg
    800000e8:	f66290e3          	bne	t0,t1,80000048 <other_exception>
    800000ec:	30005073          	csrwi	mstatus,0
    800000f0:	00000297          	auipc	t0,0x0
    800000f4:	01428293          	addi	t0,t0,20 # 80000104 <reset_vector+0xac>
    800000f8:	34129073          	csrw	mepc,t0
    800000fc:	f1402573          	csrr	a0,mhartid
    80000100:	30200073          	mret
    80000104:	0180006f          	j	8000011c <test_start>

0000000080000108 <crash_backward>:
    80000108:	0ff0000f          	fence
    8000010c:	00018063          	beqz	gp,8000010c <crash_backward+0x4>
    80000110:	00119193          	slli	gp,gp,0x1
    80000114:	0011e193          	ori	gp,gp,1
    80000118:	00000073          	ecall

000000008000011c <test_start>:
    8000011c:	00001f97          	auipc	t6,0x1
    80000120:	fe4f8f93          	addi	t6,t6,-28 # 80001100 <hidden_data>
    80000124:	000fb003          	ld	zero,0(t6)
    80000128:	008fb083          	ld	ra,8(t6)
    8000012c:	010fb103          	ld	sp,16(t6)
    80000130:	018fb183          	ld	gp,24(t6)
    80000134:	020fb203          	ld	tp,32(t6)
    80000138:	028fb283          	ld	t0,40(t6)
    8000013c:	030fb303          	ld	t1,48(t6)
    80000140:	038fb383          	ld	t2,56(t6)
    80000144:	040fb403          	ld	s0,64(t6)
    80000148:	048fb483          	ld	s1,72(t6)
    8000014c:	050fb503          	ld	a0,80(t6)
    80000150:	058fb583          	ld	a1,88(t6)
    80000154:	060fb603          	ld	a2,96(t6)
    80000158:	068fb683          	ld	a3,104(t6)
    8000015c:	070fb703          	ld	a4,112(t6)
    80000160:	078fb783          	ld	a5,120(t6)
    80000164:	080fb803          	ld	a6,128(t6)
    80000168:	088fb883          	ld	a7,136(t6)
    8000016c:	090fb903          	ld	s2,144(t6)
    80000170:	098fb983          	ld	s3,152(t6)
    80000174:	0a0fba03          	ld	s4,160(t6)
    80000178:	0a8fba83          	ld	s5,168(t6)
    8000017c:	0b0fbb03          	ld	s6,176(t6)
    80000180:	0b8fbb83          	ld	s7,184(t6)
    80000184:	0c0fbc03          	ld	s8,192(t6)
    80000188:	0c8fbc83          	ld	s9,200(t6)
    8000018c:	0d0fbd03          	ld	s10,208(t6)
    80000190:	0d8fbd83          	ld	s11,216(t6)
    80000194:	0e0fbe03          	ld	t3,224(t6)
    80000198:	0e8fbe83          	ld	t4,232(t6)
    8000019c:	0f0fbf03          	ld	t5,240(t6)
    800001a0:	0f8fbf83          	ld	t6,248(t6)
    800001a4:	0040006f          	j	800001a8 <pseg_0>

00000000800001a8 <pseg_0>:
    800001a8:	01ce05bb          	addw	a1,t3,t3
    800001ac:	00001997          	auipc	s3,0x1
    800001b0:	5a498993          	addi	s3,s3,1444 # 80001750 <_end+0x40>
    800001b4:	f6700b93          	li	s7,-153
    800001b8:	52300293          	li	t0,1315
    800001bc:	00001c17          	auipc	s8,0x1
    800001c0:	555c0c13          	addi	s8,s8,1365 # 80001711 <_end+0x1>
    800001c4:	7af00a93          	li	s5,1967
    800001c8:	fd3c2483          	lw	s1,-45(s8)
    800001cc:	017b88b3          	add	a7,s7,s7
    800001d0:	024f2f33          	mulhsu	t5,t5,tp
    800001d4:	a0600193          	li	gp,-1530
    800001d8:	00001d17          	auipc	s10,0x1
    800001dc:	a3cd0d13          	addi	s10,s10,-1476 # 80000c14 <test_end+0x250>
    800001e0:	023b8db3          	mul	s11,s7,gp
    800001e4:	0cf00f93          	li	t6,207
    800001e8:	af900b13          	li	s6,-1287
    800001ec:	00001717          	auipc	a4,0x1
    800001f0:	a9a70713          	addi	a4,a4,-1382 # 80000c86 <test_end+0x2c2>
    800001f4:	6fb72b23          	sw	s11,1782(a4)
    800001f8:	9ce18a13          	addi	s4,gp,-1586 # 800018de <_end+0x1ce>
    800001fc:	00001317          	auipc	t1,0x1
    80000200:	f3330313          	addi	t1,t1,-205 # 8000112f <reg_x5_init+0x7>
    80000204:	0252c23b          	divw	tp,t0,t0
    80000208:	f9d00093          	li	ra,-99
    8000020c:	70300913          	li	s2,1795
    80000210:	40825433          	sra	s0,tp,s0
    80000214:	7fb00f13          	li	t5,2043
    80000218:	b5b00113          	li	sp,-1189
    8000021c:	e709b823          	sd	a6,-400(s3)
    80000220:	402b53b3          	sra	t2,s6,sp
    80000224:	02cb75bb          	remuw	a1,s6,a2
    80000228:	28a324a3          	sw	a0,649(t1)
    8000022c:	00001117          	auipc	sp,0x1
    80000230:	05f10113          	addi	sp,sp,95 # 8000128b <reg_x17_output+0x3>
    80000234:	6cf00b13          	li	s6,1743
    80000238:	00100793          	li	a5,1
    8000023c:	0120be33          	sltu	t3,ra,s2
    80000240:	41fa8ebb          	subw	t4,s5,t6
    80000244:	26e10983          	lb	s3,622(sp)
    80000248:	95e18493          	addi	s1,gp,-1698 # 8000186e <_end+0x15e>
    8000024c:	03f79793          	slli	a5,a5,0x3f
    80000250:	c2249703          	lh	a4,-990(s1)
    80000254:	b2aa02a3          	sb	a0,-1243(s4)
    80000258:	43800193          	li	gp,1080
    8000025c:	03ef3bb3          	mulhu	s7,t5,t5
    80000260:	fff00813          	li	a6,-1
    80000264:	02855693          	srli	a3,a0,0x28
    80000268:	97900713          	li	a4,-1671
    8000026c:	4f100293          	li	t0,1265
    80000270:	4e4b0413          	addi	s0,s6,1252
    80000274:	50000a93          	li	s5,1280
    80000278:	00f84833          	xor	a6,a6,a5
    8000027c:	18500d93          	li	s11,389
    80000280:	01b2d23b          	srlw	tp,t0,s11
    80000284:	74700113          	li	sp,1863
    80000288:	010efcb3          	and	s9,t4,a6
    8000028c:	0318abb3          	mulhsu	s7,a7,a7
    80000290:	38200f13          	li	t5,898
    80000294:	41e10fb3          	sub	t6,sp,t5
    80000298:	c5200e93          	li	t4,-942
    8000029c:	00f1e633          	or	a2,gp,a5
    800002a0:	73300c13          	li	s8,1843
    800002a4:	25100993          	li	s3,593
    800002a8:	0181b8b3          	sltu	a7,gp,s8
    800002ac:	da100093          	li	ra,-607
    800002b0:	021a8a3b          	mulw	s4,s5,ra
    800002b4:	a9f00493          	li	s1,-1377
    800002b8:	e4ccf8e3          	bgeu	s9,a2,80000108 <crash_backward>
    800002bc:	7a4d1503          	lh	a0,1956(s10)
    800002c0:	033ece3b          	divw	t3,t4,s3
    800002c4:	0094a933          	slt	s2,s1,s1
    800002c8:	96600393          	li	t2,-1690
    800002cc:	407755bb          	sraw	a1,a4,t2
    800002d0:	e28b7ce3          	bgeu	s6,s0,80000108 <crash_backward>
    800002d4:	80300f93          	li	t6,-2045
    800002d8:	7de00093          	li	ra,2014
    800002dc:	00100493          	li	s1,1
    800002e0:	02a74f3b          	divw	t5,a4,a0
    800002e4:	00100313          	li	t1,1
    800002e8:	be618b93          	addi	s7,gp,-1050 # 80001af6 <_end+0x3e6>
    800002ec:	03f31313          	slli	t1,t1,0x3f
    800002f0:	03f49493          	slli	s1,s1,0x3f
    800002f4:	fff00693          	li	a3,-1
    800002f8:	416b0eb3          	sub	t4,s6,s6
    800002fc:	9a018213          	addi	tp,gp,-1632 # 800018b0 <_end+0x1a0>
    80000300:	d3660993          	addi	s3,a2,-714
    80000304:	ba100913          	li	s2,-1119
    80000308:	fff00793          	li	a5,-1
    8000030c:	0066c6b3          	xor	a3,a3,t1
    80000310:	d0c18c93          	addi	s9,gp,-756 # 80001c1c <_end+0x50c>
    80000314:	00100513          	li	a0,1
    80000318:	0097c7b3          	xor	a5,a5,s1
    8000031c:	03f51513          	slli	a0,a0,0x3f
    80000320:	fff00c13          	li	s8,-1
    80000324:	00d4fa33          	and	s4,s1,a3
    80000328:	0284783b          	remuw	a6,s0,s0
    8000032c:	00b5ef33          	or	t5,a1,a1
    80000330:	00001997          	auipc	s3,0x1
    80000334:	c0798993          	addi	s3,s3,-1017 # 80000f37 <test_end+0x573>
    80000338:	021fc8bb          	divw	a7,t6,ra
    8000033c:	00ac4c33          	xor	s8,s8,a0
    80000340:	821b9023          	sh	ra,-2016(s7)
    80000344:	018cf3b3          	and	t2,s9,s8
    80000348:	99ec9823          	sh	t5,-1648(s9)
    8000034c:	cf824703          	lbu	a4,-776(tp) # fffffffffffffcf8 <__global_pointer$+0xffffffff7fffdde8>
    80000350:	f6f90293          	addi	t0,s2,-145
    80000354:	01dede3b          	srlw	t3,t4,t4
    80000358:	00100613          	li	a2,1
    8000035c:	6c700f93          	li	t6,1735
    80000360:	e9238293          	addi	t0,t2,-366
    80000364:	47700213          	li	tp,1143
    80000368:	d7018593          	addi	a1,gp,-656 # 80001c80 <_end+0x570>
    8000036c:	4042093b          	subw	s2,tp,tp
    80000370:	5cf99e83          	lh	t4,1487(s3)
    80000374:	9c118c93          	addi	s9,gp,-1599 # 800018d1 <_end+0x1c1>
    80000378:	00001897          	auipc	a7,0x1
    8000037c:	93988893          	addi	a7,a7,-1735 # 80000cb1 <test_end+0x2ed>
    80000380:	0063ed33          	or	s10,t2,t1
    80000384:	6a388f03          	lb	t5,1699(a7)
    80000388:	00001217          	auipc	tp,0x1
    8000038c:	30520213          	addi	tp,tp,773 # 8000168d <test_memory+0x38d>
    80000390:	dcd214a3          	sh	a3,-567(tp) # fffffffffffffdc9 <__global_pointer$+0xffffffff7fffdeb9>
    80000394:	00fd7133          	and	sp,s10,a5
    80000398:	01295933          	srl	s2,s2,s2
    8000039c:	009c6433          	or	s0,s8,s1
    800003a0:	40b00913          	li	s2,1035
    800003a4:	61aa7663          	bgeu	s4,s10,800009b0 <crash_forward>
    800003a8:	b81cc283          	lbu	t0,-1151(s9)
    800003ac:	45900f13          	li	t5,1113
    800003b0:	a4700d13          	li	s10,-1465
    800003b4:	01e94eb3          	xor	t4,s2,t5
    800003b8:	00001317          	auipc	t1,0x1
    800003bc:	fee30313          	addi	t1,t1,-18 # 800013a6 <test_memory+0xa6>
    800003c0:	05600093          	li	ra,86
    800003c4:	00aae1b3          	or	gp,s5,a0
    800003c8:	03f61613          	slli	a2,a2,0x3f
    800003cc:	00001817          	auipc	a6,0x1
    800003d0:	34980813          	addi	a6,a6,841 # 80001715 <_end+0x5>
    800003d4:	b9300493          	li	s1,-1133
    800003d8:	d8781ca3          	sh	t2,-615(a6)
    800003dc:	01ffc733          	xor	a4,t6,t6
    800003e0:	7e800a13          	li	s4,2024
    800003e4:	03ce493b          	divw	s2,t3,t3
    800003e8:	00001717          	auipc	a4,0x1
    800003ec:	1d070713          	addi	a4,a4,464 # 800015b8 <test_memory+0x2b8>
    800003f0:	00000393          	li	t2,0
    800003f4:	9c759e23          	sh	t2,-1572(a1)
    800003f8:	00001117          	auipc	sp,0x1
    800003fc:	14810113          	addi	sp,sp,328 # 80001540 <test_memory+0x240>
    80000400:	fa700813          	li	a6,-89
    80000404:	020d4f33          	div	t5,s10,zero
    80000408:	00001e97          	auipc	t4,0x1
    8000040c:	ca2e8e93          	addi	t4,t4,-862 # 800010aa <fromhost+0x6a>
    80000410:	275e8823          	sb	s5,624(t4)
    80000414:	dd812403          	lw	s0,-552(sp)
    80000418:	014d4233          	xor	tp,s10,s4
    8000041c:	a3948793          	addi	a5,s1,-1479
    80000420:	00001697          	auipc	a3,0x1
    80000424:	b3568693          	addi	a3,a3,-1227 # 80000f55 <test_end+0x591>
    80000428:	e5a71d23          	sh	s10,-422(a4)
    8000042c:	00001c97          	auipc	s9,0x1
    80000430:	ccdc8c93          	addi	s9,s9,-819 # 800010f9 <fromhost+0xb9>
    80000434:	fff00a93          	li	s5,-1
    80000438:	0317d993          	srli	s3,a5,0x31
    8000043c:	00cacab3          	xor	s5,s5,a2
    80000440:	2b2cb7a3          	sd	s2,687(s9)
    80000444:	00000193          	li	gp,0
    80000448:	8ab00c13          	li	s8,-1877
    8000044c:	5996d883          	lhu	a7,1433(a3)
    80000450:	00334283          	lbu	t0,3(t1)
    80000454:	5433ee63          	bltu	t2,gp,800009b0 <crash_forward>
    80000458:	01080fbb          	addw	t6,a6,a6
    8000045c:	015dfb33          	and	s6,s11,s5
    80000460:	00c7edb3          	or	s11,a5,a2
    80000464:	00001897          	auipc	a7,0x1
    80000468:	b4d88893          	addi	a7,a7,-1203 # 80000fb1 <test_end+0x5ed>
    8000046c:	01ad1433          	sll	s0,s10,s10
    80000470:	c9bb4ce3          	blt	s6,s11,80000108 <crash_backward>
    80000474:	00001997          	auipc	s3,0x1
    80000478:	a7898993          	addi	s3,s3,-1416 # 80000eec <test_end+0x528>
    8000047c:	71a00c93          	li	s9,1818
    80000480:	00001717          	auipc	a4,0x1
    80000484:	11c70713          	addi	a4,a4,284 # 8000159c <test_memory+0x29c>
    80000488:	91d00293          	li	t0,-1763
    8000048c:	4a598223          	sb	t0,1188(s3)
    80000490:	9ad00493          	li	s1,-1619
    80000494:	41360eb3          	sub	t4,a2,s3
    80000498:	41bdda33          	sra	s4,s11,s11
    8000049c:	5a08a9a3          	sw	zero,1459(a7)
    800004a0:	92818413          	addi	s0,gp,-1752 # 80001838 <_end+0x128>
    800004a4:	00f7b833          	sltu	a6,a5,a5
    800004a8:	018c0933          	add	s2,s8,s8
    800004ac:	00001397          	auipc	t2,0x1
    800004b0:	12038393          	addi	t2,t2,288 # 800015cc <test_memory+0x2cc>
    800004b4:	0d174503          	lbu	a0,209(a4)
    800004b8:	019cb633          	sltu	a2,s9,s9
    800004bc:	02900593          	li	a1,41
    800004c0:	019a9f33          	sll	t5,s5,s9
    800004c4:	43dfdb13          	srai	s6,t6,0x3d
    800004c8:	000a0513          	mv	a0,s4
    800004cc:	8e400e13          	li	t3,-1820
    800004d0:	ec700893          	li	a7,-313
    800004d4:	e3c41523          	sh	t3,-470(s0)
    800004d8:	3e900f13          	li	t5,1001
    800004dc:	01291d33          	sll	s10,s2,s2
    800004e0:	01e8b833          	sltu	a6,a7,t5
    800004e4:	dbf39e23          	sh	t6,-580(t2)
    800004e8:	0150f6b3          	and	a3,ra,s5
    800004ec:	019cafb3          	slt	t6,s9,s9
    800004f0:	45c00313          	li	t1,1116
    800004f4:	23d00a93          	li	s5,573
    800004f8:	03c0fbbb          	remuw	s7,ra,t3
    800004fc:	00001d97          	auipc	s11,0x1
    80000500:	fc0d8d93          	addi	s11,s11,-64 # 800014bc <test_memory+0x1bc>
    80000504:	0064e1b3          	or	gp,s1,t1
    80000508:	00215a3b          	srlw	s4,sp,sp
    8000050c:	56600713          	li	a4,1382
    80000510:	415a893b          	subw	s2,s5,s5
    80000514:	02e73633          	mulhu	a2,a4,a4
    80000518:	3a358793          	addi	a5,a1,931
    8000051c:	00001e97          	auipc	t4,0x1
    80000520:	968e8e93          	addi	t4,t4,-1688 # 80000e84 <test_end+0x4c0>
    80000524:	48f58663          	beq	a1,a5,800009b0 <crash_forward>
    80000528:	6fae8923          	sb	s10,1778(t4)
    8000052c:	00050c13          	mv	s8,a0
    80000530:	01400113          	li	sp,20
    80000534:	47854e63          	blt	a0,s8,800009b0 <crash_forward>
    80000538:	0222e23b          	remw	tp,t0,sp
    8000053c:	0b8da983          	lw	s3,184(s11)
    80000540:	00001097          	auipc	ra,0x1
    80000544:	d0808093          	addi	ra,ra,-760 # 80001248 <reg_x9_output>
    80000548:	01ef31b3          	sltu	gp,t5,t5
    8000054c:	ce500793          	li	a5,-795
    80000550:	45600913          	li	s2,1110
    80000554:	00211833          	sll	a6,sp,sp
    80000558:	00001e97          	auipc	t4,0x1
    8000055c:	087e8e93          	addi	t4,t4,135 # 800015df <test_memory+0x2df>
    80000560:	50e00e13          	li	t3,1294
    80000564:	0329433b          	divw	t1,s2,s2
    80000568:	9da18593          	addi	a1,gp,-1574 # 800018ea <_end+0x1da>
    8000056c:	000e1b9b          	slliw	s7,t3,0x0
    80000570:	d5b00d93          	li	s11,-677
    80000574:	00f789b3          	add	s3,a5,a5
    80000578:	00000113          	li	sp,0
    8000057c:	00000413          	li	s0,0
    80000580:	00001517          	auipc	a0,0x1
    80000584:	cb550513          	addi	a0,a0,-843 # 80001235 <reg_x6_output+0x5>
    80000588:	ff1eba03          	ld	s4,-15(t4)
    8000058c:	41be54b3          	sra	s1,t3,s11
    80000590:	00e7fbb3          	and	s7,a5,a4
    80000594:	09d00c93          	li	s9,157
    80000598:	d1d00913          	li	s2,-739
    8000059c:	00001a97          	auipc	s5,0x1
    800005a0:	c85a8a93          	addi	s5,s5,-891 # 80001221 <reg_x4_output+0x1>
    800005a4:	b4218693          	addi	a3,gp,-1214 # 80001a52 <_end+0x342>
    800005a8:	3be510a3          	sh	t5,929(a0)
    800005ac:	e5400f93          	li	t6,-428
    800005b0:	00001717          	auipc	a4,0x1
    800005b4:	fc670713          	addi	a4,a4,-58 # 80001576 <test_memory+0x276>
    800005b8:	03082233          	mulhsu	tp,a6,a6
    800005bc:	df700d13          	li	s10,-521
    800005c0:	03292bb3          	mulhsu	s7,s2,s2
    800005c4:	00000997          	auipc	s3,0x0
    800005c8:	74098993          	addi	s3,s3,1856 # 80000d04 <test_end+0x340>
    800005cc:	01ac8b3b          	addw	s6,s9,s10
    800005d0:	41ff8633          	sub	a2,t6,t6
    800005d4:	035ad43b          	divuw	s0,s5,s5
    800005d8:	22fa8383          	lb	t2,559(s5)
    800005dc:	00001c17          	auipc	s8,0x1
    800005e0:	cd6c0c13          	addi	s8,s8,-810 # 800012b2 <reg_x22_output+0x2>
    800005e4:	00e28e3b          	addw	t3,t0,a4
    800005e8:	2680cf03          	lbu	t5,616(ra)
    800005ec:	03290db3          	mul	s11,s2,s2
    800005f0:	00000497          	auipc	s1,0x0
    800005f4:	77448493          	addi	s1,s1,1908 # 80000d64 <test_end+0x3a0>
    800005f8:	02f7d2bb          	divuw	t0,a5,a5
    800005fc:	5e04b623          	sd	zero,1516(s1)
    80000600:	7069d303          	lhu	t1,1798(s3)
    80000604:	00001b17          	auipc	s6,0x1
    80000608:	b06b0b13          	addi	s6,s6,-1274 # 8000110a <reg_x1_init+0x2>
    8000060c:	00001f97          	auipc	t6,0x1
    80000610:	984f8f93          	addi	t6,t6,-1660 # 80000f90 <test_end+0x5cc>
    80000614:	00100213          	li	tp,1
    80000618:	038c4433          	div	s0,s8,s8
    8000061c:	b7a18193          	addi	gp,gp,-1158 # 80001a8a <_end+0x37a>
    80000620:	774fa423          	sw	s4,1896(t6)
    80000624:	00001d17          	auipc	s10,0x1
    80000628:	f0bd0d13          	addi	s10,s10,-245 # 8000152f <test_memory+0x22f>
    8000062c:	c1c1d803          	lhu	a6,-996(gp) # 80001b2c <_end+0x41c>
    80000630:	00000493          	li	s1,0
    80000634:	00001997          	auipc	s3,0x1
    80000638:	18e98993          	addi	s3,s3,398 # 800017c2 <_end+0xb2>
    8000063c:	00000513          	li	a0,0
    80000640:	23000a13          	li	s4,560
    80000644:	4b1b2723          	sw	a7,1198(s6)
    80000648:	9e46af23          	sw	tp,-1538(a3)
    8000064c:	a2259a23          	sh	sp,-1484(a1)
    80000650:	e6900293          	li	t0,-407
    80000654:	ed1985a3          	sb	a7,-309(s3)
    80000658:	b2f00f13          	li	t5,-1233
    8000065c:	356b4a63          	blt	s6,s6,800009b0 <crash_forward>
    80000660:	e6500693          	li	a3,-411
    80000664:	03ad7433          	remu	s0,s10,s10
    80000668:	00949833          	sll	a6,s1,s1
    8000066c:	34004263          	bltz	zero,800009b0 <crash_forward>
    80000670:	012951bb          	srlw	gp,s2,s2
    80000674:	c2d00393          	li	t2,-979
    80000678:	009e1ab3          	sll	s5,t3,s1
    8000067c:	4d1d4e93          	xori	t4,s10,1233
    80000680:	033a07bb          	mulw	a5,s4,s3
    80000684:	fd071883          	lh	a7,-48(a4)
    80000688:	d0700b13          	li	s6,-761
    8000068c:	dd600493          	li	s1,-554
    80000690:	0252e63b          	remw	a2,t0,t0
    80000694:	016b2fb3          	slt	t6,s6,s6
    80000698:	ff1ab193          	sltiu	gp,s5,-15
    8000069c:	92500113          	li	sp,-1755
    800006a0:	ed300513          	li	a0,-301
    800006a4:	022a7e3b          	remuw	t3,s4,sp
    800006a8:	00001417          	auipc	s0,0x1
    800006ac:	c3440413          	addi	s0,s0,-972 # 800012dc <reg_x27_output+0x4>
    800006b0:	8a768993          	addi	s3,a3,-1881
    800006b4:	b0c48813          	addi	a6,s1,-1268
    800006b8:	2e985c63          	bge	a6,s1,800009b0 <crash_forward>
    800006bc:	40a50eb3          	sub	t4,a0,a0
    800006c0:	29cc2723          	sw	t3,654(s8)
    800006c4:	0073c0b3          	xor	ra,t2,t2
    800006c8:	7d300913          	li	s2,2003
    800006cc:	30f42a23          	sw	a5,788(s0)
    800006d0:	03f21213          	slli	tp,tp,0x3f
    800006d4:	012f1db3          	sll	s11,t5,s2
    800006d8:	dc800593          	li	a1,-568
    800006dc:	fff00c93          	li	s9,-1
    800006e0:	bc658a93          	addi	s5,a1,-1082
    800006e4:	f0100713          	li	a4,-255
    800006e8:	83500913          	li	s2,-1995
    800006ec:	4a400193          	li	gp,1188
    800006f0:	92a18513          	addi	a0,gp,-1750 # 8000183a <_end+0x12a>
    800006f4:	e9ed16a3          	sh	t5,-371(s10)
    800006f8:	00100813          	li	a6,1
    800006fc:	00001c17          	auipc	s8,0x1
    80000700:	b15c0c13          	addi	s8,s8,-1259 # 80001211 <reg_x2_output+0x1>
    80000704:	03f81813          	slli	a6,a6,0x3f
    80000708:	fff00693          	li	a3,-1
    8000070c:	1bfc1e03          	lh	t3,447(s8)
    80000710:	02e75433          	divu	s0,a4,a4
    80000714:	0106c6b3          	xor	a3,a3,a6
    80000718:	03e3cb37          	lui	s6,0x3e3c
    8000071c:	004cccb3          	xor	s9,s9,tp
    80000720:	00001e97          	auipc	t4,0x1
    80000724:	930e8e93          	addi	t4,t4,-1744 # 80001050 <fromhost+0x10>
    80000728:	40395f33          	sra	t5,s2,gp
    8000072c:	00d378b3          	and	a7,t1,a3
    80000730:	0108e133          	or	sp,a7,a6
    80000734:	d8e51603          	lh	a2,-626(a0)
    80000738:	85d00d13          	li	s10,-1955
    8000073c:	00001e17          	auipc	t3,0x1
    80000740:	e3ae0e13          	addi	t3,t3,-454 # 80001576 <test_memory+0x276>
    80000744:	00001397          	auipc	t2,0x1
    80000748:	f0138393          	addi	t2,t2,-255 # 80001645 <test_memory+0x345>
    8000074c:	c5800193          	li	gp,-936
    80000750:	03fd85bb          	mulw	a1,s11,t6
    80000754:	00000c13          	li	s8,0
    80000758:	00001097          	auipc	ra,0x1
    8000075c:	ba508093          	addi	ra,ra,-1115 # 800012fd <reg_x31_output+0x5>
    80000760:	f183cd83          	lbu	s11,-232(t2)
    80000764:	000a0f13          	mv	t5,s4
    80000768:	00000413          	li	s0,0
    8000076c:	0ef00793          	li	a5,239
    80000770:	91718913          	addi	s2,gp,-1769 # 80001827 <_end+0x117>
    80000774:	0142e2b3          	or	t0,t0,s4
    80000778:	664e8483          	lb	s1,1636(t4)
    8000077c:	000f0613          	mv	a2,t5
    80000780:	00001517          	auipc	a0,0x1
    80000784:	f0550513          	addi	a0,a0,-251 # 80001685 <test_memory+0x385>
    80000788:	00001d97          	auipc	s11,0x1
    8000078c:	c5ad8d93          	addi	s11,s11,-934 # 800013e2 <test_memory+0xe2>
    80000790:	02f78a3b          	mulw	s4,a5,a5
    80000794:	b5795583          	lhu	a1,-1193(s2)
    80000798:	00000893          	li	a7,0
    8000079c:	98618b13          	addi	s6,gp,-1658 # 80001896 <_end+0x186>
    800007a0:	0ffd9923          	sh	t6,242(s11)
    800007a4:	00000693          	li	a3,0
    800007a8:	968c10e3          	bne	s8,s0,80000108 <crash_backward>
    800007ac:	404c5393          	srai	t2,s8,0x4
    800007b0:	01907bb3          	and	s7,zero,s9
    800007b4:	003d1733          	sll	a4,s10,gp
    800007b8:	00001817          	auipc	a6,0x1
    800007bc:	95980813          	addi	a6,a6,-1703 # 80001111 <reg_x2_init+0x1>
    800007c0:	00001297          	auipc	t0,0x1
    800007c4:	f0a28293          	addi	t0,t0,-246 # 800016ca <test_memory+0x3ca>
    800007c8:	00466333          	or	t1,a2,tp
    800007cc:	00000797          	auipc	a5,0x0
    800007d0:	68278793          	addi	a5,a5,1666 # 80000e4e <test_end+0x48a>
    800007d4:	c24b4a83          	lbu	s5,-988(s6) # 3e3bc24 <_start-0x7c1c43dc>
    800007d8:	24786103          	lwu	sp,583(a6)
    800007dc:	00000597          	auipc	a1,0x0
    800007e0:	6ef58593          	addi	a1,a1,1775 # 80000ecb <test_end+0x507>
    800007e4:	07ce5f83          	lhu	t6,124(t3)
    800007e8:	e2900e93          	li	t4,-471
    800007ec:	f69525a3          	sw	s1,-149(a0)
    800007f0:	03ec0a3b          	mulw	s4,s8,t5
    800007f4:	fde287a3          	sb	t5,-49(t0)
    800007f8:	5fe596a3          	sh	t5,1517(a1)
    800007fc:	e9ee8493          	addi	s1,t4,-354
    80000800:	3010d983          	lhu	s3,769(ra)
    80000804:	67178903          	lb	s2,1649(a5)
    80000808:	900060e3          	bltu	zero,zero,80000108 <crash_backward>
    8000080c:	a7c18f93          	addi	t6,gp,-1412 # 8000198c <_end+0x27c>
    80000810:	00000597          	auipc	a1,0x0
    80000814:	61158593          	addi	a1,a1,1553 # 80000e21 <test_end+0x45d>
    80000818:	a54fa283          	lw	t0,-1452(t6)
    8000081c:	00000817          	auipc	a6,0x0
    80000820:	57c80813          	addi	a6,a6,1404 # 80000d98 <test_end+0x3d4>
    80000824:	00001897          	auipc	a7,0x1
    80000828:	d6d88893          	addi	a7,a7,-659 # 80001591 <test_memory+0x291>
    8000082c:	00000717          	auipc	a4,0x0
    80000830:	51d70713          	addi	a4,a4,1309 # 80000d49 <test_end+0x385>
    80000834:	77500413          	li	s0,1909
    80000838:	70082683          	lw	a3,1792(a6)
    8000083c:	c5618493          	addi	s1,gp,-938 # 80001b66 <_end+0x456>
    80000840:	15063c37          	lui	s8,0x15063
    80000844:	03d6c933          	div	s2,a3,t4
    80000848:	00001517          	auipc	a0,0x1
    8000084c:	89050513          	addi	a0,a0,-1904 # 800010d8 <fromhost+0x98>
    80000850:	00000217          	auipc	tp,0x0
    80000854:	45f20213          	addi	tp,tp,1119 # 80000caf <test_end+0x2eb>
    80000858:	00000297          	auipc	t0,0x0
    8000085c:	76728293          	addi	t0,t0,1895 # 80000fbf <test_end+0x5fb>
    80000860:	28851323          	sh	s0,646(a0)
    80000864:	00000197          	auipc	gp,0x0
    80000868:	62f18193          	addi	gp,gp,1583 # 80000e93 <test_end+0x4cf>
    8000086c:	5a600993          	li	s3,1446
    80000870:	66e40d13          	addi	s10,s0,1646
    80000874:	018c07b3          	add	a5,s8,s8
    80000878:	74374103          	lbu	sp,1859(a4)
    8000087c:	c1d18513          	addi	a0,gp,-995 # 80001b2d <_end+0x41d>
    80000880:	e438a603          	lw	a2,-445(a7)
    80000884:	a7b53c03          	ld	s8,-1413(a0)
    80000888:	00000897          	auipc	a7,0x0
    8000088c:	7c288893          	addi	a7,a7,1986 # 8000104a <fromhost+0xa>
    80000890:	6a729b03          	lh	s6,1703(t0)
    80000894:	d3818093          	addi	ra,gp,-712 # 80001c48 <_end+0x538>
    80000898:	00001817          	auipc	a6,0x1
    8000089c:	ed680813          	addi	a6,a6,-298 # 8000176e <_end+0x5e>
    800008a0:	70d597a3          	sh	a3,1807(a1)
    800008a4:	014a27b3          	slt	a5,s4,s4
    800008a8:	7d520fa3          	sb	s5,2015(tp) # 7df <_start-0x7ffff821>
    800008ac:	10004263          	bltz	zero,800009b0 <crash_forward>
    800008b0:	11a40063          	beq	s0,s10,800009b0 <crash_forward>
    800008b4:	00001c17          	auipc	s8,0x1
    800008b8:	b52c0c13          	addi	s8,s8,-1198 # 80001406 <test_memory+0x106>
    800008bc:	00001d97          	auipc	s11,0x1
    800008c0:	9c3d8d93          	addi	s11,s11,-1597 # 8000127f <reg_x15_output+0x7>
    800008c4:	82c00f93          	li	t6,-2004
    800008c8:	7ca98313          	addi	t1,s3,1994
    800008cc:	0f336263          	bltu	t1,s3,800009b0 <crash_forward>
    800008d0:	7fd00613          	li	a2,2045
    800008d4:	6068a523          	sw	t1,1546(a7)
    800008d8:	7271df03          	lhu	t5,1831(gp) # 80002637 <__global_pointer$+0x727>
    800008dc:	8944ce03          	lbu	t3,-1900(s1)
    800008e0:	00018a13          	mv	s4,gp
    800008e4:	000a0c93          	mv	s9,s4
    800008e8:	01cb9bb3          	sll	s7,s7,t3
    800008ec:	03ffd6bb          	divuw	a3,t6,t6
    800008f0:	2a8d9da3          	sh	s0,699(s11)
    800008f4:	8f40de83          	lhu	t4,-1804(ra)
    800008f8:	00001397          	auipc	t2,0x1
    800008fc:	e9838393          	addi	t2,t2,-360 # 80001790 <_end+0x80>
    80000900:	00100b13          	li	s6,1
    80000904:	819a62e3          	bltu	s4,s9,80000108 <crash_backward>
    80000908:	03fb1b13          	slli	s6,s6,0x3f
    8000090c:	2c860513          	addi	a0,a2,712
    80000910:	c323da83          	lhu	s5,-974(t2)
    80000914:	fadc1623          	sh	a3,-84(s8)
    80000918:	ce5a3213          	sltiu	tp,s4,-795
    8000091c:	e9184903          	lbu	s2,-367(a6)
    80000920:	fff00e13          	li	t3,-1
    80000924:	016e4e33          	xor	t3,t3,s6
    80000928:	01c8f0b3          	and	ra,a7,t3
    8000092c:	0160e7b3          	or	a5,ra,s6
    80000930:	fc17dc63          	bge	a5,ra,80000108 <crash_backward>
    80000934:	0040006f          	j	80000938 <reg_dump>

0000000080000938 <reg_dump>:
    80000938:	00001097          	auipc	ra,0x1
    8000093c:	dc808093          	addi	ra,ra,-568 # 80001700 <loop_count>
    80000940:	0000a103          	lw	sp,0(ra)
    80000944:	fff10193          	addi	gp,sp,-1
    80000948:	0030a023          	sw	gp,0(ra)
    8000094c:	84011ee3          	bnez	sp,800001a8 <pseg_0>
    80000950:	00001097          	auipc	ra,0x1
    80000954:	8b008093          	addi	ra,ra,-1872 # 80001200 <begin_signature>
    80000958:	0000b023          	sd	zero,0(ra)
    8000095c:	0020b823          	sd	sp,16(ra)
    80000960:	0240b023          	sd	tp,32(ra)
    80000964:	0260b823          	sd	t1,48(ra)
    80000968:	0480b023          	sd	s0,64(ra)
    8000096c:	04a0b823          	sd	a0,80(ra)
    80000970:	06c0b023          	sd	a2,96(ra)
    80000974:	06d0b423          	sd	a3,104(ra)
    80000978:	06f0bc23          	sd	a5,120(ra)
    8000097c:	0920b823          	sd	s2,144(ra)
    80000980:	0930bc23          	sd	s3,152(ra)
    80000984:	0b40b023          	sd	s4,160(ra)
    80000988:	0b50b423          	sd	s5,168(ra)
    8000098c:	0b60b823          	sd	s6,176(ra)
    80000990:	0b70bc23          	sd	s7,184(ra)
    80000994:	0d90b423          	sd	s9,200(ra)
    80000998:	0da0b823          	sd	s10,208(ra)
    8000099c:	0fc0b023          	sd	t3,224(ra)
    800009a0:	0fd0b423          	sd	t4,232(ra)
    800009a4:	0fe0b823          	sd	t5,240(ra)
    800009a8:	0ff0bc23          	sd	t6,248(ra)
    800009ac:	0180006f          	j	800009c4 <test_end>

00000000800009b0 <crash_forward>:
    800009b0:	0ff0000f          	fence
    800009b4:	00018063          	beqz	gp,800009b4 <crash_forward+0x4>
    800009b8:	00119193          	slli	gp,gp,0x1
    800009bc:	0011e193          	ori	gp,gp,1
    800009c0:	00000073          	ecall

00000000800009c4 <test_end>:
    800009c4:	0ff0000f          	fence
    800009c8:	00100193          	li	gp,1
    800009cc:	00000073          	ecall
    800009d0:	c0001073          	unimp
	...

Disassembly of section .tohost:

0000000080001000 <tohost>:
	...

0000000080001040 <fromhost>:
	...
