
test.elf:     file format elf64-littleriscv


Disassembly of section .text.init:

0000000080000000 <_start>:
    80000000:	0580006f          	j	80000058 <reset_vector>

0000000080000004 <trap_vector>:
    80000004:	34202f73          	csrr	t5,mcause
    80000008:	00800f93          	li	t6,8
    8000000c:	05ff0063          	beq	t5,t6,8000004c <write_tohost>
    80000010:	00900f93          	li	t6,9
    80000014:	03ff0c63          	beq	t5,t6,8000004c <write_tohost>
    80000018:	00b00f93          	li	t6,11
    8000001c:	03ff0863          	beq	t5,t6,8000004c <write_tohost>
    80000020:	00000f13          	li	t5,0
    80000024:	000f0463          	beqz	t5,8000002c <trap_vector+0x28>
    80000028:	000f0067          	jr	t5
    8000002c:	34202f73          	csrr	t5,mcause
    80000030:	000f5463          	bgez	t5,80000038 <handle_exception>
    80000034:	0140006f          	j	80000048 <other_exception>

0000000080000038 <handle_exception>:
    80000038:	34102e73          	csrr	t3,mepc
    8000003c:	004e0e13          	addi	t3,t3,4
    80000040:	341e1073          	csrw	mepc,t3
    80000044:	30200073          	mret

0000000080000048 <other_exception>:
    80000048:	5391e193          	ori	gp,gp,1337

000000008000004c <write_tohost>:
    8000004c:	00001f17          	auipc	t5,0x1
    80000050:	fa3f2a23          	sw	gp,-76(t5) # 80001000 <tohost>
    80000054:	ff9ff06f          	j	8000004c <write_tohost>

0000000080000058 <reset_vector>:
    80000058:	f1402573          	csrr	a0,mhartid
    8000005c:	00051063          	bnez	a0,8000005c <reset_vector+0x4>
    80000060:	00000297          	auipc	t0,0x0
    80000064:	01028293          	addi	t0,t0,16 # 80000070 <reset_vector+0x18>
    80000068:	30529073          	csrw	mtvec,t0
    8000006c:	18005073          	csrwi	satp,0
    80000070:	00000297          	auipc	t0,0x0
    80000074:	01c28293          	addi	t0,t0,28 # 8000008c <reset_vector+0x34>
    80000078:	30529073          	csrw	mtvec,t0
    8000007c:	fff00293          	li	t0,-1
    80000080:	3b029073          	csrw	pmpaddr0,t0
    80000084:	01f00293          	li	t0,31
    80000088:	3a029073          	csrw	pmpcfg0,t0
    8000008c:	00000297          	auipc	t0,0x0
    80000090:	01828293          	addi	t0,t0,24 # 800000a4 <reset_vector+0x4c>
    80000094:	30529073          	csrw	mtvec,t0
    80000098:	30205073          	csrwi	medeleg,0
    8000009c:	30305073          	csrwi	mideleg,0
    800000a0:	30405073          	csrwi	mie,0
    800000a4:	00000193          	li	gp,0
    800000a8:	00000297          	auipc	t0,0x0
    800000ac:	f5c28293          	addi	t0,t0,-164 # 80000004 <trap_vector>
    800000b0:	30529073          	csrw	mtvec,t0
    800000b4:	00100513          	li	a0,1
    800000b8:	01f51513          	slli	a0,a0,0x1f
    800000bc:	00055863          	bgez	a0,800000cc <reset_vector+0x74>
    800000c0:	0ff0000f          	fence
    800000c4:	00100193          	li	gp,1
    800000c8:	00000073          	ecall
    800000cc:	00000293          	li	t0,0
    800000d0:	00028e63          	beqz	t0,800000ec <reset_vector+0x94>
    800000d4:	10529073          	csrw	stvec,t0
    800000d8:	0000b2b7          	lui	t0,0xb
    800000dc:	1092829b          	addiw	t0,t0,265
    800000e0:	30229073          	csrw	medeleg,t0
    800000e4:	30202373          	csrr	t1,medeleg
    800000e8:	f66290e3          	bne	t0,t1,80000048 <other_exception>
    800000ec:	30005073          	csrwi	mstatus,0
    800000f0:	00000297          	auipc	t0,0x0
    800000f4:	01428293          	addi	t0,t0,20 # 80000104 <reset_vector+0xac>
    800000f8:	34129073          	csrw	mepc,t0
    800000fc:	f1402573          	csrr	a0,mhartid
    80000100:	30200073          	mret
    80000104:	0180006f          	j	8000011c <test_start>

0000000080000108 <crash_backward>:
    80000108:	0ff0000f          	fence
    8000010c:	00018063          	beqz	gp,8000010c <crash_backward+0x4>
    80000110:	00119193          	slli	gp,gp,0x1
    80000114:	0011e193          	ori	gp,gp,1
    80000118:	00000073          	ecall

000000008000011c <test_start>:
    8000011c:	00001f97          	auipc	t6,0x1
    80000120:	fe4f8f93          	addi	t6,t6,-28 # 80001100 <hidden_data>
    80000124:	000fb003          	ld	zero,0(t6)
    80000128:	008fb083          	ld	ra,8(t6)
    8000012c:	010fb103          	ld	sp,16(t6)
    80000130:	018fb183          	ld	gp,24(t6)
    80000134:	020fb203          	ld	tp,32(t6)
    80000138:	028fb283          	ld	t0,40(t6)
    8000013c:	030fb303          	ld	t1,48(t6)
    80000140:	038fb383          	ld	t2,56(t6)
    80000144:	040fb403          	ld	s0,64(t6)
    80000148:	048fb483          	ld	s1,72(t6)
    8000014c:	050fb503          	ld	a0,80(t6)
    80000150:	058fb583          	ld	a1,88(t6)
    80000154:	060fb603          	ld	a2,96(t6)
    80000158:	068fb683          	ld	a3,104(t6)
    8000015c:	070fb703          	ld	a4,112(t6)
    80000160:	078fb783          	ld	a5,120(t6)
    80000164:	080fb803          	ld	a6,128(t6)
    80000168:	088fb883          	ld	a7,136(t6)
    8000016c:	090fb903          	ld	s2,144(t6)
    80000170:	098fb983          	ld	s3,152(t6)
    80000174:	0a0fba03          	ld	s4,160(t6)
    80000178:	0a8fba83          	ld	s5,168(t6)
    8000017c:	0b0fbb03          	ld	s6,176(t6)
    80000180:	0b8fbb83          	ld	s7,184(t6)
    80000184:	0c0fbc03          	ld	s8,192(t6)
    80000188:	0c8fbc83          	ld	s9,200(t6)
    8000018c:	0d0fbd03          	ld	s10,208(t6)
    80000190:	0d8fbd83          	ld	s11,216(t6)
    80000194:	0e0fbe03          	ld	t3,224(t6)
    80000198:	0e8fbe83          	ld	t4,232(t6)
    8000019c:	0f0fbf03          	ld	t5,240(t6)
    800001a0:	0f8fbf83          	ld	t6,248(t6)
    800001a4:	0040006f          	j	800001a8 <pseg_0>

00000000800001a8 <pseg_0>:
    800001a8:	03c12333          	mulhsu	t1,sp,t3
    800001ac:	96118c93          	addi	s9,gp,-1695 # 80001871 <_end+0x161>
    800001b0:	2ab00b13          	li	s6,683
    800001b4:	00c54e33          	xor	t3,a0,a2
    800001b8:	6a900513          	li	a0,1705
    800001bc:	026303bb          	mulw	t2,t1,t1
    800001c0:	034a573b          	divuw	a4,s4,s4
    800001c4:	00001697          	auipc	a3,0x1
    800001c8:	16968693          	addi	a3,a3,361 # 8000132d <test_memory+0x2d>
    800001cc:	20d00293          	li	t0,525
    800001d0:	005b2bb3          	slt	s7,s6,t0
    800001d4:	00000193          	li	gp,0
    800001d8:	036915b3          	mulh	a1,s2,s6
    800001dc:	00001f17          	auipc	t5,0x1
    800001e0:	fdbf0f13          	addi	t5,t5,-37 # 800011b7 <reg_x22_init+0x7>
    800001e4:	ac000493          	li	s1,-1344
    800001e8:	02a548b3          	div	a7,a0,a0
    800001ec:	b1fcef83          	lwu	t6,-1249(s9)
    800001f0:	00001d17          	auipc	s10,0x1
    800001f4:	e66d0d13          	addi	s10,s10,-410 # 80001056 <fromhost+0x16>
    800001f8:	71200313          	li	t1,1810
    800001fc:	08f00e13          	li	t3,143
    80000200:	00001217          	auipc	tp,0x1
    80000204:	51920213          	addi	tp,tp,1305 # 80001719 <_end+0x9>
    80000208:	01ce40b3          	xor	ra,t3,t3
    8000020c:	75b00793          	li	a5,1883
    80000210:	026363bb          	remw	t2,t1,t1
    80000214:	00000a13          	li	s4,0
    80000218:	00f49c3b          	sllw	s8,s1,a5
    8000021c:	ef41e6e3          	bltu	gp,s4,80000108 <crash_backward>
    80000220:	c2d18a93          	addi	s5,gp,-979 # 80001b3d <_end+0x42d>
    80000224:	1ed68803          	lb	a6,493(a3)
    80000228:	3ffd0ca3          	sb	t6,1017(s10)
    8000022c:	e09221a3          	sw	s1,-509(tp) # fffffffffffffe03 <__global_pointer$+0xffffffff7fffdef3>
    80000230:	d9d18d93          	addi	s11,gp,-611 # 80001cad <_end+0x59d>
    80000234:	e0b00893          	li	a7,-501
    80000238:	00001217          	auipc	tp,0x1
    8000023c:	c0620213          	addi	tp,tp,-1018 # 80000e3e <test_end+0x446>
    80000240:	00ba9333          	sll	t1,s5,a1
    80000244:	00001e97          	auipc	t4,0x1
    80000248:	336e8e93          	addi	t4,t4,822 # 8000157a <test_memory+0x27a>
    8000024c:	4e700b93          	li	s7,1255
    80000250:	00001797          	auipc	a5,0x1
    80000254:	23b78793          	addi	a5,a5,571 # 8000148b <test_memory+0x18b>
    80000258:	076eb983          	ld	s3,118(t4)
    8000025c:	d7f18113          	addi	sp,gp,-641 # 80001c8f <_end+0x57f>
    80000260:	017bf6b3          	and	a3,s7,s7
    80000264:	fa6799a3          	sh	t1,-77(a5)
    80000268:	c3f00193          	li	gp,-961
    8000026c:	910dafa3          	sw	a6,-1761(s11)
    80000270:	0031d83b          	srlw	a6,gp,gp
    80000274:	52820123          	sb	s0,1314(tp) # 522 <_start-0x7ffffade>
    80000278:	a8fae603          	lwu	a2,-1393(s5)
    8000027c:	86700e13          	li	t3,-1945
    80000280:	b9400393          	li	t2,-1132
    80000284:	99818493          	addi	s1,gp,-1640 # 800018a8 <_end+0x198>
    80000288:	293f5903          	lhu	s2,659(t5)
    8000028c:	e69e0c93          	addi	s9,t3,-407
    80000290:	91112403          	lw	s0,-1775(sp)
    80000294:	9c818913          	addi	s2,gp,-1592 # 800018d8 <_end+0x1c8>
    80000298:	5a000d13          	li	s10,1440
    8000029c:	98818e93          	addi	t4,gp,-1656 # 80001898 <_end+0x188>
    800002a0:	00100a93          	li	s5,1
    800002a4:	8ed00a13          	li	s4,-1811
    800002a8:	fac00113          	li	sp,-84
    800002ac:	d7892203          	lw	tp,-648(s2)
    800002b0:	00001597          	auipc	a1,0x1
    800002b4:	14958593          	addi	a1,a1,329 # 800013f9 <test_memory+0xf9>
    800002b8:	03488b33          	mul	s6,a7,s4
    800002bc:	af248f83          	lb	t6,-1294(s1)
    800002c0:	1c059ba3          	sh	zero,471(a1)
    800002c4:	0273dc33          	divu	s8,t2,t2
    800002c8:	e2f00f13          	li	t5,-465
    800002cc:	cc0ee783          	lwu	a5,-832(t4)
    800002d0:	f0b00193          	li	gp,-245
    800002d4:	03fa9a93          	slli	s5,s5,0x3f
    800002d8:	0224d8bb          	divuw	a7,s1,sp
    800002dc:	00a51fb3          	sll	t6,a0,a0
    800002e0:	00001097          	auipc	ra,0x1
    800002e4:	f9608093          	addi	ra,ra,-106 # 80001276 <reg_x14_output+0x6>
    800002e8:	02f7a3b3          	mulhsu	t2,a5,a5
    800002ec:	00001c17          	auipc	s8,0x1
    800002f0:	2a7c0c13          	addi	s8,s8,679 # 80001593 <test_memory+0x293>
    800002f4:	026475b3          	remu	a1,s0,t1
    800002f8:	42d68413          	addi	s0,a3,1069
    800002fc:	022d433b          	divw	t1,s10,sp
    80000300:	2b20e503          	lwu	a0,690(ra)
    80000304:	00100893          	li	a7,1
    80000308:	00100593          	li	a1,1
    8000030c:	10ec07a3          	sb	a4,271(s8)
    80000310:	0290833b          	mulw	t1,ra,s1
    80000314:	d0e00d93          	li	s11,-754
    80000318:	00001a17          	auipc	s4,0x1
    8000031c:	93ca0a13          	addi	s4,s4,-1732 # 80000c54 <test_end+0x25c>
    80000320:	738a2783          	lw	a5,1848(s4)
    80000324:	03f59593          	slli	a1,a1,0x3f
    80000328:	00001c97          	auipc	s9,0x1
    8000032c:	a33c8c93          	addi	s9,s9,-1485 # 80000d5b <test_end+0x363>
    80000330:	4203d493          	srai	s1,t2,0x20
    80000334:	0308643b          	remw	s0,a6,a6
    80000338:	00010313          	mv	t1,sp
    8000033c:	01ef7bb3          	and	s7,t5,t5
    80000340:	fff00f93          	li	t6,-1
    80000344:	f5318293          	addi	t0,gp,-173 # 80001e63 <_end+0x753>
    80000348:	03f89893          	slli	a7,a7,0x3f
    8000034c:	605cee03          	lwu	t3,1541(s9)
    80000350:	ec700913          	li	s2,-313
    80000354:	00030c13          	mv	s8,t1
    80000358:	fff00993          	li	s3,-1
    8000035c:	00bfcfb3          	xor	t6,t6,a1
    80000360:	00109b33          	sll	s6,ra,ra
    80000364:	00001797          	auipc	a5,0x1
    80000368:	01a78793          	addi	a5,a5,26 # 8000137e <test_memory+0x7e>
    8000036c:	00001a17          	auipc	s4,0x1
    80000370:	975a0a13          	addi	s4,s4,-1675 # 80000ce1 <test_end+0x2e9>
    80000374:	f7c00e13          	li	t3,-132
    80000378:	eb2e0b13          	addi	s6,t3,-334
    8000037c:	41b18833          	sub	a6,gp,s11
    80000380:	15400213          	li	tp,340
    80000384:	8972c703          	lbu	a4,-1897(t0)
    80000388:	01f0f3b3          	and	t2,ra,t6
    8000038c:	00001497          	auipc	s1,0x1
    80000390:	31a48493          	addi	s1,s1,794 # 800016a6 <test_memory+0x3a6>
    80000394:	65831863          	bne	t1,s8,800009e4 <crash_forward>
    80000398:	9ea18813          	addi	a6,gp,-1558 # 800018fa <_end+0x1ea>
    8000039c:	1507cb83          	lbu	s7,336(a5)
    800003a0:	00001f17          	auipc	t5,0x1
    800003a4:	ab1f0f13          	addi	t5,t5,-1359 # 80000e51 <test_end+0x459>
    800003a8:	0159c9b3          	xor	s3,s3,s5
    800003ac:	e6618713          	addi	a4,gp,-410 # 80001d76 <_end+0x666>
    800003b0:	00491ebb          	sllw	t4,s2,tp
    800003b4:	013d7633          	and	a2,s10,s3
    800003b8:	015666b3          	or	a3,a2,s5
    800003bc:	fff00093          	li	ra,-1
    800003c0:	0110c0b3          	xor	ra,ra,a7
    800003c4:	001a7133          	and	sp,s4,ra
    800003c8:	80d71323          	sh	a3,-2042(a4)
    800003cc:	dd118c93          	addi	s9,gp,-559 # 80001ce1 <_end+0x5d1>
    800003d0:	3bc00193          	li	gp,956
    800003d4:	01116d33          	or	s10,sp,a7
    800003d8:	51af37a3          	sd	s10,1295(t5)
    800003dc:	61a14463          	blt	sp,s10,800009e4 <crash_forward>
    800003e0:	89fcaba3          	sw	t6,-1897(s9)
    800003e4:	00b36533          	or	a0,t1,a1
    800003e8:	ed24b403          	ld	s0,-302(s1)
    800003ec:	38200b13          	li	s6,898
    800003f0:	00100613          	li	a2,1
    800003f4:	036b6f33          	rem	t5,s6,s6
    800003f8:	03f61613          	slli	a2,a2,0x3f
    800003fc:	00001c17          	auipc	s8,0x1
    80000400:	cf4c0c13          	addi	s8,s8,-780 # 800010f0 <fromhost+0xb0>
    80000404:	fff00313          	li	t1,-1
    80000408:	398c4a83          	lbu	s5,920(s8)
    8000040c:	b5000413          	li	s0,-1200
    80000410:	af400a93          	li	s5,-1292
    80000414:	6bf00e93          	li	t4,1727
    80000418:	a9900093          	li	ra,-1383
    8000041c:	70e18293          	addi	t0,gp,1806 # 8000261e <__global_pointer$+0x70e>
    80000420:	2bb00213          	li	tp,699
    80000424:	00c34333          	xor	t1,t1,a2
    80000428:	000d8913          	mv	s2,s11
    8000042c:	5a32ec63          	bltu	t0,gp,800009e4 <crash_forward>
    80000430:	00090c93          	mv	s9,s2
    80000434:	c8286d83          	lwu	s11,-894(a6)
    80000438:	74d00693          	li	a3,1869
    8000043c:	ef8f7393          	andi	t2,t5,-264
    80000440:	00001c17          	auipc	s8,0x1
    80000444:	af0c0c13          	addi	s8,s8,-1296 # 80000f30 <test_end+0x538>
    80000448:	001ea133          	slt	sp,t4,ra
    8000044c:	41f4083b          	subw	a6,s0,t6
    80000450:	02d268b3          	rem	a7,tp,a3
    80000454:	40d3d19b          	sraiw	gp,t2,0xd
    80000458:	4e8c6503          	lwu	a0,1256(s8)
    8000045c:	00b0cc33          	xor	s8,ra,a1
    80000460:	ca300d13          	li	s10,-861
    80000464:	b0700213          	li	tp,-1273
    80000468:	56800c93          	li	s9,1384
    8000046c:	e3a00093          	li	ra,-454
    80000470:	6c800d93          	li	s11,1736
    80000474:	0330f133          	remu	sp,ra,s3
    80000478:	d6a00493          	li	s1,-662
    8000047c:	03bde93b          	remw	s2,s11,s11
    80000480:	035a95b3          	mulh	a1,s5,s5
    80000484:	006f79b3          	and	s3,t5,t1
    80000488:	03ffffb3          	remu	t6,t6,t6
    8000048c:	02841b33          	mulh	s6,s0,s0
    80000490:	0242753b          	remuw	a0,tp,tp
    80000494:	00001a97          	auipc	s5,0x1
    80000498:	1b0a8a93          	addi	s5,s5,432 # 80001644 <test_memory+0x344>
    8000049c:	00c9ee33          	or	t3,s3,a2
    800004a0:	7eca25a3          	sw	a2,2027(s4)
    800004a4:	009d1f3b          	sllw	t5,s10,s1
    800004a8:	0342613b          	remw	sp,tp,s4
    800004ac:	00001717          	auipc	a4,0x1
    800004b0:	d8970713          	addi	a4,a4,-631 # 80001235 <reg_x6_output+0x5>
    800004b4:	00001897          	auipc	a7,0x1
    800004b8:	da188893          	addi	a7,a7,-607 # 80001255 <reg_x10_output+0x5>
    800004bc:	03aab623          	sd	s10,44(s5)
    800004c0:	419c86bb          	subw	a3,s9,s9
    800004c4:	a2400313          	li	t1,-1500
    800004c8:	90918793          	addi	a5,gp,-1783 # 80001819 <_end+0x109>
    800004cc:	00001417          	auipc	s0,0x1
    800004d0:	32840413          	addi	s0,s0,808 # 800017f4 <_end+0xe4>
    800004d4:	00f7f2b3          	and	t0,a5,a5
    800004d8:	00001997          	auipc	s3,0x1
    800004dc:	20598993          	addi	s3,s3,517 # 800016dd <test_memory+0x3dd>
    800004e0:	93200a13          	li	s4,-1742
    800004e4:	dfc78fa3          	sb	t3,-513(a5)
    800004e8:	034a04bb          	mulw	s1,s4,s4
    800004ec:	bac42823          	sw	a2,-1104(s0)
    800004f0:	1ab73383          	ld	t2,427(a4)
    800004f4:	cd24bfb7          	lui	t6,0xcd24b
    800004f8:	01599503          	lh	a0,21(s3)
    800004fc:	81700e13          	li	t3,-2025
    80000500:	fa230613          	addi	a2,t1,-94
    80000504:	4ec30063          	beq	t1,a2,800009e4 <crash_forward>
    80000508:	58400213          	li	tp,1412
    8000050c:	0210e1b3          	rem	gp,ra,ra
    80000510:	00100593          	li	a1,1
    80000514:	03f59593          	slli	a1,a1,0x3f
    80000518:	a4918d93          	addi	s11,gp,-1463 # 80001959 <_end+0x249>
    8000051c:	c17dbf03          	ld	t5,-1001(s11)
    80000520:	01ce3bb3          	sltu	s7,t3,t3
    80000524:	fff00c13          	li	s8,-1
    80000528:	49200d13          	li	s10,1170
    8000052c:	bdad6ee3          	bltu	s10,s10,80000108 <crash_backward>
    80000530:	01a23133          	sltu	sp,tp,s10
    80000534:	00bc4c33          	xor	s8,s8,a1
    80000538:	e7018e93          	addi	t4,gp,-400 # 80001d80 <_end+0x670>
    8000053c:	0184fb33          	and	s6,s1,s8
    80000540:	40b8e803          	lwu	a6,1035(a7)
    80000544:	00bb6933          	or	s2,s6,a1
    80000548:	bd6960e3          	bltu	s2,s6,80000108 <crash_backward>
    8000054c:	8e2eb023          	sd	sp,-1824(t4)
    80000550:	00100793          	li	a5,1
    80000554:	00e71cbb          	sllw	s9,a4,a4
    80000558:	34d00593          	li	a1,845
    8000055c:	00001917          	auipc	s2,0x1
    80000560:	95390913          	addi	s2,s2,-1709 # 80000eaf <test_end+0x4b7>
    80000564:	00001997          	auipc	s3,0x1
    80000568:	bbf98993          	addi	s3,s3,-1089 # 80001123 <reg_x4_init+0x3>
    8000056c:	00001e97          	auipc	t4,0x1
    80000570:	992e8e93          	addi	t4,t4,-1646 # 80000efe <test_end+0x506>
    80000574:	454ec403          	lbu	s0,1108(t4)
    80000578:	00e6f1b3          	and	gp,a3,a4
    8000057c:	59c9aca3          	sw	t3,1433(s3)
    80000580:	03f79793          	slli	a5,a5,0x3f
    80000584:	31200393          	li	t2,786
    80000588:	00001d97          	auipc	s11,0x1
    8000058c:	8f8d8d93          	addi	s11,s11,-1800 # 80000e80 <test_end+0x488>
    80000590:	00001d17          	auipc	s10,0x1
    80000594:	00fd0d13          	addi	s10,s10,15 # 8000159f <test_memory+0x29f>
    80000598:	57b58293          	addi	t0,a1,1403
    8000059c:	4455f463          	bgeu	a1,t0,800009e4 <crash_forward>
    800005a0:	708dbf83          	ld	t6,1800(s11)
    800005a4:	00100b13          	li	s6,1
    800005a8:	4f391c03          	lh	s8,1267(s2)
    800005ac:	3cf00213          	li	tp,975
    800005b0:	fff00313          	li	t1,-1
    800005b4:	00f34333          	xor	t1,t1,a5
    800005b8:	0372bab3          	mulhu	s5,t0,s7
    800005bc:	f2000513          	li	a0,-224
    800005c0:	da5d5683          	lhu	a3,-603(s10)
    800005c4:	03fb1b13          	slli	s6,s6,0x3f
    800005c8:	d7100713          	li	a4,-655
    800005cc:	40e25bb3          	sra	s7,tp,a4
    800005d0:	02a384bb          	mulw	s1,t2,a0
    800005d4:	00001117          	auipc	sp,0x1
    800005d8:	b4110113          	addi	sp,sp,-1215 # 80001115 <reg_x2_init+0x5>
    800005dc:	006d78b3          	and	a7,s10,t1
    800005e0:	fff00613          	li	a2,-1
    800005e4:	50010ea3          	sb	zero,1309(sp)
    800005e8:	01664633          	xor	a2,a2,s6
    800005ec:	00f8ea33          	or	s4,a7,a5
    800005f0:	02d6ef3b          	remw	t5,a3,a3
    800005f4:	00c0fe33          	and	t3,ra,a2
    800005f8:	016860b3          	or	ra,a6,s6
    800005fc:	4073843b          	subw	s0,t2,t2
    80000600:	02843533          	mulhu	a0,s0,s0
    80000604:	72800a93          	li	s5,1832
    80000608:	3c500d93          	li	s11,965
    8000060c:	00000393          	li	t2,0
    80000610:	020ea4b3          	mulhsu	s1,t4,zero
    80000614:	021266bb          	remw	a3,tp,ra
    80000618:	00100593          	li	a1,1
    8000061c:	62200e93          	li	t4,1570
    80000620:	00001617          	auipc	a2,0x1
    80000624:	8ad60613          	addi	a2,a2,-1875 # 80000ecd <test_end+0x4d5>
    80000628:	00001417          	auipc	s0,0x1
    8000062c:	ed840413          	addi	s0,s0,-296 # 80001500 <test_memory+0x200>
    80000630:	5dd00893          	li	a7,1501
    80000634:	3a76e293          	ori	t0,a3,935
    80000638:	036b5f33          	divu	t5,s6,s6
    8000063c:	414a50b3          	sra	ra,s4,s4
    80000640:	16144683          	lbu	a3,353(s0)
    80000644:	03f59593          	slli	a1,a1,0x3f
    80000648:	00001497          	auipc	s1,0x1
    8000064c:	92a48493          	addi	s1,s1,-1750 # 80000f72 <test_end+0x57a>
    80000650:	c3818313          	addi	t1,gp,-968 # 80001b48 <_end+0x438>
    80000654:	4e54a923          	sw	t0,1266(s1)
    80000658:	8b833c03          	ld	s8,-1864(t1)
    8000065c:	00001117          	auipc	sp,0x1
    80000660:	eb810113          	addi	sp,sp,-328 # 80001514 <test_memory+0x214>
    80000664:	7b700813          	li	a6,1975
    80000668:	00100f93          	li	t6,1
    8000066c:	03da87b3          	mul	a5,s5,t4
    80000670:	00001517          	auipc	a0,0x1
    80000674:	8cc50513          	addi	a0,a0,-1844 # 80000f3c <test_end+0x544>
    80000678:	031de1b3          	rem	gp,s11,a7
    8000067c:	03ff9f93          	slli	t6,t6,0x3f
    80000680:	fff00713          	li	a4,-1
    80000684:	00b74733          	xor	a4,a4,a1
    80000688:	ede12623          	sw	t5,-308(sp)
    8000068c:	51362e03          	lw	t3,1299(a2)
    80000690:	17280b13          	addi	s6,a6,370
    80000694:	34006863          	bltu	zero,zero,800009e4 <crash_forward>
    80000698:	00000c93          	li	s9,0
    8000069c:	35685463          	bge	a6,s6,800009e4 <crash_forward>
    800006a0:	4e400293          	li	t0,1252
    800006a4:	77c53983          	ld	s3,1916(a0)
    800006a8:	00e3fd33          	and	s10,t2,a4
    800006ac:	00001d97          	auipc	s11,0x1
    800006b0:	9fcd8d93          	addi	s11,s11,-1540 # 800010a8 <fromhost+0x68>
    800006b4:	f8c82f13          	slti	t5,a6,-116
    800006b8:	00bd6233          	or	tp,s10,a1
    800006bc:	33a25463          	bge	tp,s10,800009e4 <crash_forward>
    800006c0:	24800193          	li	gp,584
    800006c4:	50f00e13          	li	t3,1295
    800006c8:	f2718893          	addi	a7,gp,-217 # 80001e37 <_end+0x727>
    800006cc:	8bd8a083          	lw	ra,-1859(a7)
    800006d0:	4a8da303          	lw	t1,1192(s11)
    800006d4:	63f28e93          	addi	t4,t0,1599
    800006d8:	01c1813b          	addw	sp,gp,t3
    800006dc:	00001497          	auipc	s1,0x1
    800006e0:	da448493          	addi	s1,s1,-604 # 80001480 <test_memory+0x180>
    800006e4:	ea24d403          	lhu	s0,-350(s1)
    800006e8:	fff00a13          	li	s4,-1
    800006ec:	15b00c13          	li	s8,347
    800006f0:	01fa4a33          	xor	s4,s4,t6
    800006f4:	0146f933          	and	s2,a3,s4
    800006f8:	a1100d93          	li	s11,-1519
    800006fc:	4075d9bb          	sraw	s3,a1,t2
    80000700:	a3c00713          	li	a4,-1476
    80000704:	00100693          	li	a3,1
    80000708:	02e77133          	remu	sp,a4,a4
    8000070c:	4f900d13          	li	s10,1273
    80000710:	87500193          	li	gp,-1931
    80000714:	41bd8633          	sub	a2,s11,s11
    80000718:	bb818313          	addi	t1,gp,-1096 # 80001ac8 <_end+0x3b8>
    8000071c:	03f69693          	slli	a3,a3,0x3f
    80000720:	01fe6bb3          	or	s7,t3,t6
    80000724:	fff00593          	li	a1,-1
    80000728:	00100e13          	li	t3,1
    8000072c:	0031e2b3          	or	t0,gp,gp
    80000730:	53c00a93          	li	s5,1340
    80000734:	40bd0513          	addi	a0,s10,1035
    80000738:	035c27b3          	mulhsu	a5,s8,s5
    8000073c:	be832083          	lw	ra,-1048(t1)
    80000740:	9def14e3          	bne	t5,t5,80000108 <crash_backward>
    80000744:	03fe1e13          	slli	t3,t3,0x3f
    80000748:	ef300713          	li	a4,-269
    8000074c:	cb5c041b          	addiw	s0,s8,-843
    80000750:	00d5c5b3          	xor	a1,a1,a3
    80000754:	03bdbcb3          	mulhu	s9,s11,s11
    80000758:	ea300613          	li	a2,-349
    8000075c:	00000893          	li	a7,0
    80000760:	00001497          	auipc	s1,0x1
    80000764:	84348493          	addi	s1,s1,-1981 # 80000fa3 <test_end+0x5ab>
    80000768:	fff00813          	li	a6,-1
    8000076c:	5d54a383          	lw	t2,1493(s1)
    80000770:	01c84833          	xor	a6,a6,t3
    80000774:	00000993          	li	s3,0
    80000778:	98ad78e3          	bgeu	s10,a0,80000108 <crash_backward>
    8000077c:	01047eb3          	and	t4,s0,a6
    80000780:	9938e4e3          	bltu	a7,s3,80000108 <crash_backward>
    80000784:	01ce6f33          	or	t5,t3,t3
    80000788:	00c72db3          	slt	s11,a4,a2
    8000078c:	00bff233          	and	tp,t6,a1
    80000790:	020f2533          	mulhsu	a0,t5,zero
    80000794:	42c8d793          	srai	a5,a7,0x2c
    80000798:	00001917          	auipc	s2,0x1
    8000079c:	06090913          	addi	s2,s2,96 # 800017f8 <_end+0xe8>
    800007a0:	23600713          	li	a4,566
    800007a4:	97eef2e3          	bgeu	t4,t5,80000108 <crash_backward>
    800007a8:	00108abb          	addw	s5,ra,ra
    800007ac:	00001a17          	auipc	s4,0x1
    800007b0:	00ca0a13          	addi	s4,s4,12 # 800017b8 <_end+0xa8>
    800007b4:	94001ae3          	bnez	zero,80000108 <crash_backward>
    800007b8:	e4496c83          	lwu	s9,-444(s2)
    800007bc:	02e303bb          	mulw	t2,t1,a4
    800007c0:	00001f17          	auipc	t5,0x1
    800007c4:	bc3f0f13          	addi	t5,t5,-1085 # 80001383 <test_memory+0x83>
    800007c8:	d7d18513          	addi	a0,gp,-643 # 80001c8d <_end+0x57d>
    800007cc:	d82a0ca3          	sb	sp,-615(s4)
    800007d0:	abc00e93          	li	t4,-1348
    800007d4:	26e00993          	li	s3,622
    800007d8:	7f600613          	li	a2,2038
    800007dc:	033eee33          	rem	t3,t4,s3
    800007e0:	00d26b33          	or	s6,tp,a3
    800007e4:	00000a97          	auipc	s5,0x0
    800007e8:	772a8a93          	addi	s5,s5,1906 # 80000f56 <test_end+0x55e>
    800007ec:	91620ee3          	beq	tp,s6,80000108 <crash_backward>
    800007f0:	d7800793          	li	a5,-648
    800007f4:	820539a3          	sd	zero,-1997(a0)
    800007f8:	02f7d833          	divu	a6,a5,a5
    800007fc:	fb9f1f83          	lh	t6,-71(t5)
    80000800:	00c750b3          	srl	ra,a4,a2
    80000804:	33f00313          	li	t1,831
    80000808:	00635db3          	srl	s11,t1,t1
    8000080c:	8fde9ee3          	bne	t4,t4,80000108 <crash_backward>
    80000810:	44400b93          	li	s7,1092
    80000814:	e0618493          	addi	s1,gp,-506 # 80001d16 <_end+0x606>
    80000818:	00000197          	auipc	gp,0x0
    8000081c:	68318193          	addi	gp,gp,1667 # 80000e9b <test_end+0x4a3>
    80000820:	8224ad03          	lw	s10,-2014(s1)
    80000824:	00001597          	auipc	a1,0x1
    80000828:	ccf58593          	addi	a1,a1,-817 # 800014f3 <test_memory+0x1f3>
    8000082c:	44000b13          	li	s6,1088
    80000830:	036b073b          	mulw	a4,s6,s6
    80000834:	00100313          	li	t1,1
    80000838:	03f31313          	slli	t1,t1,0x3f
    8000083c:	6871bea3          	sd	t2,1693(gp) # 800025ad <__global_pointer$+0x69d>
    80000840:	fff00513          	li	a0,-1
    80000844:	016d183b          	sllw	a6,s10,s6
    80000848:	00001917          	auipc	s2,0x1
    8000084c:	d4090913          	addi	s2,s2,-704 # 80001588 <test_memory+0x288>
    80000850:	11a58e23          	sb	s10,284(a1)
    80000854:	019c89b3          	add	s3,s9,s9
    80000858:	bf300f93          	li	t6,-1037
    8000085c:	f5f00b13          	li	s6,-161
    80000860:	03741213          	slli	tp,s0,0x37
    80000864:	558a8383          	lb	t2,1368(s5)
    80000868:	dd000293          	li	t0,-560
    8000086c:	f7300f13          	li	t5,-141
    80000870:	00001c97          	auipc	s9,0x1
    80000874:	a21c8c93          	addi	s9,s9,-1503 # 80001291 <reg_x18_output+0x1>
    80000878:	f09f8613          	addi	a2,t6,-247 # ffffffffcd24af09 <__global_pointer$+0xffffffff4d248ff9>
    8000087c:	86100893          	li	a7,-1951
    80000880:	45b00e93          	li	t4,1115
    80000884:	011b8c33          	add	s8,s7,a7
    80000888:	e5718e13          	addi	t3,gp,-425 # 80001d67 <_end+0x657>
    8000088c:	00000f97          	auipc	t6,0x0
    80000890:	663f8f93          	addi	t6,t6,1635 # 80000eef <test_end+0x4f7>
    80000894:	10e00493          	li	s1,270
    80000898:	f2d91023          	sh	a3,-224(s2)
    8000089c:	00000213          	li	tp,0
    800008a0:	a5500593          	li	a1,-1451
    800008a4:	13d00c13          	li	s8,317
    800008a8:	6e4faaa3          	sw	tp,1781(t6)
    800008ac:	00001617          	auipc	a2,0x1
    800008b0:	cf260613          	addi	a2,a2,-782 # 8000159e <test_memory+0x29e>
    800008b4:	3dfc8083          	lb	ra,991(s9)
    800008b8:	01df0a33          	add	s4,t5,t4
    800008bc:	b6200713          	li	a4,-1182
    800008c0:	902e26a3          	sw	sp,-1779(t3)
    800008c4:	0294dd3b          	divuw	s10,s1,s1
    800008c8:	ef263a83          	ld	s5,-270(a2)
    800008cc:	41295dbb          	sraw	s11,s2,s2
    800008d0:	038c58b3          	divu	a7,s8,s8
    800008d4:	00654533          	xor	a0,a0,t1
    800008d8:	89800993          	li	s3,-1896
    800008dc:	40eb51b3          	sra	gp,s6,a4
    800008e0:	4135883b          	subw	a6,a1,s3
    800008e4:	00000b93          	li	s7,0
    800008e8:	7e500413          	li	s0,2021
    800008ec:	0082e133          	or	sp,t0,s0
    800008f0:	0f721a63          	bne	tp,s7,800009e4 <crash_forward>
    800008f4:	00ab76b3          	and	a3,s6,a0
    800008f8:	006867b3          	or	a5,a6,t1
    800008fc:	04600213          	li	tp,70
    80000900:	00001597          	auipc	a1,0x1
    80000904:	b3f58593          	addi	a1,a1,-1217 # 8000143f <test_memory+0x13f>
    80000908:	2ae00893          	li	a7,686
    8000090c:	fe004e63          	bltz	zero,80000108 <crash_backward>
    80000910:	00000a13          	li	s4,0
    80000914:	51388b93          	addi	s7,a7,1299
    80000918:	88c00293          	li	t0,-1908
    8000091c:	3ca00693          	li	a3,970
    80000920:	20e20793          	addi	a5,tp,526 # 20e <_start-0x7ffffdf2>
    80000924:	e3300f93          	li	t6,-461
    80000928:	a0918a93          	addi	s5,gp,-1527 # 80001919 <_end+0x209>
    8000092c:	00001117          	auipc	sp,0x1
    80000930:	c5e10113          	addi	sp,sp,-930 # 8000158a <test_memory+0x28a>
    80000934:	0b810ba3          	sb	s8,183(sp)
    80000938:	00000513          	li	a0,0
    8000093c:	0f15ab03          	lw	s6,241(a1)
    80000940:	b34a93a3          	sh	s4,-1241(s5)
    80000944:	0aaa6063          	bltu	s4,a0,800009e4 <crash_forward>
    80000948:	41f6d83b          	sraw	a6,a3,t6
    8000094c:	ac118d93          	addi	s11,gp,-1343 # 800019d1 <_end+0x2c1>
    80000950:	c4128e13          	addi	t3,t0,-959
    80000954:	a76dc903          	lbu	s2,-1418(s11)
    80000958:	0040006f          	j	8000095c <reg_dump>

000000008000095c <reg_dump>:
    8000095c:	00001097          	auipc	ra,0x1
    80000960:	da408093          	addi	ra,ra,-604 # 80001700 <loop_count>
    80000964:	0000a103          	lw	sp,0(ra)
    80000968:	fff10193          	addi	gp,sp,-1
    8000096c:	0030a023          	sw	gp,0(ra)
    80000970:	82011ce3          	bnez	sp,800001a8 <pseg_0>
    80000974:	00001097          	auipc	ra,0x1
    80000978:	88c08093          	addi	ra,ra,-1908 # 80001200 <begin_signature>
    8000097c:	0000b023          	sd	zero,0(ra)
    80000980:	0030bc23          	sd	gp,24(ra)
    80000984:	0240b023          	sd	tp,32(ra)
    80000988:	0250b423          	sd	t0,40(ra)
    8000098c:	0260b823          	sd	t1,48(ra)
    80000990:	0270bc23          	sd	t2,56(ra)
    80000994:	0480b023          	sd	s0,64(ra)
    80000998:	0490b423          	sd	s1,72(ra)
    8000099c:	04a0b823          	sd	a0,80(ra)
    800009a0:	06d0b423          	sd	a3,104(ra)
    800009a4:	06e0b823          	sd	a4,112(ra)
    800009a8:	06f0bc23          	sd	a5,120(ra)
    800009ac:	0900b023          	sd	a6,128(ra)
    800009b0:	0910b423          	sd	a7,136(ra)
    800009b4:	0920b823          	sd	s2,144(ra)
    800009b8:	0930bc23          	sd	s3,152(ra)
    800009bc:	0b40b023          	sd	s4,160(ra)
    800009c0:	0b60b823          	sd	s6,176(ra)
    800009c4:	0b70bc23          	sd	s7,184(ra)
    800009c8:	0d80b023          	sd	s8,192(ra)
    800009cc:	0da0b823          	sd	s10,208(ra)
    800009d0:	0fc0b023          	sd	t3,224(ra)
    800009d4:	0fd0b423          	sd	t4,232(ra)
    800009d8:	0fe0b823          	sd	t5,240(ra)
    800009dc:	0ff0bc23          	sd	t6,248(ra)
    800009e0:	0180006f          	j	800009f8 <test_end>

00000000800009e4 <crash_forward>:
    800009e4:	0ff0000f          	fence
    800009e8:	00018063          	beqz	gp,800009e8 <crash_forward+0x4>
    800009ec:	00119193          	slli	gp,gp,0x1
    800009f0:	0011e193          	ori	gp,gp,1
    800009f4:	00000073          	ecall

00000000800009f8 <test_end>:
    800009f8:	0ff0000f          	fence
    800009fc:	00100193          	li	gp,1
    80000a00:	00000073          	ecall
    80000a04:	c0001073          	unimp
	...

Disassembly of section .tohost:

0000000080001000 <tohost>:
	...

0000000080001040 <fromhost>:
	...
