
test.elf:     file format elf64-littleriscv


Disassembly of section .text.init:

0000000080000000 <_start>:
    80000000:	0580006f          	j	80000058 <reset_vector>

0000000080000004 <trap_vector>:
    80000004:	34202f73          	csrr	t5,mcause
    80000008:	00800f93          	li	t6,8
    8000000c:	05ff0063          	beq	t5,t6,8000004c <write_tohost>
    80000010:	00900f93          	li	t6,9
    80000014:	03ff0c63          	beq	t5,t6,8000004c <write_tohost>
    80000018:	00b00f93          	li	t6,11
    8000001c:	03ff0863          	beq	t5,t6,8000004c <write_tohost>
    80000020:	00000f13          	li	t5,0
    80000024:	000f0463          	beqz	t5,8000002c <trap_vector+0x28>
    80000028:	000f0067          	jr	t5
    8000002c:	34202f73          	csrr	t5,mcause
    80000030:	000f5463          	bgez	t5,80000038 <handle_exception>
    80000034:	0140006f          	j	80000048 <other_exception>

0000000080000038 <handle_exception>:
    80000038:	34102e73          	csrr	t3,mepc
    8000003c:	004e0e13          	addi	t3,t3,4
    80000040:	341e1073          	csrw	mepc,t3
    80000044:	30200073          	mret

0000000080000048 <other_exception>:
    80000048:	5391e193          	ori	gp,gp,1337

000000008000004c <write_tohost>:
    8000004c:	00001f17          	auipc	t5,0x1
    80000050:	fa3f2a23          	sw	gp,-76(t5) # 80001000 <tohost>
    80000054:	ff9ff06f          	j	8000004c <write_tohost>

0000000080000058 <reset_vector>:
    80000058:	f1402573          	csrr	a0,mhartid
    8000005c:	00051063          	bnez	a0,8000005c <reset_vector+0x4>
    80000060:	00000297          	auipc	t0,0x0
    80000064:	01028293          	addi	t0,t0,16 # 80000070 <reset_vector+0x18>
    80000068:	30529073          	csrw	mtvec,t0
    8000006c:	18005073          	csrwi	satp,0
    80000070:	00000297          	auipc	t0,0x0
    80000074:	01c28293          	addi	t0,t0,28 # 8000008c <reset_vector+0x34>
    80000078:	30529073          	csrw	mtvec,t0
    8000007c:	fff00293          	li	t0,-1
    80000080:	3b029073          	csrw	pmpaddr0,t0
    80000084:	01f00293          	li	t0,31
    80000088:	3a029073          	csrw	pmpcfg0,t0
    8000008c:	00000297          	auipc	t0,0x0
    80000090:	01828293          	addi	t0,t0,24 # 800000a4 <reset_vector+0x4c>
    80000094:	30529073          	csrw	mtvec,t0
    80000098:	30205073          	csrwi	medeleg,0
    8000009c:	30305073          	csrwi	mideleg,0
    800000a0:	30405073          	csrwi	mie,0
    800000a4:	00000193          	li	gp,0
    800000a8:	00000297          	auipc	t0,0x0
    800000ac:	f5c28293          	addi	t0,t0,-164 # 80000004 <trap_vector>
    800000b0:	30529073          	csrw	mtvec,t0
    800000b4:	00100513          	li	a0,1
    800000b8:	01f51513          	slli	a0,a0,0x1f
    800000bc:	00055863          	bgez	a0,800000cc <reset_vector+0x74>
    800000c0:	0ff0000f          	fence
    800000c4:	00100193          	li	gp,1
    800000c8:	00000073          	ecall
    800000cc:	00000293          	li	t0,0
    800000d0:	00028e63          	beqz	t0,800000ec <reset_vector+0x94>
    800000d4:	10529073          	csrw	stvec,t0
    800000d8:	0000b2b7          	lui	t0,0xb
    800000dc:	1092829b          	addiw	t0,t0,265
    800000e0:	30229073          	csrw	medeleg,t0
    800000e4:	30202373          	csrr	t1,medeleg
    800000e8:	f66290e3          	bne	t0,t1,80000048 <other_exception>
    800000ec:	30005073          	csrwi	mstatus,0
    800000f0:	00000297          	auipc	t0,0x0
    800000f4:	01428293          	addi	t0,t0,20 # 80000104 <reset_vector+0xac>
    800000f8:	34129073          	csrw	mepc,t0
    800000fc:	f1402573          	csrr	a0,mhartid
    80000100:	30200073          	mret
    80000104:	0180006f          	j	8000011c <test_start>

0000000080000108 <crash_backward>:
    80000108:	0ff0000f          	fence
    8000010c:	00018063          	beqz	gp,8000010c <crash_backward+0x4>
    80000110:	00119193          	slli	gp,gp,0x1
    80000114:	0011e193          	ori	gp,gp,1
    80000118:	00000073          	ecall

000000008000011c <test_start>:
    8000011c:	00001f97          	auipc	t6,0x1
    80000120:	fe4f8f93          	addi	t6,t6,-28 # 80001100 <hidden_data>
    80000124:	000fb003          	ld	zero,0(t6)
    80000128:	008fb083          	ld	ra,8(t6)
    8000012c:	010fb103          	ld	sp,16(t6)
    80000130:	018fb183          	ld	gp,24(t6)
    80000134:	020fb203          	ld	tp,32(t6)
    80000138:	028fb283          	ld	t0,40(t6)
    8000013c:	030fb303          	ld	t1,48(t6)
    80000140:	038fb383          	ld	t2,56(t6)
    80000144:	040fb403          	ld	s0,64(t6)
    80000148:	048fb483          	ld	s1,72(t6)
    8000014c:	050fb503          	ld	a0,80(t6)
    80000150:	058fb583          	ld	a1,88(t6)
    80000154:	060fb603          	ld	a2,96(t6)
    80000158:	068fb683          	ld	a3,104(t6)
    8000015c:	070fb703          	ld	a4,112(t6)
    80000160:	078fb783          	ld	a5,120(t6)
    80000164:	080fb803          	ld	a6,128(t6)
    80000168:	088fb883          	ld	a7,136(t6)
    8000016c:	090fb903          	ld	s2,144(t6)
    80000170:	098fb983          	ld	s3,152(t6)
    80000174:	0a0fba03          	ld	s4,160(t6)
    80000178:	0a8fba83          	ld	s5,168(t6)
    8000017c:	0b0fbb03          	ld	s6,176(t6)
    80000180:	0b8fbb83          	ld	s7,184(t6)
    80000184:	0c0fbc03          	ld	s8,192(t6)
    80000188:	0c8fbc83          	ld	s9,200(t6)
    8000018c:	0d0fbd03          	ld	s10,208(t6)
    80000190:	0d8fbd83          	ld	s11,216(t6)
    80000194:	0e0fbe03          	ld	t3,224(t6)
    80000198:	0e8fbe83          	ld	t4,232(t6)
    8000019c:	0f0fbf03          	ld	t5,240(t6)
    800001a0:	0f8fbf83          	ld	t6,248(t6)
    800001a4:	0040006f          	j	800001a8 <pseg_0>

00000000800001a8 <pseg_0>:
    800001a8:	00070813          	mv	a6,a4
    800001ac:	a8000893          	li	a7,-1408
    800001b0:	ac000713          	li	a4,-1344
    800001b4:	00080193          	mv	gp,a6
    800001b8:	5e600e13          	li	t3,1510
    800001bc:	7fe00113          	li	sp,2046
    800001c0:	f4800393          	li	t2,-184
    800001c4:	0010c533          	xor	a0,ra,ra
    800001c8:	44900f93          	li	t6,1097
    800001cc:	000a8693          	mv	a3,s5
    800001d0:	91118613          	addi	a2,gp,-1775 # 80001821 <_end+0x111>
    800001d4:	00001d17          	auipc	s10,0x1
    800001d8:	c43d0d13          	addi	s10,s10,-957 # 80000e17 <test_end+0x4ef>
    800001dc:	72004c63          	bltz	zero,80000914 <crash_forward>
    800001e0:	96e00c13          	li	s8,-1682
    800001e4:	45f00f13          	li	t5,1119
    800001e8:	fa600a93          	li	s5,-90
    800001ec:	3d000e93          	li	t4,976
    800001f0:	01fe2cb3          	slt	s9,t3,t6
    800001f4:	d6200313          	li	t1,-670
    800001f8:	026abdb3          	mulhu	s11,s5,t1
    800001fc:	00e70bbb          	addw	s7,a4,a4
    80000200:	01e3c2b3          	xor	t0,t2,t5
    80000204:	018109bb          	addw	s3,sp,s8
    80000208:	91200493          	li	s1,-1774
    8000020c:	00000313          	li	t1,0
    80000210:	bf200e13          	li	t3,-1038
    80000214:	020f4733          	div	a4,t5,zero
    80000218:	9fc18293          	addi	t0,gp,-1540 # 8000190c <_end+0x1fc>
    8000021c:	de42a383          	lw	t2,-540(t0)
    80000220:	02a23ab3          	mulhu	s5,tp,a0
    80000224:	07900993          	li	s3,121
    80000228:	6cb98f93          	addi	t6,s3,1739
    8000022c:	15532c13          	slti	s8,t1,341
    80000230:	03dea0b3          	mulhsu	ra,t4,t4
    80000234:	ba318593          	addi	a1,gp,-1117 # 80001ab3 <_end+0x3a3>
    80000238:	00000b93          	li	s7,0
    8000023c:	b9100d93          	li	s11,-1135
    80000240:	016173b3          	and	t2,sp,s6
    80000244:	702d22a3          	sw	sp,1797(s10)
    80000248:	00068793          	mv	a5,a3
    8000024c:	a3a18513          	addi	a0,gp,-1478 # 8000194a <_end+0x23a>
    80000250:	00001417          	auipc	s0,0x1
    80000254:	d5340413          	addi	s0,s0,-685 # 80000fa3 <test_end+0x67b>
    80000258:	01ce0733          	add	a4,t3,t3
    8000025c:	03d60c33          	mul	s8,a2,t4
    80000260:	40988b3b          	subw	s6,a7,s1
    80000264:	00001917          	auipc	s2,0x1
    80000268:	15e90913          	addi	s2,s2,350 # 800013c2 <test_memory+0xc2>
    8000026c:	a095ea03          	lwu	s4,-1527(a1)
    80000270:	b6752923          	sw	t2,-1166(a0)
    80000274:	00001097          	auipc	ra,0x1
    80000278:	2d708093          	addi	ra,ra,727 # 8000154b <test_memory+0x24b>
    8000027c:	00001f17          	auipc	t5,0x1
    80000280:	2cbf0f13          	addi	t5,t5,715 # 80001547 <test_memory+0x247>
    80000284:	090f1ea3          	sh	a6,157(t5)
    80000288:	fa091a23          	sh	zero,-76(s2)
    8000028c:	00948bbb          	addw	s7,s1,s1
    80000290:	02c6733b          	remuw	t1,a2,a2
    80000294:	b2b18d13          	addi	s10,gp,-1237 # 80001a3b <_end+0x32b>
    80000298:	c5418793          	addi	a5,gp,-940 # 80001b64 <_end+0x454>
    8000029c:	bc7d4e83          	lbu	t4,-1081(s10)
    800002a0:	414cd39b          	sraiw	t2,s9,0x14
    800002a4:	8c97ac23          	sw	s1,-1832(a5)
    800002a8:	09909283          	lh	t0,153(ra)
    800002ac:	44900b13          	li	s6,1097
    800002b0:	ebf00393          	li	t2,-321
    800002b4:	4c100d13          	li	s10,1217
    800002b8:	4d300a93          	li	s5,1235
    800002bc:	006330b3          	sltu	ra,t1,t1
    800002c0:	03be4cb3          	div	s9,t3,s11
    800002c4:	a1500713          	li	a4,-1515
    800002c8:	01a3d2b3          	srl	t0,t2,s10
    800002cc:	4086d1bb          	sraw	gp,a3,s0
    800002d0:	e6a00893          	li	a7,-406
    800002d4:	e5b00113          	li	sp,-421
    800002d8:	747419a3          	sh	t2,1875(s0)
    800002dc:	0118993b          	sllw	s2,a7,a7
    800002e0:	03dee4bb          	remw	s1,t4,t4
    800002e4:	40e706b3          	sub	a3,a4,a4
    800002e8:	cf500b93          	li	s7,-779
    800002ec:	01713333          	sltu	t1,sp,s7
    800002f0:	418c07bb          	subw	a5,s8,s8
    800002f4:	02633533          	mulhu	a0,t1,t1
    800002f8:	5ee00a13          	li	s4,1518
    800002fc:	ed560203          	lb	tp,-299(a2)
    80000300:	02f81233          	mulh	tp,a6,a5
    80000304:	efe00493          	li	s1,-258
    80000308:	00001917          	auipc	s2,0x1
    8000030c:	1a890913          	addi	s2,s2,424 # 800014b0 <test_memory+0x1b0>
    80000310:	15f00413          	li	s0,351
    80000314:	00001997          	auipc	s3,0x1
    80000318:	43898993          	addi	s3,s3,1080 # 8000174c <_end+0x3c>
    8000031c:	ed699923          	sh	s6,-302(s3)
    80000320:	00001c97          	auipc	s9,0x1
    80000324:	df2c8c93          	addi	s9,s9,-526 # 80001112 <reg_x2_init+0x2>
    80000328:	00100613          	li	a2,1
    8000032c:	357b0813          	addi	a6,s6,855
    80000330:	f6794e03          	lbu	t3,-153(s2)
    80000334:	014a9c3b          	sllw	s8,s5,s4
    80000338:	00630f3b          	addw	t5,t1,t1
    8000033c:	0b800193          	li	gp,184
    80000340:	b7400213          	li	tp,-1164
    80000344:	dc0012e3          	bnez	zero,80000108 <crash_backward>
    80000348:	00001d17          	auipc	s10,0x1
    8000034c:	fe5d0d13          	addi	s10,s10,-27 # 8000132d <test_memory+0x2d>
    80000350:	00001897          	auipc	a7,0x1
    80000354:	ce188893          	addi	a7,a7,-799 # 80001031 <tohost+0x31>
    80000358:	5b0b5e63          	bge	s6,a6,80000914 <crash_forward>
    8000035c:	92e18f93          	addi	t6,gp,-1746 # 8000183e <_end+0x12e>
    80000360:	675ffb93          	andi	s7,t6,1653
    80000364:	36dd5303          	lhu	t1,877(s10)
    80000368:	5a6c9103          	lh	sp,1446(s9)
    8000036c:	039212b3          	mulh	t0,tp,s9
    80000370:	697894a3          	sh	s7,1673(a7)
    80000374:	0034b3b3          	sltu	t2,s1,gp
    80000378:	24b00713          	li	a4,587
    8000037c:	90400913          	li	s2,-1788
    80000380:	58c61a63          	bne	a2,a2,80000914 <crash_forward>
    80000384:	b5cf8583          	lb	a1,-1188(t6)
    80000388:	c2890e13          	addi	t3,s2,-984
    8000038c:	00001517          	auipc	a0,0x1
    80000390:	aa750513          	addi	a0,a0,-1369 # 80000e33 <test_end+0x50b>
    80000394:	03f61613          	slli	a2,a2,0x3f
    80000398:	f2400093          	li	ra,-220
    8000039c:	40e457b3          	sra	a5,s0,a4
    800003a0:	abd18c13          	addi	s8,gp,-1347 # 800019cd <_end+0x2bd>
    800003a4:	001219bb          	sllw	s3,tp,ra
    800003a8:	fff00e93          	li	t4,-1
    800003ac:	4ed55f03          	lhu	t5,1261(a0)
    800003b0:	00001a17          	auipc	s4,0x1
    800003b4:	1d6a0a13          	addi	s4,s4,470 # 80001586 <test_memory+0x286>
    800003b8:	a90c0a83          	lb	s5,-1392(s8)
    800003bc:	002165b3          	or	a1,sp,sp
    800003c0:	019cd1b3          	srl	gp,s9,s9
    800003c4:	41ce5333          	sra	t1,t3,t3
    800003c8:	41ce093b          	subw	s2,t3,t3
    800003cc:	00ceceb3          	xor	t4,t4,a2
    800003d0:	01dcf6b3          	and	a3,s9,t4
    800003d4:	a8b18b13          	addi	s6,gp,-1397 # 8000199b <_end+0x28b>
    800003d8:	5b700793          	li	a5,1463
    800003dc:	db400413          	li	s0,-588
    800003e0:	77b00293          	li	t0,1915
    800003e4:	0339dfb3          	divu	t6,s3,s3
    800003e8:	0257f9b3          	remu	s3,a5,t0
    800003ec:	00c6edb3          	or	s11,a3,a2
    800003f0:	50400213          	li	tp,1284
    800003f4:	98bb0803          	lb	a6,-1653(s6)
    800003f8:	66800313          	li	t1,1640
    800003fc:	0d200593          	li	a1,210
    80000400:	00001f17          	auipc	t5,0x1
    80000404:	3f8f0f13          	addi	t5,t5,1016 # 800017f8 <_end+0xe8>
    80000408:	b2df4083          	lbu	ra,-1235(t5)
    8000040c:	02a5493b          	divw	s2,a0,a0
    80000410:	d8d3a7b7          	lui	a5,0xd8d3a
    80000414:	f6500493          	li	s1,-155
    80000418:	00b331b3          	sltu	gp,t1,a1
    8000041c:	0252f9b3          	remu	s3,t0,t0
    80000420:	000c0f93          	mv	t6,s8
    80000424:	cfb6c2e3          	blt	a3,s11,80000108 <crash_backward>
    80000428:	79500c93          	li	s9,1941
    8000042c:	00442733          	slt	a4,s0,tp
    80000430:	37000d13          	li	s10,880
    80000434:	016f1f3b          	sllw	t5,t5,s6
    80000438:	00100b13          	li	s6,1
    8000043c:	ec4a0aa3          	sb	tp,-299(s4)
    80000440:	bc548513          	addi	a0,s1,-1083
    80000444:	03fb1b13          	slli	s6,s6,0x3f
    80000448:	fff00193          	li	gp,-1
    8000044c:	0161c1b3          	xor	gp,gp,s6
    80000450:	4c957263          	bgeu	a0,s1,80000914 <crash_forward>
    80000454:	000f8293          	mv	t0,t6
    80000458:	00001d97          	auipc	s11,0x1
    8000045c:	b01d8d93          	addi	s11,s11,-1279 # 80000f59 <test_end+0x631>
    80000460:	0010e533          	or	a0,ra,ra
    80000464:	0039f433          	and	s0,s3,gp
    80000468:	f0500893          	li	a7,-251
    8000046c:	2ac00393          	li	t2,684
    80000470:	00001717          	auipc	a4,0x1
    80000474:	dac70713          	addi	a4,a4,-596 # 8000121c <reg_x3_output+0x4>
    80000478:	0160e7b3          	or	a5,ra,s6
    8000047c:	d6218493          	addi	s1,gp,-670 # 80001c72 <_end+0x562>
    80000480:	56ddc803          	lbu	a6,1389(s11)
    80000484:	0273abb3          	mulhsu	s7,t2,t2
    80000488:	8484bf23          	sd	s0,-1954(s1)
    8000048c:	485fc463          	blt	t6,t0,80000914 <crash_forward>
    80000490:	8cb00293          	li	t0,-1845
    80000494:	18f00f93          	li	t6,399
    80000498:	402101b3          	sub	gp,sp,sp
    8000049c:	2c470023          	sb	tp,704(a4)
    800004a0:	02840533          	mul	a0,s0,s0
    800004a4:	c718c2e3          	blt	a7,a7,80000108 <crash_backward>
    800004a8:	00001317          	auipc	t1,0x1
    800004ac:	be230313          	addi	t1,t1,-1054 # 8000108a <fromhost+0x4a>
    800004b0:	00000213          	li	tp,0
    800004b4:	011ce133          	or	sp,s9,a7
    800004b8:	00000613          	li	a2,0
    800004bc:	5e000793          	li	a5,1504
    800004c0:	408d5833          	sra	a6,s10,s0
    800004c4:	02f78db3          	mul	s11,a5,a5
    800004c8:	c4c260e3          	bltu	tp,a2,80000108 <crash_backward>
    800004cc:	49636903          	lwu	s2,1174(t1)
    800004d0:	4275d593          	srai	a1,a1,0x27
    800004d4:	41f00c13          	li	s8,1055
    800004d8:	01f2a4b3          	slt	s1,t0,t6
    800004dc:	03ad3e33          	mulhu	t3,s10,s10
    800004e0:	00000e93          	li	t4,0
    800004e4:	e8e18f13          	addi	t5,gp,-370 # 80001d9e <_end+0x68e>
    800004e8:	000e8093          	mv	ra,t4
    800004ec:	00100393          	li	t2,1
    800004f0:	cf700993          	li	s3,-777
    800004f4:	03f39393          	slli	t2,t2,0x3f
    800004f8:	413c56bb          	sraw	a3,s8,s3
    800004fc:	fff00b93          	li	s7,-1
    80000500:	81ef2b03          	lw	s6,-2018(t5)
    80000504:	00001a17          	auipc	s4,0x1
    80000508:	946a0a13          	addi	s4,s4,-1722 # 80000e4a <test_end+0x522>
    8000050c:	6a8a1a83          	lh	s5,1704(s4)
    80000510:	007bcbb3          	xor	s7,s7,t2
    80000514:	401e9063          	bne	t4,ra,80000914 <crash_forward>
    80000518:	01747433          	and	s0,s0,s7
    8000051c:	007461b3          	or	gp,s0,t2
    80000520:	8ef00b93          	li	s7,-1809
    80000524:	00100e93          	li	t4,1
    80000528:	00001517          	auipc	a0,0x1
    8000052c:	f4550513          	addi	a0,a0,-187 # 8000146d <test_memory+0x16d>
    80000530:	00001a3b          	sllw	s4,zero,zero
    80000534:	00001297          	auipc	t0,0x1
    80000538:	b4b28293          	addi	t0,t0,-1205 # 8000107f <fromhost+0x3f>
    8000053c:	c1118593          	addi	a1,gp,-1007 # 80001b21 <_end+0x411>
    80000540:	01bdefb7          	lui	t6,0x1bde
    80000544:	6bd00993          	li	s3,1725
    80000548:	00b5d0bb          	srlw	ra,a1,a1
    8000054c:	0c353703          	ld	a4,195(a0)
    80000550:	40800113          	li	sp,1032
    80000554:	8f558b03          	lb	s6,-1803(a1)
    80000558:	00001d97          	auipc	s11,0x1
    8000055c:	ac5d8d93          	addi	s11,s11,-1339 # 8000101d <tohost+0x1d>
    80000560:	03fe9e93          	slli	t4,t4,0x3f
    80000564:	00001d17          	auipc	s10,0x1
    80000568:	bc0d0d13          	addi	s10,s10,-1088 # 80001124 <reg_x4_init+0x4>
    8000056c:	022bdf33          	divu	t5,s7,sp
    80000570:	3392b483          	ld	s1,825(t0)
    80000574:	00001317          	auipc	t1,0x1
    80000578:	d7f30313          	addi	t1,t1,-641 # 800012f3 <reg_x30_output+0x3>
    8000057c:	013987b3          	add	a5,s3,s3
    80000580:	f7718393          	addi	t2,gp,-137 # 80001e87 <_end+0x777>
    80000584:	57cd0883          	lb	a7,1404(s10)
    80000588:	8e200b93          	li	s7,-1822
    8000058c:	e4500613          	li	a2,-443
    80000590:	e1f00293          	li	t0,-481
    80000594:	391da9a3          	sw	a7,915(s11)
    80000598:	81d39fa3          	sh	t4,-2017(t2)
    8000059c:	00001c17          	auipc	s8,0x1
    800005a0:	961c0c13          	addi	s8,s8,-1695 # 80000efd <test_end+0x5d5>
    800005a4:	c2018a13          	addi	s4,gp,-992 # 80001b30 <_end+0x420>
    800005a8:	8c200d93          	li	s11,-1854
    800005ac:	4a8c3da3          	sd	s0,1211(s8)
    800005b0:	032e69bb          	remw	s3,t3,s2
    800005b4:	00000c93          	li	s9,0
    800005b8:	02c676b3          	remu	a3,a2,a2
    800005bc:	2d0336a3          	sd	a6,717(t1)
    800005c0:	0062d11b          	srliw	sp,t0,0x6
    800005c4:	d3818213          	addi	tp,gp,-712 # 80001c48 <_end+0x538>
    800005c8:	41295433          	sra	s0,s2,s2
    800005cc:	9fd23c23          	sd	t4,-1544(tp) # fffffffffffff9f8 <__global_pointer$+0xffffffff7fffdae8>
    800005d0:	43c00b13          	li	s6,1084
    800005d4:	0252873b          	mulw	a4,t0,t0
    800005d8:	01ffd533          	srl	a0,t6,t6
    800005dc:	d4018d13          	addi	s10,gp,-704 # 80001c50 <_end+0x540>
    800005e0:	9add3023          	sd	a3,-1632(s10)
    800005e4:	00001917          	auipc	s2,0x1
    800005e8:	c9d90913          	addi	s2,s2,-867 # 80001281 <reg_x16_output+0x1>
    800005ec:	66f00593          	li	a1,1647
    800005f0:	037bd4bb          	divuw	s1,s7,s7
    800005f4:	23993fa3          	sd	s9,575(s2)
    800005f8:	e1900893          	li	a7,-487
    800005fc:	02b5ff3b          	remuw	t5,a1,a1
    80000600:	03f70e33          	mul	t3,a4,t6
    80000604:	9efa3823          	sd	a5,-1552(s4)
    80000608:	02e7053b          	mulw	a0,a4,a4
    8000060c:	420eda13          	srai	s4,t4,0x20
    80000610:	fff00193          	li	gp,-1
    80000614:	031d83b3          	mul	t2,s11,a7
    80000618:	00001597          	auipc	a1,0x1
    8000061c:	f9958593          	addi	a1,a1,-103 # 800015b1 <test_memory+0x2b1>
    80000620:	033737b3          	mulhu	a5,a4,s3
    80000624:	00100713          	li	a4,1
    80000628:	014a143b          	sllw	s0,s4,s4
    8000062c:	fcb59e03          	lh	t3,-53(a1)
    80000630:	01d1c1b3          	xor	gp,gp,t4
    80000634:	00000b93          	li	s7,0
    80000638:	03f71713          	slli	a4,a4,0x3f
    8000063c:	00001697          	auipc	a3,0x1
    80000640:	e7668693          	addi	a3,a3,-394 # 800014b2 <test_memory+0x1b2>
    80000644:	ad39e2e3          	bltu	s3,s3,80000108 <crash_backward>
    80000648:	00100a13          	li	s4,1
    8000064c:	89900293          	li	t0,-1895
    80000650:	00000d13          	li	s10,0
    80000654:	00000093          	li	ra,0
    80000658:	04e00c13          	li	s8,78
    8000065c:	4e0c0993          	addi	s3,s8,1248
    80000660:	00001e17          	auipc	t3,0x1
    80000664:	fcde0e13          	addi	t3,t3,-51 # 8000162d <test_memory+0x32d>
    80000668:	03fa1a13          	slli	s4,s4,0x3f
    8000066c:	fff00213          	li	tp,-1
    80000670:	0252ff33          	remu	t5,t0,t0
    80000674:	003f7833          	and	a6,t5,gp
    80000678:	fcbe1583          	lh	a1,-53(t3)
    8000067c:	41f388b3          	sub	a7,t2,t6
    80000680:	86700c93          	li	s9,-1945
    80000684:	01dbeab3          	or	s5,s7,t4
    80000688:	000b8293          	mv	t0,s7
    8000068c:	00028093          	mv	ra,t0
    80000690:	c2f00e13          	li	t3,-977
    80000694:	cac00793          	li	a5,-852
    80000698:	27ab9e63          	bne	s7,s10,80000914 <crash_forward>
    8000069c:	f6a6a123          	sw	a0,-158(a3)
    800006a0:	fff00d93          	li	s11,-1
    800006a4:	a61292e3          	bne	t0,ra,80000108 <crash_backward>
    800006a8:	014dcdb3          	xor	s11,s11,s4
    800006ac:	a4004ee3          	bltz	zero,80000108 <crash_backward>
    800006b0:	03cc8f3b          	mulw	t5,s9,t3
    800006b4:	c3a00b93          	li	s7,-966
    800006b8:	ced18493          	addi	s1,gp,-787 # 80001bfd <_end+0x4ed>
    800006bc:	b40b8593          	addi	a1,s7,-1216
    800006c0:	01b573b3          	and	t2,a0,s11
    800006c4:	02f7d433          	divu	s0,a5,a5
    800006c8:	01d257bb          	srlw	a5,tp,t4
    800006cc:	dd200c93          	li	s9,-558
    800006d0:	00001697          	auipc	a3,0x1
    800006d4:	e3168693          	addi	a3,a3,-463 # 80001501 <test_memory+0x201>
    800006d8:	22bbce63          	blt	s7,a1,80000914 <crash_forward>
    800006dc:	dcb00f13          	li	t5,-565
    800006e0:	84800093          	li	ra,-1976
    800006e4:	56600193          	li	gp,1382
    800006e8:	0143e533          	or	a0,t2,s4
    800006ec:	94518893          	addi	a7,gp,-1723 # 80001855 <_end+0x145>
    800006f0:	ec36a9a3          	sw	gp,-301(a3)
    800006f4:	00001917          	auipc	s2,0x1
    800006f8:	aaf90913          	addi	s2,s2,-1361 # 800011a3 <reg_x20_init+0x3>
    800006fc:	01ecae33          	slt	t3,s9,t5
    80000700:	00e24233          	xor	tp,tp,a4
    80000704:	00001797          	auipc	a5,0x1
    80000708:	dbf78793          	addi	a5,a5,-577 # 800014c3 <test_memory+0x1c3>
    8000070c:	0e778b23          	sb	t2,246(a5)
    80000710:	01ad35b3          	sltu	a1,s10,s10
    80000714:	b4389ba3          	sh	gp,-1193(a7)
    80000718:	29991ba3          	sh	s9,663(s2)
    8000071c:	1f3c7c63          	bgeu	s8,s3,80000914 <crash_forward>
    80000720:	45500e13          	li	t3,1109
    80000724:	d8300413          	li	s0,-637
    80000728:	432c5b93          	srai	s7,s8,0x32
    8000072c:	016b3fb3          	sltu	t6,s6,s6
    80000730:	83f4a103          	lw	sp,-1985(s1)
    80000734:	6fb00593          	li	a1,1787
    80000738:	00be56bb          	srlw	a3,t3,a1
    8000073c:	02b5cd3b          	divw	s10,a1,a1
    80000740:	0230f833          	remu	a6,ra,gp
    80000744:	00843ab3          	sltu	s5,s0,s0
    80000748:	00001e97          	auipc	t4,0x1
    8000074c:	f39e8e93          	addi	t4,t4,-199 # 80001681 <test_memory+0x381>
    80000750:	0042f633          	and	a2,t0,tp
    80000754:	00ed6333          	or	t1,s10,a4
    80000758:	cb7e9283          	lh	t0,-841(t4)
    8000075c:	00000c93          	li	s9,0
    80000760:	00000793          	li	a5,0
    80000764:	0340fe33          	remu	t3,ra,s4
    80000768:	4014dfb3          	sra	t6,s1,ra
    8000076c:	9584a693          	slti	a3,s1,-1704
    80000770:	00000497          	auipc	s1,0x0
    80000774:	72f48493          	addi	s1,s1,1839 # 80000e9f <test_end+0x577>
    80000778:	00100813          	li	a6,1
    8000077c:	03f81813          	slli	a6,a6,0x3f
    80000780:	fff00c13          	li	s8,-1
    80000784:	56300d13          	li	s10,1379
    80000788:	0297d43b          	divuw	s0,a5,s1
    8000078c:	00d6ddb3          	srl	s11,a3,a3
    80000790:	010c4c33          	xor	s8,s8,a6
    80000794:	68900993          	li	s3,1673
    80000798:	03e6f0bb          	remuw	ra,a3,t5
    8000079c:	5034de03          	lhu	t3,1283(s1)
    800007a0:	0182fab3          	and	s5,t0,s8
    800007a4:	dd918193          	addi	gp,gp,-551 # 80001ce9 <_end+0x5d9>
    800007a8:	01ad5433          	srl	s0,s10,s10
    800007ac:	cfc00c93          	li	s9,-772
    800007b0:	cd900893          	li	a7,-807
    800007b4:	005c949b          	slliw	s1,s9,0x5
    800007b8:	dad00d93          	li	s11,-595
    800007bc:	03b0c7bb          	divw	a5,ra,s11
    800007c0:	87578e13          	addi	t3,a5,-1931
    800007c4:	00000917          	auipc	s2,0x0
    800007c8:	6bd90913          	addi	s2,s2,1725 # 80000e81 <test_end+0x559>
    800007cc:	bd600693          	li	a3,-1066
    800007d0:	51700113          	li	sp,1303
    800007d4:	a0f00593          	li	a1,-1521
    800007d8:	419c8fbb          	subw	t6,s9,s9
    800007dc:	41ef0e3b          	subw	t3,t5,t5
    800007e0:	41655233          	sra	tp,a0,s6
    800007e4:	0319f33b          	remuw	t1,s3,a7
    800007e8:	02ddc0b3          	div	ra,s11,a3
    800007ec:	016ef4b3          	and	s1,t4,s6
    800007f0:	00000217          	auipc	tp,0x0
    800007f4:	62e20213          	addi	tp,tp,1582 # 80000e1e <test_end+0x4f6>
    800007f8:	b8518a13          	addi	s4,gp,-1147 # 80001a95 <_end+0x385>
    800007fc:	9ed1d383          	lhu	t2,-1555(gp) # 800018fd <_end+0x1ed>
    80000800:	33100993          	li	s3,817
    80000804:	010b6733          	or	a4,s6,a6
    80000808:	022d02b3          	mul	t0,s10,sp
    8000080c:	00100b93          	li	s7,1
    80000810:	55a26483          	lwu	s1,1370(tp) # 55a <_start-0x7ffffaa6>
    80000814:	b7218e13          	addi	t3,gp,-1166 # 80001a82 <_end+0x372>
    80000818:	76195b03          	lhu	s6,1889(s2)
    8000081c:	5a600313          	li	t1,1446
    80000820:	b56a16a3          	sh	s6,-1203(s4)
    80000824:	dc200d93          	li	s11,-574
    80000828:	02b5beb3          	mulhu	t4,a1,a1
    8000082c:	03fb9b93          	slli	s7,s7,0x3f
    80000830:	b60e0823          	sb	zero,-1168(t3)
    80000834:	0d000413          	li	s0,208
    80000838:	aa000393          	li	t2,-1376
    8000083c:	408300b3          	sub	ra,t1,s0
    80000840:	0c006a63          	bltu	zero,zero,80000914 <crash_forward>
    80000844:	00001817          	auipc	a6,0x1
    80000848:	98e80813          	addi	a6,a6,-1650 # 800011d2 <reg_x26_init+0x2>
    8000084c:	00001c97          	auipc	s9,0x1
    80000850:	b43c8c93          	addi	s9,s9,-1213 # 8000138f <test_memory+0x8f>
    80000854:	c3d38193          	addi	gp,t2,-963
    80000858:	d1d00793          	li	a5,-739
    8000085c:	48282a03          	lw	s4,1154(a6)
    80000860:	00fdcfb3          	xor	t6,s11,a5
    80000864:	00000897          	auipc	a7,0x0
    80000868:	7a088893          	addi	a7,a7,1952 # 80001004 <tohost+0x4>
    8000086c:	0339c6bb          	divw	a3,s3,s3
    80000870:	fff00613          	li	a2,-1
    80000874:	ffec8ea3          	sb	t5,-3(s9)
    80000878:	6768be23          	sd	s6,1660(a7)
    8000087c:	01764633          	xor	a2,a2,s7
    80000880:	00c9ff33          	and	t5,s3,a2
    80000884:	017f6533          	or	a0,t5,s7
    80000888:	0040006f          	j	8000088c <reg_dump>

000000008000088c <reg_dump>:
    8000088c:	00001097          	auipc	ra,0x1
    80000890:	e7408093          	addi	ra,ra,-396 # 80001700 <loop_count>
    80000894:	0000a103          	lw	sp,0(ra)
    80000898:	fff10193          	addi	gp,sp,-1
    8000089c:	0030a023          	sw	gp,0(ra)
    800008a0:	900114e3          	bnez	sp,800001a8 <pseg_0>
    800008a4:	00001097          	auipc	ra,0x1
    800008a8:	95c08093          	addi	ra,ra,-1700 # 80001200 <begin_signature>
    800008ac:	0000b023          	sd	zero,0(ra)
    800008b0:	0020b823          	sd	sp,16(ra)
    800008b4:	0030bc23          	sd	gp,24(ra)
    800008b8:	0250b423          	sd	t0,40(ra)
    800008bc:	0260b823          	sd	t1,48(ra)
    800008c0:	0270bc23          	sd	t2,56(ra)
    800008c4:	0480b023          	sd	s0,64(ra)
    800008c8:	0490b423          	sd	s1,72(ra)
    800008cc:	04a0b823          	sd	a0,80(ra)
    800008d0:	04b0bc23          	sd	a1,88(ra)
    800008d4:	06c0b023          	sd	a2,96(ra)
    800008d8:	06d0b423          	sd	a3,104(ra)
    800008dc:	06e0b823          	sd	a4,112(ra)
    800008e0:	06f0bc23          	sd	a5,120(ra)
    800008e4:	0930bc23          	sd	s3,152(ra)
    800008e8:	0b40b023          	sd	s4,160(ra)
    800008ec:	0b50b423          	sd	s5,168(ra)
    800008f0:	0b60b823          	sd	s6,176(ra)
    800008f4:	0b70bc23          	sd	s7,184(ra)
    800008f8:	0d80b023          	sd	s8,192(ra)
    800008fc:	0da0b823          	sd	s10,208(ra)
    80000900:	0db0bc23          	sd	s11,216(ra)
    80000904:	0fd0b423          	sd	t4,232(ra)
    80000908:	0fe0b823          	sd	t5,240(ra)
    8000090c:	0ff0bc23          	sd	t6,248(ra)
    80000910:	0180006f          	j	80000928 <test_end>

0000000080000914 <crash_forward>:
    80000914:	0ff0000f          	fence
    80000918:	00018063          	beqz	gp,80000918 <crash_forward+0x4>
    8000091c:	00119193          	slli	gp,gp,0x1
    80000920:	0011e193          	ori	gp,gp,1
    80000924:	00000073          	ecall

0000000080000928 <test_end>:
    80000928:	0ff0000f          	fence
    8000092c:	00100193          	li	gp,1
    80000930:	00000073          	ecall
    80000934:	c0001073          	unimp
	...

Disassembly of section .tohost:

0000000080001000 <tohost>:
	...

0000000080001040 <fromhost>:
	...
