
test.elf:     file format elf64-littleriscv


Disassembly of section .text.init:

0000000080000000 <_start>:
    80000000:	0580006f          	j	80000058 <reset_vector>

0000000080000004 <trap_vector>:
    80000004:	34202f73          	csrr	t5,mcause
    80000008:	00800f93          	li	t6,8
    8000000c:	05ff0063          	beq	t5,t6,8000004c <write_tohost>
    80000010:	00900f93          	li	t6,9
    80000014:	03ff0c63          	beq	t5,t6,8000004c <write_tohost>
    80000018:	00b00f93          	li	t6,11
    8000001c:	03ff0863          	beq	t5,t6,8000004c <write_tohost>
    80000020:	00000f13          	li	t5,0
    80000024:	000f0463          	beqz	t5,8000002c <trap_vector+0x28>
    80000028:	000f0067          	jr	t5
    8000002c:	34202f73          	csrr	t5,mcause
    80000030:	000f5463          	bgez	t5,80000038 <handle_exception>
    80000034:	0140006f          	j	80000048 <other_exception>

0000000080000038 <handle_exception>:
    80000038:	34102e73          	csrr	t3,mepc
    8000003c:	004e0e13          	addi	t3,t3,4
    80000040:	341e1073          	csrw	mepc,t3
    80000044:	30200073          	mret

0000000080000048 <other_exception>:
    80000048:	5391e193          	ori	gp,gp,1337

000000008000004c <write_tohost>:
    8000004c:	00001f17          	auipc	t5,0x1
    80000050:	fa3f2a23          	sw	gp,-76(t5) # 80001000 <tohost>
    80000054:	ff9ff06f          	j	8000004c <write_tohost>

0000000080000058 <reset_vector>:
    80000058:	f1402573          	csrr	a0,mhartid
    8000005c:	00051063          	bnez	a0,8000005c <reset_vector+0x4>
    80000060:	00000297          	auipc	t0,0x0
    80000064:	01028293          	addi	t0,t0,16 # 80000070 <reset_vector+0x18>
    80000068:	30529073          	csrw	mtvec,t0
    8000006c:	18005073          	csrwi	satp,0
    80000070:	00000297          	auipc	t0,0x0
    80000074:	01c28293          	addi	t0,t0,28 # 8000008c <reset_vector+0x34>
    80000078:	30529073          	csrw	mtvec,t0
    8000007c:	fff00293          	li	t0,-1
    80000080:	3b029073          	csrw	pmpaddr0,t0
    80000084:	01f00293          	li	t0,31
    80000088:	3a029073          	csrw	pmpcfg0,t0
    8000008c:	00000297          	auipc	t0,0x0
    80000090:	01828293          	addi	t0,t0,24 # 800000a4 <reset_vector+0x4c>
    80000094:	30529073          	csrw	mtvec,t0
    80000098:	30205073          	csrwi	medeleg,0
    8000009c:	30305073          	csrwi	mideleg,0
    800000a0:	30405073          	csrwi	mie,0
    800000a4:	00000193          	li	gp,0
    800000a8:	00000297          	auipc	t0,0x0
    800000ac:	f5c28293          	addi	t0,t0,-164 # 80000004 <trap_vector>
    800000b0:	30529073          	csrw	mtvec,t0
    800000b4:	00100513          	li	a0,1
    800000b8:	01f51513          	slli	a0,a0,0x1f
    800000bc:	00055863          	bgez	a0,800000cc <reset_vector+0x74>
    800000c0:	0ff0000f          	fence
    800000c4:	00100193          	li	gp,1
    800000c8:	00000073          	ecall
    800000cc:	00000293          	li	t0,0
    800000d0:	00028e63          	beqz	t0,800000ec <reset_vector+0x94>
    800000d4:	10529073          	csrw	stvec,t0
    800000d8:	0000b2b7          	lui	t0,0xb
    800000dc:	1092829b          	addiw	t0,t0,265
    800000e0:	30229073          	csrw	medeleg,t0
    800000e4:	30202373          	csrr	t1,medeleg
    800000e8:	f66290e3          	bne	t0,t1,80000048 <other_exception>
    800000ec:	30005073          	csrwi	mstatus,0
    800000f0:	00000297          	auipc	t0,0x0
    800000f4:	01428293          	addi	t0,t0,20 # 80000104 <reset_vector+0xac>
    800000f8:	34129073          	csrw	mepc,t0
    800000fc:	f1402573          	csrr	a0,mhartid
    80000100:	30200073          	mret
    80000104:	0180006f          	j	8000011c <test_start>

0000000080000108 <crash_backward>:
    80000108:	0ff0000f          	fence
    8000010c:	00018063          	beqz	gp,8000010c <crash_backward+0x4>
    80000110:	00119193          	slli	gp,gp,0x1
    80000114:	0011e193          	ori	gp,gp,1
    80000118:	00000073          	ecall

000000008000011c <test_start>:
    8000011c:	00001f97          	auipc	t6,0x1
    80000120:	fe4f8f93          	addi	t6,t6,-28 # 80001100 <hidden_data>
    80000124:	000fb003          	ld	zero,0(t6)
    80000128:	008fb083          	ld	ra,8(t6)
    8000012c:	010fb103          	ld	sp,16(t6)
    80000130:	018fb183          	ld	gp,24(t6)
    80000134:	020fb203          	ld	tp,32(t6)
    80000138:	028fb283          	ld	t0,40(t6)
    8000013c:	030fb303          	ld	t1,48(t6)
    80000140:	038fb383          	ld	t2,56(t6)
    80000144:	040fb403          	ld	s0,64(t6)
    80000148:	048fb483          	ld	s1,72(t6)
    8000014c:	050fb503          	ld	a0,80(t6)
    80000150:	058fb583          	ld	a1,88(t6)
    80000154:	060fb603          	ld	a2,96(t6)
    80000158:	068fb683          	ld	a3,104(t6)
    8000015c:	070fb703          	ld	a4,112(t6)
    80000160:	078fb783          	ld	a5,120(t6)
    80000164:	080fb803          	ld	a6,128(t6)
    80000168:	088fb883          	ld	a7,136(t6)
    8000016c:	090fb903          	ld	s2,144(t6)
    80000170:	098fb983          	ld	s3,152(t6)
    80000174:	0a0fba03          	ld	s4,160(t6)
    80000178:	0a8fba83          	ld	s5,168(t6)
    8000017c:	0b0fbb03          	ld	s6,176(t6)
    80000180:	0b8fbb83          	ld	s7,184(t6)
    80000184:	0c0fbc03          	ld	s8,192(t6)
    80000188:	0c8fbc83          	ld	s9,200(t6)
    8000018c:	0d0fbd03          	ld	s10,208(t6)
    80000190:	0d8fbd83          	ld	s11,216(t6)
    80000194:	0e0fbe03          	ld	t3,224(t6)
    80000198:	0e8fbe83          	ld	t4,232(t6)
    8000019c:	0f0fbf03          	ld	t5,240(t6)
    800001a0:	0f8fbf83          	ld	t6,248(t6)
    800001a4:	0040006f          	j	800001a8 <pseg_0>

00000000800001a8 <pseg_0>:
    800001a8:	b5918293          	addi	t0,gp,-1191 # 80001a69 <_end+0x359>
    800001ac:	00100893          	li	a7,1
    800001b0:	efd00b93          	li	s7,-259
    800001b4:	0010f633          	and	a2,ra,ra
    800001b8:	013996b3          	sll	a3,s3,s3
    800001bc:	0030d49b          	srliw	s1,ra,0x3
    800001c0:	8ad2b3a3          	sd	a3,-1881(t0)
    800001c4:	037be9b3          	rem	s3,s7,s7
    800001c8:	89600d93          	li	s11,-1898
    800001cc:	3b600c13          	li	s8,950
    800001d0:	425cdc93          	srai	s9,s9,0x25
    800001d4:	00001597          	auipc	a1,0x1
    800001d8:	be158593          	addi	a1,a1,-1055 # 80000db5 <test_end+0x42d>
    800001dc:	3c600793          	li	a5,966
    800001e0:	03baf6bb          	remuw	a3,s5,s11
    800001e4:	03080633          	mul	a2,a6,a6
    800001e8:	037b9f33          	mulh	t5,s7,s7
    800001ec:	c7100213          	li	tp,-911
    800001f0:	02217933          	remu	s2,sp,sp
    800001f4:	7cc00f93          	li	t6,1996
    800001f8:	03bb8333          	mul	t1,s7,s11
    800001fc:	22200413          	li	s0,546
    80000200:	84800e93          	li	t4,-1976
    80000204:	00f7ce33          	xor	t3,a5,a5
    80000208:	00001297          	auipc	t0,0x1
    8000020c:	1bd28293          	addi	t0,t0,445 # 800013c5 <test_memory+0xc5>
    80000210:	4042513b          	sraw	sp,tp,tp
    80000214:	03f89893          	slli	a7,a7,0x3f
    80000218:	6bf59383          	lh	t2,1727(a1)
    8000021c:	66c00a13          	li	s4,1644
    80000220:	00001997          	auipc	s3,0x1
    80000224:	f9998993          	addi	s3,s3,-103 # 800011b9 <reg_x23_init+0x1>
    80000228:	42900813          	li	a6,1065
    8000022c:	00001397          	auipc	t2,0x1
    80000230:	5c438393          	addi	t2,t2,1476 # 800017f0 <_end+0xe0>
    80000234:	41dc5b3b          	sraw	s6,s8,t4
    80000238:	e3500113          	li	sp,-459
    8000023c:	b7200c93          	li	s9,-1166
    80000240:	00001d97          	auipc	s11,0x1
    80000244:	5abd8d93          	addi	s11,s11,1451 # 800017eb <_end+0xdb>
    80000248:	01440abb          	addw	s5,s0,s4
    8000024c:	00908733          	add	a4,ra,s1
    80000250:	26700f13          	li	t5,615
    80000254:	00001317          	auipc	t1,0x1
    80000258:	b9d30313          	addi	t1,t1,-1123 # 80000df1 <test_end+0x469>
    8000025c:	d2839e03          	lh	t3,-728(t2)
    80000260:	1b000b93          	li	s7,432
    80000264:	55931683          	lh	a3,1369(t1)
    80000268:	1709ada3          	sw	a6,379(s3)
    8000026c:	039c85bb          	mulw	a1,s9,s9
    80000270:	f6f29483          	lh	s1,-145(t0)
    80000274:	00a56933          	or	s2,a0,a0
    80000278:	41f251b3          	sra	gp,tp,t6
    8000027c:	01e12633          	slt	a2,sp,t5
    80000280:	b68d84a3          	sb	s0,-1175(s11)
    80000284:	00100413          	li	s0,1
    80000288:	01bddc3b          	srlw	s8,s11,s11
    8000028c:	0226c1b3          	div	gp,a3,sp
    80000290:	00001a17          	auipc	s4,0x1
    80000294:	099a0a13          	addi	s4,s4,153 # 80001329 <test_memory+0x29>
    80000298:	16ba3ba3          	sd	a1,375(s4)
    8000029c:	03f41413          	slli	s0,s0,0x3f
    800002a0:	00001e97          	auipc	t4,0x1
    800002a4:	bcbe8e93          	addi	t4,t4,-1077 # 80000e6b <test_end+0x4e3>
    800002a8:	759e9a83          	lh	s5,1881(t4)
    800002ac:	94c18313          	addi	t1,gp,-1716 # 8000185c <_end+0x14c>
    800002b0:	ad930583          	lb	a1,-1319(t1)
    800002b4:	017807bb          	addw	a5,a6,s7
    800002b8:	fff00913          	li	s2,-1
    800002bc:	013c4fb3          	xor	t6,s8,s3
    800002c0:	00894933          	xor	s2,s2,s0
    800002c4:	fff00d13          	li	s10,-1
    800002c8:	011d4d33          	xor	s10,s10,a7
    800002cc:	002b02b3          	add	t0,s6,sp
    800002d0:	01a870b3          	and	ra,a6,s10
    800002d4:	01227233          	and	tp,tp,s2
    800002d8:	008ae6b3          	or	a3,s5,s0
    800002dc:	e246d6e3          	bge	a3,tp,80000108 <crash_backward>
    800002e0:	0110e533          	or	a0,ra,a7
    800002e4:	01b751bb          	srlw	gp,a4,s11
    800002e8:	66c00b93          	li	s7,1644
    800002ec:	eff00693          	li	a3,-257
    800002f0:	7cc00813          	li	a6,1996
    800002f4:	401089bb          	subw	s3,ra,ra
    800002f8:	00dbdeb3          	srl	t4,s7,a3
    800002fc:	a8900593          	li	a1,-1399
    80000300:	00001e17          	auipc	t3,0x1
    80000304:	d9ae0e13          	addi	t3,t3,-614 # 8000109a <fromhost+0x5a>
    80000308:	cf900493          	li	s1,-775
    8000030c:	b8018393          	addi	t2,gp,-1152 # 80001a90 <_end+0x380>
    80000310:	55200f93          	li	t6,1362
    80000314:	5b900c13          	li	s8,1465
    80000318:	a6500a13          	li	s4,-1435
    8000031c:	e9b18613          	addi	a2,gp,-357 # 80001dab <_end+0x69b>
    80000320:	20fc0a93          	addi	s5,s8,527
    80000324:	03082533          	mulhsu	a0,a6,a6
    80000328:	ac838423          	sb	s0,-1336(t2)
    8000032c:	02b6f233          	remu	tp,a3,a1
    80000330:	41400513          	li	a0,1044
    80000334:	dd800f13          	li	t5,-552
    80000338:	49a00113          	li	sp,1178
    8000033c:	02a5583b          	divuw	a6,a0,a0
    80000340:	00001c97          	auipc	s9,0x1
    80000344:	e95c8c93          	addi	s9,s9,-363 # 800011d5 <reg_x26_init+0x5>
    80000348:	4cbc8ba3          	sb	a1,1239(s9)
    8000034c:	022fadb3          	mulhsu	s11,t6,sp
    80000350:	00000593          	li	a1,0
    80000354:	8fd62883          	lw	a7,-1795(a2)
    80000358:	99d00993          	li	s3,-1635
    8000035c:	42ae6903          	lwu	s2,1066(t3)
    80000360:	029492b3          	mulh	t0,s1,s1
    80000364:	03ebf433          	remu	s0,s7,t5
    80000368:	6ee00e93          	li	t4,1774
    8000036c:	03d99333          	mulh	t1,s3,t4
    80000370:	b6e18e13          	addi	t3,gp,-1170 # 80001a7e <_end+0x36e>
    80000374:	8dee2883          	lw	a7,-1826(t3)
    80000378:	07b00c13          	li	s8,123
    8000037c:	c0400b93          	li	s7,-1020
    80000380:	76b00613          	li	a2,1899
    80000384:	00001797          	auipc	a5,0x1
    80000388:	99178793          	addi	a5,a5,-1647 # 80000d15 <test_end+0x38d>
    8000038c:	0a400313          	li	t1,164
    80000390:	00000213          	li	tp,0
    80000394:	00100113          	li	sp,1
    80000398:	88b00713          	li	a4,-1909
    8000039c:	74379d03          	lh	s10,1859(a5)
    800003a0:	000e8413          	mv	s0,t4
    800003a4:	cfd00493          	li	s1,-771
    800003a8:	40965abb          	sraw	s5,a2,s1
    800003ac:	00001097          	auipc	ra,0x1
    800003b0:	1f108093          	addi	ra,ra,497 # 8000159d <test_memory+0x29d>
    800003b4:	d4c00393          	li	t2,-692
    800003b8:	eb700e93          	li	t4,-329
    800003bc:	00ea5b33          	srl	s6,s4,a4
    800003c0:	fca00d93          	li	s11,-54
    800003c4:	038c6933          	rem	s2,s8,s8
    800003c8:	00040293          	mv	t0,s0
    800003cc:	40e15a33          	sra	s4,sp,a4
    800003d0:	00535b3b          	srlw	s6,t1,t0
    800003d4:	00001497          	auipc	s1,0x1
    800003d8:	8d748493          	addi	s1,s1,-1833 # 80000cab <test_end+0x323>
    800003dc:	58541c63          	bne	s0,t0,80000974 <crash_forward>
    800003e0:	03e7fd33          	remu	s10,a5,t5
    800003e4:	17200a93          	li	s5,370
    800003e8:	00001c97          	auipc	s9,0x1
    800003ec:	80cc8c93          	addi	s9,s9,-2036 # 80000bf4 <test_end+0x26c>
    800003f0:	571a8713          	addi	a4,s5,1393
    800003f4:	03f11113          	slli	sp,sp,0x3f
    800003f8:	6ff4d783          	lhu	a5,1791(s1)
    800003fc:	fff00513          	li	a0,-1
    80000400:	9f418c13          	addi	s8,gp,-1548 # 80001904 <_end+0x1f4>
    80000404:	00254533          	xor	a0,a0,sp
    80000408:	db70ae03          	lw	t3,-585(ra)
    8000040c:	00aa7fb3          	and	t6,s4,a0
    80000410:	40c601b3          	sub	gp,a2,a2
    80000414:	02210633          	mul	a2,sp,sp
    80000418:	65b30993          	addi	s3,t1,1627
    8000041c:	756c9e23          	sh	s6,1884(s9)
    80000420:	9bde8893          	addi	a7,t4,-1603
    80000424:	cf1ec2e3          	blt	t4,a7,80000108 <crash_backward>
    80000428:	ae4c3903          	ld	s2,-1308(s8)
    8000042c:	002fe833          	or	a6,t6,sp
    80000430:	f9cb8f13          	addi	t5,s7,-100
    80000434:	41b3d6bb          	sraw	a3,t2,s11
    80000438:	60a00213          	li	tp,1546
    8000043c:	00e194b3          	sll	s1,gp,a4
    80000440:	a4118793          	addi	a5,gp,-1471 # 80001951 <_end+0x241>
    80000444:	d3c78b23          	sb	t3,-714(a5)
    80000448:	a6400113          	li	sp,-1436
    8000044c:	00001c17          	auipc	s8,0x1
    80000450:	ed5c0c13          	addi	s8,s8,-299 # 80001321 <test_memory+0x21>
    80000454:	64600c93          	li	s9,1606
    80000458:	10800293          	li	t0,264
    8000045c:	019c95b3          	sll	a1,s9,s9
    80000460:	2dd00393          	li	t2,733
    80000464:	0efc3403          	ld	s0,239(s8)
    80000468:	ae100813          	li	a6,-1311
    8000046c:	c9b18693          	addi	a3,gp,-869 # 80001bab <_end+0x49b>
    80000470:	00001a17          	auipc	s4,0x1
    80000474:	e38a0a13          	addi	s4,s4,-456 # 800012a8 <reg_x21_output>
    80000478:	8196d903          	lhu	s2,-2023(a3)
    8000047c:	00775d1b          	srliw	s10,a4,0x7
    80000480:	00100313          	li	t1,1
    80000484:	0302d9bb          	divuw	s3,t0,a6
    80000488:	0273ff33          	remu	t5,t2,t2
    8000048c:	f5400193          	li	gp,-172
    80000490:	02325e3b          	divuw	t3,tp,gp
    80000494:	03ffcabb          	divw	s5,t6,t6
    80000498:	59000093          	li	ra,1424
    8000049c:	00215eb3          	srl	t4,sp,sp
    800004a0:	03f31313          	slli	t1,t1,0x3f
    800004a4:	27da0b83          	lb	s7,637(s4)
    800004a8:	0210fb33          	remu	s6,ra,ra
    800004ac:	fff00713          	li	a4,-1
    800004b0:	00001517          	auipc	a0,0x1
    800004b4:	a7350513          	addi	a0,a0,-1421 # 80000f23 <test_end+0x59b>
    800004b8:	00674733          	xor	a4,a4,t1
    800004bc:	00090d93          	mv	s11,s2
    800004c0:	000d8613          	mv	a2,s11
    800004c4:	3fe50ea3          	sb	t5,1021(a0)
    800004c8:	00e2ffb3          	and	t6,t0,a4
    800004cc:	006fe8b3          	or	a7,t6,t1
    800004d0:	4b1f8263          	beq	t6,a7,80000974 <crash_forward>
    800004d4:	bd418113          	addi	sp,gp,-1068 # 80001ae4 <_end+0x3d4>
    800004d8:	1b500993          	li	s3,437
    800004dc:	037e5bb3          	divu	s7,t3,s7
    800004e0:	40565a9b          	sraiw	s5,a2,0x5
    800004e4:	4af00713          	li	a4,1199
    800004e8:	40c605bb          	subw	a1,a2,a2
    800004ec:	017bf633          	and	a2,s7,s7
    800004f0:	038c6c33          	rem	s8,s8,s8
    800004f4:	0239523b          	divuw	tp,s2,gp
    800004f8:	e7118313          	addi	t1,gp,-399 # 80001d81 <_end+0x671>
    800004fc:	00001e97          	auipc	t4,0x1
    80000500:	247e8e93          	addi	t4,t4,583 # 80001743 <_end+0x33>
    80000504:	039ff2b3          	remu	t0,t6,s9
    80000508:	01a197bb          	sllw	a5,gp,s10
    8000050c:	a4100c93          	li	s9,-1471
    80000510:	ad900a93          	li	s5,-1319
    80000514:	00e776b3          	and	a3,a4,a4
    80000518:	acc00b13          	li	s6,-1332
    8000051c:	8f713623          	sd	s7,-1812(sp)
    80000520:	02226d3b          	remw	s10,tp,sp
    80000524:	66200413          	li	s0,1634
    80000528:	44400093          	li	ra,1092
    8000052c:	0289aa33          	mulhsu	s4,s3,s0
    80000530:	039cf8bb          	remuw	a7,s9,s9
    80000534:	9ca00293          	li	t0,-1590
    80000538:	96d35183          	lhu	gp,-1683(t1)
    8000053c:	fb7eb2a3          	sd	s7,-91(t4)
    80000540:	00001497          	auipc	s1,0x1
    80000544:	11d48493          	addi	s1,s1,285 # 8000165d <test_memory+0x35d>
    80000548:	e9749f83          	lh	t6,-361(s1)
    8000054c:	f4800513          	li	a0,-184
    80000550:	b5400c13          	li	s8,-1196
    80000554:	00001397          	auipc	t2,0x1
    80000558:	95f38393          	addi	t2,t2,-1697 # 80000eb3 <test_end+0x52b>
    8000055c:	415adbbb          	sraw	s7,s5,s5
    80000560:	5a23cd83          	lbu	s11,1442(t2)
    80000564:	0010d833          	srl	a6,ra,ra
    80000568:	a8a00913          	li	s2,-1398
    8000056c:	09f00893          	li	a7,159
    80000570:	62c88213          	addi	tp,a7,1580
    80000574:	a8b00813          	li	a6,-1397
    80000578:	00001117          	auipc	sp,0x1
    8000057c:	f5d10113          	addi	sp,sp,-163 # 800014d5 <test_memory+0x1d5>
    80000580:	0182d7b3          	srl	a5,t0,s8
    80000584:	02ab7f33          	remu	t5,s6,a0
    80000588:	016b123b          	sllw	tp,s6,s6
    8000058c:	01a2aab3          	slt	s5,t0,s10
    80000590:	de4c2c93          	slti	s9,s8,-540
    80000594:	00001e97          	auipc	t4,0x1
    80000598:	ffde8e93          	addi	t4,t4,-3 # 80001591 <test_memory+0x291>
    8000059c:	50c03fb7          	lui	t6,0x50c03
    800005a0:	f94125a3          	sw	s4,-117(sp)
    800005a4:	6a400493          	li	s1,1700
    800005a8:	dae00a13          	li	s4,-594
    800005ac:	0c700313          	li	t1,199
    800005b0:	23400893          	li	a7,564
    800005b4:	25500b13          	li	s6,597
    800005b8:	0efee403          	lwu	s0,239(t4)
    800005bc:	00001097          	auipc	ra,0x1
    800005c0:	cdd08093          	addi	ra,ra,-803 # 80001299 <reg_x19_output+0x1>
    800005c4:	6a488c13          	addi	s8,a7,1700
    800005c8:	00001b97          	auipc	s7,0x1
    800005cc:	b37b8b93          	addi	s7,s7,-1225 # 800010ff <fromhost+0xbf>
    800005d0:	019ccab3          	xor	s5,s9,s9
    800005d4:	40a5d293          	srai	t0,a1,0xa
    800005d8:	016b6f33          	or	t5,s6,s6
    800005dc:	41bf5fb3          	sra	t6,t5,s11
    800005e0:	20d0aba3          	sw	a3,535(ra)
    800005e4:	8ab00593          	li	a1,-1877
    800005e8:	00001c17          	auipc	s8,0x1
    800005ec:	f96c0c13          	addi	s8,s8,-106 # 8000157e <test_memory+0x27e>
    800005f0:	03b3f8bb          	remuw	a7,t2,s11
    800005f4:	db2c2f03          	lw	t5,-590(s8)
    800005f8:	0144e733          	or	a4,s1,s4
    800005fc:	6bf00c93          	li	s9,1727
    80000600:	b1118f93          	addi	t6,gp,-1263 # 80001a21 <_end+0x311>
    80000604:	59700c13          	li	s8,1431
    80000608:	40f7d8bb          	sraw	a7,a5,a5
    8000060c:	3d400d93          	li	s11,980
    80000610:	400b99a3          	sh	zero,1043(s7)
    80000614:	038c30b3          	mulhu	ra,s8,s8
    80000618:	00001217          	auipc	tp,0x1
    8000061c:	93c20213          	addi	tp,tp,-1732 # 80000f54 <test_end+0x5cc>
    80000620:	00de26b3          	slt	a3,t3,a3
    80000624:	940fa9a3          	sw	zero,-1709(t6) # 50c02953 <_start-0x2f3fd6ad>
    80000628:	02b371bb          	remuw	gp,t1,a1
    8000062c:	00001797          	auipc	a5,0x1
    80000630:	09778793          	addi	a5,a5,151 # 800016c3 <test_memory+0x3c3>
    80000634:	00000417          	auipc	s0,0x0
    80000638:	7fc40413          	addi	s0,s0,2044 # 80000e30 <test_end+0x4a8>
    8000063c:	6f043823          	sd	a6,1776(s0)
    80000640:	54826d03          	lwu	s10,1352(tp) # 548 <_start-0x7ffffab8>
    80000644:	a0600113          	li	sp,-1530
    80000648:	00001a97          	auipc	s5,0x1
    8000064c:	d81a8a93          	addi	s5,s5,-639 # 800013c9 <test_memory+0xc9>
    80000650:	41295e3b          	sraw	t3,s2,s2
    80000654:	002caeb3          	slt	t4,s9,sp
    80000658:	00001b17          	auipc	s6,0x1
    8000065c:	0ddb0b13          	addi	s6,s6,221 # 80001735 <_end+0x25>
    80000660:	cf678503          	lb	a0,-778(a5)
    80000664:	00001397          	auipc	t2,0x1
    80000668:	8ea38393          	addi	t2,t2,-1814 # 80000f4e <test_end+0x5c6>
    8000066c:	4aa39983          	lh	s3,1194(t2)
    80000670:	1e7a9283          	lh	t0,487(s5)
    80000674:	01b83633          	sltu	a2,a6,s11
    80000678:	a2400c13          	li	s8,-1500
    8000067c:	00100813          	li	a6,1
    80000680:	0200453b          	divw	a0,zero,zero
    80000684:	03f81813          	slli	a6,a6,0x3f
    80000688:	00000dbb          	addw	s11,zero,zero
    8000068c:	6b200093          	li	ra,1714
    80000690:	00100f93          	li	t6,1
    80000694:	fff00a13          	li	s4,-1
    80000698:	b2f00493          	li	s1,-1233
    8000069c:	010a4a33          	xor	s4,s4,a6
    800006a0:	00001397          	auipc	t2,0x1
    800006a4:	b5f38393          	addi	t2,t2,-1185 # 800011ff <reg_x31_init+0x7>
    800006a8:	fa700793          	li	a5,-89
    800006ac:	cbd00d13          	li	s10,-835
    800006b0:	0210a633          	mulhsu	a2,ra,ra
    800006b4:	02f7d1b3          	divu	gp,a5,a5
    800006b8:	2d300893          	li	a7,723
    800006bc:	12600713          	li	a4,294
    800006c0:	009c4233          	xor	tp,s8,s1
    800006c4:	e71b2fa3          	sw	a7,-385(s6)
    800006c8:	f7300c93          	li	s9,-141
    800006cc:	3c270e13          	addi	t3,a4,962
    800006d0:	39e38303          	lb	t1,926(t2)
    800006d4:	027c27b3          	mulhsu	a5,s8,t2
    800006d8:	0141ff33          	and	t5,gp,s4
    800006dc:	98918493          	addi	s1,gp,-1655 # 80001899 <_end+0x189>
    800006e0:	01ce7eb3          	and	t4,t3,t3
    800006e4:	bf618093          	addi	ra,gp,-1034 # 80001b06 <_end+0x3f6>
    800006e8:	b074aa83          	lw	s5,-1273(s1)
    800006ec:	005923b3          	slt	t2,s2,t0
    800006f0:	7ac00213          	li	tp,1964
    800006f4:	50200293          	li	t0,1282
    800006f8:	89a0a183          	lw	gp,-1894(ra)
    800006fc:	7f100b13          	li	s6,2033
    80000700:	40e7053b          	subw	a0,a4,a4
    80000704:	019ca433          	slt	s0,s9,s9
    80000708:	03ff9f93          	slli	t6,t6,0x3f
    8000070c:	9ccd0993          	addi	s3,s10,-1588
    80000710:	0162ddb3          	srl	s11,t0,s6
    80000714:	fff00b93          	li	s7,-1
    80000718:	01c13333          	sltu	t1,sp,t3
    8000071c:	0046cc33          	xor	s8,a3,tp
    80000720:	010f66b3          	or	a3,t5,a6
    80000724:	24df7863          	bgeu	t5,a3,80000974 <crash_forward>
    80000728:	01fbcbb3          	xor	s7,s7,t6
    8000072c:	0318c5bb          	divw	a1,a7,a7
    80000730:	0179f133          	and	sp,s3,s7
    80000734:	01fb6933          	or	s2,s6,t6
    80000738:	233d6e63          	bltu	s10,s3,80000974 <crash_forward>
    8000073c:	57500c93          	li	s9,1397
    80000740:	02df883b          	mulw	a6,t6,a3
    80000744:	4171d9b3          	sra	s3,gp,s7
    80000748:	00001497          	auipc	s1,0x1
    8000074c:	cfc48493          	addi	s1,s1,-772 # 80001444 <test_memory+0x144>
    80000750:	09349223          	sh	s3,132(s1)
    80000754:	2bf83f13          	sltiu	t5,a6,703
    80000758:	cbb00293          	li	t0,-837
    8000075c:	d8f18d13          	addi	s10,gp,-625 # 80001c9f <_end+0x58f>
    80000760:	00100713          	li	a4,1
    80000764:	df528d93          	addi	s11,t0,-523
    80000768:	01399c3b          	sllw	s8,s3,s3
    8000076c:	00001917          	auipc	s2,0x1
    80000770:	99390913          	addi	s2,s2,-1645 # 800010ff <fromhost+0xbf>
    80000774:	00001a17          	auipc	s4,0x1
    80000778:	b70a0a13          	addi	s4,s4,-1168 # 800012e4 <reg_x28_output+0x4>
    8000077c:	8a900b13          	li	s6,-1879
    80000780:	a4418393          	addi	t2,gp,-1468 # 80001954 <_end+0x244>
    80000784:	916d15a3          	sh	s6,-1781(s10)
    80000788:	03f71713          	slli	a4,a4,0x3f
    8000078c:	0b120613          	addi	a2,tp,177 # b1 <_start-0x7fffff4f>
    80000790:	00000e97          	auipc	t4,0x0
    80000794:	68ce8e93          	addi	t4,t4,1676 # 80000e1c <test_end+0x494>
    80000798:	00001517          	auipc	a0,0x1
    8000079c:	f9050513          	addi	a0,a0,-112 # 80001728 <_end+0x18>
    800007a0:	a6700313          	li	t1,-1433
    800007a4:	989f4d13          	xori	s10,t5,-1655
    800007a8:	00000193          	li	gp,0
    800007ac:	036b3ab3          	mulhu	s5,s6,s6
    800007b0:	133a1423          	sh	s3,296(s4)
    800007b4:	00001497          	auipc	s1,0x1
    800007b8:	e7f48493          	addi	s1,s1,-385 # 80001633 <test_memory+0x333>
    800007bc:	00100813          	li	a6,1
    800007c0:	e9548b23          	sb	s5,-362(s1)
    800007c4:	3f900f93          	li	t6,1017
    800007c8:	d7418793          	addi	a5,gp,-652 # 80001c84 <_end+0x574>
    800007cc:	026c8e33          	mul	t3,s9,t1
    800007d0:	7e5e8a23          	sb	t0,2036(t4)
    800007d4:	00000093          	li	ra,0
    800007d8:	03f81813          	slli	a6,a6,0x3f
    800007dc:	b5538883          	lb	a7,-1195(t2)
    800007e0:	fff00693          	li	a3,-1
    800007e4:	00e6c6b3          	xor	a3,a3,a4
    800007e8:	fff00b93          	li	s7,-1
    800007ec:	010bcbb3          	xor	s7,s7,a6
    800007f0:	82c7a223          	sw	a2,-2012(a5)
    800007f4:	e9052023          	sw	a6,-384(a0)
    800007f8:	00001a17          	auipc	s4,0x1
    800007fc:	9eea0a13          	addi	s4,s4,-1554 # 800011e6 <reg_x28_init+0x6>
    80000800:	5da00613          	li	a2,1498
    80000804:	b7100293          	li	t0,-1167
    80000808:	025fbc33          	mulhu	s8,t6,t0
    8000080c:	3cd92103          	lw	sp,973(s2)
    80000810:	8e11ece3          	bltu	gp,ra,80000108 <crash_backward>
    80000814:	02c66eb3          	rem	t4,a2,a2
    80000818:	0171f9b3          	and	s3,gp,s7
    8000081c:	00d67433          	and	s0,a2,a3
    80000820:	00e465b3          	or	a1,s0,a4
    80000824:	50fa4b03          	lbu	s6,1295(s4)
    80000828:	00100313          	li	t1,1
    8000082c:	0109ef33          	or	t5,s3,a6
    80000830:	ba900d93          	li	s11,-1111
    80000834:	98100593          	li	a1,-1663
    80000838:	53100413          	li	s0,1329
    8000083c:	00001117          	auipc	sp,0x1
    80000840:	dd710113          	addi	sp,sp,-553 # 80001613 <test_memory+0x313>
    80000844:	00000513          	li	a0,0
    80000848:	ee512883          	lw	a7,-283(sp)
    8000084c:	02846fb3          	rem	t6,s0,s0
    80000850:	00000613          	li	a2,0
    80000854:	a8f00793          	li	a5,-1393
    80000858:	00001497          	auipc	s1,0x1
    8000085c:	ae748493          	addi	s1,s1,-1305 # 8000133f <test_memory+0x3f>
    80000860:	b4200a13          	li	s4,-1214
    80000864:	be900a93          	li	s5,-1047
    80000868:	9d500913          	li	s2,-1579
    8000086c:	aa600e93          	li	t4,-1370
    80000870:	00100b13          	li	s6,1
    80000874:	03fb1b13          	slli	s6,s6,0x3f
    80000878:	4197513b          	sraw	sp,a4,s9
    8000087c:	07c48c03          	lb	s8,124(s1)
    80000880:	cda00813          	li	a6,-806
    80000884:	41de80bb          	subw	ra,t4,t4
    80000888:	03f31313          	slli	t1,t1,0x3f
    8000088c:	015dbd33          	sltu	s10,s11,s5
    80000890:	fff00393          	li	t2,-1
    80000894:	0147d1b3          	srl	gp,a5,s4
    80000898:	cc518513          	addi	a0,gp,-827 # 80001bd5 <_end+0x4c5>
    8000089c:	0163c3b3          	xor	t2,t2,s6
    800008a0:	02063633          	mulhu	a2,a2,zero
    800008a4:	56b00993          	li	s3,1387
    800008a8:	03386433          	rem	s0,a6,s3
    800008ac:	0325a2b3          	mulhsu	t0,a1,s2
    800008b0:	0304f8bb          	remuw	a7,s1,a6
    800008b4:	e1e18f13          	addi	t5,gp,-482 # 80001d2e <_end+0x61e>
    800008b8:	007876b3          	and	a3,a6,t2
    800008bc:	0169e733          	or	a4,s3,s6
    800008c0:	fff00e13          	li	t3,-1
    800008c4:	9bb50b83          	lb	s7,-1605(a0)
    800008c8:	868f2123          	sw	s0,-1950(t5)
    800008cc:	006e4e33          	xor	t3,t3,t1
    800008d0:	01cffcb3          	and	s9,t6,t3
    800008d4:	006ce233          	or	tp,s9,t1
    800008d8:	08e68e63          	beq	a3,a4,80000974 <crash_forward>
    800008dc:	0040006f          	j	800008e0 <reg_dump>

00000000800008e0 <reg_dump>:
    800008e0:	00001097          	auipc	ra,0x1
    800008e4:	e2008093          	addi	ra,ra,-480 # 80001700 <loop_count>
    800008e8:	0000a103          	lw	sp,0(ra)
    800008ec:	fff10193          	addi	gp,sp,-1
    800008f0:	0030a023          	sw	gp,0(ra)
    800008f4:	8a011ae3          	bnez	sp,800001a8 <pseg_0>
    800008f8:	00001097          	auipc	ra,0x1
    800008fc:	90808093          	addi	ra,ra,-1784 # 80001200 <begin_signature>
    80000900:	0000b023          	sd	zero,0(ra)
    80000904:	0020b823          	sd	sp,16(ra)
    80000908:	0030bc23          	sd	gp,24(ra)
    8000090c:	0240b023          	sd	tp,32(ra)
    80000910:	0250b423          	sd	t0,40(ra)
    80000914:	0260b823          	sd	t1,48(ra)
    80000918:	0270bc23          	sd	t2,56(ra)
    8000091c:	0480b023          	sd	s0,64(ra)
    80000920:	04b0bc23          	sd	a1,88(ra)
    80000924:	06c0b023          	sd	a2,96(ra)
    80000928:	06d0b423          	sd	a3,104(ra)
    8000092c:	06e0b823          	sd	a4,112(ra)
    80000930:	06f0bc23          	sd	a5,120(ra)
    80000934:	0900b023          	sd	a6,128(ra)
    80000938:	0910b423          	sd	a7,136(ra)
    8000093c:	0920b823          	sd	s2,144(ra)
    80000940:	0930bc23          	sd	s3,152(ra)
    80000944:	0b40b023          	sd	s4,160(ra)
    80000948:	0b50b423          	sd	s5,168(ra)
    8000094c:	0b60b823          	sd	s6,176(ra)
    80000950:	0b70bc23          	sd	s7,184(ra)
    80000954:	0d80b023          	sd	s8,192(ra)
    80000958:	0d90b423          	sd	s9,200(ra)
    8000095c:	0da0b823          	sd	s10,208(ra)
    80000960:	0db0bc23          	sd	s11,216(ra)
    80000964:	0fc0b023          	sd	t3,224(ra)
    80000968:	0fd0b423          	sd	t4,232(ra)
    8000096c:	0ff0bc23          	sd	t6,248(ra)
    80000970:	0180006f          	j	80000988 <test_end>

0000000080000974 <crash_forward>:
    80000974:	0ff0000f          	fence
    80000978:	00018063          	beqz	gp,80000978 <crash_forward+0x4>
    8000097c:	00119193          	slli	gp,gp,0x1
    80000980:	0011e193          	ori	gp,gp,1
    80000984:	00000073          	ecall

0000000080000988 <test_end>:
    80000988:	0ff0000f          	fence
    8000098c:	00100193          	li	gp,1
    80000990:	00000073          	ecall
    80000994:	c0001073          	unimp
	...

Disassembly of section .tohost:

0000000080001000 <tohost>:
	...

0000000080001040 <fromhost>:
	...
