
test.elf:     file format elf64-littleriscv


Disassembly of section .text.init:

0000000080000000 <_start>:
    80000000:	0580006f          	j	80000058 <reset_vector>

0000000080000004 <trap_vector>:
    80000004:	34202f73          	csrr	t5,mcause
    80000008:	00800f93          	li	t6,8
    8000000c:	05ff0063          	beq	t5,t6,8000004c <write_tohost>
    80000010:	00900f93          	li	t6,9
    80000014:	03ff0c63          	beq	t5,t6,8000004c <write_tohost>
    80000018:	00b00f93          	li	t6,11
    8000001c:	03ff0863          	beq	t5,t6,8000004c <write_tohost>
    80000020:	00000f13          	li	t5,0
    80000024:	000f0463          	beqz	t5,8000002c <trap_vector+0x28>
    80000028:	000f0067          	jr	t5
    8000002c:	34202f73          	csrr	t5,mcause
    80000030:	000f5463          	bgez	t5,80000038 <handle_exception>
    80000034:	0140006f          	j	80000048 <other_exception>

0000000080000038 <handle_exception>:
    80000038:	34102e73          	csrr	t3,mepc
    8000003c:	004e0e13          	addi	t3,t3,4
    80000040:	341e1073          	csrw	mepc,t3
    80000044:	30200073          	mret

0000000080000048 <other_exception>:
    80000048:	5391e193          	ori	gp,gp,1337

000000008000004c <write_tohost>:
    8000004c:	00001f17          	auipc	t5,0x1
    80000050:	fa3f2a23          	sw	gp,-76(t5) # 80001000 <tohost>
    80000054:	ff9ff06f          	j	8000004c <write_tohost>

0000000080000058 <reset_vector>:
    80000058:	f1402573          	csrr	a0,mhartid
    8000005c:	00051063          	bnez	a0,8000005c <reset_vector+0x4>
    80000060:	00000297          	auipc	t0,0x0
    80000064:	01028293          	addi	t0,t0,16 # 80000070 <reset_vector+0x18>
    80000068:	30529073          	csrw	mtvec,t0
    8000006c:	18005073          	csrwi	satp,0
    80000070:	00000297          	auipc	t0,0x0
    80000074:	01c28293          	addi	t0,t0,28 # 8000008c <reset_vector+0x34>
    80000078:	30529073          	csrw	mtvec,t0
    8000007c:	fff00293          	li	t0,-1
    80000080:	3b029073          	csrw	pmpaddr0,t0
    80000084:	01f00293          	li	t0,31
    80000088:	3a029073          	csrw	pmpcfg0,t0
    8000008c:	00000297          	auipc	t0,0x0
    80000090:	01828293          	addi	t0,t0,24 # 800000a4 <reset_vector+0x4c>
    80000094:	30529073          	csrw	mtvec,t0
    80000098:	30205073          	csrwi	medeleg,0
    8000009c:	30305073          	csrwi	mideleg,0
    800000a0:	30405073          	csrwi	mie,0
    800000a4:	00000193          	li	gp,0
    800000a8:	00000297          	auipc	t0,0x0
    800000ac:	f5c28293          	addi	t0,t0,-164 # 80000004 <trap_vector>
    800000b0:	30529073          	csrw	mtvec,t0
    800000b4:	00100513          	li	a0,1
    800000b8:	01f51513          	slli	a0,a0,0x1f
    800000bc:	00055863          	bgez	a0,800000cc <reset_vector+0x74>
    800000c0:	0ff0000f          	fence
    800000c4:	00100193          	li	gp,1
    800000c8:	00000073          	ecall
    800000cc:	00000293          	li	t0,0
    800000d0:	00028e63          	beqz	t0,800000ec <reset_vector+0x94>
    800000d4:	10529073          	csrw	stvec,t0
    800000d8:	0000b2b7          	lui	t0,0xb
    800000dc:	1092829b          	addiw	t0,t0,265
    800000e0:	30229073          	csrw	medeleg,t0
    800000e4:	30202373          	csrr	t1,medeleg
    800000e8:	f66290e3          	bne	t0,t1,80000048 <other_exception>
    800000ec:	30005073          	csrwi	mstatus,0
    800000f0:	00000297          	auipc	t0,0x0
    800000f4:	01428293          	addi	t0,t0,20 # 80000104 <reset_vector+0xac>
    800000f8:	34129073          	csrw	mepc,t0
    800000fc:	f1402573          	csrr	a0,mhartid
    80000100:	30200073          	mret
    80000104:	0180006f          	j	8000011c <test_start>

0000000080000108 <crash_backward>:
    80000108:	0ff0000f          	fence
    8000010c:	00018063          	beqz	gp,8000010c <crash_backward+0x4>
    80000110:	00119193          	slli	gp,gp,0x1
    80000114:	0011e193          	ori	gp,gp,1
    80000118:	00000073          	ecall

000000008000011c <test_start>:
    8000011c:	00001f97          	auipc	t6,0x1
    80000120:	fe4f8f93          	addi	t6,t6,-28 # 80001100 <hidden_data>
    80000124:	000fb003          	ld	zero,0(t6)
    80000128:	008fb083          	ld	ra,8(t6)
    8000012c:	010fb103          	ld	sp,16(t6)
    80000130:	018fb183          	ld	gp,24(t6)
    80000134:	020fb203          	ld	tp,32(t6)
    80000138:	028fb283          	ld	t0,40(t6)
    8000013c:	030fb303          	ld	t1,48(t6)
    80000140:	038fb383          	ld	t2,56(t6)
    80000144:	040fb403          	ld	s0,64(t6)
    80000148:	048fb483          	ld	s1,72(t6)
    8000014c:	050fb503          	ld	a0,80(t6)
    80000150:	058fb583          	ld	a1,88(t6)
    80000154:	060fb603          	ld	a2,96(t6)
    80000158:	068fb683          	ld	a3,104(t6)
    8000015c:	070fb703          	ld	a4,112(t6)
    80000160:	078fb783          	ld	a5,120(t6)
    80000164:	080fb803          	ld	a6,128(t6)
    80000168:	088fb883          	ld	a7,136(t6)
    8000016c:	090fb903          	ld	s2,144(t6)
    80000170:	098fb983          	ld	s3,152(t6)
    80000174:	0a0fba03          	ld	s4,160(t6)
    80000178:	0a8fba83          	ld	s5,168(t6)
    8000017c:	0b0fbb03          	ld	s6,176(t6)
    80000180:	0b8fbb83          	ld	s7,184(t6)
    80000184:	0c0fbc03          	ld	s8,192(t6)
    80000188:	0c8fbc83          	ld	s9,200(t6)
    8000018c:	0d0fbd03          	ld	s10,208(t6)
    80000190:	0d8fbd83          	ld	s11,216(t6)
    80000194:	0e0fbe03          	ld	t3,224(t6)
    80000198:	0e8fbe83          	ld	t4,232(t6)
    8000019c:	0f0fbf03          	ld	t5,240(t6)
    800001a0:	0f8fbf83          	ld	t6,248(t6)
    800001a4:	0040006f          	j	800001a8 <pseg_0>

00000000800001a8 <pseg_0>:
    800001a8:	b5918293          	addi	t0,gp,-1191 # 80001a69 <_end+0x359>
    800001ac:	00100893          	li	a7,1
    800001b0:	efd00b93          	li	s7,-259
    800001b4:	0010f633          	and	a2,ra,ra
    800001b8:	013996b3          	sll	a3,s3,s3
    800001bc:	0030d49b          	srliw	s1,ra,0x3
    800001c0:	8ad2b3a3          	sd	a3,-1881(t0)
    800001c4:	037be9b3          	rem	s3,s7,s7
    800001c8:	89600d93          	li	s11,-1898
    800001cc:	3b600c13          	li	s8,950
    800001d0:	425cdc93          	srai	s9,s9,0x25
    800001d4:	00001597          	auipc	a1,0x1
    800001d8:	be158593          	addi	a1,a1,-1055 # 80000db5 <test_end+0x42d>
    800001dc:	3c600793          	li	a5,966
    800001e0:	03baf6bb          	remuw	a3,s5,s11
    800001e4:	03080633          	mul	a2,a6,a6
    800001e8:	037b9f33          	mulh	t5,s7,s7
    800001ec:	c7100213          	li	tp,-911
    800001f0:	02217933          	remu	s2,sp,sp
    800001f4:	7cc00f93          	li	t6,1996
    800001f8:	03bb8333          	mul	t1,s7,s11
    800001fc:	22200413          	li	s0,546
    80000200:	84800e93          	li	t4,-1976
    80000204:	00f7ce33          	xor	t3,a5,a5
    80000208:	00001297          	auipc	t0,0x1
    8000020c:	1bd28293          	addi	t0,t0,445 # 800013c5 <test_memory+0xc5>
    80000210:	4042513b          	sraw	sp,tp,tp
    80000214:	03f89893          	slli	a7,a7,0x3f
    80000218:	6bf59383          	lh	t2,1727(a1)
    8000021c:	66c00a13          	li	s4,1644
    80000220:	00001997          	auipc	s3,0x1
    80000224:	f9998993          	addi	s3,s3,-103 # 800011b9 <reg_x23_init+0x1>
    80000228:	42900813          	li	a6,1065
    8000022c:	00001397          	auipc	t2,0x1
    80000230:	5c438393          	addi	t2,t2,1476 # 800017f0 <_end+0xe0>
    80000234:	41dc5b3b          	sraw	s6,s8,t4
    80000238:	e3500113          	li	sp,-459
    8000023c:	b7200c93          	li	s9,-1166
    80000240:	00001d97          	auipc	s11,0x1
    80000244:	5abd8d93          	addi	s11,s11,1451 # 800017eb <_end+0xdb>
    80000248:	01440abb          	addw	s5,s0,s4
    8000024c:	00908733          	add	a4,ra,s1
    80000250:	26700f13          	li	t5,615
    80000254:	00001317          	auipc	t1,0x1
    80000258:	b9d30313          	addi	t1,t1,-1123 # 80000df1 <test_end+0x469>
    8000025c:	d2839e03          	lh	t3,-728(t2)
    80000260:	1b000b93          	li	s7,432
    80000264:	55931683          	lh	a3,1369(t1)
    80000268:	1709ada3          	sw	a6,379(s3)
    8000026c:	039c85bb          	mulw	a1,s9,s9
    80000270:	f6f29483          	lh	s1,-145(t0)
    80000274:	00a56933          	or	s2,a0,a0
    80000278:	41f251b3          	sra	gp,tp,t6
    8000027c:	01e12633          	slt	a2,sp,t5
    80000280:	b68d84a3          	sb	s0,-1175(s11)
    80000284:	00100413          	li	s0,1
    80000288:	01bddc3b          	srlw	s8,s11,s11
    8000028c:	0226c1b3          	div	gp,a3,sp
    80000290:	00001a17          	auipc	s4,0x1
    80000294:	099a0a13          	addi	s4,s4,153 # 80001329 <test_memory+0x29>
    80000298:	16ba3ba3          	sd	a1,375(s4)
    8000029c:	03f41413          	slli	s0,s0,0x3f
    800002a0:	00001e97          	auipc	t4,0x1
    800002a4:	bcbe8e93          	addi	t4,t4,-1077 # 80000e6b <test_end+0x4e3>
    800002a8:	759e9a83          	lh	s5,1881(t4)
    800002ac:	94c18313          	addi	t1,gp,-1716 # 8000185c <_end+0x14c>
    800002b0:	ad930583          	lb	a1,-1319(t1)
    800002b4:	017807bb          	addw	a5,a6,s7
    800002b8:	fff00913          	li	s2,-1
    800002bc:	013c4fb3          	xor	t6,s8,s3
    800002c0:	00894933          	xor	s2,s2,s0
    800002c4:	fff00d13          	li	s10,-1
    800002c8:	011d4d33          	xor	s10,s10,a7
    800002cc:	002b02b3          	add	t0,s6,sp
    800002d0:	01a870b3          	and	ra,a6,s10
    800002d4:	01227233          	and	tp,tp,s2
    800002d8:	008ae6b3          	or	a3,s5,s0
    800002dc:	e246d6e3          	bge	a3,tp,80000108 <crash_backward>
    800002e0:	0110e533          	or	a0,ra,a7
    800002e4:	01b751bb          	srlw	gp,a4,s11
    800002e8:	66c00b93          	li	s7,1644
    800002ec:	eff00693          	li	a3,-257
    800002f0:	7cc00813          	li	a6,1996
    800002f4:	401089bb          	subw	s3,ra,ra
    800002f8:	00dbdeb3          	srl	t4,s7,a3
    800002fc:	a8900593          	li	a1,-1399
    80000300:	00001e17          	auipc	t3,0x1
    80000304:	d9ae0e13          	addi	t3,t3,-614 # 8000109a <fromhost+0x5a>
    80000308:	cf900493          	li	s1,-775
    8000030c:	b8018393          	addi	t2,gp,-1152 # 80001a90 <_end+0x380>
    80000310:	55200f93          	li	t6,1362
    80000314:	5b900c13          	li	s8,1465
    80000318:	a6500a13          	li	s4,-1435
    8000031c:	e9b18613          	addi	a2,gp,-357 # 80001dab <_end+0x69b>
    80000320:	20fc0a93          	addi	s5,s8,527
    80000324:	03082533          	mulhsu	a0,a6,a6
    80000328:	ac838423          	sb	s0,-1336(t2)
    8000032c:	02b6f233          	remu	tp,a3,a1
    80000330:	41400513          	li	a0,1044
    80000334:	dd800f13          	li	t5,-552
    80000338:	49a00113          	li	sp,1178
    8000033c:	02a5583b          	divuw	a6,a0,a0
    80000340:	00001c97          	auipc	s9,0x1
    80000344:	e95c8c93          	addi	s9,s9,-363 # 800011d5 <reg_x26_init+0x5>
    80000348:	4cbc8ba3          	sb	a1,1239(s9)
    8000034c:	022fadb3          	mulhsu	s11,t6,sp
    80000350:	00000593          	li	a1,0
    80000354:	8fd62883          	lw	a7,-1795(a2)
    80000358:	99d00993          	li	s3,-1635
    8000035c:	42ae6903          	lwu	s2,1066(t3)
    80000360:	029492b3          	mulh	t0,s1,s1
    80000364:	03ebf433          	remu	s0,s7,t5
    80000368:	6ee00e93          	li	t4,1774
    8000036c:	03d99333          	mulh	t1,s3,t4
    80000370:	b6e18e13          	addi	t3,gp,-1170 # 80001a7e <_end+0x36e>
    80000374:	8dee2883          	lw	a7,-1826(t3)
    80000378:	07b00c13          	li	s8,123
    8000037c:	c0400b93          	li	s7,-1020
    80000380:	76b00613          	li	a2,1899
    80000384:	00001797          	auipc	a5,0x1
    80000388:	99178793          	addi	a5,a5,-1647 # 80000d15 <test_end+0x38d>
    8000038c:	0a400313          	li	t1,164
    80000390:	00000213          	li	tp,0
    80000394:	00100113          	li	sp,1
    80000398:	88b00713          	li	a4,-1909
    8000039c:	74379d03          	lh	s10,1859(a5)
    800003a0:	000e8413          	mv	s0,t4
    800003a4:	cfd00493          	li	s1,-771
    800003a8:	40965abb          	sraw	s5,a2,s1
    800003ac:	00001097          	auipc	ra,0x1
    800003b0:	1f108093          	addi	ra,ra,497 # 8000159d <test_memory+0x29d>
    800003b4:	d4c00393          	li	t2,-692
    800003b8:	eb700e93          	li	t4,-329
    800003bc:	00ea5b33          	srl	s6,s4,a4
    800003c0:	fca00d93          	li	s11,-54
    800003c4:	038c6933          	rem	s2,s8,s8
    800003c8:	00040293          	mv	t0,s0
    800003cc:	40e15a33          	sra	s4,sp,a4
    800003d0:	00535b3b          	srlw	s6,t1,t0
    800003d4:	00001497          	auipc	s1,0x1
    800003d8:	8d748493          	addi	s1,s1,-1833 # 80000cab <test_end+0x323>
    800003dc:	58541c63          	bne	s0,t0,80000974 <crash_forward>
    800003e0:	03e7fd33          	remu	s10,a5,t5
    800003e4:	17200a93          	li	s5,370
    800003e8:	00001c97          	auipc	s9,0x1
    800003ec:	80cc8c93          	addi	s9,s9,-2036 # 80000bf4 <test_end+0x26c>
    800003f0:	571a8713          	addi	a4,s5,1393
    800003f4:	03f11113          	slli	sp,sp,0x3f
    800003f8:	6ff4d783          	lhu	a5,1791(s1)
    800003fc:	fff00513          	li	a0,-1
    80000400:	9f418c13          	addi	s8,gp,-1548 # 80001904 <_end+0x1f4>
    80000404:	00254533          	xor	a0,a0,sp
    80000408:	db70ae03          	lw	t3,-585(ra)
    8000040c:	00aa7fb3          	and	t6,s4,a0
    80000410:	40c601b3          	sub	gp,a2,a2
    80000414:	02210633          	mul	a2,sp,sp
    80000418:	65b30993          	addi	s3,t1,1627
    8000041c:	756c9e23          	sh	s6,1884(s9)
    80000420:	9bde8893          	addi	a7,t4,-1603
    80000424:	cf1ec2e3          	blt	t4,a7,80000108 <crash_backward>
    80000428:	ae4c3903          	ld	s2,-1308(s8)
    8000042c:	002fe833          	or	a6,t6,sp
    80000430:	f9cb8f13          	addi	t5,s7,-100
    80000434:	41b3d6bb          	sraw	a3,t2,s11
    80000438:	60a00213          	li	tp,1546
    8000043c:	00e194b3          	sll	s1,gp,a4
    80000440:	a4118793          	addi	a5,gp,-1471 # 80001951 <_end+0x241>
    80000444:	d3c78b23          	sb	t3,-714(a5)
    80000448:	a6400113          	li	sp,-1436
    8000044c:	00001c17          	auipc	s8,0x1
    80000450:	ed5c0c13          	addi	s8,s8,-299 # 80001321 <test_memory+0x21>
    80000454:	64600c93          	li	s9,1606
    80000458:	10800293          	li	t0,264
    8000045c:	019c95b3          	sll	a1,s9,s9
    80000460:	2dd00393          	li	t2,733
    80000464:	0efc3403          	ld	s0,239(s8)
    80000468:	ae100813          	li	a6,-1311
    8000046c:	c9b18693          	addi	a3,gp,-869 # 80001bab <_end+0x49b>
    80000470:	00001a17          	auipc	s4,0x1
    80000474:	e38a0a13          	addi	s4,s4,-456 # 800012a8 <reg_x21_output>
    80000478:	8196d903          	lhu	s2,-2023(a3)
    8000047c:	00775d1b          	srliw	s10,a4,0x7
    80000480:	00100313          	li	t1,1
    80000484:	0302d9bb          	divuw	s3,t0,a6
    80000488:	0273ff33          	remu	t5,t2,t2
    8000048c:	f5400193          	li	gp,-172
    80000490:	02325e3b          	divuw	t3,tp,gp
    80000494:	03ffcabb          	divw	s5,t6,t6
    80000498:	59000093          	li	ra,1424
    8000049c:	00215eb3          	srl	t4,sp,sp
    800004a0:	03f31313          	slli	t1,t1,0x3f
    800004a4:	27da0b83          	lb	s7,637(s4)
    800004a8:	0210fb33          	remu	s6,ra,ra
    800004ac:	fff00713          	li	a4,-1
    800004b0:	00001517          	auipc	a0,0x1
    800004b4:	a7350513          	addi	a0,a0,-1421 # 80000f23 <test_end+0x59b>
    800004b8:	00674733          	xor	a4,a4,t1
    800004bc:	00090d93          	mv	s11,s2
    800004c0:	000d8613          	mv	a2,s11
    800004c4:	3fe50ea3          	sb	t5,1021(a0)
    800004c8:	00e2ffb3          	and	t6,t0,a4
    800004cc:	006fe8b3          	or	a7,t6,t1
    800004d0:	4b1f8263          	beq	t6,a7,80000974 <crash_forward>
    800004d4:	bd418113          	addi	sp,gp,-1068 # 80001ae4 <_end+0x3d4>
    800004d8:	1b500993          	li	s3,437
    800004dc:	037e5bb3          	divu	s7,t3,s7
    800004e0:	40565a9b          	sraiw	s5,a2,0x5
    800004e4:	4af00713          	li	a4,1199
    800004e8:	40c605bb          	subw	a1,a2,a2
    800004ec:	017bf633          	and	a2,s7,s7
    800004f0:	038c6c33          	rem	s8,s8,s8
    800004f4:	0239523b          	divuw	tp,s2,gp
    800004f8:	e7118313          	addi	t1,gp,-399 # 80001d81 <_end+0x671>
    800004fc:	00001e97          	auipc	t4,0x1
    80000500:	247e8e93          	addi	t4,t4,583 # 80001743 <_end+0x33>
    80000504:	039ff2b3          	remu	t0,t6,s9
    80000508:	01a197bb          	sllw	a5,gp,s10
    8000050c:	a4100c93          	li	s9,-1471
    80000510:	ad900a93          	li	s5,-1319
    80000514:	00e776b3          	and	a3,a4,a4
    80000518:	acc00b13          	li	s6,-1332
    8000051c:	8f713623          	sd	s7,-1812(sp)
    80000520:	02226d3b          	remw	s10,tp,sp
    80000524:	66200413          	li	s0,1634
    80000528:	44400093          	li	ra,1092
    8000052c:	0289aa33          	mulhsu	s4,s3,s0
    80000530:	039cf8bb          	remuw	a7,s9,s9
    80000534:	9ca00293          	li	t0,-1590
    80000538:	96d35183          	lhu	gp,-1683(t1)
    8000053c:	fb7eb2a3          	sd	s7,-91(t4)
    80000540:	00001497          	auipc	s1,0x1
    80000544:	11d48493          	addi	s1,s1,285 # 8000165d <test_memory+0x35d>
    80000548:	e9749f83          	lh	t6,-361(s1)
    8000054c:	f4800513          	li	a0,-184
    80000550:	b5400c13          	li	s8,-1196
    80000554:	00001397          	auipc	t2,0x1
    80000558:	95f38393          	addi	t2,t2,-1697 # 80000eb3 <test_end+0x52b>
    8000055c:	415adbbb          	sraw	s7,s5,s5
    80000560:	5a23cd83          	lbu	s11,1442(t2)
    80000564:	0010d833          	srl	a6,ra,ra
    80000568:	a8a00913          	li	s2,-1398
    8000056c:	09f00893          	li	a7,159
    80000570:	62c88213          	addi	tp,a7,1580
    80000574:	a8b00813          	li	a6,-1397
    80000578:	00001117          	auipc	sp,0x1
    8000057c:	f5d10113          	addi	sp,sp,-163 # 800014d5 <test_memory+0x1d5>
    80000580:	0182d7b3          	srl	a5,t0,s8
    80000584:	02ab7f33          	remu	t5,s6,a0
    80000588:	016b123b          	sllw	tp,s6,s6
    8000058c:	01a2aab3          	slt	s5,t0,s10
    80000590:	de4c2c93          	slti	s9,s8,-540
    80000594:	00001e97          	auipc	t4,0x1
    80000598:	ffde8e93          	addi	t4,t4,-3 # 80001591 <test_memory+0x291>
    8000059c:	50c03fb7          	lui	t6,0x50c03
    800005a0:	f94125a3          	sw	s4,-117(sp)
    800005a4:	6a400493          	li	s1,1700
    800005a8:	dae00a13          	li	s4,-594
    800005ac:	0c700313          	li	t1,199
    800005b0:	23400893          	li	a7,564
    800005b4:	25500b13          	li	s6,597
    800005b8:	0efee403          	lwu	s0,239(t4)
    800005bc:	00001097          	auipc	ra,0x1
    800005c0:	cdd08093          	addi	ra,ra,-803 # 80001299 <reg_x19_output+0x1>
    800005c4:	6a488c13          	addi	s8,a7,1700
    800005c8:	00001b97          	auipc	s7,0x1
    800005cc:	b37b8b93          	addi	s7,s7,-1225 # 800010ff <fromhost+0xbf>
    800005d0:	019ccab3          	xor	s5,s9,s9
    800005d4:	40a5d293          	srai	t0,a1,0xa
    800005d8:	016b6f33          	or	t5,s6,s6
    800005dc:	41bf5fb3          	sra	t6,t5,s11
    800005e0:	20d0aba3          	sw	a3,535(ra)
    800005e4:	8ab00593          	li	a1,-1877
    800005e8:	00001c17          	auipc	s8,0x1
    800005ec:	f96c0c13          	addi	s8,s8,-106 # 8000157e <test_memory+0x27e>
    800005f0:	03b3f8bb          	remuw	a7,t2,s11
    800005f4:	db2c2f03          	lw	t5,-590(s8)
    800005f8:	0144e733          	or	a4,s1,s4
    800005fc:	6bf00c93          	li	s9,1727
    80000600:	b1118f93          	addi	t6,gp,-1263 # 80001a21 <_end+0x311>
    80000604:	59700c13          	li	s8,1431
    80000608:	40f7d8bb          	sraw	a7,a5,a5
    8000060c:	3d400d93          	li	s11,980
    80000610:	400b99a3          	sh	zero,1043(s7)
    80000614:	038c30b3          	mulhu	ra,s8,s8
    80000618:	00001217          	auipc	tp,0x1
    8000061c:	93c20213          	addi	tp,tp,-1732 # 80000f54 <test_end+0x5cc>
    80000620:	00de26b3          	slt	a3,t3,a3
    80000624:	940fa9a3          	sw	zero,-1709(t6) # 50c02953 <_start-0x2f3fd6ad>
    80000628:	02b371bb          	remuw	gp,t1,a1
    8000062c:	00001797          	auipc	a5,0x1
    80000630:	09778793          	addi	a5,a5,151 # 800016c3 <test_memory+0x3c3>
    80000634:	00000417          	auipc	s0,0x0
    80000638:	7fc40413          	addi	s0,s0,2044 # 80000e30 <test_end+0x4a8>
    8000063c:	6f043823          	sd	a6,1776(s0)
    80000640:	54826d03          	lwu	s10,1352(tp) # 548 <_start-0x7ffffab8>
    80000644:	a0600113          	li	sp,-1530
    80000648:	00001a97          	auipc	s5,0x1
    8000064c:	d81a8a93          	addi	s5,s5,-639 # 800013c9 <test_memory+0xc9>
    80000650:	41295e3b          	sraw	t3,s2,s2
    80000654:	002caeb3          	slt	t4,s9,sp
    80000658:	00001b17          	auipc	s6,0x1
    8000065c:	0ddb0b13          	addi	s6,s6,221 # 80001735 <_end+0x25>
    80000660:	cf678503          	lb	a0,-778(a5)
    80000664:	00001397          	auipc	t2,0x1
    80000668:	8ea38393          	addi	t2,t2,-1814 # 80000f4e <test_end+0x5c6>
    8000066c:	4aa39983          	lh	s3,1194(t2)
    80000670:	1e7a9283          	lh	t0,487(s5)
    80000674:	01b83633          	sltu	a2,a6,s11
    80000678:	a2400c13          	li	s8,-1500
    8000067c:	00100813          	li	a6,1
    80000680:	0200453b          	divw	a0,zero,zero
    80000684:	03f81813          	slli	a6,a6,0x3f
    80000688:	00000dbb          	addw	s11,zero,zero
    8000068c:	6b200093          	li	ra,1714
    80000690:	00100f93          	li	t6,1
    80000694:	fff00a13          	li	s4,-1
    80000698:	b2f00493          	li	s1,-1233
    8000069c:	010a4a33          	xor	s4,s4,a6
    800006a0:	00001397          	auipc	t2,0x1
    800006a4:	b5f38393          	addi	t2,t2,-1185 # 800011ff <reg_x31_init+0x7>
    800006a8:	fa700793          	li	a5,-89
    800006ac:	cbd00d13          	li	s10,-835
    800006b0:	0210a633          	mulhsu	a2,ra,ra
    800006b4:	02f7d1b3          	divu	gp,a5,a5
    800006b8:	2d300893          	li	a7,723
    800006bc:	12600713          	li	a4,294
    800006c0:	009c4233          	xor	tp,s8,s1
    800006c4:	e71b2fa3          	sw	a7,-385(s6)
    800006c8:	f7300c93          	li	s9,-141
    800006cc:	3c270e13          	addi	t3,a4,962
    800006d0:	39e38303          	lb	t1,926(t2)
    800006d4:	027c27b3          	mulhsu	a5,s8,t2
    800006d8:	0141ff33          	and	t5,gp,s4
    800006dc:	98918493          	addi	s1,gp,-1655 # 80001899 <_end+0x189>
    800006e0:	01ce7eb3          	and	t4,t3,t3
    800006e4:	bf618093          	addi	ra,gp,-1034 # 80001b06 <_end+0x3f6>
    800006e8:	b074aa83          	lw	s5,-1273(s1)
    800006ec:	005923b3          	slt	t2,s2,t0
    800006f0:	7ac00213          	li	tp,1964
    800006f4:	50200293          	li	t0,1282
    800006f8:	89a0a183          	lw	gp,-1894(ra)
    800006fc:	7f100b13          	li	s6,2033
    80000700:	40e7053b          	subw	a0,a4,a4
    80000704:	019ca433          	slt	s0,s9,s9
    80000708:	03ff9f93          	slli	t6,t6,0x3f
    8000070c:	9ccd0993          	addi	s3,s10,-1588
    80000710:	0162ddb3          	srl	s11,t0,s6
    80000714:	fff00b93          	li	s7,-1
    80000718:	01c13333          	sltu	t1,sp,t3
    8000071c:	0046cc33          	xor	s8,a3,tp
    80000720:	010f66b3          	or	a3,t5,a6
    80000724:	24df7863          	bgeu	t5,a3,80000974 <crash_forward>
    80000728:	01fbcbb3          	xor	s7,s7,t6
    8000072c:	0318c5bb          	divw	a1,a7,a7
    80000730:	0179f133          	and	sp,s3,s7
    80000734:	01fb6933          	or	s2,s6,t6
    80000738:	233d6e63          	bltu	s10,s3,80000974 <crash_forward>
    8000073c:	57500c93          	li	s9,1397
    80000740:	02df883b          	mulw	a6,t6,a3
    80000744:	4171d9b3          	sra	s3,gp,s7
    80000748:	00001497          	auipc	s1,0x1
    8000074c:	cfc48493          	addi	s1,s1,-772 # 80001444 <test_memory+0x144>
    80000750:	09349223          	sh	s3,132(s1)
    80000754:	2bf83f13          	sltiu	t5,a6,703
    80000758:	cbb00293          	li	t0,-837
    8000075c:	d8f18d13          	addi	s10,gp,-625 # 80001c9f <_end+0x58f>
    80000760:	00100713          	li	a4,1
    80000764:	df528d93          	addi	s11,t0,-523
    80000768:	01399c3b          	sllw	s8,s3,s3
    8000076c:	00001917          	auipc	s2,0x1
    80000770:	99390913          	addi	s2,s2,-1645 # 800010ff <fromhost+0xbf>
    80000774:	00001a17          	auipc	s4,0x1
    80000778:	b70a0a13          	addi	s4,s4,-1168 # 800012e4 <reg_x28_output+0x4>
    8000077c:	8a900b13          	li	s6,-1879
    80000780:	a4418393          	addi	t2,gp,-1468 # 80001954 <_end+0x244>
    80000784:	916d15a3          	sh	s6,-1781(s10)
    80000788:	03f71713          	slli	a4,a4,0x3f
    8000078c:	0b120613          	addi	a2,tp,177 # b1 <_start-0x7fffff4f>
    80000790:	00000e97          	auipc	t4,0x0
    80000794:	68ce8e93          	addi	t4,t4,1676 # 80000e1c <test_end+0x494>
    80000798:	00001517          	auipc	a0,0x1
    8000079c:	f9050513          	addi	a0,a0,-112 # 80001728 <_end+0x18>
    800007a0:	a6700313          	li	t1,-1433
    800007a4:	989f4d13          	xori	s10,t5,-1655
    800007a8:	00000193          	li	gp,0
    800007ac:	036b3ab3          	mulhu	s5,s6,s6
    800007b0:	133a1423          	sh	s3,296(s4)
    800007b4:	00001497          	auipc	s1,0x1
    800007b8:	e7f48493          	addi	s1,s1,-385 # 80001633 <test_memory+0x333>
    800007bc:	00100813          	li	a6,1
    800007c0:	e9548b23          	sb	s5,-362(s1)
    800007c4:	3f900f93          	li	t6,1017
    800007c8:	d7418793          	addi	a5,gp,-652 # 80001c84 <_end+0x574>
    800007cc:	026c8e33          	mul	t3,s9,t1
    800007d0:	7e5e8a23          	sb	t0,2036(t4)
    800007d4:	00000093          	li	ra,0
    800007d8:	03f81813          	slli	a6,a6,0x3f
    800007dc:	b5538883          	lb	a7,-1195(t2)
    800007e0:	fff00693          	li	a3,-1
    800007e4:	00e6c6b3          	xor	a3,a3,a4
    800007e8:	fff00b93          	li	s7,-1
    800007ec:	010bcbb3          	xor	s7,s7,a6
    800007f0:	82c7a223          	sw	a2,-2012(a5)
    800007f4:	e9052023          	sw	a6,-384(a0)
    800007f8:	00001a17          	auipc	s4,0x1
    800007fc:	9eea0a13          	addi	s4,s4,-1554 # 800011e6 <reg_x28_init+0x6>
    80000800:	5da00613          	li	a2,1498
    80000804:	b7100293          	li	t0,-1167
    80000808:	025fbc33          	mulhu	s8,t6,t0
    8000080c:	3cd92103          	lw	sp,973(s2)
    80000810:	8e11ece3          	bltu	gp,ra,80000108 <crash_backward>
    80000814:	02c66eb3          	rem	t4,a2,a2
    80000818:	0171f9b3          	and	s3,gp,s7
    8000081c:	00d67433          	and	s0,a2,a3
    80000820:	00e465b3          	or	a1,s0,a4
    80000824:	50fa4b03          	lbu	s6,1295(s4)
    80000828:	00100313          	li	t1,1
    8000082c:	0109ef33          	or	t5,s3,a6
    80000830:	ba900d93          	li	s11,-1111
    80000834:	98100593          	li	a1,-1663
    80000838:	53100413          	li	s0,1329
    8000083c:	00001117          	auipc	sp,0x1
    80000840:	dd710113          	addi	sp,sp,-553 # 80001613 <test_memory+0x313>
    80000844:	00000513          	li	a0,0
    80000848:	ee512883          	lw	a7,-283(sp)
    8000084c:	02846fb3          	rem	t6,s0,s0
    80000850:	00000613          	li	a2,0
    80000854:	a8f00793          	li	a5,-1393
    80000858:	00001497          	auipc	s1,0x1
    8000085c:	ae748493          	addi	s1,s1,-1305 # 8000133f <test_memory+0x3f>
    80000860:	b4200a13          	li	s4,-1214
    80000864:	be900a93          	li	s5,-1047
    80000868:	9d500913          	li	s2,-1579
    8000086c:	aa600e93          	li	t4,-1370
    80000870:	00100b13          	li	s6,1
    80000874:	03fb1b13          	slli	s6,s6,0x3f
    80000878:	4197513b          	sraw	sp,a4,s9
    8000087c:	07c48c03          	lb	s8,124(s1)
    80000880:	cda00813          	li	a6,-806
    80000884:	41de80bb          	subw	ra,t4,t4
    80000888:	03f31313          	slli	t1,t1,0x3f
    8000088c:	015dbd33          	sltu	s10,s11,s5
    80000890:	fff00393          	li	t2,-1
    80000894:	0147d1b3          	srl	gp,a5,s4
    80000898:	cc518513          	addi	a0,gp,-827 # 80001bd5 <_end+0x4c5>
    8000089c:	0163c3b3          	xor	t2,t2,s6
    800008a0:	02063633          	mulhu	a2,a2,zero
    800008a4:	56b00993          	li	s3,1387
    800008a8:	03386433          	rem	s0,a6,s3
    800008ac:	0325a2b3          	mulhsu	t0,a1,s2
    800008b0:	0304f8bb          	remuw	a7,s1,a6
    800008b4:	e1e18f13          	addi	t5,gp,-482 # 80001d2e <_end+0x61e>
    800008b8:	007876b3          	and	a3,a6,t2
    800008bc:	0169e733          	or	a4,s3,s6
    800008c0:	fff00e13          	li	t3,-1
    800008c4:	9bb50b83          	lb	s7,-1605(a0)
    800008c8:	868f2123          	sw	s0,-1950(t5)
    800008cc:	006e4e33          	xor	t3,t3,t1
    800008d0:	01cffcb3          	and	s9,t6,t3
    800008d4:	006ce233          	or	tp,s9,t1
    800008d8:	08e68e63          	beq	a3,a4,80000974 <crash_forward>
    800008dc:	0040006f          	j	800008e0 <reg_dump>

00000000800008e0 <reg_dump>:
    800008e0:	00001097          	auipc	ra,0x1
    800008e4:	e2008093          	addi	ra,ra,-480 # 80001700 <loop_count>
    800008e8:	0000a103          	lw	sp,0(ra)
    800008ec:	fff10193          	addi	gp,sp,-1
    800008f0:	0030a023          	sw	gp,0(ra)
    800008f4:	8a011ae3          	bnez	sp,800001a8 <pseg_0>
    800008f8:	00001097          	auipc	ra,0x1
    800008fc:	90808093          	addi	ra,ra,-1784 # 80001200 <begin_signature>
    80000900:	0000b023          	sd	zero,0(ra)
    80000904:	0020b823          	sd	sp,16(ra)
    80000908:	0030bc23          	sd	gp,24(ra)
    8000090c:	0240b023          	sd	tp,32(ra)
    80000910:	0250b423          	sd	t0,40(ra)
    80000914:	0260b823          	sd	t1,48(ra)
    80000918:	0270bc23          	sd	t2,56(ra)
    8000091c:	0480b023          	sd	s0,64(ra)
    80000920:	04b0bc23          	sd	a1,88(ra)
    80000924:	06c0b023          	sd	a2,96(ra)
    80000928:	06d0b423          	sd	a3,104(ra)
    8000092c:	06e0b823          	sd	a4,112(ra)
    80000930:	06f0bc23          	sd	a5,120(ra)
    80000934:	0900b023          	sd	a6,128(ra)
    80000938:	0910b423          	sd	a7,136(ra)
    8000093c:	0920b823          	sd	s2,144(ra)
    80000940:	0930bc23          	sd	s3,152(ra)
    80000944:	0b40b023          	sd	s4,160(ra)
    80000948:	0b50b423          	sd	s5,168(ra)
    8000094c:	0b60b823          	sd	s6,176(ra)
    80000950:	0b70bc23          	sd	s7,184(ra)
    80000954:	0d80b023          	sd	s8,192(ra)
    80000958:	0d90b423          	sd	s9,200(ra)
    8000095c:	0da0b823          	sd	s10,208(ra)
    80000960:	0db0bc23          	sd	s11,216(ra)
    80000964:	0fc0b023          	sd	t3,224(ra)
    80000968:	0fd0b423          	sd	t4,232(ra)
    8000096c:	0ff0bc23          	sd	t6,248(ra)
    80000970:	0180006f          	j	80000988 <test_end>

0000000080000974 <crash_forward>:
    80000974:	0ff0000f          	fence
    80000978:	00018063          	beqz	gp,80000978 <crash_forward+0x4>
    8000097c:	00119193          	slli	gp,gp,0x1
    80000980:	0011e193          	ori	gp,gp,1
    80000984:	00000073          	ecall

0000000080000988 <test_end>:
    80000988:	0ff0000f          	fence
    8000098c:	00100193          	li	gp,1
    80000990:	00000073          	ecall
    80000994:	c0001073          	unimp
	...

Disassembly of section .tohost:

0000000080001000 <tohost>:
	...

0000000080001040 <fromhost>:
	...

Disassembly of section .data:

0000000080001100 <hidden_data>:
    80001100:	5205                	li	tp,-31
    80001102:	16d2                	slli	a3,a3,0x34
    80001104:	b0bd                	j	80000972 <reg_dump+0x92>
    80001106:	9075                	srli	s0,s0,0x3d

0000000080001108 <reg_x1_init>:
    80001108:	ffff                	0xffff
    8000110a:	ffff                	0xffff
    8000110c:	ffff                	0xffff
    8000110e:	ffff                	0xffff

0000000080001110 <reg_x2_init>:
    80001110:	00000007          	0x7
    80001114:	0000                	unimp
    80001116:	0800                	addi	s0,sp,16

0000000080001118 <reg_x3_init>:
    80001118:	33a59f43          	fmadd.d	ft10,fa1,fs10,ft6,rtz
    8000111c:	85a9                	srai	a1,a1,0xa
    8000111e:	2f4e                	fld	ft10,208(sp)

0000000080001120 <reg_x4_init>:
    80001120:	0008                	0x8
    80001122:	0000                	unimp
    80001124:	0000                	unimp
    80001126:	0800                	addi	s0,sp,16

0000000080001128 <reg_x5_init>:
    80001128:	74be4eb3          	0x74be4eb3
    8000112c:	8f35                	xor	a4,a4,a3
    8000112e:	          	jal	t5,8002412e <__global_pointer$+0x2221e>

0000000080001130 <reg_x6_init>:
    80001130:	0002                	c.slli64	zero
    80001132:	8000                	0x8000
    80001134:	ffff                	0xffff
    80001136:	ffff                	0xffff

0000000080001138 <reg_x7_init>:
    80001138:	0002                	c.slli64	zero
    8000113a:	8000                	0x8000
    8000113c:	ffff                	0xffff
    8000113e:	ffff                	0xffff

0000000080001140 <reg_x8_init>:
	...

0000000080001148 <reg_x9_init>:
    80001148:	3585                	addiw	a1,a1,-31
    8000114a:	a482                	fsd	ft0,72(sp)
    8000114c:	5818                	lw	a4,48(s0)
    8000114e:	d70c                	sw	a1,40(a4)

0000000080001150 <reg_x10_init>:
    80001150:	8514                	0x8514
    80001152:	d578                	sw	a4,108(a0)
    80001154:	a7a9                	j	8000189e <_end+0x18e>
    80001156:	f5e9                	bnez	a1,80001120 <reg_x4_init>

0000000080001158 <reg_x11_init>:
    80001158:	ffff                	0xffff
    8000115a:	ffff                	0xffff
    8000115c:	ffff                	0xffff
    8000115e:	ffff                	0xffff

0000000080001160 <reg_x12_init>:
	...

0000000080001168 <reg_x13_init>:
    80001168:	76a9                	lui	a3,0xfffea
    8000116a:	0985                	addi	s3,s3,1
    8000116c:	585d                	li	a6,-9
    8000116e:	35cd                	addiw	a1,a1,-13

0000000080001170 <reg_x14_init>:
    80001170:	8001                	c.srli64	s0
    80001172:	ffff                	0xffff
    80001174:	ffff                	0xffff
    80001176:	ffff                	0xffff

0000000080001178 <reg_x15_init>:
    80001178:	5270                	lw	a2,100(a2)
    8000117a:	6e8e                	ld	t4,192(sp)
    8000117c:	78f6                	ld	a7,376(sp)
    8000117e:	d02a                	sw	a0,32(sp)

0000000080001180 <reg_x16_init>:
    80001180:	92cd                	srli	a3,a3,0x33
    80001182:	3d170607          	0x3d170607
    80001186:	3bfa                	fld	fs7,440(sp)

0000000080001188 <reg_x17_init>:
    80001188:	b4e53407          	fld	fs0,-1202(a0)
    8000118c:	8ef0                	0x8ef0
    8000118e:	c375                	beqz	a4,80001272 <reg_x14_output+0x2>

0000000080001190 <reg_x18_init>:
    80001190:	59f0                	lw	a2,116(a1)
    80001192:	e584                	sd	s1,8(a1)
    80001194:	0240                	addi	s0,sp,260
    80001196:	          	csrrw	a2,0xfff,t6

0000000080001198 <reg_x19_init>:
    80001198:	ffff                	0xffff
    8000119a:	ffff                	0xffff
    8000119c:	ffff                	0xffff
    8000119e:	ffff                	0xffff

00000000800011a0 <reg_x20_init>:
    800011a0:	8008                	0x8008
    800011a2:	ffff                	0xffff
    800011a4:	ffff                	0xffff
    800011a6:	ffff                	0xffff

00000000800011a8 <reg_x21_init>:
    800011a8:	f3bd                	bnez	a5,8000110e <reg_x1_init+0x6>
    800011aa:	b4bd                	j	80000c18 <test_end+0x290>
    800011ac:	182f9d77          	0x182f9d77

00000000800011b0 <reg_x22_init>:
    800011b0:	0001                	nop
    800011b2:	0000                	unimp
    800011b4:	0000                	unimp
	...

00000000800011b8 <reg_x23_init>:
	...

00000000800011c0 <reg_x24_init>:
	...

00000000800011c8 <reg_x25_init>:
    800011c8:	9178                	0x9178
    800011ca:	5e9a                	lw	t4,164(sp)
    800011cc:	b821e1c7          	fmsub.s	ft3,ft3,ft2,fs7,unknown

00000000800011d0 <reg_x26_init>:
    800011d0:	ff81                	bnez	a5,800010e8 <fromhost+0xa8>
    800011d2:	ffff                	0xffff
    800011d4:	ffff                	0xffff
    800011d6:	ffff                	0xffff

00000000800011d8 <reg_x27_init>:
    800011d8:	2f42                	fld	ft10,16(sp)
    800011da:	3a1e                	fld	fs4,480(sp)
    800011dc:	5801                	li	a6,-32
    800011de:	daff                	0xdaff

00000000800011e0 <reg_x28_init>:
    800011e0:	dc79                	beqz	s0,800011be <reg_x23_init+0x6>
    800011e2:	c626                	sw	s1,12(sp)
    800011e4:	d914                	sw	a3,48(a0)
    800011e6:	d978                	sw	a4,116(a0)

00000000800011e8 <reg_x29_init>:
    800011e8:	76f4                	ld	a3,232(a3)
    800011ea:	a102                	fsd	ft0,128(sp)
    800011ec:	7944                	ld	s1,176(a0)
    800011ee:	          	0xfbb0f227

00000000800011f0 <reg_x30_init>:
    800011f0:	fbb0                	sd	a2,112(a5)
    800011f2:	8d5f f151 5014      	0x5014f1518d5f

00000000800011f8 <reg_x31_init>:
    800011f8:	0004                	0x4
    800011fa:	0000                	unimp
    800011fc:	0000                	unimp
	...

0000000080001200 <begin_signature>:
    80001200:	790c                	ld	a1,48(a0)
    80001202:	52bc                	lw	a5,96(a3)
    80001204:	3505                	addiw	a0,a0,-31
    80001206:	3456                	fld	fs0,368(sp)

0000000080001208 <reg_x1_output>:
    80001208:	33c8                	fld	fa0,160(a5)
    8000120a:	f7dc2077          	0xf7dc2077
    8000120e:	a892                	fsd	ft4,80(sp)

0000000080001210 <reg_x2_output>:
    80001210:	15ee                	slli	a1,a1,0x3b
    80001212:	edfe                	sd	t6,216(sp)
    80001214:	be69                	j	80000dae <test_end+0x426>
    80001216:	6ec4                	ld	s1,152(a3)

0000000080001218 <reg_x3_output>:
    80001218:	aaae                	fsd	fa1,336(sp)
    8000121a:	c24ffbeb          	0xc24ffbeb
    8000121e:	b82a                	fsd	fa0,48(sp)

0000000080001220 <reg_x4_output>:
    80001220:	f909                	bnez	a0,80001132 <reg_x6_init+0x2>
    80001222:	c4de                	sw	s7,72(sp)
    80001224:	a01f 0839       	0x44380839a01f

0000000080001228 <reg_x5_output>:
    80001228:	4438                	lw	a4,72(s0)
    8000122a:	ee5d                	bnez	a2,800012e8 <reg_x29_output>
    8000122c:	6c45                	lui	s8,0x11
    8000122e:	4558                	lw	a4,12(a0)

0000000080001230 <reg_x6_output>:
    80001230:	55ba                	lw	a1,172(sp)
    80001232:	8d4a                	mv	s10,s2
    80001234:	6c4c                	ld	a1,152(s0)
    80001236:	          	0x311b6f8b

0000000080001238 <reg_x7_output>:
    80001238:	c1df311b          	0xc1df311b
    8000123c:	dc52                	sw	s4,56(sp)
    8000123e:	b4e2                	fsd	fs8,104(sp)

0000000080001240 <reg_x8_output>:
    80001240:	82fbb1e7          	0x82fbb1e7
    80001244:	35ac2197          	auipc	gp,0x35ac2

0000000080001248 <reg_x9_output>:
    80001248:	ce6e                	sw	s11,28(sp)
    8000124a:	86930647          	fmsub.q	fa2,ft6,fs1,fa6,rne
    8000124e:	0c85                	addi	s9,s9,1

0000000080001250 <reg_x10_output>:
    80001250:	9e40                	0x9e40
    80001252:	e9fb584f          	fnmadd.s	fa6,fs6,ft11,ft9,unknown
    80001256:	d79a                	sw	t1,236(sp)

0000000080001258 <reg_x11_output>:
    80001258:	e18c                	sd	a1,0(a1)
    8000125a:	e77e                	sd	t6,392(sp)
    8000125c:	d80bf997          	auipc	s3,0xd80bf

0000000080001260 <reg_x12_output>:
    80001260:	f0312ec7          	fmsub.s	ft9,ft2,ft3,ft10,rdn
    80001264:	72dc                	ld	a5,160(a3)
    80001266:	35b2                	fld	fa1,296(sp)

0000000080001268 <reg_x13_output>:
    80001268:	b8192e3f 3f64c69e 	0x3f64c69eb8192e3f

0000000080001270 <reg_x14_output>:
    80001270:	f791                	bnez	a5,8000117c <reg_x15_init+0x4>
    80001272:	325ee947          	fmsub.d	fs2,ft9,ft5,ft6,unknown
    80001276:	01fc                	addi	a5,sp,204

0000000080001278 <reg_x15_output>:
    80001278:	cb1a                	sw	t1,148(sp)
    8000127a:	6c94                	ld	a3,24(s1)
    8000127c:	3904                	fld	fs1,48(a0)
    8000127e:	96fe                	add	a3,a3,t6

0000000080001280 <reg_x16_output>:
    80001280:	91cd                	srli	a1,a1,0x33
    80001282:	7a82                	ld	s5,32(sp)
    80001284:	2df6                	fld	fs11,344(sp)
    80001286:	f0e2                	sd	s8,96(sp)

0000000080001288 <reg_x17_output>:
    80001288:	d825                	beqz	s0,800011f8 <reg_x31_init>
    8000128a:	90f72adb          	0x90f72adb
    8000128e:	d1f2                	sw	t3,224(sp)

0000000080001290 <reg_x18_output>:
    80001290:	ed05                	bnez	a0,800012c8 <reg_x25_output>
    80001292:	3855                	addiw	a6,a6,-11
    80001294:	1639                	addi	a2,a2,-18
    80001296:	db1e                	sw	t2,180(sp)

0000000080001298 <reg_x19_output>:
    80001298:	f3e97bbf 43b0b56f 	0x43b0b56ff3e97bbf

00000000800012a0 <reg_x20_output>:
    800012a0:	f0a4                	sd	s1,96(s1)
    800012a2:	40c9                	li	ra,18
    800012a4:	0e5dcbfb          	0xe5dcbfb

00000000800012a8 <reg_x21_output>:
    800012a8:	49c0                	lw	s0,20(a1)
    800012aa:	915e94c7          	fmsub.s	fs1,ft9,fs5,fs2,rtz
    800012ae:	1829                	addi	a6,a6,-22

00000000800012b0 <reg_x22_output>:
    800012b0:	f6f031b7          	lui	gp,0xf6f03
    800012b4:	e102a29b          	0xe102a29b

00000000800012b8 <reg_x23_output>:
    800012b8:	78dd                	lui	a7,0xffff7
    800012ba:	902826d7          	0x902826d7
    800012be:	5559                	li	a0,-10

00000000800012c0 <reg_x24_output>:
    800012c0:	dce9c0f7          	0xdce9c0f7
    800012c4:	ede1f39b          	0xede1f39b

00000000800012c8 <reg_x25_output>:
    800012c8:	8a50                	0x8a50
    800012ca:	c7c2                	sw	a6,204(sp)
    800012cc:	ed4d                	bnez	a0,80001386 <test_memory+0x86>
    800012ce:	4a88                	lw	a0,16(a3)

00000000800012d0 <reg_x26_output>:
    800012d0:	7a6d5507          	0x7a6d5507
    800012d4:	d770                	sw	a2,108(a4)
    800012d6:	ac42                	fsd	fa6,24(sp)

00000000800012d8 <reg_x27_output>:
    800012d8:	47b8                	lw	a4,72(a5)
    800012da:	0da5                	addi	s11,s11,9
    800012dc:	cb6d                	beqz	a4,800013ce <test_memory+0xce>
    800012de:	3014                	fld	fa3,32(s0)

00000000800012e0 <reg_x28_output>:
    800012e0:	54f9                	li	s1,-2
    800012e2:	1798550f          	0x1798550f
    800012e6:	ffbe                	sd	a5,504(sp)

00000000800012e8 <reg_x29_output>:
    800012e8:	3b3d                	addiw	s6,s6,-17
    800012ea:	6e86                	ld	t4,64(sp)
    800012ec:	466d                	li	a2,27
    800012ee:	c13e                	sw	a5,128(sp)

00000000800012f0 <reg_x30_output>:
    800012f0:	8716                	mv	a4,t0
    800012f2:	53a1                	li	t2,-24
    800012f4:	adf1                	j	800019d0 <_end+0x2c0>
    800012f6:	c862                	sw	s8,16(sp)

00000000800012f8 <reg_x31_output>:
    800012f8:	18e805f7          	0x18e805f7
    800012fc:	f4f4                	sd	a3,232(s1)
    800012fe:	          	0x67de979b

0000000080001300 <test_memory>:
    80001300:	67de                	ld	a5,464(sp)
    80001302:	ff18                	sd	a4,56(a4)
    80001304:	6546                	ld	a0,80(sp)
    80001306:	eed2                	sd	s4,344(sp)
    80001308:	3890                	fld	fa2,48(s1)
    8000130a:	f8c0                	sd	s0,176(s1)
    8000130c:	889d8d1b          	addiw	s10,s11,-1911
    80001310:	6d4d                	lui	s10,0x13
    80001312:	bdc0                	fsd	fs0,184(a1)
    80001314:	6f2d                	lui	t5,0xb
    80001316:	9227372f          	0x9227372f
    8000131a:	1e70                	addi	a2,sp,828
    8000131c:	a066                	fsd	fs9,0(sp)
    8000131e:	b058                	fsd	fa4,160(s0)
    80001320:	ba5f b16d 0310      	0x310b16dba5f
    80001326:	b9ed                	j	80001020 <tohost+0x20>
    80001328:	dedac977          	0xdedac977
    8000132c:	a2ec                	fsd	fa1,192(a3)
    8000132e:	dcd0                	sw	a2,60(s1)
    80001330:	06d6                	slli	a3,a3,0x15
    80001332:	62f5                	lui	t0,0x1d
    80001334:	f8225a8b          	0xf8225a8b
    80001338:	4438                	lw	a4,72(s0)
    8000133a:	9a85                	andi	a3,a3,-31
    8000133c:	b1dd                	j	80001022 <tohost+0x22>
    8000133e:	bf3ad15b          	0xbf3ad15b
    80001342:	f4e4                	sd	s1,232(s1)
    80001344:	9ef4                	0x9ef4
    80001346:	6b20                	ld	s0,80(a4)
    80001348:	60c5                	lui	ra,0x11
    8000134a:	9849                	andi	s0,s0,-14
    8000134c:	cd26                	sw	s1,152(sp)
    8000134e:	2de8                	fld	fa0,216(a1)
    80001350:	a121                	j	80001758 <_end+0x48>
    80001352:	9161                	srli	a0,a0,0x38
    80001354:	9c3e                	add	s8,s8,a5
    80001356:	5201                	li	tp,-32
    80001358:	35fe                	fld	fa1,504(sp)
    8000135a:	1c6a                	slli	s8,s8,0x3a
    8000135c:	786e                	ld	a6,248(sp)
    8000135e:	57b07103          	0x57b07103
    80001362:	0b7a                	slli	s6,s6,0x1e
    80001364:	94ee4d03          	lbu	s10,-1714(t3)
    80001368:	597ced6f          	jal	s10,800d00fe <__global_pointer$+0xce1ee>
    8000136c:	f744                	sd	s1,168(a4)
    8000136e:	dc6188bb          	0xdc6188bb
    80001372:	df79                	beqz	a4,80001350 <test_memory+0x50>
    80001374:	93d6                	add	t2,t2,s5
    80001376:	6a39                	lui	s4,0xe
    80001378:	1bb1                	addi	s7,s7,-20
    8000137a:	e37a                	sd	t5,384(sp)
    8000137c:	9899                	andi	s1,s1,-26
    8000137e:	255a                	fld	fa0,400(sp)
    80001380:	a006                	fsd	ft1,0(sp)
    80001382:	87f8                	0x87f8
    80001384:	b5e1                	j	8000124c <reg_x9_output+0x4>
    80001386:	1e5c                	addi	a5,sp,820
    80001388:	bb10                	fsd	fa2,48(a4)
    8000138a:	70e1                	lui	ra,0xffff8
    8000138c:	a437c573          	0xa437c573
    80001390:	c00d                	beqz	s0,800013b2 <test_memory+0xb2>
    80001392:	6ae8                	ld	a0,208(a3)
    80001394:	6ab1                	lui	s5,0xc
    80001396:	eaa8                	sd	a0,80(a3)
    80001398:	ac6d                	j	80001652 <test_memory+0x352>
    8000139a:	5851                	li	a6,-12
    8000139c:	0879c6db          	0x879c6db
    800013a0:	cc04                	sw	s1,24(s0)
    800013a2:	e2d9                	bnez	a3,80001428 <test_memory+0x128>
    800013a4:	954a                	add	a0,a0,s2
    800013a6:	3056                	fld	ft0,368(sp)
    800013a8:	e266                	sd	s9,256(sp)
    800013aa:	e488                	sd	a0,8(s1)
    800013ac:	7716                	ld	a4,352(sp)
    800013ae:	5e14                	lw	a3,56(a2)
    800013b0:	df5f 5174 fa82      	0xfa825174df5f
    800013b6:	13d5                	addi	t2,t2,-11
    800013b8:	3bcf9ab3          	0x3bcf9ab3
    800013bc:	521d                	li	tp,-25
    800013be:	d076                	sw	t4,32(sp)
    800013c0:	1379                	addi	t1,t1,-2
    800013c2:	f0fa                	sd	t5,96(sp)
    800013c4:	888a                	mv	a7,sp
    800013c6:	47ea                	lw	a5,152(sp)
    800013c8:	49d2                	lw	s3,20(sp)
    800013ca:	c45f 9945 2511      	0x25119945c45f
    800013d0:	8dd8                	0x8dd8
    800013d2:	bf94                	fsd	fa3,56(a5)
    800013d4:	03d0                	addi	a2,sp,452
    800013d6:	9ed2                	add	t4,t4,s4
    800013d8:	1ce6                	slli	s9,s9,0x39
    800013da:	7e411beb          	0x7e411beb
    800013de:	aeb591a7          	0xaeb591a7
    800013e2:	60ea                	ld	ra,152(sp)
    800013e4:	2d05                	addiw	s10,s10,1
    800013e6:	8a46                	mv	s4,a7
    800013e8:	35dc                	fld	fa5,168(a1)
    800013ea:	7f14                	ld	a3,56(a4)
    800013ec:	894a                	mv	s2,s2
    800013ee:	aa26                	fsd	fs1,272(sp)
    800013f0:	23ba                	fld	ft7,392(sp)
    800013f2:	f4a4                	sd	s1,104(s1)
    800013f4:	b478                	fsd	fa4,232(s0)
    800013f6:	3f32                	fld	ft10,296(sp)
    800013f8:	dca305cf          	0xdca305cf
    800013fc:	714cae9b          	0x714cae9b
    80001400:	e30d                	bnez	a4,80001422 <test_memory+0x122>
    80001402:	8eae6bf7          	0x8eae6bf7
    80001406:	7886                	ld	a7,96(sp)
    80001408:	69ad                	lui	s3,0xb
    8000140a:	6a11                	lui	s4,0x4
    8000140c:	c724                	sw	s1,72(a4)
    8000140e:	3550                	fld	fa2,168(a0)
    80001410:	528d                	li	t0,-29
    80001412:	e8f0                	sd	a2,208(s1)
    80001414:	7e2a                	ld	t3,168(sp)
    80001416:	6aed                	lui	s5,0x1b
    80001418:	6d1a                	ld	s10,384(sp)
    8000141a:	6075e987          	0x6075e987
    8000141e:	85de                	mv	a1,s7
    80001420:	1f5a                	slli	t5,t5,0x36
    80001422:	b834                	fsd	fa3,112(s0)
    80001424:	0ab7e68f          	0xab7e68f
    80001428:	d794                	sw	a3,40(a5)
    8000142a:	9726                	add	a4,a4,s1
    8000142c:	25ea1803          	lh	a6,606(s4) # 425e <_start-0x7fffbda2>
    80001430:	899a                	mv	s3,t1
    80001432:	d606                	sw	ra,44(sp)
    80001434:	3ce9                	addiw	s9,s9,-6
    80001436:	4b04                	lw	s1,16(a4)
    80001438:	f29fe7d7          	0xf29fe7d7
    8000143c:	c193f58b          	0xc193f58b
    80001440:	287a                	fld	fa6,408(sp)
    80001442:	011a                	slli	sp,sp,0x6
    80001444:	0a9ea947          	fmsub.d	fs2,ft9,fs1,ft1,rdn
    80001448:	e182                	sd	zero,192(sp)
    8000144a:	78d204cb          	fnmsub.s	fs1,ft4,fa3,fa5,rne
    8000144e:	79b0                	ld	a2,112(a1)
    80001450:	bdfd6a73          	csrrsi	s4,0xbdf,26
    80001454:	ad8c                	fsd	fa1,24(a1)
    80001456:	5d40                	lw	s0,60(a0)
    80001458:	50fa                	lw	ra,188(sp)
    8000145a:	edb0                	sd	a2,88(a1)
    8000145c:	4e8e                	lw	t4,192(sp)
    8000145e:	0ae8                	addi	a0,sp,348
    80001460:	55ce                	lw	a1,240(sp)
    80001462:	7c98                	ld	a4,56(s1)
    80001464:	4023e587          	0x4023e587
    80001468:	298d                	addiw	s3,s3,3
    8000146a:	3018                	fld	fa4,32(s0)
    8000146c:	e0a9                	bnez	s1,800014ae <test_memory+0x1ae>
    8000146e:	b0e9                	j	80000d38 <test_end+0x3b0>
    80001470:	4d69                	li	s10,26
    80001472:	344032a7          	fsd	ft4,837(zero) # 345 <_start-0x7ffffcbb>
    80001476:	5c78                	lw	a4,124(s0)
    80001478:	21da                	fld	ft3,400(sp)
    8000147a:	731e                	ld	t1,480(sp)
    8000147c:	962735a3          	sd	sp,-1685(a4)
    80001480:	1a96ddbb          	0x1a96ddbb
    80001484:	f294                	sd	a3,32(a3)
    80001486:	a27e                	fsd	ft11,256(sp)
    80001488:	f271                	bnez	a2,8000144c <test_memory+0x14c>
    8000148a:	11d5                	addi	gp,gp,-11
    8000148c:	d356                	sw	s5,164(sp)
    8000148e:	094d                	addi	s2,s2,19
    80001490:	d614                	sw	a3,40(a2)
    80001492:	09e0                	addi	s0,sp,220
    80001494:	7a11f303          	0x7a11f303
    80001498:	5ab6                	lw	s5,108(sp)
    8000149a:	73f8                	ld	a4,224(a5)
    8000149c:	98e1                	andi	s1,s1,-8
    8000149e:	2a4d                	addiw	s4,s4,19
    800014a0:	3229                	addiw	tp,tp,-22
    800014a2:	6ec7ad4b          	fnmsub.q	fs10,fa5,fa2,fa3,rdn
    800014a6:	4a76                	lw	s4,92(sp)
    800014a8:	100a                	c.slli	zero,0x22
    800014aa:	9a50                	0x9a50
    800014ac:	c3dc                	sw	a5,4(a5)
    800014ae:	d49e                	sw	t2,104(sp)
    800014b0:	97d0                	0x97d0
    800014b2:	606d                	c.lui	zero,0x1b
    800014b4:	3029                	0x3029
    800014b6:	d0c9                	beqz	s1,80001438 <test_memory+0x138>
    800014b8:	b4e3fb2b          	0xb4e3fb2b
    800014bc:	94d4                	0x94d4
    800014be:	3ac6                	fld	fs5,112(sp)
    800014c0:	c0ea6d07          	0xc0ea6d07
    800014c4:	53528e0f          	0x53528e0f
    800014c8:	d1bd67db          	0xd1bd67db
    800014cc:	a31d46f3          	0xa31d46f3
    800014d0:	ca3a                	sw	a4,20(sp)
    800014d2:	4914                	lw	a3,16(a0)
    800014d4:	3de60cdb          	0x3de60cdb
    800014d8:	6fef0abf a6cf4f00 	0xa6cf4f006fef0abf
    800014e0:	ccc5                	beqz	s1,80001598 <test_memory+0x298>
    800014e2:	698c                	ld	a1,16(a1)
    800014e4:	315ab86f          	jal	a6,800acff8 <__global_pointer$+0xab0e8>
    800014e8:	018a                	slli	gp,gp,0x2
    800014ea:	dd6c                	sw	a1,124(a0)
    800014ec:	1586                	slli	a1,a1,0x21
    800014ee:	0db6153f 8b92c9f0 	0x8b92c9f00db6153f
    800014f6:	7b66                	ld	s6,120(sp)
    800014f8:	315a                	fld	ft2,432(sp)
    800014fa:	fd8c                	sd	a1,56(a1)
    800014fc:	a056                	fsd	fs5,0(sp)
    800014fe:	40d87e8b          	0x40d87e8b
    80001502:	9654                	0x9654
    80001504:	7879                	lui	a6,0xffffe
    80001506:	45f8                	lw	a4,76(a1)
    80001508:	a761                	j	80001c90 <_end+0x580>
    8000150a:	4c0d                	li	s8,3
    8000150c:	df32                	sw	a2,188(sp)
    8000150e:	3fec6b53          	0x3fec6b53
    80001512:	561e                	lw	a2,228(sp)
    80001514:	e6a1                	bnez	a3,8000155c <test_memory+0x25c>
    80001516:	6ad1                	lui	s5,0x14
    80001518:	dfc8                	sw	a0,60(a5)
    8000151a:	6b38                	ld	a4,80(a4)
    8000151c:	8fc2                	mv	t6,a6
    8000151e:	6515                	lui	a0,0x5
    80001520:	0639                	addi	a2,a2,14
    80001522:	8928                	0x8928
    80001524:	b9da                	fsd	fs6,240(sp)
    80001526:	a2d9                	j	800016ec <test_memory+0x3ec>
    80001528:	35c816cf          	0x35c816cf
    8000152c:	ecca                	sd	s2,88(sp)
    8000152e:	5501                	li	a0,-32
    80001530:	c64c6047          	fmsub.q	ft0,fs8,ft4,fs8,unknown
    80001534:	36a8                	fld	fa0,104(a3)
    80001536:	fdb0                	sd	a2,120(a1)
    80001538:	0838                	addi	a4,sp,24
    8000153a:	7490                	ld	a2,40(s1)
    8000153c:	9c9e                	add	s9,s9,t2
    8000153e:	0611                	addi	a2,a2,4
    80001540:	53e6                	lw	t2,120(sp)
    80001542:	57ceea97          	auipc	s5,0x57cee
    80001546:	feac                	sd	a1,120(a3)
    80001548:	c0e5                	beqz	s1,80001628 <test_memory+0x328>
    8000154a:	eeea                	sd	s10,344(sp)
    8000154c:	15c492d3          	0x15c492d3
    80001550:	8475                	srai	s0,s0,0x1d
    80001552:	eec6                	sd	a7,344(sp)
    80001554:	6922                	ld	s2,8(sp)
    80001556:	0de0                	addi	s0,sp,732
    80001558:	69cb66bf 9c91d93c 	0x9c91d93c69cb66bf
    80001560:	1760                	addi	s0,sp,940
    80001562:	91b5                	srli	a1,a1,0x2d
    80001564:	d74cfba7          	0xd74cfba7
    80001568:	1ada                	slli	s5,s5,0x36
    8000156a:	466c                	lw	a1,76(a2)
    8000156c:	740c                	ld	a1,40(s0)
    8000156e:	ced6                	sw	s5,92(sp)
    80001570:	dcea                	sw	s10,120(sp)
    80001572:	5602                	lw	a2,32(sp)
    80001574:	86da                	mv	a3,s6
    80001576:	c546                	sw	a7,136(sp)
    80001578:	59d6                	lw	s3,116(sp)
    8000157a:	2cf5                	addiw	s9,s9,29
    8000157c:	d55f b851 c12c      	0xc12cb851d55f
    80001582:	7ffe                	ld	t6,504(sp)
    80001584:	9e834b4b          	fnmsub.q	fs6,ft6,fs0,fs3,rmm
    80001588:	7e88                	ld	a0,56(a3)
    8000158a:	8b90                	0x8b90
    8000158c:	93df a231 c95c      	0xc95ca23193df
    80001592:	3ad8                	fld	fa4,176(a3)
    80001594:	4a6e                	lw	s4,216(sp)
    80001596:	e98c                	sd	a1,16(a1)
    80001598:	4ad8                	lw	a4,20(a3)
    8000159a:	954d                	srai	a0,a0,0x33
    8000159c:	58c1                	li	a7,-16
    8000159e:	4595                	li	a1,5
    800015a0:	2152                	fld	ft2,272(sp)
    800015a2:	c1a0                	sw	s0,64(a1)
    800015a4:	67b1                	lui	a5,0xc
    800015a6:	97a5                	srai	a5,a5,0x29
    800015a8:	9aec                	0x9aec
    800015aa:	e05c                	sd	a5,128(s0)
    800015ac:	38f2                	fld	fa7,312(sp)
    800015ae:	fd486d8f          	0xfd486d8f
    800015b2:	0dd5                	addi	s11,s11,21
    800015b4:	06d2                	slli	a3,a3,0x14
    800015b6:	7dee                	ld	s11,248(sp)
    800015b8:	a685                	j	80001918 <_end+0x208>
    800015ba:	36a0                	fld	fs0,104(a3)
    800015bc:	ed90                	sd	a2,24(a1)
    800015be:	53e15b33          	0x53e15b33
    800015c2:	daa6                	sw	s1,116(sp)
    800015c4:	bb6a                	fsd	fs10,432(sp)
    800015c6:	bdbc                	fsd	fa5,120(a1)
    800015c8:	74a9                	lui	s1,0xfffea
    800015ca:	b0b5                	j	80000e36 <test_end+0x4ae>
    800015cc:	9f99                	subw	a5,a5,a4
    800015ce:	0f91                	addi	t6,t6,4
    800015d0:	b46c                	fsd	fa1,232(s0)
    800015d2:	ddcdbd63          	0xddcdbd63
    800015d6:	b24d                	j	80000f78 <test_end+0x5f0>
    800015d8:	6582                	ld	a1,0(sp)
    800015da:	c09a                	sw	t1,64(sp)
    800015dc:	3ae9                	addiw	s5,s5,-6
    800015de:	bd69799b          	0xbd69799b
    800015e2:	191729f3          	csrrs	s3,0x191,a4
    800015e6:	a306                	fsd	ft1,384(sp)
    800015e8:	f686                	sd	ra,360(sp)
    800015ea:	7c61804f          	0x7c61804f
    800015ee:	8481                	c.srai64	s1
    800015f0:	b8adf74b          	fnmsub.s	fa4,fs11,fa0,fs7
    800015f4:	467d                	li	a2,31
    800015f6:	24d70407          	0x24d70407
    800015fa:	2f64e84b          	fnmsub.q	fa6,fs1,fs6,ft5,unknown
    800015fe:	b4d2                	fsd	fs4,104(sp)
    80001600:	177f                	0x177f
    80001602:	29ec3307          	fld	ft6,670(s8) # 1129e <_start-0x7ffeed62>
    80001606:	11ebbbe7          	0x11ebbbe7
    8000160a:	a3d2                	fsd	fs4,448(sp)
    8000160c:	ab494e87          	flq	ft9,-1356(s2)
    80001610:	efac                	sd	a1,88(a5)
    80001612:	597e                	lw	s2,252(sp)
    80001614:	e3d1                	bnez	a5,80001698 <test_memory+0x398>
    80001616:	ca3c                	sw	a5,80(a2)
    80001618:	146bce6f          	jal	t3,800bd75e <__global_pointer$+0xbb84e>
    8000161c:	fb89                	bnez	a5,8000152e <test_memory+0x22e>
    8000161e:	bac6                	fsd	fa7,368(sp)
    80001620:	8d3c                	0x8d3c
    80001622:	2c340fe7          	jalr	t6,707(s0)
    80001626:	6f68f0b3          	0x6f68f0b3
    8000162a:	827ee3c7          	fmsub.d	ft7,ft9,ft7,fa6,unknown
    8000162e:	2e98                	fld	fa4,24(a3)
    80001630:	79804d1b          	0x79804d1b
    80001634:	249aab0b          	0x249aab0b
    80001638:	d31cd19b          	0xd31cd19b
    8000163c:	dc52                	sw	s4,56(sp)
    8000163e:	c671                	beqz	a2,8000170a <loop_count+0xa>
    80001640:	64c7e7bf a2d901cc 	0xa2d901cc64c7e7bf
    80001648:	7a4baf2f          	0x7a4baf2f
    8000164c:	646e                	ld	s0,216(sp)
    8000164e:	e158                	sd	a4,128(a0)
    80001650:	5394b967          	0x5394b967
    80001654:	68c65a43          	fmadd.s	fs4,fa2,fa2,fa3,unknown
    80001658:	eb90                	sd	a2,16(a5)
    8000165a:	b5b37623          	0xb5b37623
    8000165e:	5796                	lw	a5,100(sp)
    80001660:	caa6                	sw	s1,84(sp)
    80001662:	0f32                	slli	t5,t5,0xc
    80001664:	8ea6                	mv	t4,s1
    80001666:	8b54                	0x8b54
    80001668:	3995                	addiw	s3,s3,-27
    8000166a:	568c                	lw	a1,40(a3)
    8000166c:	d8dce2af          	0xd8dce2af
    80001670:	5d22                	lw	s10,40(sp)
    80001672:	3ee6763b          	0x3ee6763b
    80001676:	b7f8                	fsd	fa4,232(a5)
    80001678:	7fe4                	ld	s1,248(a5)
    8000167a:	10ea                	slli	ra,ra,0x3a
    8000167c:	f62f7d0f          	0xf62f7d0f
    80001680:	0099                	addi	ra,ra,6
    80001682:	72d2                	ld	t0,304(sp)
    80001684:	f97d6747          	fmsub.s	fa4,fs10,fs7,ft11,unknown
    80001688:	9f95                	subw	a5,a5,a3
    8000168a:	20521383          	lh	t2,517(tp) # 205 <_start-0x7ffffdfb>
    8000168e:	7425b27b          	0x7425b27b
    80001692:	4c32782f          	0x4c32782f
    80001696:	5b76                	lw	s6,124(sp)
    80001698:	8115                	srli	a0,a0,0x5
    8000169a:	79be                	ld	s3,488(sp)
    8000169c:	5fc973bf b622d7c0 	0xb622d7c05fc973bf
    800016a4:	cf48                	sw	a0,28(a4)
    800016a6:	028c                	addi	a1,sp,320
    800016a8:	8b4c                	0x8b4c
    800016aa:	9990                	0x9990
    800016ac:	bd6fd797          	auipc	a5,0xbd6fd
    800016b0:	f209                	bnez	a2,800015b2 <test_memory+0x2b2>
    800016b2:	54b5                	li	s1,-19
    800016b4:	81bc                	0x81bc
    800016b6:	e902e3eb          	0xe902e3eb
    800016ba:	318dde17          	auipc	t3,0x318dd
    800016be:	3c5f 8e47 79a9      	0x79a98e473c5f
    800016c4:	07da                	slli	a5,a5,0x16
    800016c6:	2375                	addiw	t1,t1,29
    800016c8:	407e                	0x407e
    800016ca:	f4ca                	sd	s2,104(sp)
    800016cc:	353f8c77          	0x353f8c77
    800016d0:	36ae                	fld	fa3,232(sp)
    800016d2:	a1e9d14b          	fnmsub.s	ft2,fs3,ft10,fs4,unknown
    800016d6:	ccd5                	beqz	s1,80001792 <_end+0x82>
    800016d8:	c170                	sw	a2,68(a0)
    800016da:	efe4                	sd	s1,216(a5)
    800016dc:	7f3e                	ld	t5,488(sp)
    800016de:	df79                	beqz	a4,800016bc <test_memory+0x3bc>
    800016e0:	cee1                	beqz	a3,800017b8 <_end+0xa8>
    800016e2:	9475                	srai	s0,s0,0x3d
    800016e4:	afe3ee3b          	0xafe3ee3b
    800016e8:	ad10                	fsd	fa2,24(a0)
    800016ea:	8434                	0x8434
    800016ec:	8f1c                	0x8f1c
    800016ee:	53fa                	lw	t2,188(sp)
    800016f0:	d2b8                	sw	a4,96(a3)
    800016f2:	12a2                	slli	t0,t0,0x28
    800016f4:	387a                	fld	fa6,440(sp)
    800016f6:	bc869283          	lh	t0,-1080(a3) # fffffffffffe9bc8 <__global_pointer$+0xffffffff7ffe7cb8>
    800016fa:	b01d                	j	80000f20 <test_end+0x598>
    800016fc:	0105                	addi	sp,sp,1
    800016fe:	a9a1                	j	80001b56 <_end+0x446>

0000000080001700 <loop_count>:
    80001700:	0040                	addi	s0,sp,4
	...

Disassembly of section .riscv.attributes:

0000000000000000 <.riscv.attributes>:
   0:	2d41                	addiw	s10,s10,16
   2:	0000                	unimp
   4:	7200                	ld	s0,32(a2)
   6:	7369                	lui	t1,0xffffa
   8:	01007663          	bgeu	zero,a6,14 <_start-0x7fffffec>
   c:	00000023          	sb	zero,0(zero) # 0 <_start-0x80000000>
  10:	7205                	lui	tp,0xfffe1
  12:	3676                	fld	fa2,376(sp)
  14:	6934                	ld	a3,80(a0)
  16:	7032                	0x7032
  18:	5f30                	lw	a2,120(a4)
  1a:	326d                	addiw	tp,tp,-5
  1c:	3070                	fld	fa2,224(s0)
  1e:	615f 7032 5f30      	0x5f307032615f
  24:	3266                	fld	ft4,120(sp)
  26:	3070                	fld	fa2,224(s0)
  28:	645f 7032 0030      	0x307032645f
