
test.elf:     file format elf64-littleriscv


Disassembly of section .text.init:

0000000080000000 <_start>:
    80000000:	0580006f          	j	80000058 <reset_vector>

0000000080000004 <trap_vector>:
    80000004:	34202f73          	csrr	t5,mcause
    80000008:	00800f93          	li	t6,8
    8000000c:	05ff0063          	beq	t5,t6,8000004c <write_tohost>
    80000010:	00900f93          	li	t6,9
    80000014:	03ff0c63          	beq	t5,t6,8000004c <write_tohost>
    80000018:	00b00f93          	li	t6,11
    8000001c:	03ff0863          	beq	t5,t6,8000004c <write_tohost>
    80000020:	00000f13          	li	t5,0
    80000024:	000f0463          	beqz	t5,8000002c <trap_vector+0x28>
    80000028:	000f0067          	jr	t5
    8000002c:	34202f73          	csrr	t5,mcause
    80000030:	000f5463          	bgez	t5,80000038 <handle_exception>
    80000034:	0140006f          	j	80000048 <other_exception>

0000000080000038 <handle_exception>:
    80000038:	34102e73          	csrr	t3,mepc
    8000003c:	004e0e13          	addi	t3,t3,4
    80000040:	341e1073          	csrw	mepc,t3
    80000044:	30200073          	mret

0000000080000048 <other_exception>:
    80000048:	5391e193          	ori	gp,gp,1337

000000008000004c <write_tohost>:
    8000004c:	00001f17          	auipc	t5,0x1
    80000050:	fa3f2a23          	sw	gp,-76(t5) # 80001000 <tohost>
    80000054:	ff9ff06f          	j	8000004c <write_tohost>

0000000080000058 <reset_vector>:
    80000058:	f1402573          	csrr	a0,mhartid
    8000005c:	00051063          	bnez	a0,8000005c <reset_vector+0x4>
    80000060:	00000297          	auipc	t0,0x0
    80000064:	01028293          	addi	t0,t0,16 # 80000070 <reset_vector+0x18>
    80000068:	30529073          	csrw	mtvec,t0
    8000006c:	18005073          	csrwi	satp,0
    80000070:	00000297          	auipc	t0,0x0
    80000074:	01c28293          	addi	t0,t0,28 # 8000008c <reset_vector+0x34>
    80000078:	30529073          	csrw	mtvec,t0
    8000007c:	fff00293          	li	t0,-1
    80000080:	3b029073          	csrw	pmpaddr0,t0
    80000084:	01f00293          	li	t0,31
    80000088:	3a029073          	csrw	pmpcfg0,t0
    8000008c:	00000297          	auipc	t0,0x0
    80000090:	01828293          	addi	t0,t0,24 # 800000a4 <reset_vector+0x4c>
    80000094:	30529073          	csrw	mtvec,t0
    80000098:	30205073          	csrwi	medeleg,0
    8000009c:	30305073          	csrwi	mideleg,0
    800000a0:	30405073          	csrwi	mie,0
    800000a4:	00000193          	li	gp,0
    800000a8:	00000297          	auipc	t0,0x0
    800000ac:	f5c28293          	addi	t0,t0,-164 # 80000004 <trap_vector>
    800000b0:	30529073          	csrw	mtvec,t0
    800000b4:	00100513          	li	a0,1
    800000b8:	01f51513          	slli	a0,a0,0x1f
    800000bc:	00055863          	bgez	a0,800000cc <reset_vector+0x74>
    800000c0:	0ff0000f          	fence
    800000c4:	00100193          	li	gp,1
    800000c8:	00000073          	ecall
    800000cc:	00000293          	li	t0,0
    800000d0:	00028e63          	beqz	t0,800000ec <reset_vector+0x94>
    800000d4:	10529073          	csrw	stvec,t0
    800000d8:	0000b2b7          	lui	t0,0xb
    800000dc:	1092829b          	addiw	t0,t0,265
    800000e0:	30229073          	csrw	medeleg,t0
    800000e4:	30202373          	csrr	t1,medeleg
    800000e8:	f66290e3          	bne	t0,t1,80000048 <other_exception>
    800000ec:	30005073          	csrwi	mstatus,0
    800000f0:	00000297          	auipc	t0,0x0
    800000f4:	01428293          	addi	t0,t0,20 # 80000104 <reset_vector+0xac>
    800000f8:	34129073          	csrw	mepc,t0
    800000fc:	f1402573          	csrr	a0,mhartid
    80000100:	30200073          	mret
    80000104:	0180006f          	j	8000011c <test_start>

0000000080000108 <crash_backward>:
    80000108:	0ff0000f          	fence
    8000010c:	00018063          	beqz	gp,8000010c <crash_backward+0x4>
    80000110:	00119193          	slli	gp,gp,0x1
    80000114:	0011e193          	ori	gp,gp,1
    80000118:	00000073          	ecall

000000008000011c <test_start>:
    8000011c:	00001f97          	auipc	t6,0x1
    80000120:	fe4f8f93          	addi	t6,t6,-28 # 80001100 <hidden_data>
    80000124:	000fb003          	ld	zero,0(t6)
    80000128:	008fb083          	ld	ra,8(t6)
    8000012c:	010fb103          	ld	sp,16(t6)
    80000130:	018fb183          	ld	gp,24(t6)
    80000134:	020fb203          	ld	tp,32(t6)
    80000138:	028fb283          	ld	t0,40(t6)
    8000013c:	030fb303          	ld	t1,48(t6)
    80000140:	038fb383          	ld	t2,56(t6)
    80000144:	040fb403          	ld	s0,64(t6)
    80000148:	048fb483          	ld	s1,72(t6)
    8000014c:	050fb503          	ld	a0,80(t6)
    80000150:	058fb583          	ld	a1,88(t6)
    80000154:	060fb603          	ld	a2,96(t6)
    80000158:	068fb683          	ld	a3,104(t6)
    8000015c:	070fb703          	ld	a4,112(t6)
    80000160:	078fb783          	ld	a5,120(t6)
    80000164:	080fb803          	ld	a6,128(t6)
    80000168:	088fb883          	ld	a7,136(t6)
    8000016c:	090fb903          	ld	s2,144(t6)
    80000170:	098fb983          	ld	s3,152(t6)
    80000174:	0a0fba03          	ld	s4,160(t6)
    80000178:	0a8fba83          	ld	s5,168(t6)
    8000017c:	0b0fbb03          	ld	s6,176(t6)
    80000180:	0b8fbb83          	ld	s7,184(t6)
    80000184:	0c0fbc03          	ld	s8,192(t6)
    80000188:	0c8fbc83          	ld	s9,200(t6)
    8000018c:	0d0fbd03          	ld	s10,208(t6)
    80000190:	0d8fbd83          	ld	s11,216(t6)
    80000194:	0e0fbe03          	ld	t3,224(t6)
    80000198:	0e8fbe83          	ld	t4,232(t6)
    8000019c:	0f0fbf03          	ld	t5,240(t6)
    800001a0:	0f8fbf83          	ld	t6,248(t6)
    800001a4:	0040006f          	j	800001a8 <pseg_0>

00000000800001a8 <pseg_0>:
    800001a8:	00100313          	li	t1,1
    800001ac:	03065713          	srli	a4,a2,0x30
    800001b0:	026d5eb3          	divu	t4,s10,t1
    800001b4:	41fe5f33          	sra	t5,t3,t6
    800001b8:	0201b933          	mulhu	s2,gp,zero
    800001bc:	bce00693          	li	a3,-1074
    800001c0:	00058b93          	mv	s7,a1
    800001c4:	00001117          	auipc	sp,0x1
    800001c8:	28610113          	addi	sp,sp,646 # 8000144a <test_memory+0x14a>
    800001cc:	00000a13          	li	s4,0
    800001d0:	f7f00993          	li	s3,-129
    800001d4:	01318b3b          	addw	s6,gp,s3
    800001d8:	02d6f3bb          	remuw	t2,a3,a3
    800001dc:	c9e18593          	addi	a1,gp,-866 # 80001bae <_end+0x49e>
    800001e0:	14514203          	lbu	tp,325(sp)
    800001e4:	8525b183          	ld	gp,-1966(a1)
    800001e8:	0339b2b3          	mulhu	t0,s3,s3
    800001ec:	c6618413          	addi	s0,gp,-922 # 80001b76 <_end+0x466>
    800001f0:	03ef1b33          	mulh	s6,t5,t5
    800001f4:	dcd00493          	li	s1,-563
    800001f8:	03f31313          	slli	t1,t1,0x3f
    800001fc:	ce618713          	addi	a4,gp,-794 # 80001bf6 <_end+0x4e6>
    80000200:	01502833          	sgtz	a6,s5
    80000204:	00100593          	li	a1,1
    80000208:	03f59593          	slli	a1,a1,0x3f
    8000020c:	000b8f93          	mv	t6,s7
    80000210:	00001c17          	auipc	s8,0x1
    80000214:	2edc0c13          	addi	s8,s8,749 # 800014fd <test_memory+0x1fd>
    80000218:	98040783          	lb	a5,-1664(s0)
    8000021c:	00100993          	li	s3,1
    80000220:	a3676e03          	lwu	t3,-1482(a4)
    80000224:	00001697          	auipc	a3,0x1
    80000228:	dcb68693          	addi	a3,a3,-565 # 80000fef <test_end+0x65f>
    8000022c:	01fadcb3          	srl	s9,s5,t6
    80000230:	3b7690a3          	sh	s7,929(a3)
    80000234:	0031bf33          	sltu	t5,gp,gp
    80000238:	009488bb          	addw	a7,s1,s1
    8000023c:	eebc2503          	lw	a0,-277(s8)
    80000240:	fff00613          	li	a2,-1
    80000244:	fff00393          	li	t2,-1
    80000248:	00664633          	xor	a2,a2,t1
    8000024c:	025cc933          	div	s2,s9,t0
    80000250:	00b3c3b3          	xor	t2,t2,a1
    80000254:	03f99993          	slli	s3,s3,0x3f
    80000258:	00000493          	li	s1,0
    8000025c:	007b71b3          	and	gp,s6,t2
    80000260:	00001117          	auipc	sp,0x1
    80000264:	d3f10113          	addi	sp,sp,-705 # 80000f9f <test_end+0x60f>
    80000268:	00000513          	li	a0,0
    8000026c:	d6500c13          	li	s8,-667
    80000270:	00100893          	li	a7,1
    80000274:	018c6fb3          	or	t6,s8,s8
    80000278:	00000a93          	li	s5,0
    8000027c:	00006433          	or	s0,zero,zero
    80000280:	fff00293          	li	t0,-1
    80000284:	0132c2b3          	xor	t0,t0,s3
    80000288:	00001e17          	auipc	t3,0x1
    8000028c:	aabe0e13          	addi	t3,t3,-1365 # 80000d33 <test_end+0x3a3>
    80000290:	0050f833          	and	a6,ra,t0
    80000294:	50715e83          	lhu	t4,1287(sp)
    80000298:	03f89893          	slli	a7,a7,0x3f
    8000029c:	00001c17          	auipc	s8,0x1
    800002a0:	0b6c0c13          	addi	s8,s8,182 # 80001352 <test_memory+0x52>
    800002a4:	66fe24a3          	sw	a5,1641(t3)
    800002a8:	fff00693          	li	a3,-1
    800002ac:	01386b33          	or	s6,a6,s3
    800002b0:	00b1e233          	or	tp,gp,a1
    800002b4:	21100913          	li	s2,529
    800002b8:	e43258e3          	bge	tp,gp,80000108 <crash_backward>
    800002bc:	42e90f13          	addi	t5,s2,1070
    800002c0:	6b2f4e63          	blt	t5,s2,8000097c <crash_forward>
    800002c4:	24ac5f83          	lhu	t6,586(s8)
    800002c8:	00cbfdb3          	and	s11,s7,a2
    800002cc:	02f7c0b3          	div	ra,a5,a5
    800002d0:	0116c6b3          	xor	a3,a3,a7
    800002d4:	00d57733          	and	a4,a0,a3
    800002d8:	00040c93          	mv	s9,s0
    800002dc:	000c8b93          	mv	s7,s9
    800002e0:	416b51bb          	sraw	gp,s6,s6
    800002e4:	037bb933          	mulhu	s2,s7,s7
    800002e8:	00001f97          	auipc	t6,0x1
    800002ec:	de6f8f93          	addi	t6,t6,-538 # 800010ce <fromhost+0x8e>
    800002f0:	4ce00393          	li	t2,1230
    800002f4:	00656d33          	or	s10,a0,t1
    800002f8:	33200813          	li	a6,818
    800002fc:	02006f3b          	remw	t5,zero,zero
    80000300:	41965b33          	sra	s6,a2,s9
    80000304:	98b18213          	addi	tp,gp,-1653 # 8000189b <_end+0x18b>
    80000308:	011767b3          	or	a5,a4,a7
    8000030c:	00001a17          	auipc	s4,0x1
    80000310:	4b3a0a13          	addi	s4,s4,1203 # 800017bf <_end+0xaf>
    80000314:	17900993          	li	s3,377
    80000318:	00001c17          	auipc	s8,0x1
    8000031c:	368c0c13          	addi	s8,s8,872 # 80001680 <test_memory+0x380>
    80000320:	d6700413          	li	s0,-665
    80000324:	573fce03          	lbu	t3,1395(t6)
    80000328:	00001117          	auipc	sp,0x1
    8000032c:	3ab10113          	addi	sp,sp,939 # 800016d3 <test_memory+0x3d3>
    80000330:	0073853b          	addw	a0,t2,t2
    80000334:	a7500f13          	li	t5,-1419
    80000338:	cc8a17a3          	sh	s0,-817(s4)
    8000033c:	ada00e93          	li	t4,-1318
    80000340:	03399ab3          	mulh	s5,s3,s3
    80000344:	b6d22583          	lw	a1,-1171(tp) # fffffffffffffb6d <__global_pointer$+0xffffffff7fffdc5d>
    80000348:	41580493          	addi	s1,a6,1045
    8000034c:	41c180bb          	subw	ra,gp,t3
    80000350:	00ca9a33          	sll	s4,s5,a2
    80000354:	e2ac0b23          	sb	a0,-458(s8)
    80000358:	00000393          	li	t2,0
    8000035c:	4083d51b          	sraiw	a0,t2,0x8
    80000360:	03d402b3          	mul	t0,s0,t4
    80000364:	03ef4b3b          	divw	s6,t5,t5
    80000368:	03d561bb          	remw	gp,a0,t4
    8000036c:	e0313aa3          	sd	gp,-491(sp)
    80000370:	42600c93          	li	s9,1062
    80000374:	00f7e933          	or	s2,a5,a5
    80000378:	00000f93          	li	t6,0
    8000037c:	60f77063          	bgeu	a4,a5,8000097c <crash_forward>
    80000380:	4adc8b93          	addi	s7,s9,1197
    80000384:	e3400913          	li	s2,-460
    80000388:	ae218193          	addi	gp,gp,-1310 # 800019f2 <_end+0x2e2>
    8000038c:	40318cb3          	sub	s9,gp,gp
    80000390:	00000293          	li	t0,0
    80000394:	02b580b3          	mul	ra,a1,a1
    80000398:	5b500113          	li	sp,1461
    8000039c:	c2900b13          	li	s6,-983
    800003a0:	33c0bd93          	sltiu	s11,ra,828
    800003a4:	a7e1b603          	ld	a2,-1410(gp) # 8000198e <_end+0x27e>
    800003a8:	00000e13          	li	t3,0
    800003ac:	fff90313          	addi	t1,s2,-1
    800003b0:	5e900a93          	li	s5,1513
    800003b4:	015a8fb3          	add	t6,s5,s5
    800003b8:	9b818813          	addi	a6,gp,-1608 # 800018c8 <_end+0x1b8>
    800003bc:	38210b93          	addi	s7,sp,898
    800003c0:	77100693          	li	a3,1905
    800003c4:	00c00393          	li	t2,12
    800003c8:	00bb7f33          	and	t5,s6,a1
    800003cc:	5bc2c863          	blt	t0,t3,8000097c <crash_forward>
    800003d0:	00001217          	auipc	tp,0x1
    800003d4:	20920213          	addi	tp,tp,521 # 800015d9 <test_memory+0x2d9>
    800003d8:	d37108e3          	beq	sp,s7,80000108 <crash_backward>
    800003dc:	00001797          	auipc	a5,0x1
    800003e0:	09578793          	addi	a5,a5,149 # 80001471 <test_memory+0x171>
    800003e4:	007694bb          	sllw	s1,a3,t2
    800003e8:	db700d13          	li	s10,-585
    800003ec:	bd084983          	lbu	s3,-1072(a6)
    800003f0:	03ab473b          	divw	a4,s6,s10
    800003f4:	e5723c03          	ld	s8,-425(tp) # fffffffffffffe57 <__global_pointer$+0xffffffff7fffdf47>
    800003f8:	05100893          	li	a7,81
    800003fc:	1007ce83          	lbu	t4,256(a5)
    80000400:	4ba88593          	addi	a1,a7,1210
    80000404:	56b8dc63          	bge	a7,a1,8000097c <crash_forward>
    80000408:	00100793          	li	a5,1
    8000040c:	00098693          	mv	a3,s3
    80000410:	00001717          	auipc	a4,0x1
    80000414:	1fb70713          	addi	a4,a4,507 # 8000160b <test_memory+0x30b>
    80000418:	00100f93          	li	t6,1
    8000041c:	b3900c93          	li	s9,-1223
    80000420:	5c700a93          	li	s5,1479
    80000424:	89c00613          	li	a2,-1892
    80000428:	be300e13          	li	t3,-1053
    8000042c:	d0300d93          	li	s11,-765
    80000430:	00001497          	auipc	s1,0x1
    80000434:	33148493          	addi	s1,s1,817 # 80001761 <_end+0x51>
    80000438:	009a9d1b          	slliw	s10,s5,0x9
    8000043c:	03f79793          	slli	a5,a5,0x3f
    80000440:	b4ee0993          	addi	s3,t3,-1202
    80000444:	00ca88bb          	addw	a7,s5,a2
    80000448:	00001417          	auipc	s0,0x1
    8000044c:	c9b40413          	addi	s0,s0,-869 # 800010e3 <fromhost+0xa3>
    80000450:	00001b17          	auipc	s6,0x1
    80000454:	ef0b0b13          	addi	s6,s6,-272 # 80001340 <test_memory+0x40>
    80000458:	00001397          	auipc	t2,0x1
    8000045c:	afc38393          	addi	t2,t2,-1284 # 80000f54 <test_end+0x5c4>
    80000460:	05670f03          	lb	t5,86(a4)
    80000464:	00068a13          	mv	s4,a3
    80000468:	d32497a3          	sh	s2,-721(s1)
    8000046c:	03fe45b3          	div	a1,t3,t6
    80000470:	226b1d23          	sh	t1,570(s6)
    80000474:	03ff9f93          	slli	t6,t6,0x3f
    80000478:	01ee111b          	slliw	sp,t3,0x1e
    8000047c:	50001063          	bnez	zero,8000097c <crash_forward>
    80000480:	7a039223          	sh	zero,1956(t2)
    80000484:	fff00b93          	li	s7,-1
    80000488:	030760bb          	remw	ra,a4,a6
    8000048c:	fff00813          	li	a6,-1
    80000490:	95f18a93          	addi	s5,gp,-1697 # 8000186f <_end+0x15f>
    80000494:	b0800193          	li	gp,-1272
    80000498:	01f84833          	xor	a6,a6,t6
    8000049c:	fe100313          	li	t1,-31
    800004a0:	01077c33          	and	s8,a4,a6
    800004a4:	00a5161b          	slliw	a2,a0,0xa
    800004a8:	c31a81a3          	sb	a7,-989(s5)
    800004ac:	00fbcbb3          	xor	s7,s7,a5
    800004b0:	01fc62b3          	or	t0,s8,t6
    800004b4:	00000893          	li	a7,0
    800004b8:	57442ea3          	sw	s4,1405(s0)
    800004bc:	4061d533          	sra	a0,gp,t1
    800004c0:	017d7eb3          	and	t4,s10,s7
    800004c4:	00000d13          	li	s10,0
    800004c8:	0063d0bb          	srlw	ra,t2,t1
    800004cc:	90b00413          	li	s0,-1781
    800004d0:	f1200513          	li	a0,-238
    800004d4:	00070493          	mv	s1,a4
    800004d8:	4b46c263          	blt	a3,s4,8000097c <crash_forward>
    800004dc:	f8a00113          	li	sp,-118
    800004e0:	ccf18193          	addi	gp,gp,-817 # 80001bdf <_end+0x4cf>
    800004e4:	00001b17          	auipc	s6,0x1
    800004e8:	ee8b0b13          	addi	s6,s6,-280 # 800013cc <test_memory+0xcc>
    800004ec:	00243633          	sltu	a2,s0,sp
    800004f0:	a1d18f23          	sb	t4,-1506(gp) # 8000192e <_end+0x21e>
    800004f4:	03bcd23b          	divuw	tp,s9,s11
    800004f8:	00001a97          	auipc	s5,0x1
    800004fc:	de9a8a93          	addi	s5,s5,-535 # 800012e1 <reg_x28_output+0x1>
    80000500:	a6700a13          	li	s4,-1433
    80000504:	00f8e933          	or	s2,a7,a5
    80000508:	136b4383          	lbu	t2,310(s6)
    8000050c:	9f400713          	li	a4,-1548
    80000510:	2d000e13          	li	t3,720
    80000514:	363a9f03          	lh	t5,867(s5)
    80000518:	03a49c33          	mulh	s8,s1,s10
    8000051c:	02e70333          	mul	t1,a4,a4
    80000520:	014a183b          	sllw	a6,s4,s4
    80000524:	01c555b3          	srl	a1,a0,t3
    80000528:	0031c1b3          	xor	gp,gp,gp
    8000052c:	00048993          	mv	s3,s1
    80000530:	9df18693          	addi	a3,gp,-1569 # 800018ef <_end+0x1df>
    80000534:	00000d13          	li	s10,0
    80000538:	41bd8433          	sub	s0,s11,s11
    8000053c:	bd34c6e3          	blt	s1,s3,80000108 <crash_backward>
    80000540:	c716b883          	ld	a7,-911(a3)
    80000544:	00100f13          	li	t5,1
    80000548:	a0e00213          	li	tp,-1522
    8000054c:	c3618913          	addi	s2,gp,-970 # 80001b46 <_end+0x436>
    80000550:	03ff1f13          	slli	t5,t5,0x3f
    80000554:	00a5563b          	srlw	a2,a0,a0
    80000558:	06c00813          	li	a6,108
    8000055c:	e5518b13          	addi	s6,gp,-427 # 80001d65 <_end+0x655>
    80000560:	000f0f93          	mv	t6,t5
    80000564:	fff00513          	li	a0,-1
    80000568:	01ad11b3          	sll	gp,s10,s10
    8000056c:	49100793          	li	a5,1169
    80000570:	000f8293          	mv	t0,t6
    80000574:	626a4d93          	xori	s11,s4,1574
    80000578:	ab694e03          	lbu	t3,-1354(s2)
    8000057c:	405fe063          	bltu	t6,t0,8000097c <crash_forward>
    80000580:	00000093          	li	ra,0
    80000584:	8d3b5e83          	lhu	t4,-1837(s6)
    80000588:	40f80abb          	subw	s5,a6,a5
    8000058c:	0ed00113          	li	sp,237
    80000590:	05400593          	li	a1,84
    80000594:	01e54533          	xor	a0,a0,t5
    80000598:	02227cb3          	remu	s9,tp,sp
    8000059c:	00ac7333          	and	t1,s8,a0
    800005a0:	b61d14e3          	bne	s10,ra,80000108 <crash_backward>
    800005a4:	01e363b3          	or	t2,t1,t5
    800005a8:	02b5cbbb          	divw	s7,a1,a1
    800005ac:	0006543b          	srlw	s0,a2,zero
    800005b0:	b463dce3          	bge	t2,t1,80000108 <crash_backward>
    800005b4:	bfb18a13          	addi	s4,gp,-1029 # 80001b0b <_end+0x3fb>
    800005b8:	00001697          	auipc	a3,0x1
    800005bc:	0a168693          	addi	a3,a3,161 # 80001659 <test_memory+0x359>
    800005c0:	00001897          	auipc	a7,0x1
    800005c4:	ac388893          	addi	a7,a7,-1341 # 80001083 <fromhost+0x43>
    800005c8:	00001597          	auipc	a1,0x1
    800005cc:	80b58593          	addi	a1,a1,-2037 # 80000dd3 <test_end+0x443>
    800005d0:	f7800c13          	li	s8,-136
    800005d4:	01b9553b          	srlw	a0,s2,s11
    800005d8:	9cc00093          	li	ra,-1588
    800005dc:	e021b413          	sltiu	s0,gp,-510
    800005e0:	4cd00113          	li	sp,1229
    800005e4:	984a26a3          	sw	tp,-1651(s4)
    800005e8:	69159483          	lh	s1,1681(a1)
    800005ec:	35100f13          	li	t5,849
    800005f0:	00001b17          	auipc	s6,0x1
    800005f4:	d07b0b13          	addi	s6,s6,-761 # 800012f7 <reg_x30_output+0x7>
    800005f8:	8e100313          	li	t1,-1823
    800005fc:	00fa7cb3          	and	s9,s4,a5
    80000600:	5ee88323          	sb	a4,1510(a7)
    80000604:	00f6aa83          	lw	s5,15(a3)
    80000608:	00000d17          	auipc	s10,0x0
    8000060c:	7abd0d13          	addi	s10,s10,1963 # 80000db3 <test_end+0x423>
    80000610:	016ba833          	slt	a6,s7,s6
    80000614:	00001917          	auipc	s2,0x1
    80000618:	f2090913          	addi	s2,s2,-224 # 80001534 <test_memory+0x234>
    8000061c:	1cf00e13          	li	t3,463
    80000620:	05496403          	lwu	s0,84(s2)
    80000624:	0020d3b3          	srl	t2,ra,sp
    80000628:	05db30a3          	sd	t4,65(s6)
    8000062c:	40630633          	sub	a2,t1,t1
    80000630:	760d2aa3          	sw	zero,1909(s10)
    80000634:	56f00f93          	li	t6,1391
    80000638:	03d00e93          	li	t4,61
    8000063c:	41ff52b3          	sra	t0,t5,t6
    80000640:	93d18813          	addi	a6,gp,-1731 # 8000184d <_end+0x13d>
    80000644:	0126c1b3          	xor	gp,a3,s2
    80000648:	0284053b          	mulw	a0,s0,s0
    8000064c:	02500c93          	li	s9,37
    80000650:	2a700913          	li	s2,679
    80000654:	c7200313          	li	t1,-910
    80000658:	00000593          	li	a1,0
    8000065c:	00100f13          	li	t5,1
    80000660:	91700093          	li	ra,-1769
    80000664:	026311b3          	mulh	gp,t1,t1
    80000668:	d6786f83          	lwu	t6,-665(a6)
    8000066c:	10500493          	li	s1,261
    80000670:	00000a93          	li	s5,0
    80000674:	86500d13          	li	s10,-1947
    80000678:	01cc67b3          	or	a5,s8,t3
    8000067c:	026312b3          	mulh	t0,t1,t1
    80000680:	00000613          	li	a2,0
    80000684:	00000a13          	li	s4,0
    80000688:	03ff1f13          	slli	t5,t5,0x3f
    8000068c:	01a4c133          	xor	sp,s1,s10
    80000690:	019c93b3          	sll	t2,s9,s9
    80000694:	016b4733          	xor	a4,s6,s6
    80000698:	00490413          	addi	s0,s2,4
    8000069c:	fff00b13          	li	s6,-1
    800006a0:	01eb4b33          	xor	s6,s6,t5
    800006a4:	0163f8b3          	and	a7,t2,s6
    800006a8:	2c890a63          	beq	s2,s0,8000097c <crash_forward>
    800006ac:	c9708513          	addi	a0,ra,-873
    800006b0:	96600413          	li	s0,-1690
    800006b4:	00000293          	li	t0,0
    800006b8:	a8f18a93          	addi	s5,gp,-1393 # 8000199f <_end+0x28f>
    800006bc:	00001f97          	auipc	t6,0x1
    800006c0:	e90f8f93          	addi	t6,t6,-368 # 8000154c <test_memory+0x24c>
    800006c4:	178fa223          	sw	s8,356(t6)
    800006c8:	acf00d93          	li	s11,-1329
    800006cc:	a2a0cee3          	blt	ra,a0,80000108 <crash_backward>
    800006d0:	00001717          	auipc	a4,0x1
    800006d4:	f2470713          	addi	a4,a4,-220 # 800015f4 <test_memory+0x2f4>
    800006d8:	00001917          	auipc	s2,0x1
    800006dc:	f1b90913          	addi	s2,s2,-229 # 800015f3 <test_memory+0x2f3>
    800006e0:	d5174e03          	lbu	t3,-687(a4)
    800006e4:	00000793          	li	a5,0
    800006e8:	17800213          	li	tp,376
    800006ec:	01e8e6b3          	or	a3,a7,t5
    800006f0:	00001117          	auipc	sp,0x1
    800006f4:	d8710113          	addi	sp,sp,-633 # 80001477 <test_memory+0x177>
    800006f8:	a0c5e8e3          	bltu	a1,a2,80000108 <crash_backward>
    800006fc:	dfc90ca3          	sb	t3,-519(s2)
    80000700:	1a100f93          	li	t6,417
    80000704:	03def9b3          	remu	s3,t4,t4
    80000708:	028421b3          	mulhsu	gp,s0,s0
    8000070c:	00001617          	auipc	a2,0x1
    80000710:	92c60613          	addi	a2,a2,-1748 # 80001038 <tohost+0x38>
    80000714:	00001c97          	auipc	s9,0x1
    80000718:	e2cc8c93          	addi	s9,s9,-468 # 80001540 <test_memory+0x240>
    8000071c:	01ffae33          	slt	t3,t6,t6
    80000720:	144ca383          	lw	t2,324(s9)
    80000724:	a5c18293          	addi	t0,gp,-1444 # 8000196c <_end+0x25c>
    80000728:	004ddbbb          	srlw	s7,s11,tp
    8000072c:	13315d03          	lhu	s10,307(sp)
    80000730:	9d16dce3          	bge	a3,a7,80000108 <crash_backward>
    80000734:	b47a9fa3          	sh	t2,-1185(s5)
    80000738:	73a00493          	li	s1,1850
    8000073c:	00100a13          	li	s4,1
    80000740:	a382e503          	lwu	a0,-1480(t0)
    80000744:	a1500813          	li	a6,-1515
    80000748:	03fa1a13          	slli	s4,s4,0x3f
    8000074c:	48465703          	lhu	a4,1156(a2)
    80000750:	fff00793          	li	a5,-1
    80000754:	01531733          	sll	a4,t1,s5
    80000758:	01781cbb          	sllw	s9,a6,s7
    8000075c:	a5418f13          	addi	t5,gp,-1452 # 80001964 <_end+0x254>
    80000760:	bd118993          	addi	s3,gp,-1071 # 80001ae1 <_end+0x3d1>
    80000764:	00001a97          	auipc	s5,0x1
    80000768:	07ca8a93          	addi	s5,s5,124 # 800017e0 <_end+0xd0>
    8000076c:	ac400b13          	li	s6,-1340
    80000770:	d5700193          	li	gp,-681
    80000774:	0231e0b3          	rem	ra,gp,gp
    80000778:	13500913          	li	s2,309
    8000077c:	00001397          	auipc	t2,0x1
    80000780:	8ec38393          	addi	t2,t2,-1812 # 80001068 <fromhost+0x28>
    80000784:	409ede9b          	sraiw	t4,t4,0x9
    80000788:	d6318f93          	addi	t6,gp,-669 # 80001c73 <_end+0x563>
    8000078c:	3ad00613          	li	a2,941
    80000790:	3383a423          	sw	s8,808(t2)
    80000794:	00c646b3          	xor	a3,a2,a2
    80000798:	00001c97          	auipc	s9,0x1
    8000079c:	f68c8c93          	addi	s9,s9,-152 # 80001700 <loop_count>
    800007a0:	0121a533          	slt	a0,gp,s2
    800007a4:	73800713          	li	a4,1848
    800007a8:	e24ce083          	lwu	ra,-476(s9)
    800007ac:	0304b333          	mulhu	t1,s1,a6
    800007b0:	04400d93          	li	s11,68
    800007b4:	87100293          	li	t0,-1935
    800007b8:	025da433          	mulhsu	s0,s11,t0
    800007bc:	36e70213          	addi	tp,a4,878
    800007c0:	036b6bb3          	rem	s7,s6,s6
    800007c4:	0147c7b3          	xor	a5,a5,s4
    800007c8:	1ae24a63          	blt	tp,a4,8000097c <crash_forward>
    800007cc:	ccc00113          	li	sp,-820
    800007d0:	cc1aa823          	sw	ra,-816(s5)
    800007d4:	c10f1d03          	lh	s10,-1008(t5)
    800007d8:	965f9e03          	lh	t3,-1691(t6)
    800007dc:	022108b3          	mul	a7,sp,sp
    800007e0:	a849a7a3          	sw	tp,-1393(s3)
    800007e4:	00f8fc33          	and	s8,a7,a5
    800007e8:	014c65b3          	or	a1,s8,s4
    800007ec:	18bc0863          	beq	s8,a1,8000097c <crash_forward>
    800007f0:	ae018a13          	addi	s4,gp,-1312 # 800019f0 <_end+0x2e0>
    800007f4:	00001997          	auipc	s3,0x1
    800007f8:	f7098993          	addi	s3,s3,-144 # 80001764 <_end+0x54>
    800007fc:	00000f33          	add	t5,zero,zero
    80000800:	00100e93          	li	t4,1
    80000804:	c1c18313          	addi	t1,gp,-996 # 80001b2c <_end+0x41c>
    80000808:	b6218c13          	addi	s8,gp,-1182 # 80001a72 <_end+0x362>
    8000080c:	43d00793          	li	a5,1085
    80000810:	03fe9e93          	slli	t4,t4,0x3f
    80000814:	fff00593          	li	a1,-1
    80000818:	b9200213          	li	tp,-1134
    8000081c:	00100693          	li	a3,1
    80000820:	00001517          	auipc	a0,0x1
    80000824:	a5450513          	addi	a0,a0,-1452 # 80001274 <reg_x14_output+0x4>
    80000828:	01c85933          	srl	s2,a6,t3
    8000082c:	01d5c5b3          	xor	a1,a1,t4
    80000830:	93e00f13          	li	t5,-1730
    80000834:	00000193          	li	gp,0
    80000838:	30078613          	addi	a2,a5,768
    8000083c:	00bf7133          	and	sp,t5,a1
    80000840:	01df6e33          	or	t3,t5,t4
    80000844:	8cf642e3          	blt	a2,a5,80000108 <crash_backward>
    80000848:	00000c97          	auipc	s9,0x0
    8000084c:	322c8c93          	addi	s9,s9,802 # 80000b6a <test_end+0x1da>
    80000850:	00078813          	mv	a6,a5
    80000854:	bd49b403          	ld	s0,-1068(s3)
    80000858:	00080493          	mv	s1,a6
    8000085c:	8a9846e3          	blt	a6,s1,80000108 <crash_backward>
    80000860:	0a453383          	ld	t2,164(a0)
    80000864:	00000b97          	auipc	s7,0x0
    80000868:	641b8b93          	addi	s7,s7,1601 # 80000ea5 <test_end+0x515>
    8000086c:	41e20ab3          	sub	s5,tp,t5
    80000870:	03f69693          	slli	a3,a3,0x3f
    80000874:	b32c2d23          	sw	s2,-1222(s8)
    80000878:	a7c36f83          	lwu	t6,-1412(t1)
    8000087c:	7cec9923          	sh	a4,2002(s9)
    80000880:	00000097          	auipc	ra,0x0
    80000884:	69d08093          	addi	ra,ra,1693 # 80000f1d <test_end+0x58d>
    80000888:	79d0afa3          	sw	t4,1951(ra)
    8000088c:	fff00d13          	li	s10,-1
    80000890:	cc8a3883          	ld	a7,-824(s4)
    80000894:	00000713          	li	a4,0
    80000898:	5c3b9283          	lh	t0,1475(s7)
    8000089c:	0117539b          	srliw	t2,a4,0x11
    800008a0:	ddd00593          	li	a1,-547
    800008a4:	41ad0ab3          	sub	s5,s10,s10
    800008a8:	00001097          	auipc	ra,0x1
    800008ac:	86008093          	addi	ra,ra,-1952 # 80001108 <reg_x1_init>
    800008b0:	f3f00213          	li	tp,-193
    800008b4:	00dd4d33          	xor	s10,s10,a3
    800008b8:	c1f00613          	li	a2,-993
    800008bc:	4480af03          	lw	t5,1096(ra)
    800008c0:	02c23833          	mulhu	a6,tp,a2
    800008c4:	6ce00793          	li	a5,1742
    800008c8:	c6ca0513          	addi	a0,s4,-916
    800008cc:	16c78c93          	addi	s9,a5,364
    800008d0:	00000e17          	auipc	t3,0x0
    800008d4:	5dce0e13          	addi	t3,t3,1500 # 80000eac <test_end+0x51c>
    800008d8:	01a47b33          	and	s6,s0,s10
    800008dc:	00b5993b          	sllw	s2,a1,a1
    800008e0:	08e19e63          	bne	gp,a4,8000097c <crash_forward>
    800008e4:	00db6db3          	or	s11,s6,a3
    800008e8:	0997fa63          	bgeu	a5,s9,8000097c <crash_forward>
    800008ec:	649e4103          	lbu	sp,1609(t3)
    800008f0:	0040006f          	j	800008f4 <reg_dump>

00000000800008f4 <reg_dump>:
    800008f4:	00001097          	auipc	ra,0x1
    800008f8:	e0c08093          	addi	ra,ra,-500 # 80001700 <loop_count>
    800008fc:	0000a103          	lw	sp,0(ra)
    80000900:	fff10193          	addi	gp,sp,-1
    80000904:	0030a023          	sw	gp,0(ra)
    80000908:	8a0110e3          	bnez	sp,800001a8 <pseg_0>
    8000090c:	00001097          	auipc	ra,0x1
    80000910:	8f408093          	addi	ra,ra,-1804 # 80001200 <begin_signature>
    80000914:	0000b023          	sd	zero,0(ra)
    80000918:	0020b823          	sd	sp,16(ra)
    8000091c:	0030bc23          	sd	gp,24(ra)
    80000920:	0240b023          	sd	tp,32(ra)
    80000924:	0250b423          	sd	t0,40(ra)
    80000928:	0270bc23          	sd	t2,56(ra)
    8000092c:	0480b023          	sd	s0,64(ra)
    80000930:	0490b423          	sd	s1,72(ra)
    80000934:	04a0b823          	sd	a0,80(ra)
    80000938:	04b0bc23          	sd	a1,88(ra)
    8000093c:	06c0b023          	sd	a2,96(ra)
    80000940:	06d0b423          	sd	a3,104(ra)
    80000944:	06e0b823          	sd	a4,112(ra)
    80000948:	06f0bc23          	sd	a5,120(ra)
    8000094c:	0900b023          	sd	a6,128(ra)
    80000950:	0910b423          	sd	a7,136(ra)
    80000954:	0920b823          	sd	s2,144(ra)
    80000958:	0b50b423          	sd	s5,168(ra)
    8000095c:	0b60b823          	sd	s6,176(ra)
    80000960:	0d90b423          	sd	s9,200(ra)
    80000964:	0da0b823          	sd	s10,208(ra)
    80000968:	0db0bc23          	sd	s11,216(ra)
    8000096c:	0fd0b423          	sd	t4,232(ra)
    80000970:	0fe0b823          	sd	t5,240(ra)
    80000974:	0ff0bc23          	sd	t6,248(ra)
    80000978:	0180006f          	j	80000990 <test_end>

000000008000097c <crash_forward>:
    8000097c:	0ff0000f          	fence
    80000980:	00018063          	beqz	gp,80000980 <crash_forward+0x4>
    80000984:	00119193          	slli	gp,gp,0x1
    80000988:	0011e193          	ori	gp,gp,1
    8000098c:	00000073          	ecall

0000000080000990 <test_end>:
    80000990:	0ff0000f          	fence
    80000994:	00100193          	li	gp,1
    80000998:	00000073          	ecall
    8000099c:	c0001073          	unimp
	...

Disassembly of section .tohost:

0000000080001000 <tohost>:
	...

0000000080001040 <fromhost>:
	...
