
test.elf:     file format elf64-littleriscv


Disassembly of section .text.init:

0000000080000000 <_start>:
    80000000:	0580006f          	j	80000058 <reset_vector>

0000000080000004 <trap_vector>:
    80000004:	34202f73          	csrr	t5,mcause
    80000008:	00800f93          	li	t6,8
    8000000c:	05ff0063          	beq	t5,t6,8000004c <write_tohost>
    80000010:	00900f93          	li	t6,9
    80000014:	03ff0c63          	beq	t5,t6,8000004c <write_tohost>
    80000018:	00b00f93          	li	t6,11
    8000001c:	03ff0863          	beq	t5,t6,8000004c <write_tohost>
    80000020:	00000f13          	li	t5,0
    80000024:	000f0463          	beqz	t5,8000002c <trap_vector+0x28>
    80000028:	000f0067          	jr	t5
    8000002c:	34202f73          	csrr	t5,mcause
    80000030:	000f5463          	bgez	t5,80000038 <handle_exception>
    80000034:	0140006f          	j	80000048 <other_exception>

0000000080000038 <handle_exception>:
    80000038:	34102e73          	csrr	t3,mepc
    8000003c:	004e0e13          	addi	t3,t3,4
    80000040:	341e1073          	csrw	mepc,t3
    80000044:	30200073          	mret

0000000080000048 <other_exception>:
    80000048:	5391e193          	ori	gp,gp,1337

000000008000004c <write_tohost>:
    8000004c:	00001f17          	auipc	t5,0x1
    80000050:	fa3f2a23          	sw	gp,-76(t5) # 80001000 <tohost>
    80000054:	ff9ff06f          	j	8000004c <write_tohost>

0000000080000058 <reset_vector>:
    80000058:	f1402573          	csrr	a0,mhartid
    8000005c:	00051063          	bnez	a0,8000005c <reset_vector+0x4>
    80000060:	00000297          	auipc	t0,0x0
    80000064:	01028293          	addi	t0,t0,16 # 80000070 <reset_vector+0x18>
    80000068:	30529073          	csrw	mtvec,t0
    8000006c:	18005073          	csrwi	satp,0
    80000070:	00000297          	auipc	t0,0x0
    80000074:	01c28293          	addi	t0,t0,28 # 8000008c <reset_vector+0x34>
    80000078:	30529073          	csrw	mtvec,t0
    8000007c:	fff00293          	li	t0,-1
    80000080:	3b029073          	csrw	pmpaddr0,t0
    80000084:	01f00293          	li	t0,31
    80000088:	3a029073          	csrw	pmpcfg0,t0
    8000008c:	00000297          	auipc	t0,0x0
    80000090:	01828293          	addi	t0,t0,24 # 800000a4 <reset_vector+0x4c>
    80000094:	30529073          	csrw	mtvec,t0
    80000098:	30205073          	csrwi	medeleg,0
    8000009c:	30305073          	csrwi	mideleg,0
    800000a0:	30405073          	csrwi	mie,0
    800000a4:	00000193          	li	gp,0
    800000a8:	00000297          	auipc	t0,0x0
    800000ac:	f5c28293          	addi	t0,t0,-164 # 80000004 <trap_vector>
    800000b0:	30529073          	csrw	mtvec,t0
    800000b4:	00100513          	li	a0,1
    800000b8:	01f51513          	slli	a0,a0,0x1f
    800000bc:	00055863          	bgez	a0,800000cc <reset_vector+0x74>
    800000c0:	0ff0000f          	fence
    800000c4:	00100193          	li	gp,1
    800000c8:	00000073          	ecall
    800000cc:	00000293          	li	t0,0
    800000d0:	00028e63          	beqz	t0,800000ec <reset_vector+0x94>
    800000d4:	10529073          	csrw	stvec,t0
    800000d8:	0000b2b7          	lui	t0,0xb
    800000dc:	1092829b          	addiw	t0,t0,265
    800000e0:	30229073          	csrw	medeleg,t0
    800000e4:	30202373          	csrr	t1,medeleg
    800000e8:	f66290e3          	bne	t0,t1,80000048 <other_exception>
    800000ec:	30005073          	csrwi	mstatus,0
    800000f0:	00000297          	auipc	t0,0x0
    800000f4:	01428293          	addi	t0,t0,20 # 80000104 <reset_vector+0xac>
    800000f8:	34129073          	csrw	mepc,t0
    800000fc:	f1402573          	csrr	a0,mhartid
    80000100:	30200073          	mret
    80000104:	0180006f          	j	8000011c <test_start>

0000000080000108 <crash_backward>:
    80000108:	0ff0000f          	fence
    8000010c:	00018063          	beqz	gp,8000010c <crash_backward+0x4>
    80000110:	00119193          	slli	gp,gp,0x1
    80000114:	0011e193          	ori	gp,gp,1
    80000118:	00000073          	ecall

000000008000011c <test_start>:
    8000011c:	00001f97          	auipc	t6,0x1
    80000120:	fe4f8f93          	addi	t6,t6,-28 # 80001100 <hidden_data>
    80000124:	000fb003          	ld	zero,0(t6)
    80000128:	008fb083          	ld	ra,8(t6)
    8000012c:	010fb103          	ld	sp,16(t6)
    80000130:	018fb183          	ld	gp,24(t6)
    80000134:	020fb203          	ld	tp,32(t6)
    80000138:	028fb283          	ld	t0,40(t6)
    8000013c:	030fb303          	ld	t1,48(t6)
    80000140:	038fb383          	ld	t2,56(t6)
    80000144:	040fb403          	ld	s0,64(t6)
    80000148:	048fb483          	ld	s1,72(t6)
    8000014c:	050fb503          	ld	a0,80(t6)
    80000150:	058fb583          	ld	a1,88(t6)
    80000154:	060fb603          	ld	a2,96(t6)
    80000158:	068fb683          	ld	a3,104(t6)
    8000015c:	070fb703          	ld	a4,112(t6)
    80000160:	078fb783          	ld	a5,120(t6)
    80000164:	080fb803          	ld	a6,128(t6)
    80000168:	088fb883          	ld	a7,136(t6)
    8000016c:	090fb903          	ld	s2,144(t6)
    80000170:	098fb983          	ld	s3,152(t6)
    80000174:	0a0fba03          	ld	s4,160(t6)
    80000178:	0a8fba83          	ld	s5,168(t6)
    8000017c:	0b0fbb03          	ld	s6,176(t6)
    80000180:	0b8fbb83          	ld	s7,184(t6)
    80000184:	0c0fbc03          	ld	s8,192(t6)
    80000188:	0c8fbc83          	ld	s9,200(t6)
    8000018c:	0d0fbd03          	ld	s10,208(t6)
    80000190:	0d8fbd83          	ld	s11,216(t6)
    80000194:	0e0fbe03          	ld	t3,224(t6)
    80000198:	0e8fbe83          	ld	t4,232(t6)
    8000019c:	0f0fbf03          	ld	t5,240(t6)
    800001a0:	0f8fbf83          	ld	t6,248(t6)
    800001a4:	0040006f          	j	800001a8 <pseg_0>

00000000800001a8 <pseg_0>:
    800001a8:	00000593          	li	a1,0
    800001ac:	0316b633          	mulhu	a2,a3,a7
    800001b0:	aec18c93          	addi	s9,gp,-1300 # 800019fc <_end+0x2ec>
    800001b4:	cb600393          	li	t2,-842
    800001b8:	b6418093          	addi	ra,gp,-1180 # 80001a74 <_end+0x364>
    800001bc:	00001417          	auipc	s0,0x1
    800001c0:	20a40413          	addi	s0,s0,522 # 800013c6 <test_memory+0xc6>
    800001c4:	bb40b803          	ld	a6,-1100(ra)
    800001c8:	00000913          	li	s2,0
    800001cc:	28e00193          	li	gp,654
    800001d0:	9bf18e93          	addi	t4,gp,-1601 # 800018cf <_end+0x1bf>
    800001d4:	013ed4b3          	srl	s1,t4,s3
    800001d8:	bbd18293          	addi	t0,gp,-1091 # 80001acd <_end+0x3bd>
    800001dc:	47600513          	li	a0,1142
    800001e0:	00001d17          	auipc	s10,0x1
    800001e4:	463d0d13          	addi	s10,s10,1123 # 80001643 <test_memory+0x343>
    800001e8:	00001117          	auipc	sp,0x1
    800001ec:	af410113          	addi	sp,sp,-1292 # 80000cdc <test_end+0x38c>
    800001f0:	a4deee03          	lwu	t3,-1459(t4)
    800001f4:	95900b13          	li	s6,-1703
    800001f8:	0e500313          	li	t1,229
    800001fc:	de5d3b83          	ld	s7,-539(s10)
    80000200:	adf2b5a3          	sd	t6,-1333(t0)
    80000204:	b26cd783          	lhu	a5,-1242(s9)
    80000208:	7325ca63          	blt	a1,s2,8000093c <crash_forward>
    8000020c:	00001e97          	auipc	t4,0x1
    80000210:	2c8e8e93          	addi	t4,t4,712 # 800014d4 <test_memory+0x1d4>
    80000214:	a5700f13          	li	t5,-1449
    80000218:	0e4eeb83          	lwu	s7,228(t4)
    8000021c:	bef00a13          	li	s4,-1041
    80000220:	d6218713          	addi	a4,gp,-670 # 80001c72 <_end+0x562>
    80000224:	30645883          	lhu	a7,774(s0)
    80000228:	63e15f83          	lhu	t6,1598(sp)
    8000022c:	00001097          	auipc	ra,0x1
    80000230:	33908093          	addi	ra,ra,825 # 80001565 <test_memory+0x265>
    80000234:	bf618813          	addi	a6,gp,-1034 # 80001b06 <_end+0x3f6>
    80000238:	a5370d23          	sb	s3,-1446(a4)
    8000023c:	ea70d603          	lhu	a2,-345(ra)
    80000240:	40cf0cb3          	sub	s9,t5,a2
    80000244:	00635233          	srl	tp,t1,t1
    80000248:	0073aab3          	slt	s5,t2,t2
    8000024c:	6fe00493          	li	s1,1790
    80000250:	00d42733          	slt	a4,s0,a3
    80000254:	a8418d13          	addi	s10,gp,-1404 # 80001994 <_end+0x284>
    80000258:	49f48793          	addi	a5,s1,1183
    8000025c:	ae418113          	addi	sp,gp,-1308 # 800019f4 <_end+0x2e4>
    80000260:	c1d00e93          	li	t4,-995
    80000264:	03ef7c3b          	remuw	s8,t5,t5
    80000268:	ba700b93          	li	s7,-1113
    8000026c:	414b09b3          	sub	s3,s6,s4
    80000270:	03081433          	mulh	s0,a6,a6
    80000274:	00001697          	auipc	a3,0x1
    80000278:	34d68693          	addi	a3,a3,845 # 800015c1 <test_memory+0x2c1>
    8000027c:	00a1bdb3          	sltu	s11,gp,a0
    80000280:	00001297          	auipc	t0,0x1
    80000284:	08a28293          	addi	t0,t0,138 # 8000130a <test_memory+0xa>
    80000288:	037bf93b          	remuw	s2,s7,s7
    8000028c:	b78d6e03          	lwu	t3,-1160(s10)
    80000290:	b5e14883          	lbu	a7,-1186(sp)
    80000294:	91383123          	sd	s3,-1790(a6)
    80000298:	ff6695a3          	sh	s6,-21(a3)
    8000029c:	2152a123          	sw	s5,514(t0)
    800002a0:	03def5bb          	remuw	a1,t4,t4
    800002a4:	712d029b          	addiw	t0,s10,1810
    800002a8:	3e400113          	li	sp,996
    800002ac:	25610393          	addi	t2,sp,598
    800002b0:	039ca233          	mulhsu	tp,s9,s9
    800002b4:	c3100893          	li	a7,-975
    800002b8:	ec300593          	li	a1,-317
    800002bc:	dc800e13          	li	t3,-568
    800002c0:	00001417          	auipc	s0,0x1
    800002c4:	34440413          	addi	s0,s0,836 # 80001604 <test_memory+0x304>
    800002c8:	c4800793          	li	a5,-952
    800002cc:	e62e0c93          	addi	s9,t3,-414
    800002d0:	03659ab3          	mulh	s5,a1,s6
    800002d4:	025d81bb          	mulw	gp,s11,t0
    800002d8:	02e72eb3          	mulhsu	t4,a4,a4
    800002dc:	51700a13          	li	s4,1303
    800002e0:	00050693          	mv	a3,a0
    800002e4:	55400713          	li	a4,1364
    800002e8:	6cb00813          	li	a6,1739
    800002ec:	6423c863          	blt	t2,sp,8000093c <crash_forward>
    800002f0:	02e72633          	mulhsu	a2,a4,a4
    800002f4:	e0600c13          	li	s8,-506
    800002f8:	03ce7fbb          	remuw	t6,t3,t3
    800002fc:	e1ccf6e3          	bgeu	s9,t3,80000108 <crash_backward>
    80000300:	20200093          	li	ra,514
    80000304:	00001397          	auipc	t2,0x1
    80000308:	ac538393          	addi	t2,t2,-1339 # 80000dc9 <test_end+0x479>
    8000030c:	00068513          	mv	a0,a3
    80000310:	9b800213          	li	tp,-1608
    80000314:	0e443303          	ld	t1,228(s0)
    80000318:	c1700913          	li	s2,-1001
    8000031c:	82000c93          	li	s9,-2016
    80000320:	40108b33          	sub	s6,ra,ra
    80000324:	404252b3          	sra	t0,tp,tp
    80000328:	5ed00f93          	li	t6,1517
    8000032c:	00001e17          	auipc	t3,0x1
    80000330:	b22e0e13          	addi	t3,t3,-1246 # 80000e4e <test_end+0x4fe>
    80000334:	570e5183          	lhu	gp,1392(t3)
    80000338:	60a6c263          	blt	a3,a0,8000093c <crash_forward>
    8000033c:	01089f33          	sll	t5,a7,a6
    80000340:	54b3ae83          	lw	t4,1355(t2)
    80000344:	a1c00113          	li	sp,-1508
    80000348:	7f700993          	li	s3,2039
    8000034c:	01ffb6b3          	sltu	a3,t6,t6
    80000350:	e1a00e13          	li	t3,-486
    80000354:	d5f00413          	li	s0,-673
    80000358:	01ce68b3          	or	a7,t3,t3
    8000035c:	0210c23b          	divw	tp,ra,ra
    80000360:	dac644e3          	blt	a2,a2,80000108 <crash_backward>
    80000364:	16f98d13          	addi	s10,s3,367
    80000368:	02c65ab3          	divu	s5,a2,a2
    8000036c:	0150863b          	addw	a2,ra,s5
    80000370:	4081573b          	sraw	a4,sp,s0
    80000374:	5d3d6463          	bltu	s10,s3,8000093c <crash_forward>
    80000378:	00001b17          	auipc	s6,0x1
    8000037c:	a61b0b13          	addi	s6,s6,-1439 # 80000dd9 <test_end+0x489>
    80000380:	0147bbb3          	sltu	s7,a5,s4
    80000384:	54700113          	li	sp,1351
    80000388:	d6b00e13          	li	t3,-661
    8000038c:	41ce523b          	sraw	tp,t3,t3
    80000390:	e600e2b7          	lui	t0,0xe600e
    80000394:	01800b93          	li	s7,24
    80000398:	020001b3          	mul	gp,zero,zero
    8000039c:	00001417          	auipc	s0,0x1
    800003a0:	2e740413          	addi	s0,s0,743 # 80001683 <test_memory+0x383>
    800003a4:	017178b3          	and	a7,sp,s7
    800003a8:	412c54b3          	sra	s1,s8,s2
    800003ac:	008476b3          	and	a3,s0,s0
    800003b0:	7af00a13          	li	s4,1967
    800003b4:	55300793          	li	a5,1363
    800003b8:	03fcd33b          	divuw	t1,s9,t6
    800003bc:	41ded53b          	sraw	a0,t4,t4
    800003c0:	f5c413a3          	sh	t3,-185(s0)
    800003c4:	5c3b1e83          	lh	t4,1475(s6)
    800003c8:	00b58dbb          	addw	s11,a1,a1
    800003cc:	00001717          	auipc	a4,0x1
    800003d0:	9c170713          	addi	a4,a4,-1599 # 80000d8d <test_end+0x43d>
    800003d4:	02fa2ab3          	mulhsu	s5,s4,a5
    800003d8:	a2500993          	li	s3,-1499
    800003dc:	0339e633          	rem	a2,s3,s3
    800003e0:	00001817          	auipc	a6,0x1
    800003e4:	8d880813          	addi	a6,a6,-1832 # 80000cb8 <test_end+0x368>
    800003e8:	6d685383          	lhu	t2,1750(a6)
    800003ec:	00000093          	li	ra,0
    800003f0:	017bceb3          	xor	t4,s7,s7
    800003f4:	008ce533          	or	a0,s9,s0
    800003f8:	dbdc4237          	lui	tp,0xdbdc4
    800003fc:	78200c93          	li	s9,1922
    80000400:	00001817          	auipc	a6,0x1
    80000404:	dbe80813          	addi	a6,a6,-578 # 800011be <reg_x23_init+0x6>
    80000408:	36e86603          	lwu	a2,878(a6)
    8000040c:	ea900293          	li	t0,-343
    80000410:	c0000693          	li	a3,-1024
    80000414:	94318913          	addi	s2,gp,-1725 # 80001853 <_end+0x143>
    80000418:	7d772d03          	lw	s10,2007(a4)
    8000041c:	a7618b93          	addi	s7,gp,-1418 # 80001986 <_end+0x276>
    80000420:	d46bdf83          	lhu	t6,-698(s7)
    80000424:	405c8dbb          	subw	s11,s9,t0
    80000428:	12500793          	li	a5,293
    8000042c:	02d6843b          	mulw	s0,a3,a3
    80000430:	00d3da9b          	srliw	s5,t2,0xd
    80000434:	13678893          	addi	a7,a5,310
    80000438:	03fffc33          	remu	s8,t6,t6
    8000043c:	a5318b13          	addi	s6,gp,-1453 # 80001963 <_end+0x253>
    80000440:	d5d93e03          	ld	t3,-675(s2)
    80000444:	c67b22a3          	sw	t2,-923(s6)
    80000448:	00000f13          	li	t5,0
    8000044c:	65a00393          	li	t2,1626
    80000450:	00001c97          	auipc	s9,0x1
    80000454:	c97c8c93          	addi	s9,s9,-873 # 800010e7 <fromhost+0xa7>
    80000458:	37cc94a3          	sh	t3,873(s9)
    8000045c:	00001497          	auipc	s1,0x1
    80000460:	a9a48493          	addi	s1,s1,-1382 # 80000ef6 <test_end+0x5a6>
    80000464:	00001b17          	auipc	s6,0x1
    80000468:	e32b0b13          	addi	s6,s6,-462 # 80001296 <reg_x18_output+0x6>
    8000046c:	026201b3          	mul	gp,tp,t1
    80000470:	03ad7cbb          	remuw	s9,s10,s10
    80000474:	57550e9b          	addiw	t4,a0,1397
    80000478:	a2418593          	addi	a1,gp,-1500 # 80001934 <_end+0x224>
    8000047c:	082b1e03          	lh	t3,130(s6)
    80000480:	02bc8c3b          	mulw	s8,s9,a1
    80000484:	024256bb          	divuw	a3,tp,tp
    80000488:	ba718713          	addi	a4,gp,-1113 # 80001ab7 <_end+0x3a7>
    8000048c:	bb359e23          	sh	s3,-1092(a1)
    80000490:	abc18913          	addi	s2,gp,-1348 # 800019cc <_end+0x2bc>
    80000494:	00001f97          	auipc	t6,0x1
    80000498:	fc8f8f93          	addi	t6,t6,-56 # 8000145c <test_memory+0x15c>
    8000049c:	47649a83          	lh	s5,1142(s1)
    800004a0:	0273a133          	mulhsu	sp,t2,t2
    800004a4:	b7c00d13          	li	s10,-1156
    800004a8:	fdbf8aa3          	sb	s11,-43(t6)
    800004ac:	60e00793          	li	a5,1550
    800004b0:	dc300513          	li	a0,-573
    800004b4:	02a788bb          	mulw	a7,a5,a0
    800004b8:	03ad3233          	mulhu	tp,s10,s10
    800004bc:	b1a717a3          	sh	s10,-1265(a4)
    800004c0:	b5800313          	li	t1,-1192
    800004c4:	68d00d93          	li	s11,1677
    800004c8:	d3400613          	li	a2,-716
    800004cc:	014a09bb          	addw	s3,s4,s4
    800004d0:	26c00813          	li	a6,620
    800004d4:	bc600493          	li	s1,-1082
    800004d8:	00001c97          	auipc	s9,0x1
    800004dc:	31dc8c93          	addi	s9,s9,797 # 800017f5 <_end+0xe5>
    800004e0:	d2818113          	addi	sp,gp,-728 # 80001c38 <_end+0x528>
    800004e4:	030da433          	mulhsu	s0,s11,a6
    800004e8:	00000297          	auipc	t0,0x0
    800004ec:	6c428293          	addi	t0,t0,1732 # 80000bac <test_end+0x25c>
    800004f0:	bca18213          	addi	tp,gp,-1078 # 80001ada <_end+0x3ca>
    800004f4:	9bd22523          	sw	t4,-1622(tp) # ffffffffdbdc39aa <__global_pointer$+0xffffffff5bdc1a9a>
    800004f8:	ead00c13          	li	s8,-339
    800004fc:	bbdca9a3          	sw	t4,-1101(s9)
    80000500:	5c11089b          	addiw	a7,sp,1473
    80000504:	7cc29e23          	sh	a2,2012(t0)
    80000508:	a4318a93          	addi	s5,gp,-1469 # 80001953 <_end+0x243>
    8000050c:	9bc93b83          	ld	s7,-1604(s2)
    80000510:	0308543b          	divuw	s0,a6,a6
    80000514:	96618513          	addi	a0,gp,-1690 # 80001876 <_end+0x166>
    80000518:	00001c97          	auipc	s9,0x1
    8000051c:	1e7c8c93          	addi	s9,s9,487 # 800016ff <test_memory+0x3ff>
    80000520:	00100793          	li	a5,1
    80000524:	00000197          	auipc	gp,0x0
    80000528:	5fc18193          	addi	gp,gp,1532 # 80000b20 <test_end+0x1d0>
    8000052c:	69c00593          	li	a1,1692
    80000530:	bb618e13          	addi	t3,gp,-1098 # 80001ac6 <_end+0x3b6>
    80000534:	00c35a3b          	srlw	s4,t1,a2
    80000538:	0294b733          	mulhu	a4,s1,s1
    8000053c:	0231cdb3          	div	s11,gp,gp
    80000540:	d9bcb0a3          	sd	s11,-639(s9)
    80000544:	7f219383          	lh	t2,2034(gp) # 80002702 <__global_pointer$+0x7f2>
    80000548:	bd351923          	sh	s3,-1070(a0)
    8000054c:	3cc58993          	addi	s3,a1,972
    80000550:	88300e93          	li	t4,-1917
    80000554:	d9ae8693          	addi	a3,t4,-614
    80000558:	bb3588e3          	beq	a1,s3,80000108 <crash_backward>
    8000055c:	3ede8063          	beq	t4,a3,8000093c <crash_forward>
    80000560:	baac0f93          	addi	t6,s8,-1110
    80000564:	0099c233          	xor	tp,s3,s1
    80000568:	bb8ff0e3          	bgeu	t6,s8,80000108 <crash_backward>
    8000056c:	8bb12c23          	sw	s11,-1864(sp)
    80000570:	03f79793          	slli	a5,a5,0x3f
    80000574:	28400813          	li	a6,644
    80000578:	e7500593          	li	a1,-395
    8000057c:	fff00d13          	li	s10,-1
    80000580:	00fd4d33          	xor	s10,s10,a5
    80000584:	a63e4083          	lbu	ra,-1437(t3)
    80000588:	bbd18e13          	addi	t3,gp,-1091 # 80001acd <_end+0x3bd>
    8000058c:	03fe7133          	remu	sp,t3,t6
    80000590:	00001417          	auipc	s0,0x1
    80000594:	fff40413          	addi	s0,s0,-1 # 8000158f <test_memory+0x28f>
    80000598:	74700a13          	li	s4,1863
    8000059c:	038a673b          	remw	a4,s4,s8
    800005a0:	00100893          	li	a7,1
    800005a4:	03f89893          	slli	a7,a7,0x3f
    800005a8:	01a4ff33          	and	t5,s1,s10
    800005ac:	00001197          	auipc	gp,0x1
    800005b0:	1b918193          	addi	gp,gp,441 # 80001765 <_end+0x55>
    800005b4:	fff00e93          	li	t4,-1
    800005b8:	00f06b33          	or	s6,zero,a5
    800005bc:	d2c185a3          	sb	a2,-725(gp) # 80001c3b <_end+0x52b>
    800005c0:	26400513          	li	a0,612
    800005c4:	01f0923b          	sllw	tp,ra,t6
    800005c8:	d4f00c93          	li	s9,-689
    800005cc:	011eceb3          	xor	t4,t4,a7
    800005d0:	00001997          	auipc	s3,0x1
    800005d4:	8af98993          	addi	s3,s3,-1873 # 80000e7f <test_end+0x52f>
    800005d8:	f3941c03          	lh	s8,-199(s0)
    800005dc:	e5a00f93          	li	t6,-422
    800005e0:	bfaaaea3          	sw	s10,-1027(s5)
    800005e4:	356f0c63          	beq	t5,s6,8000093c <crash_forward>
    800005e8:	019c8dbb          	addw	s11,s9,s9
    800005ec:	8b7e6083          	lwu	ra,-1865(t3)
    800005f0:	01dff6b3          	and	a3,t6,t4
    800005f4:	91118b93          	addi	s7,gp,-1775 # 80001821 <_end+0x111>
    800005f8:	0145c633          	xor	a2,a1,s4
    800005fc:	011f62b3          	or	t0,t5,a7
    80000600:	5719b483          	ld	s1,1393(s3)
    80000604:	03080333          	mul	t1,a6,a6
    80000608:	00738733          	add	a4,t2,t2
    8000060c:	b9fba903          	lw	s2,-1121(s7)
    80000610:	c1018113          	addi	sp,gp,-1008 # 80001b20 <_end+0x410>
    80000614:	03f533b3          	mulhu	t2,a0,t6
    80000618:	98015183          	lhu	gp,-1664(sp)
    8000061c:	32568063          	beq	a3,t0,8000093c <crash_forward>
    80000620:	009a2533          	slt	a0,s4,s1
    80000624:	02bb80bb          	mulw	ra,s7,a1
    80000628:	410b549b          	sraiw	s1,s6,0x10
    8000062c:	00001597          	auipc	a1,0x1
    80000630:	b1f58593          	addi	a1,a1,-1249 # 8000114b <reg_x9_init+0x3>
    80000634:	2175d283          	lhu	t0,535(a1)
    80000638:	03ffc133          	div	sp,t6,t6
    8000063c:	00100913          	li	s2,1
    80000640:	02526a3b          	remw	s4,tp,t0
    80000644:	0aa00f93          	li	t6,170
    80000648:	00100a93          	li	s5,1
    8000064c:	004e853b          	addw	a0,t4,tp
    80000650:	00001297          	auipc	t0,0x1
    80000654:	d5c28293          	addi	t0,t0,-676 # 800013ac <test_memory+0xac>
    80000658:	03fa9a93          	slli	s5,s5,0x3f
    8000065c:	c9c00593          	li	a1,-868
    80000660:	03f91913          	slli	s2,s2,0x3f
    80000664:	00100393          	li	t2,1
    80000668:	5d100113          	li	sp,1489
    8000066c:	2d800193          	li	gp,728
    80000670:	fff00c93          	li	s9,-1
    80000674:	03f39393          	slli	t2,t2,0x3f
    80000678:	00001817          	auipc	a6,0x1
    8000067c:	81880813          	addi	a6,a6,-2024 # 80000e90 <test_end+0x540>
    80000680:	1d92a423          	sw	s9,456(t0)
    80000684:	02319433          	mulh	s0,gp,gp
    80000688:	1f700713          	li	a4,503
    8000068c:	9e818093          	addi	ra,gp,-1560 # 800018f8 <_end+0x1e8>
    80000690:	fff00b93          	li	s7,-1
    80000694:	2b900e93          	li	t4,697
    80000698:	00001d17          	auipc	s10,0x1
    8000069c:	dd7d0d13          	addi	s10,s10,-553 # 8000146f <test_memory+0x16f>
    800006a0:	012cccb3          	xor	s9,s9,s2
    800006a4:	01927f33          	and	t5,tp,s9
    800006a8:	9d118e13          	addi	t3,gp,-1583 # 800018e1 <_end+0x1d1>
    800006ac:	007bcbb3          	xor	s7,s7,t2
    800006b0:	00e76633          	or	a2,a4,a4
    800006b4:	0179fdb3          	and	s11,s3,s7
    800006b8:	fff00c13          	li	s8,-1
    800006bc:	fa4d13a3          	sh	tp,-89(s10)
    800006c0:	c4fe1fa3          	sh	a5,-929(t3)
    800006c4:	01df96b3          	sll	a3,t6,t4
    800006c8:	00001497          	auipc	s1,0x1
    800006cc:	d3c48493          	addi	s1,s1,-708 # 80001404 <test_memory+0x104>
    800006d0:	007de8b3          	or	a7,s11,t2
    800006d4:	00100413          	li	s0,1
    800006d8:	00360fb3          	add	t6,a2,gp
    800006dc:	015aaeb3          	slt	t4,s5,s5
    800006e0:	015c4c33          	xor	s8,s8,s5
    800006e4:	03f41413          	slli	s0,s0,0x3f
    800006e8:	fff00d13          	li	s10,-1
    800006ec:	008d4d33          	xor	s10,s10,s0
    800006f0:	01a771b3          	and	gp,a4,s10
    800006f4:	00001997          	auipc	s3,0x1
    800006f8:	c5a98993          	addi	s3,s3,-934 # 8000134e <test_memory+0x4e>
    800006fc:	0081ee33          	or	t3,gp,s0
    80000700:	00001f97          	auipc	t6,0x1
    80000704:	c46f8f93          	addi	t6,t6,-954 # 80001346 <test_memory+0x46>
    80000708:	0188f333          	and	t1,a7,s8
    8000070c:	94000293          	li	t0,-1728
    80000710:	7ac86203          	lwu	tp,1964(a6)
    80000714:	0225e533          	rem	a0,a1,sp
    80000718:	ac90ca03          	lbu	s4,-1335(ra)
    8000071c:	0d2fbe83          	ld	t4,210(t6)
    80000720:	6b300693          	li	a3,1715
    80000724:	2ed9b523          	sd	a3,746(s3)
    80000728:	012ee7b3          	or	a5,t4,s2
    8000072c:	fd8481a3          	sb	s8,-61(s1)
    80000730:	00d2d73b          	srlw	a4,t0,a3
    80000734:	01516b33          	or	s6,sp,s5
    80000738:	7c500593          	li	a1,1989
    8000073c:	0ab00e93          	li	t4,171
    80000740:	74100313          	li	t1,1857
    80000744:	02b59233          	mulh	tp,a1,a1
    80000748:	006ea6b3          	slt	a3,t4,t1
    8000074c:	11a00c13          	li	s8,282
    80000750:	35000813          	li	a6,848
    80000754:	00001797          	auipc	a5,0x1
    80000758:	9ba78793          	addi	a5,a5,-1606 # 8000110e <reg_x1_init+0x6>
    8000075c:	010116bb          	sllw	a3,sp,a6
    80000760:	9f218b93          	addi	s7,gp,-1550 # 80001902 <_end+0x1f2>
    80000764:	00000197          	auipc	gp,0x0
    80000768:	76d18193          	addi	gp,gp,1901 # 80000ed1 <test_end+0x581>
    8000076c:	00001b17          	auipc	s6,0x1
    80000770:	e48b0b13          	addi	s6,s6,-440 # 800015b4 <test_memory+0x2b4>
    80000774:	19500e13          	li	t3,405
    80000778:	00000a17          	auipc	s4,0x0
    8000077c:	795a0a13          	addi	s4,s4,1941 # 80000f0d <test_end+0x5bd>
    80000780:	41c80293          	addi	t0,a6,1052
    80000784:	aa4b9f83          	lh	t6,-1372(s7)
    80000788:	6af1cd03          	lbu	s10,1711(gp) # 800025bf <__global_pointer$+0x6af>
    8000078c:	014ed39b          	srliw	t2,t4,0x14
    80000790:	33d7a523          	sw	t4,810(a5)
    80000794:	bf600213          	li	tp,-1034
    80000798:	01ef24b3          	slt	s1,t5,t5
    8000079c:	98800893          	li	a7,-1656
    800007a0:	91900c93          	li	s9,-1767
    800007a4:	89a00113          	li	sp,-1894
    800007a8:	00424f33          	xor	t5,tp,tp
    800007ac:	00c540b3          	xor	ra,a0,a2
    800007b0:	130b6d83          	lwu	s11,304(s6)
    800007b4:	01ce09b3          	add	s3,t3,t3
    800007b8:	69a00313          	li	t1,1690
    800007bc:	006c9933          	sll	s2,s9,t1
    800007c0:	db200613          	li	a2,-590
    800007c4:	486a1ba3          	sh	t1,1175(s4)
    800007c8:	00c61433          	sll	s0,a2,a2
    800007cc:	19100293          	li	t0,401
    800007d0:	d8c00913          	li	s2,-628
    800007d4:	02da60bb          	remw	ra,s4,a3
    800007d8:	00000b13          	li	s6,0
    800007dc:	97c00d13          	li	s10,-1668
    800007e0:	e9d00c93          	li	s9,-355
    800007e4:	cd488713          	addi	a4,a7,-812
    800007e8:	00001397          	auipc	t2,0x1
    800007ec:	96d38393          	addi	t2,t2,-1683 # 80001155 <reg_x10_init+0x5>
    800007f0:	01882a33          	slt	s4,a6,s8
    800007f4:	c5a10593          	addi	a1,sp,-934
    800007f8:	00100f13          	li	t5,1
    800007fc:	009ab233          	sltu	tp,s5,s1
    80000800:	01a28dbb          	addw	s11,t0,s10
    80000804:	019ce333          	or	t1,s9,s9
    80000808:	00000493          	li	s1,0
    8000080c:	00001997          	auipc	s3,0x1
    80000810:	d9198993          	addi	s3,s3,-623 # 8000159d <test_memory+0x29d>
    80000814:	efa00a93          	li	s5,-262
    80000818:	ddd9d803          	lhu	a6,-547(s3)
    8000081c:	03ff1f13          	slli	t5,t5,0x3f
    80000820:	02ad9d33          	mulh	s10,s11,a0
    80000824:	01716eb3          	or	t4,sp,s7
    80000828:	10b16a63          	bltu	sp,a1,8000093c <crash_forward>
    8000082c:	5de00993          	li	s3,1502
    80000830:	fff00793          	li	a5,-1
    80000834:	01e7c7b3          	xor	a5,a5,t5
    80000838:	00090e93          	mv	t4,s2
    8000083c:	035c6533          	rem	a0,s8,s5
    80000840:	58d39603          	lh	a2,1421(t2)
    80000844:	afb18313          	addi	t1,gp,-1285 # 80001a0b <_end+0x2fb>
    80000848:	bee00b13          	li	s6,-1042
    8000084c:	01087ab3          	and	s5,a6,a6
    80000850:	17f00213          	li	tp,383
    80000854:	00f2fbb3          	and	s7,t0,a5
    80000858:	00001197          	auipc	gp,0x1
    8000085c:	ced18193          	addi	gp,gp,-787 # 80001545 <test_memory+0x245>
    80000860:	35e20c93          	addi	s9,tp,862 # 35e <_start-0x7ffffca2>
    80000864:	0b100a13          	li	s4,177
    80000868:	94536d83          	lwu	s11,-1723(t1)
    8000086c:	00000117          	auipc	sp,0x0
    80000870:	60910113          	addi	sp,sp,1545 # 80000e75 <test_end+0x525>
    80000874:	0c4ce463          	bltu	s9,tp,8000093c <crash_forward>
    80000878:	000e8493          	mv	s1,t4
    8000087c:	01293433          	sltu	s0,s2,s2
    80000880:	416b5d33          	sra	s10,s6,s6
    80000884:	4ad00293          	li	t0,1197
    80000888:	6ca00693          	li	a3,1738
    8000088c:	01e7efb3          	or	t6,a5,t5
    80000890:	02da00b3          	mul	ra,s4,a3
    80000894:	70f15603          	lhu	a2,1807(sp)
    80000898:	869ec8e3          	blt	t4,s1,80000108 <crash_backward>
    8000089c:	877fd6e3          	bge	t6,s7,80000108 <crash_backward>
    800008a0:	0059c833          	xor	a6,s3,t0
    800008a4:	0fd1de03          	lhu	t3,253(gp) # 8000200d <__global_pointer$+0xfd>
    800008a8:	ade00513          	li	a0,-1314
    800008ac:	02a53c33          	mulhu	s8,a0,a0
    800008b0:	0040006f          	j	800008b4 <reg_dump>

00000000800008b4 <reg_dump>:
    800008b4:	00001097          	auipc	ra,0x1
    800008b8:	e4c08093          	addi	ra,ra,-436 # 80001700 <loop_count>
    800008bc:	0000a103          	lw	sp,0(ra)
    800008c0:	fff10193          	addi	gp,sp,-1
    800008c4:	0030a023          	sw	gp,0(ra)
    800008c8:	8e0110e3          	bnez	sp,800001a8 <pseg_0>
    800008cc:	00001097          	auipc	ra,0x1
    800008d0:	93408093          	addi	ra,ra,-1740 # 80001200 <begin_signature>
    800008d4:	0000b023          	sd	zero,0(ra)
    800008d8:	0240b023          	sd	tp,32(ra)
    800008dc:	0250b423          	sd	t0,40(ra)
    800008e0:	0480b023          	sd	s0,64(ra)
    800008e4:	0490b423          	sd	s1,72(ra)
    800008e8:	04a0b823          	sd	a0,80(ra)
    800008ec:	04b0bc23          	sd	a1,88(ra)
    800008f0:	06c0b023          	sd	a2,96(ra)
    800008f4:	06d0b423          	sd	a3,104(ra)
    800008f8:	06e0b823          	sd	a4,112(ra)
    800008fc:	06f0bc23          	sd	a5,120(ra)
    80000900:	0900b023          	sd	a6,128(ra)
    80000904:	0920b823          	sd	s2,144(ra)
    80000908:	0930bc23          	sd	s3,152(ra)
    8000090c:	0b40b023          	sd	s4,160(ra)
    80000910:	0b50b423          	sd	s5,168(ra)
    80000914:	0b60b823          	sd	s6,176(ra)
    80000918:	0d80b023          	sd	s8,192(ra)
    8000091c:	0d90b423          	sd	s9,200(ra)
    80000920:	0da0b823          	sd	s10,208(ra)
    80000924:	0db0bc23          	sd	s11,216(ra)
    80000928:	0fc0b023          	sd	t3,224(ra)
    8000092c:	0fd0b423          	sd	t4,232(ra)
    80000930:	0fe0b823          	sd	t5,240(ra)
    80000934:	0ff0bc23          	sd	t6,248(ra)
    80000938:	0180006f          	j	80000950 <test_end>

000000008000093c <crash_forward>:
    8000093c:	0ff0000f          	fence
    80000940:	00018063          	beqz	gp,80000940 <crash_forward+0x4>
    80000944:	00119193          	slli	gp,gp,0x1
    80000948:	0011e193          	ori	gp,gp,1
    8000094c:	00000073          	ecall

0000000080000950 <test_end>:
    80000950:	0ff0000f          	fence
    80000954:	00100193          	li	gp,1
    80000958:	00000073          	ecall
    8000095c:	c0001073          	unimp
	...

Disassembly of section .tohost:

0000000080001000 <tohost>:
	...

0000000080001040 <fromhost>:
	...
