
test.elf:     file format elf64-littleriscv


Disassembly of section .text:

0000000080000000 <_start>:
    80000000:	00001097          	auipc	ra,0x1
    80000004:	00002117          	auipc	sp,0x2
    80000008:	00003197          	auipc	gp,0x3
    8000000c:	00004217          	auipc	tp,0x4
    80000010:	00005297          	auipc	t0,0x5
    80000014:	00006317          	auipc	t1,0x6
    80000018:	00007397          	auipc	t2,0x7
    8000001c:	00008417          	auipc	s0,0x8
    80000020:	00009497          	auipc	s1,0x9
    80000024:	00000517          	auipc	a0,0x0
    80000028:	0000b597          	auipc	a1,0xb
    8000002c:	0000c617          	auipc	a2,0xc
    80000030:	0000d697          	auipc	a3,0xd
    80000034:	0000e717          	auipc	a4,0xe
    80000038:	0000f797          	auipc	a5,0xf
    8000003c:	00010817          	auipc	a6,0x10
    80000040:	00011897          	auipc	a7,0x11
    80000044:	00012917          	auipc	s2,0x12
    80000048:	00013997          	auipc	s3,0x13
    8000004c:	00014a17          	auipc	s4,0x14
    80000050:	00015a97          	auipc	s5,0x15
    80000054:	00016b17          	auipc	s6,0x16
    80000058:	00017b97          	auipc	s7,0x17
    8000005c:	00018c17          	auipc	s8,0x18
    80000060:	00019c97          	auipc	s9,0x19
    80000064:	0001ad17          	auipc	s10,0x1a
    80000068:	0001bd97          	auipc	s11,0x1b
    8000006c:	0001ce17          	auipc	t3,0x1c
    80000070:	0001de97          	auipc	t4,0x1d
    80000074:	0001ef17          	auipc	t5,0x1e
    80000078:	0001ff97          	auipc	t6,0x1f
    8000007c:	80101097          	auipc	ra,0x80101
    80000080:	80102117          	auipc	sp,0x80102
    80000084:	80103197          	auipc	gp,0x80103
    80000088:	80104217          	auipc	tp,0x80104
    8000008c:	80105297          	auipc	t0,0x80105
    80000090:	80106317          	auipc	t1,0x80106
    80000094:	80107397          	auipc	t2,0x80107
    80000098:	80108417          	auipc	s0,0x80108
    8000009c:	80109497          	auipc	s1,0x80109
    800000a0:	80110517          	auipc	a0,0x80110
    800000a4:	80111597          	auipc	a1,0x80111
    800000a8:	80112617          	auipc	a2,0x80112
    800000ac:	80113697          	auipc	a3,0x80113
    800000b0:	80114717          	auipc	a4,0x80114
    800000b4:	80115797          	auipc	a5,0x80115
    800000b8:	80116817          	auipc	a6,0x80116
    800000bc:	80117897          	auipc	a7,0x80117
    800000c0:	80118917          	auipc	s2,0x80118
    800000c4:	80119997          	auipc	s3,0x80119
    800000c8:	80120a17          	auipc	s4,0x80120
    800000cc:	80121a97          	auipc	s5,0x80121
    800000d0:	80122b17          	auipc	s6,0x80122
    800000d4:	80123b97          	auipc	s7,0x80123
    800000d8:	80124c17          	auipc	s8,0x80124
    800000dc:	80125c97          	auipc	s9,0x80125
    800000e0:	80126d17          	auipc	s10,0x80126
    800000e4:	80127d97          	auipc	s11,0x80127
    800000e8:	80128e17          	auipc	t3,0x80128
    800000ec:	80129e97          	auipc	t4,0x80129
    800000f0:	80130f17          	auipc	t5,0x80130
    800000f4:	80131f97          	auipc	t6,0x80131
    800000f8:	00100513          	li	a0,1
    800000fc:	000805b7          	lui	a1,0x80
    80000100:	0015859b          	addiw	a1,a1,1
    80000104:	00c59593          	slli	a1,a1,0xc

0000000080000108 <_finish_loop>:
    80000108:	00a5a023          	sw	a0,0(a1) # 80000 <_start-0x7ff80000>
    8000010c:	ffdff06f          	j	80000108 <_finish_loop>
